ARM GAS  /tmp/ccd0hB9F.s 			page 1


   1              		.cpu cortex-m4
   2              		.eabi_attribute 27, 1
   3              		.eabi_attribute 28, 1
   4              		.eabi_attribute 20, 1
   5              		.eabi_attribute 21, 1
   6              		.eabi_attribute 23, 3
   7              		.eabi_attribute 24, 1
   8              		.eabi_attribute 25, 1
   9              		.eabi_attribute 26, 1
  10              		.eabi_attribute 30, 1
  11              		.eabi_attribute 34, 1
  12              		.eabi_attribute 18, 4
  13              		.file	"circle_limitation.c"
  14              		.text
  15              	.Ltext0:
  16              		.cfi_sections	.debug_frame
  17              		.section	.text.Circle_Limitation,"ax",%progbits
  18              		.align	1
  19              		.weak	Circle_Limitation
  20              		.arch armv7e-m
  21              		.syntax unified
  22              		.thumb
  23              		.thumb_func
  24              		.fpu fpv4-sp-d16
  26              	Circle_Limitation:
  27              	.LVL0:
  28              	.LFB1437:
  29              		.file 1 "MCSDK_v6.1.0-Full/MotorControl/MCSDK/MCLib/Any/Src/circle_limitation.c"
   1:MCSDK_v6.1.0-Full/MotorControl/MCSDK/MCLib/Any/Src/circle_limitation.c **** /**
   2:MCSDK_v6.1.0-Full/MotorControl/MCSDK/MCLib/Any/Src/circle_limitation.c ****   ******************************************************************************
   3:MCSDK_v6.1.0-Full/MotorControl/MCSDK/MCLib/Any/Src/circle_limitation.c ****   * @file    circle_limitation.c
   4:MCSDK_v6.1.0-Full/MotorControl/MCSDK/MCLib/Any/Src/circle_limitation.c ****   * @author  Motor Control SDK Team, ST Microelectronics
   5:MCSDK_v6.1.0-Full/MotorControl/MCSDK/MCLib/Any/Src/circle_limitation.c ****   * @brief   This file provides the functions that implement the circle
   6:MCSDK_v6.1.0-Full/MotorControl/MCSDK/MCLib/Any/Src/circle_limitation.c ****   *          limitation feature of the STM32 Motor Control SDK.
   7:MCSDK_v6.1.0-Full/MotorControl/MCSDK/MCLib/Any/Src/circle_limitation.c ****   *
   8:MCSDK_v6.1.0-Full/MotorControl/MCSDK/MCLib/Any/Src/circle_limitation.c ****   ******************************************************************************
   9:MCSDK_v6.1.0-Full/MotorControl/MCSDK/MCLib/Any/Src/circle_limitation.c ****   * @attention
  10:MCSDK_v6.1.0-Full/MotorControl/MCSDK/MCLib/Any/Src/circle_limitation.c ****   *
  11:MCSDK_v6.1.0-Full/MotorControl/MCSDK/MCLib/Any/Src/circle_limitation.c ****   * <h2><center>&copy; Copyright (c) 2022 STMicroelectronics.
  12:MCSDK_v6.1.0-Full/MotorControl/MCSDK/MCLib/Any/Src/circle_limitation.c ****   * All rights reserved.</center></h2>
  13:MCSDK_v6.1.0-Full/MotorControl/MCSDK/MCLib/Any/Src/circle_limitation.c ****   *
  14:MCSDK_v6.1.0-Full/MotorControl/MCSDK/MCLib/Any/Src/circle_limitation.c ****   * This software component is licensed by ST under Ultimate Liberty license
  15:MCSDK_v6.1.0-Full/MotorControl/MCSDK/MCLib/Any/Src/circle_limitation.c ****   * SLA0044, the "License"; You may not use this file except in compliance with
  16:MCSDK_v6.1.0-Full/MotorControl/MCSDK/MCLib/Any/Src/circle_limitation.c ****   * the License. You may obtain a copy of the License at:
  17:MCSDK_v6.1.0-Full/MotorControl/MCSDK/MCLib/Any/Src/circle_limitation.c ****   *                             www.st.com/SLA0044
  18:MCSDK_v6.1.0-Full/MotorControl/MCSDK/MCLib/Any/Src/circle_limitation.c ****   *
  19:MCSDK_v6.1.0-Full/MotorControl/MCSDK/MCLib/Any/Src/circle_limitation.c ****   ******************************************************************************
  20:MCSDK_v6.1.0-Full/MotorControl/MCSDK/MCLib/Any/Src/circle_limitation.c ****   * @ingroup CircleLimitation
  21:MCSDK_v6.1.0-Full/MotorControl/MCSDK/MCLib/Any/Src/circle_limitation.c ****   */
  22:MCSDK_v6.1.0-Full/MotorControl/MCSDK/MCLib/Any/Src/circle_limitation.c **** 
  23:MCSDK_v6.1.0-Full/MotorControl/MCSDK/MCLib/Any/Src/circle_limitation.c **** /* Includes ------------------------------------------------------------------*/
  24:MCSDK_v6.1.0-Full/MotorControl/MCSDK/MCLib/Any/Src/circle_limitation.c **** #include "circle_limitation.h"
  25:MCSDK_v6.1.0-Full/MotorControl/MCSDK/MCLib/Any/Src/circle_limitation.c **** #include "mc_math.h"
  26:MCSDK_v6.1.0-Full/MotorControl/MCSDK/MCLib/Any/Src/circle_limitation.c **** #include "mc_type.h"
  27:MCSDK_v6.1.0-Full/MotorControl/MCSDK/MCLib/Any/Src/circle_limitation.c **** 
  28:MCSDK_v6.1.0-Full/MotorControl/MCSDK/MCLib/Any/Src/circle_limitation.c **** /** @addtogroup MCSDK
  29:MCSDK_v6.1.0-Full/MotorControl/MCSDK/MCLib/Any/Src/circle_limitation.c ****   * @{
ARM GAS  /tmp/ccd0hB9F.s 			page 2


  30:MCSDK_v6.1.0-Full/MotorControl/MCSDK/MCLib/Any/Src/circle_limitation.c ****   */
  31:MCSDK_v6.1.0-Full/MotorControl/MCSDK/MCLib/Any/Src/circle_limitation.c **** 
  32:MCSDK_v6.1.0-Full/MotorControl/MCSDK/MCLib/Any/Src/circle_limitation.c **** /** @defgroup CircleLimitation Circle Limitation
  33:MCSDK_v6.1.0-Full/MotorControl/MCSDK/MCLib/Any/Src/circle_limitation.c ****   * @brief Circle Limitation component of the Motor Control SDK
  34:MCSDK_v6.1.0-Full/MotorControl/MCSDK/MCLib/Any/Src/circle_limitation.c ****   *
  35:MCSDK_v6.1.0-Full/MotorControl/MCSDK/MCLib/Any/Src/circle_limitation.c ****   * @{
  36:MCSDK_v6.1.0-Full/MotorControl/MCSDK/MCLib/Any/Src/circle_limitation.c ****   */
  37:MCSDK_v6.1.0-Full/MotorControl/MCSDK/MCLib/Any/Src/circle_limitation.c **** 
  38:MCSDK_v6.1.0-Full/MotorControl/MCSDK/MCLib/Any/Src/circle_limitation.c **** #if defined (CCMRAM)
  39:MCSDK_v6.1.0-Full/MotorControl/MCSDK/MCLib/Any/Src/circle_limitation.c **** #if defined (__ICCARM__)
  40:MCSDK_v6.1.0-Full/MotorControl/MCSDK/MCLib/Any/Src/circle_limitation.c **** #pragma location = ".ccmram"
  41:MCSDK_v6.1.0-Full/MotorControl/MCSDK/MCLib/Any/Src/circle_limitation.c **** #elif defined (__CC_ARM) || defined(__GNUC__)
  42:MCSDK_v6.1.0-Full/MotorControl/MCSDK/MCLib/Any/Src/circle_limitation.c **** __attribute__((section(".ccmram")))
  43:MCSDK_v6.1.0-Full/MotorControl/MCSDK/MCLib/Any/Src/circle_limitation.c **** #endif
  44:MCSDK_v6.1.0-Full/MotorControl/MCSDK/MCLib/Any/Src/circle_limitation.c **** #endif
  45:MCSDK_v6.1.0-Full/MotorControl/MCSDK/MCLib/Any/Src/circle_limitation.c **** 
  46:MCSDK_v6.1.0-Full/MotorControl/MCSDK/MCLib/Any/Src/circle_limitation.c **** #if defined CIRCLE_LIMITATION_SQRT_M0
  47:MCSDK_v6.1.0-Full/MotorControl/MCSDK/MCLib/Any/Src/circle_limitation.c **** const uint16_t SqrtTable[1025] = SQRT_CIRCLE_LIMITATION;
  48:MCSDK_v6.1.0-Full/MotorControl/MCSDK/MCLib/Any/Src/circle_limitation.c **** #endif
  49:MCSDK_v6.1.0-Full/MotorControl/MCSDK/MCLib/Any/Src/circle_limitation.c **** /**
  50:MCSDK_v6.1.0-Full/MotorControl/MCSDK/MCLib/Any/Src/circle_limitation.c ****   * @brief  Returns the saturated @f$v_q, v_d@f$ component values
  51:MCSDK_v6.1.0-Full/MotorControl/MCSDK/MCLib/Any/Src/circle_limitation.c ****   * @param  pHandle Handler of the CircleLimitation component
  52:MCSDK_v6.1.0-Full/MotorControl/MCSDK/MCLib/Any/Src/circle_limitation.c ****   * @param  Vqd @f$v_q, v_d@f$ values
  53:MCSDK_v6.1.0-Full/MotorControl/MCSDK/MCLib/Any/Src/circle_limitation.c ****   * @retval Saturated @f$v_q, v_d@f$ values
  54:MCSDK_v6.1.0-Full/MotorControl/MCSDK/MCLib/Any/Src/circle_limitation.c ****   *
  55:MCSDK_v6.1.0-Full/MotorControl/MCSDK/MCLib/Any/Src/circle_limitation.c ****   * This function implements the CircleLimitation feature described CircleLimitation component.
  56:MCSDK_v6.1.0-Full/MotorControl/MCSDK/MCLib/Any/Src/circle_limitation.c ****   *
  57:MCSDK_v6.1.0-Full/MotorControl/MCSDK/MCLib/Any/Src/circle_limitation.c ****   *  @f$v_d = \min(v_d^*, v_d MAX) @f$
  58:MCSDK_v6.1.0-Full/MotorControl/MCSDK/MCLib/Any/Src/circle_limitation.c ****   *
  59:MCSDK_v6.1.0-Full/MotorControl/MCSDK/MCLib/Any/Src/circle_limitation.c ****   *  @f$v_q = \sqrt(MaxModule^2-v_d^2\ ) @f$
  60:MCSDK_v6.1.0-Full/MotorControl/MCSDK/MCLib/Any/Src/circle_limitation.c **** 
  61:MCSDK_v6.1.0-Full/MotorControl/MCSDK/MCLib/Any/Src/circle_limitation.c ****   *
  62:MCSDK_v6.1.0-Full/MotorControl/MCSDK/MCLib/Any/Src/circle_limitation.c ****   */
  63:MCSDK_v6.1.0-Full/MotorControl/MCSDK/MCLib/Any/Src/circle_limitation.c **** __weak qd_t Circle_Limitation(const CircleLimitation_Handle_t *pHandle, qd_t Vqd)
  64:MCSDK_v6.1.0-Full/MotorControl/MCSDK/MCLib/Any/Src/circle_limitation.c **** {
  30              		.loc 1 64 1 view -0
  31              		.cfi_startproc
  32              		@ args = 0, pretend = 0, frame = 16
  33              		@ frame_needed = 0, uses_anonymous_args = 0
  34              		.loc 1 64 1 is_stmt 0 view .LVU1
  35 0000 70B5     		push	{r4, r5, r6, lr}
  36              		.cfi_def_cfa_offset 16
  37              		.cfi_offset 4, -16
  38              		.cfi_offset 5, -12
  39              		.cfi_offset 6, -8
  40              		.cfi_offset 14, -4
  41 0002 84B0     		sub	sp, sp, #16
  42              		.cfi_def_cfa_offset 32
  43 0004 0191     		str	r1, [sp, #4]
  65:MCSDK_v6.1.0-Full/MotorControl/MCSDK/MCLib/Any/Src/circle_limitation.c ****   qd_t Local_Vqd = Vqd;
  44              		.loc 1 65 3 is_stmt 1 view .LVU2
  45              		.loc 1 65 8 is_stmt 0 view .LVU3
  46 0006 0291     		str	r1, [sp, #8]
  66:MCSDK_v6.1.0-Full/MotorControl/MCSDK/MCLib/Any/Src/circle_limitation.c **** #ifdef NULL_PTR_CHECK_CRC_LIM
  67:MCSDK_v6.1.0-Full/MotorControl/MCSDK/MCLib/Any/Src/circle_limitation.c ****   if (MC_NULL == pHandle)
  68:MCSDK_v6.1.0-Full/MotorControl/MCSDK/MCLib/Any/Src/circle_limitation.c ****   {
  69:MCSDK_v6.1.0-Full/MotorControl/MCSDK/MCLib/Any/Src/circle_limitation.c ****     Local_Vqd.q = 0;
ARM GAS  /tmp/ccd0hB9F.s 			page 3


  70:MCSDK_v6.1.0-Full/MotorControl/MCSDK/MCLib/Any/Src/circle_limitation.c ****     Local_Vqd.d = 0;
  71:MCSDK_v6.1.0-Full/MotorControl/MCSDK/MCLib/Any/Src/circle_limitation.c ****   }
  72:MCSDK_v6.1.0-Full/MotorControl/MCSDK/MCLib/Any/Src/circle_limitation.c ****   else
  73:MCSDK_v6.1.0-Full/MotorControl/MCSDK/MCLib/Any/Src/circle_limitation.c ****   {
  74:MCSDK_v6.1.0-Full/MotorControl/MCSDK/MCLib/Any/Src/circle_limitation.c **** #endif
  75:MCSDK_v6.1.0-Full/MotorControl/MCSDK/MCLib/Any/Src/circle_limitation.c ****     int32_t maxModule;
  47              		.loc 1 75 5 is_stmt 1 view .LVU4
  76:MCSDK_v6.1.0-Full/MotorControl/MCSDK/MCLib/Any/Src/circle_limitation.c ****     int32_t square_q;
  48              		.loc 1 76 5 view .LVU5
  77:MCSDK_v6.1.0-Full/MotorControl/MCSDK/MCLib/Any/Src/circle_limitation.c ****     int32_t square_temp;
  49              		.loc 1 77 5 view .LVU6
  78:MCSDK_v6.1.0-Full/MotorControl/MCSDK/MCLib/Any/Src/circle_limitation.c ****     int32_t square_d;
  50              		.loc 1 78 5 view .LVU7
  79:MCSDK_v6.1.0-Full/MotorControl/MCSDK/MCLib/Any/Src/circle_limitation.c ****     int32_t square_sum;
  51              		.loc 1 79 5 view .LVU8
  80:MCSDK_v6.1.0-Full/MotorControl/MCSDK/MCLib/Any/Src/circle_limitation.c ****     int32_t square_limit;
  52              		.loc 1 80 5 view .LVU9
  81:MCSDK_v6.1.0-Full/MotorControl/MCSDK/MCLib/Any/Src/circle_limitation.c ****     int32_t vd_square_limit;
  53              		.loc 1 81 5 view .LVU10
  82:MCSDK_v6.1.0-Full/MotorControl/MCSDK/MCLib/Any/Src/circle_limitation.c ****     int32_t new_q;
  54              		.loc 1 82 5 view .LVU11
  83:MCSDK_v6.1.0-Full/MotorControl/MCSDK/MCLib/Any/Src/circle_limitation.c ****     int32_t new_d;
  55              		.loc 1 83 5 view .LVU12
  84:MCSDK_v6.1.0-Full/MotorControl/MCSDK/MCLib/Any/Src/circle_limitation.c **** 
  85:MCSDK_v6.1.0-Full/MotorControl/MCSDK/MCLib/Any/Src/circle_limitation.c ****     maxModule = (int32_t)pHandle->MaxModule;
  56              		.loc 1 85 5 view .LVU13
  57              		.loc 1 85 33 is_stmt 0 view .LVU14
  58 0008 0388     		ldrh	r3, [r0]
  59              	.LVL1:
  86:MCSDK_v6.1.0-Full/MotorControl/MCSDK/MCLib/Any/Src/circle_limitation.c **** 
  87:MCSDK_v6.1.0-Full/MotorControl/MCSDK/MCLib/Any/Src/circle_limitation.c ****     square_q = ((int32_t)(Vqd.q)) * Vqd.q;
  60              		.loc 1 87 5 is_stmt 1 view .LVU15
  61              		.loc 1 87 30 is_stmt 0 view .LVU16
  62 000a 0CB2     		sxth	r4, r1
  63              	.LVL2:
  88:MCSDK_v6.1.0-Full/MotorControl/MCSDK/MCLib/Any/Src/circle_limitation.c ****     square_d = ((int32_t)(Vqd.d)) * Vqd.d;
  64              		.loc 1 88 5 is_stmt 1 view .LVU17
  65              		.loc 1 88 30 is_stmt 0 view .LVU18
  66 000c 0D14     		asrs	r5, r1, #16
  67              		.loc 1 88 14 view .LVU19
  68 000e 05FB05F2 		mul	r2, r5, r5
  69              	.LVL3:
  89:MCSDK_v6.1.0-Full/MotorControl/MCSDK/MCLib/Any/Src/circle_limitation.c ****     square_limit = maxModule * maxModule;
  70              		.loc 1 89 5 is_stmt 1 view .LVU20
  71              		.loc 1 89 18 is_stmt 0 view .LVU21
  72 0012 03FB03F3 		mul	r3, r3, r3
  73              	.LVL4:
  90:MCSDK_v6.1.0-Full/MotorControl/MCSDK/MCLib/Any/Src/circle_limitation.c ****     vd_square_limit = ((int32_t)pHandle->MaxVd) * ((int32_t)pHandle->MaxVd);
  74              		.loc 1 90 5 is_stmt 1 view .LVU22
  75              		.loc 1 90 40 is_stmt 0 view .LVU23
  76 0016 4688     		ldrh	r6, [r0, #2]
  77              		.loc 1 90 21 view .LVU24
  78 0018 06FB06F0 		mul	r0, r6, r6
  79              	.LVL5:
  91:MCSDK_v6.1.0-Full/MotorControl/MCSDK/MCLib/Any/Src/circle_limitation.c ****     square_sum = square_q + square_d;
  80              		.loc 1 91 5 is_stmt 1 view .LVU25
  81              		.loc 1 91 16 is_stmt 0 view .LVU26
ARM GAS  /tmp/ccd0hB9F.s 			page 4


  82 001c 04FB0421 		mla	r1, r4, r4, r2
  83              	.LVL6:
  92:MCSDK_v6.1.0-Full/MotorControl/MCSDK/MCLib/Any/Src/circle_limitation.c **** 
  93:MCSDK_v6.1.0-Full/MotorControl/MCSDK/MCLib/Any/Src/circle_limitation.c ****     if (square_sum > square_limit)
  84              		.loc 1 93 5 is_stmt 1 view .LVU27
  85              		.loc 1 93 8 is_stmt 0 view .LVU28
  86 0020 8B42     		cmp	r3, r1
  87 0022 0CDA     		bge	.L2
  94:MCSDK_v6.1.0-Full/MotorControl/MCSDK/MCLib/Any/Src/circle_limitation.c ****     {
  95:MCSDK_v6.1.0-Full/MotorControl/MCSDK/MCLib/Any/Src/circle_limitation.c ****       if (square_d <= vd_square_limit)
  88              		.loc 1 95 7 is_stmt 1 view .LVU29
  89              		.loc 1 95 10 is_stmt 0 view .LVU30
  90 0024 8242     		cmp	r2, r0
  91 0026 14DD     		ble	.L8
  96:MCSDK_v6.1.0-Full/MotorControl/MCSDK/MCLib/Any/Src/circle_limitation.c ****       {
  97:MCSDK_v6.1.0-Full/MotorControl/MCSDK/MCLib/Any/Src/circle_limitation.c **** #if defined CIRCLE_LIMITATION_SQRT_M0
  98:MCSDK_v6.1.0-Full/MotorControl/MCSDK/MCLib/Any/Src/circle_limitation.c ****         square_temp = (square_limit - square_d) / 1048576;
  99:MCSDK_v6.1.0-Full/MotorControl/MCSDK/MCLib/Any/Src/circle_limitation.c ****         new_q = SqrtTable[square_temp];
 100:MCSDK_v6.1.0-Full/MotorControl/MCSDK/MCLib/Any/Src/circle_limitation.c **** #else
 101:MCSDK_v6.1.0-Full/MotorControl/MCSDK/MCLib/Any/Src/circle_limitation.c ****         square_temp = square_limit - square_d;
 102:MCSDK_v6.1.0-Full/MotorControl/MCSDK/MCLib/Any/Src/circle_limitation.c ****         new_q = MCM_Sqrt(square_temp);
 103:MCSDK_v6.1.0-Full/MotorControl/MCSDK/MCLib/Any/Src/circle_limitation.c **** #endif
 104:MCSDK_v6.1.0-Full/MotorControl/MCSDK/MCLib/Any/Src/circle_limitation.c ****         if (Vqd.q < 0)
 105:MCSDK_v6.1.0-Full/MotorControl/MCSDK/MCLib/Any/Src/circle_limitation.c ****         {
 106:MCSDK_v6.1.0-Full/MotorControl/MCSDK/MCLib/Any/Src/circle_limitation.c ****           new_q = -new_q;
 107:MCSDK_v6.1.0-Full/MotorControl/MCSDK/MCLib/Any/Src/circle_limitation.c ****         }
 108:MCSDK_v6.1.0-Full/MotorControl/MCSDK/MCLib/Any/Src/circle_limitation.c ****         new_d = Vqd.d;
 109:MCSDK_v6.1.0-Full/MotorControl/MCSDK/MCLib/Any/Src/circle_limitation.c ****       }
 110:MCSDK_v6.1.0-Full/MotorControl/MCSDK/MCLib/Any/Src/circle_limitation.c ****       else
 111:MCSDK_v6.1.0-Full/MotorControl/MCSDK/MCLib/Any/Src/circle_limitation.c ****       {
 112:MCSDK_v6.1.0-Full/MotorControl/MCSDK/MCLib/Any/Src/circle_limitation.c ****         new_d = (int32_t)pHandle->MaxVd;
  92              		.loc 1 112 9 is_stmt 1 view .LVU31
  93              	.LVL7:
 113:MCSDK_v6.1.0-Full/MotorControl/MCSDK/MCLib/Any/Src/circle_limitation.c ****         if (Vqd.d < 0)
  94              		.loc 1 113 9 view .LVU32
  95              		.loc 1 113 12 is_stmt 0 view .LVU33
  96 0028 002D     		cmp	r5, #0
  97 002a 1CDB     		blt	.L9
  98              	.L5:
 114:MCSDK_v6.1.0-Full/MotorControl/MCSDK/MCLib/Any/Src/circle_limitation.c ****         {
 115:MCSDK_v6.1.0-Full/MotorControl/MCSDK/MCLib/Any/Src/circle_limitation.c ****           new_d = -new_d;
 116:MCSDK_v6.1.0-Full/MotorControl/MCSDK/MCLib/Any/Src/circle_limitation.c ****         }
 117:MCSDK_v6.1.0-Full/MotorControl/MCSDK/MCLib/Any/Src/circle_limitation.c **** #if defined CIRCLE_LIMITATION_SQRT_M0
 118:MCSDK_v6.1.0-Full/MotorControl/MCSDK/MCLib/Any/Src/circle_limitation.c ****         square_temp = (square_limit - vd_square_limit) / 1048576;
 119:MCSDK_v6.1.0-Full/MotorControl/MCSDK/MCLib/Any/Src/circle_limitation.c ****         new_q = SqrtTable[square_temp];
 120:MCSDK_v6.1.0-Full/MotorControl/MCSDK/MCLib/Any/Src/circle_limitation.c **** #else
 121:MCSDK_v6.1.0-Full/MotorControl/MCSDK/MCLib/Any/Src/circle_limitation.c ****         square_temp = square_limit - vd_square_limit;
  99              		.loc 1 121 9 is_stmt 1 view .LVU34
 100              	.LVL8:
 122:MCSDK_v6.1.0-Full/MotorControl/MCSDK/MCLib/Any/Src/circle_limitation.c ****         new_q = MCM_Sqrt(square_temp);
 101              		.loc 1 122 9 view .LVU35
 102              		.loc 1 122 17 is_stmt 0 view .LVU36
 103 002c 181A     		subs	r0, r3, r0
 104              	.LVL9:
 105              		.loc 1 122 17 view .LVU37
 106 002e FFF7FEFF 		bl	MCM_Sqrt
 107              	.LVL10:
ARM GAS  /tmp/ccd0hB9F.s 			page 5


 123:MCSDK_v6.1.0-Full/MotorControl/MCSDK/MCLib/Any/Src/circle_limitation.c **** #endif
 124:MCSDK_v6.1.0-Full/MotorControl/MCSDK/MCLib/Any/Src/circle_limitation.c ****         if (Vqd.q < 0)
 108              		.loc 1 124 9 is_stmt 1 view .LVU38
 109              		.loc 1 124 12 is_stmt 0 view .LVU39
 110 0032 002C     		cmp	r4, #0
 111 0034 19DB     		blt	.L10
 112              	.LVL11:
 113              	.L4:
 125:MCSDK_v6.1.0-Full/MotorControl/MCSDK/MCLib/Any/Src/circle_limitation.c ****         {
 126:MCSDK_v6.1.0-Full/MotorControl/MCSDK/MCLib/Any/Src/circle_limitation.c ****           new_q = - new_q;
 127:MCSDK_v6.1.0-Full/MotorControl/MCSDK/MCLib/Any/Src/circle_limitation.c ****         }
 128:MCSDK_v6.1.0-Full/MotorControl/MCSDK/MCLib/Any/Src/circle_limitation.c ****       }
 129:MCSDK_v6.1.0-Full/MotorControl/MCSDK/MCLib/Any/Src/circle_limitation.c ****       Local_Vqd.q = (int16_t)new_q;
 114              		.loc 1 129 7 is_stmt 1 view .LVU40
 115              		.loc 1 129 19 is_stmt 0 view .LVU41
 116 0036 ADF80800 		strh	r0, [sp, #8]	@ movhi
 130:MCSDK_v6.1.0-Full/MotorControl/MCSDK/MCLib/Any/Src/circle_limitation.c ****       Local_Vqd.d = (int16_t)new_d;
 117              		.loc 1 130 7 is_stmt 1 view .LVU42
 118              		.loc 1 130 19 is_stmt 0 view .LVU43
 119 003a ADF80A60 		strh	r6, [sp, #10]	@ movhi
 120              	.LVL12:
 121              	.L2:
 131:MCSDK_v6.1.0-Full/MotorControl/MCSDK/MCLib/Any/Src/circle_limitation.c ****     }
 132:MCSDK_v6.1.0-Full/MotorControl/MCSDK/MCLib/Any/Src/circle_limitation.c **** #ifdef NULL_PTR_CHECK_CRC_LIM
 133:MCSDK_v6.1.0-Full/MotorControl/MCSDK/MCLib/Any/Src/circle_limitation.c ****   }
 134:MCSDK_v6.1.0-Full/MotorControl/MCSDK/MCLib/Any/Src/circle_limitation.c **** #endif
 135:MCSDK_v6.1.0-Full/MotorControl/MCSDK/MCLib/Any/Src/circle_limitation.c ****   return (Local_Vqd);
 122              		.loc 1 135 3 is_stmt 1 view .LVU44
 123              		.loc 1 135 10 is_stmt 0 view .LVU45
 124 003e 029B     		ldr	r3, [sp, #8]
 125 0040 0020     		movs	r0, #0
 126 0042 9AB2     		uxth	r2, r3
 127 0044 62F30F00 		bfi	r0, r2, #0, #16
 128 0048 1B0C     		lsrs	r3, r3, #16
 129 004a 63F31F40 		bfi	r0, r3, #16, #16
 136:MCSDK_v6.1.0-Full/MotorControl/MCSDK/MCLib/Any/Src/circle_limitation.c **** }
 130              		.loc 1 136 1 view .LVU46
 131 004e 04B0     		add	sp, sp, #16
 132              		.cfi_remember_state
 133              		.cfi_def_cfa_offset 16
 134              		@ sp needed
 135 0050 70BD     		pop	{r4, r5, r6, pc}
 136              	.LVL13:
 137              	.L8:
 138              		.cfi_restore_state
 101:MCSDK_v6.1.0-Full/MotorControl/MCSDK/MCLib/Any/Src/circle_limitation.c ****         new_q = MCM_Sqrt(square_temp);
 139              		.loc 1 101 9 is_stmt 1 view .LVU47
 102:MCSDK_v6.1.0-Full/MotorControl/MCSDK/MCLib/Any/Src/circle_limitation.c **** #endif
 140              		.loc 1 102 9 view .LVU48
 102:MCSDK_v6.1.0-Full/MotorControl/MCSDK/MCLib/Any/Src/circle_limitation.c **** #endif
 141              		.loc 1 102 17 is_stmt 0 view .LVU49
 142 0052 981A     		subs	r0, r3, r2
 143              	.LVL14:
 102:MCSDK_v6.1.0-Full/MotorControl/MCSDK/MCLib/Any/Src/circle_limitation.c **** #endif
 144              		.loc 1 102 17 view .LVU50
 145 0054 FFF7FEFF 		bl	MCM_Sqrt
 146              	.LVL15:
ARM GAS  /tmp/ccd0hB9F.s 			page 6


 104:MCSDK_v6.1.0-Full/MotorControl/MCSDK/MCLib/Any/Src/circle_limitation.c ****         {
 147              		.loc 1 104 9 is_stmt 1 view .LVU51
 104:MCSDK_v6.1.0-Full/MotorControl/MCSDK/MCLib/Any/Src/circle_limitation.c ****         {
 148              		.loc 1 104 12 is_stmt 0 view .LVU52
 149 0058 002C     		cmp	r4, #0
 150 005a 01DB     		blt	.L11
 108:MCSDK_v6.1.0-Full/MotorControl/MCSDK/MCLib/Any/Src/circle_limitation.c ****       }
 151              		.loc 1 108 15 view .LVU53
 152 005c 2E46     		mov	r6, r5
 153              	.LVL16:
 108:MCSDK_v6.1.0-Full/MotorControl/MCSDK/MCLib/Any/Src/circle_limitation.c ****       }
 154              		.loc 1 108 15 view .LVU54
 155 005e EAE7     		b	.L4
 156              	.LVL17:
 157              	.L11:
 106:MCSDK_v6.1.0-Full/MotorControl/MCSDK/MCLib/Any/Src/circle_limitation.c ****         }
 158              		.loc 1 106 11 is_stmt 1 view .LVU55
 106:MCSDK_v6.1.0-Full/MotorControl/MCSDK/MCLib/Any/Src/circle_limitation.c ****         }
 159              		.loc 1 106 17 is_stmt 0 view .LVU56
 160 0060 4042     		rsbs	r0, r0, #0
 161              	.LVL18:
 108:MCSDK_v6.1.0-Full/MotorControl/MCSDK/MCLib/Any/Src/circle_limitation.c ****       }
 162              		.loc 1 108 15 view .LVU57
 163 0062 2E46     		mov	r6, r5
 164              	.LVL19:
 108:MCSDK_v6.1.0-Full/MotorControl/MCSDK/MCLib/Any/Src/circle_limitation.c ****       }
 165              		.loc 1 108 15 view .LVU58
 166 0064 E7E7     		b	.L4
 167              	.LVL20:
 168              	.L9:
 115:MCSDK_v6.1.0-Full/MotorControl/MCSDK/MCLib/Any/Src/circle_limitation.c ****         }
 169              		.loc 1 115 11 is_stmt 1 view .LVU59
 115:MCSDK_v6.1.0-Full/MotorControl/MCSDK/MCLib/Any/Src/circle_limitation.c ****         }
 170              		.loc 1 115 17 is_stmt 0 view .LVU60
 171 0066 7642     		rsbs	r6, r6, #0
 172              	.LVL21:
 115:MCSDK_v6.1.0-Full/MotorControl/MCSDK/MCLib/Any/Src/circle_limitation.c ****         }
 173              		.loc 1 115 17 view .LVU61
 174 0068 E0E7     		b	.L5
 175              	.LVL22:
 176              	.L10:
 126:MCSDK_v6.1.0-Full/MotorControl/MCSDK/MCLib/Any/Src/circle_limitation.c ****         }
 177              		.loc 1 126 11 is_stmt 1 view .LVU62
 126:MCSDK_v6.1.0-Full/MotorControl/MCSDK/MCLib/Any/Src/circle_limitation.c ****         }
 178              		.loc 1 126 17 is_stmt 0 view .LVU63
 179 006a 4042     		rsbs	r0, r0, #0
 180              	.LVL23:
 126:MCSDK_v6.1.0-Full/MotorControl/MCSDK/MCLib/Any/Src/circle_limitation.c ****         }
 181              		.loc 1 126 17 view .LVU64
 182 006c E3E7     		b	.L4
 183              		.cfi_endproc
 184              	.LFE1437:
 186              		.text
 187              	.Letext0:
 188              		.file 2 "/usr/lib/gcc/arm-none-eabi/9.2.1/include/stdint.h"
 189              		.file 3 "Drivers/CMSIS/Include/core_cm4.h"
 190              		.file 4 "Drivers/CMSIS/Device/ST/STM32G4xx/Include/system_stm32g4xx.h"
ARM GAS  /tmp/ccd0hB9F.s 			page 7


 191              		.file 5 "Drivers/STM32G4xx_HAL_Driver/Inc/stm32g4xx_hal_def.h"
 192              		.file 6 "Drivers/STM32G4xx_HAL_Driver/Inc/stm32g4xx_hal_flash.h"
 193              		.file 7 "Drivers/STM32G4xx_HAL_Driver/Inc/stm32g4xx_hal.h"
 194              		.file 8 "Drivers/STM32G4xx_HAL_Driver/Inc/stm32g4xx_ll_tim.h"
 195              		.file 9 "Drivers/STM32G4xx_HAL_Driver/Inc/stm32g4xx_ll_usart.h"
 196              		.file 10 "Drivers/STM32G4xx_HAL_Driver/Inc/stm32g4xx_ll_dma.h"
 197              		.file 11 "MCSDK_v6.1.0-Full/MotorControl/MCSDK/MCLib/Any/Inc/mc_type.h"
 198              		.file 12 "MCSDK_v6.1.0-Full/MotorControl/MCSDK/MCLib/Any/Inc/circle_limitation.h"
 199              		.file 13 "Inc/mc_math.h"
ARM GAS  /tmp/ccd0hB9F.s 			page 8

