ARM GAS  /tmp/ccL1GIPz.s 			page 1


   1              		.cpu cortex-m4
   2              		.eabi_attribute 27, 1
   3              		.eabi_attribute 28, 1
   4              		.eabi_attribute 20, 1
   5              		.eabi_attribute 21, 1
   6              		.eabi_attribute 23, 3
   7              		.eabi_attribute 24, 1
   8              		.eabi_attribute 25, 1
   9              		.eabi_attribute 26, 1
  10              		.eabi_attribute 30, 1
  11              		.eabi_attribute 34, 1
  12              		.eabi_attribute 18, 4
  13              		.file	"mc_api.c"
  14              		.text
  15              	.Ltext0:
  16              		.cfi_sections	.debug_frame
  17              		.section	.text.getStartMotorTick,"ax",%progbits
  18              		.align	1
  19              		.global	getStartMotorTick
  20              		.arch armv7e-m
  21              		.syntax unified
  22              		.thumb
  23              		.thumb_func
  24              		.fpu fpv4-sp-d16
  26              	getStartMotorTick:
  27              	.LFB1435:
  28              		.file 1 "Src/mc_api.c"
   1:Src/mc_api.c  **** 
   2:Src/mc_api.c  **** /**
   3:Src/mc_api.c  ****   ******************************************************************************
   4:Src/mc_api.c  ****   * @file    mc_api.c
   5:Src/mc_api.c  ****   * @author  Motor Control SDK Team, ST Microelectronics
   6:Src/mc_api.c  ****   * @brief   This file implements the high level interface of the Motor Control SDK.
   7:Src/mc_api.c  ****   ******************************************************************************
   8:Src/mc_api.c  ****   * @attention
   9:Src/mc_api.c  ****   *
  10:Src/mc_api.c  ****   * <h2><center>&copy; Copyright (c) 2022 STMicroelectronics.
  11:Src/mc_api.c  ****   * All rights reserved.</center></h2>
  12:Src/mc_api.c  ****   *
  13:Src/mc_api.c  ****   * This software component is licensed by ST under Ultimate Liberty license
  14:Src/mc_api.c  ****   * SLA0044, the "License"; You may not use this file except in compliance with
  15:Src/mc_api.c  ****   * the License. You may obtain a copy of the License at:
  16:Src/mc_api.c  ****   *                             www.st.com/SLA0044
  17:Src/mc_api.c  ****   *
  18:Src/mc_api.c  ****   ******************************************************************************
  19:Src/mc_api.c  ****   */
  20:Src/mc_api.c  **** 
  21:Src/mc_api.c  **** #include "mc_interface.h"
  22:Src/mc_api.c  **** #include "mc_api.h"
  23:Src/mc_api.c  **** #include "mc_config.h"
  24:Src/mc_api.c  **** #include "debug_scope.h"
  25:Src/mc_api.c  **** #include "mcp.h"
  26:Src/mc_api.c  **** 
  27:Src/mc_api.c  **** static int64_t startMotorTime = -1;
  28:Src/mc_api.c  **** /** @addtogroup MCSDK
  29:Src/mc_api.c  ****   * @{
  30:Src/mc_api.c  ****   */
ARM GAS  /tmp/ccL1GIPz.s 			page 2


  31:Src/mc_api.c  **** 
  32:Src/mc_api.c  **** /** @defgroup MCIAPI Motor Control API
  33:Src/mc_api.c  ****   *
  34:Src/mc_api.c  ****   * @brief High level Programming Interface of the Motor Control SDK
  35:Src/mc_api.c  ****   *
  36:Src/mc_api.c  ****   *  This interface allows for performing basic operations on the motor(s) driven by an
  37:Src/mc_api.c  ****   * Motor Control SDK based application. With it, motors can be started and stopped, speed or
  38:Src/mc_api.c  ****   * torque ramps can be programmed and executed and information on the state of the motors can
  39:Src/mc_api.c  ****   * be retrieved, among others.
  40:Src/mc_api.c  ****   *
  41:Src/mc_api.c  ****   *  This interface consists in functions that target a specific motor, indicated in their name.
  42:Src/mc_api.c  ****   * These functions aims at being the main interface used by an Application to control motors.
  43:Src/mc_api.c  ****   *
  44:Src/mc_api.c  ****   *  The current Motor Control API can cope with up to 2 motors.
  45:Src/mc_api.c  ****   * @{
  46:Src/mc_api.c  ****   */
  47:Src/mc_api.c  **** int64_t getStartMotorTick()
  48:Src/mc_api.c  **** {
  29              		.loc 1 48 1 view -0
  30              		.cfi_startproc
  31              		@ args = 0, pretend = 0, frame = 0
  32              		@ frame_needed = 0, uses_anonymous_args = 0
  33              		@ link register save eliminated.
  49:Src/mc_api.c  ****   return startMotorTime;
  34              		.loc 1 49 3 view .LVU1
  50:Src/mc_api.c  **** }
  35              		.loc 1 50 1 is_stmt 0 view .LVU2
  36 0000 014B     		ldr	r3, .L2
  37 0002 D3E90001 		ldrd	r0, [r3]
  38 0006 7047     		bx	lr
  39              	.L3:
  40              		.align	2
  41              	.L2:
  42 0008 00000000 		.word	.LANCHOR0
  43              		.cfi_endproc
  44              	.LFE1435:
  46              		.section	.text.MC_StartMotor1,"ax",%progbits
  47              		.align	1
  48              		.weak	MC_StartMotor1
  49              		.syntax unified
  50              		.thumb
  51              		.thumb_func
  52              		.fpu fpv4-sp-d16
  54              	MC_StartMotor1:
  55              	.LFB1436:
  51:Src/mc_api.c  **** 
  52:Src/mc_api.c  **** /**
  53:Src/mc_api.c  ****   * @brief  Initiates the start-up procedure for Motor 1
  54:Src/mc_api.c  ****   *
  55:Src/mc_api.c  ****   * If the state machine of Motor 1 is in #IDLE state, the command is immediately
  56:Src/mc_api.c  ****   * executed. Otherwise the command is discarded. The Application can check the
  57:Src/mc_api.c  ****   * return value to know whether the command was executed or discarded.
  58:Src/mc_api.c  ****   *
  59:Src/mc_api.c  ****   * One of the following commands must be executed before calling MC_StartMotor1():
  60:Src/mc_api.c  ****   *
  61:Src/mc_api.c  ****   * - MC_ProgramSpeedRampMotor1()
  62:Src/mc_api.c  ****   * - MC_ProgramTorqueRampMotor1()
ARM GAS  /tmp/ccL1GIPz.s 			page 3


  63:Src/mc_api.c  ****   * - MC_SetCurrentReferenceMotor1()
  64:Src/mc_api.c  ****   *
  65:Src/mc_api.c  ****   * Failing to do so results in an unpredictable behaviour.
  66:Src/mc_api.c  ****   *
  67:Src/mc_api.c  ****   * @note The MC_StartMotor1() command only triggers the start-up procedure:
  68:Src/mc_api.c  ****   * It moves Motor 1's state machine from the #IDLE to the #IDLE_START state and then
  69:Src/mc_api.c  ****   * returns. It is not blocking the application until the motor is indeed running.
  70:Src/mc_api.c  ****   * To know if it is running, the application can query Motor 1's state machine and
  71:Src/mc_api.c  ****   * check if it has reached the #RUN state. See MC_GetSTMStateMotor1() for more details.
  72:Src/mc_api.c  ****   *
  73:Src/mc_api.c  ****   * @retval returns true if the command is successfully executed, false otherwise.
  74:Src/mc_api.c  ****   */
  75:Src/mc_api.c  **** __weak bool MC_StartMotor1(void)
  76:Src/mc_api.c  **** {
  56              		.loc 1 76 1 is_stmt 1 view -0
  57              		.cfi_startproc
  58              		@ args = 0, pretend = 0, frame = 0
  59              		@ frame_needed = 0, uses_anonymous_args = 0
  60 0000 08B5     		push	{r3, lr}
  61              		.cfi_def_cfa_offset 8
  62              		.cfi_offset 3, -8
  63              		.cfi_offset 14, -4
  77:Src/mc_api.c  ****   startMotorTime = getTickMSCounter();
  64              		.loc 1 77 3 view .LVU4
  65              		.loc 1 77 20 is_stmt 0 view .LVU5
  66 0002 FFF7FEFF 		bl	getTickMSCounter
  67              	.LVL0:
  68              		.loc 1 77 18 view .LVU6
  69 0006 044B     		ldr	r3, .L6
  70 0008 C3E90001 		strd	r0, [r3]
  78:Src/mc_api.c  **** 	return MCI_StartMotor( pMCI[M1] );
  71              		.loc 1 78 2 is_stmt 1 view .LVU7
  72              		.loc 1 78 9 is_stmt 0 view .LVU8
  73 000c 034B     		ldr	r3, .L6+4
  74 000e 1868     		ldr	r0, [r3]
  75 0010 FFF7FEFF 		bl	MCI_StartMotor
  76              	.LVL1:
  79:Src/mc_api.c  **** }
  77              		.loc 1 79 1 view .LVU9
  78 0014 08BD     		pop	{r3, pc}
  79              	.L7:
  80 0016 00BF     		.align	2
  81              	.L6:
  82 0018 00000000 		.word	.LANCHOR0
  83 001c 00000000 		.word	pMCI
  84              		.cfi_endproc
  85              	.LFE1436:
  87              		.section	.text.MC_StopMotor1,"ax",%progbits
  88              		.align	1
  89              		.weak	MC_StopMotor1
  90              		.syntax unified
  91              		.thumb
  92              		.thumb_func
  93              		.fpu fpv4-sp-d16
  95              	MC_StopMotor1:
  96              	.LFB1437:
  80:Src/mc_api.c  **** 
ARM GAS  /tmp/ccL1GIPz.s 			page 4


  81:Src/mc_api.c  **** /**
  82:Src/mc_api.c  ****   * @brief  Initiates the stop procedure for Motor 1.
  83:Src/mc_api.c  ****   *
  84:Src/mc_api.c  ****   *  If the state machine is in #RUN or #START states the command is immediately
  85:Src/mc_api.c  ****   * executed. Otherwise, the command is discarded. The Application can check the
  86:Src/mc_api.c  ****   * return value to know whether the command was executed or discarded.
  87:Src/mc_api.c  ****   *
  88:Src/mc_api.c  ****   * @note The MCI_StopMotor1() command only triggers the stop motor procedure
  89:Src/mc_api.c  ****   * moving Motor 1's state machine to #ANY_STOP and then returns. It is not
  90:Src/mc_api.c  ****   * blocking the application until the motor is indeed stopped. To know if it has
  91:Src/mc_api.c  ****   * stopped, the application can query Motor 1's state machine ans check if the
  92:Src/mc_api.c  ****   * #IDLE state has been reached back.
  93:Src/mc_api.c  ****   *
  94:Src/mc_api.c  ****   * @retval returns true if the command is successfully executed, false otherwise.
  95:Src/mc_api.c  ****   */
  96:Src/mc_api.c  **** __weak bool MC_StopMotor1(void)
  97:Src/mc_api.c  **** {
  97              		.loc 1 97 1 is_stmt 1 view -0
  98              		.cfi_startproc
  99              		@ args = 0, pretend = 0, frame = 0
 100              		@ frame_needed = 0, uses_anonymous_args = 0
 101 0000 08B5     		push	{r3, lr}
 102              		.cfi_def_cfa_offset 8
 103              		.cfi_offset 3, -8
 104              		.cfi_offset 14, -4
  98:Src/mc_api.c  **** 	return MCI_StopMotor( pMCI[M1] );
 105              		.loc 1 98 2 view .LVU11
 106              		.loc 1 98 9 is_stmt 0 view .LVU12
 107 0002 024B     		ldr	r3, .L10
 108 0004 1868     		ldr	r0, [r3]
 109 0006 FFF7FEFF 		bl	MCI_StopMotor
 110              	.LVL2:
  99:Src/mc_api.c  **** }
 111              		.loc 1 99 1 view .LVU13
 112 000a 08BD     		pop	{r3, pc}
 113              	.L11:
 114              		.align	2
 115              	.L10:
 116 000c 00000000 		.word	pMCI
 117              		.cfi_endproc
 118              	.LFE1437:
 120              		.section	.text.MC_ProgramSpeedRampMotor1,"ax",%progbits
 121              		.align	1
 122              		.weak	MC_ProgramSpeedRampMotor1
 123              		.syntax unified
 124              		.thumb
 125              		.thumb_func
 126              		.fpu fpv4-sp-d16
 128              	MC_ProgramSpeedRampMotor1:
 129              	.LVL3:
 130              	.LFB1438:
 100:Src/mc_api.c  **** 
 101:Src/mc_api.c  **** /**
 102:Src/mc_api.c  ****   * @brief Programs a speed ramp for Motor 1 for later or immediate execution.
 103:Src/mc_api.c  ****   *
 104:Src/mc_api.c  ****   *  A speed ramp is a linear change from the current speed reference to the @p hFinalSpeed
 105:Src/mc_api.c  ****   * target speed in the given @p hDurationms time.
ARM GAS  /tmp/ccL1GIPz.s 			page 5


 106:Src/mc_api.c  ****   *
 107:Src/mc_api.c  ****   *  Invoking the MC_ProgramSpeedRampMotor1() function programs a new speed ramp
 108:Src/mc_api.c  ****   * with the provided parameters. The programmed ramp is executed immediately if
 109:Src/mc_api.c  ****   * Motor 1's state machine is in the #START_RUN or #RUN states. Otherwise, the
 110:Src/mc_api.c  ****   * ramp is buffered and will be executed when the state machine reaches any of
 111:Src/mc_api.c  ****   * the aforementioned state.
 112:Src/mc_api.c  ****   *
 113:Src/mc_api.c  ****   *  The Application can check the status of the command with the MC_GetCommandStateMotor1()
 114:Src/mc_api.c  ****   * to know whether the last command was executed immediately or not.
 115:Src/mc_api.c  ****   *
 116:Src/mc_api.c  ****   * Only one command can be buffered at any given time. If another ramp - whether a
 117:Src/mc_api.c  ****   * speed or a torque one - or if another buffered command is programmed before the
 118:Src/mc_api.c  ****   * current one has completed, the latter replaces the former.
 119:Src/mc_api.c  ****   *
 120:Src/mc_api.c  ****   * @note A ramp cannot reverse the rotation direction if the Application is using
 121:Src/mc_api.c  ****   * sensorless motor control techniques. If the sign of the hFinalSpeed parameter
 122:Src/mc_api.c  ****   * differs from that of the current speed, the ramp will not complete and a Speed
 123:Src/mc_api.c  ****   * Feedback error (#MC_SPEED_FDBK) will occur when the rotation speed is about to
 124:Src/mc_api.c  ****   * reach 0 rpm.
 125:Src/mc_api.c  ****   *
 126:Src/mc_api.c  ****   * @param  hFinalSpeed Mechanical rotor speed reference at the end of the ramp.
 127:Src/mc_api.c  ****   *                     Expressed in the unit defined by #SPEED_UNIT.
 128:Src/mc_api.c  ****   * @param  hDurationms Duration of the ramp expressed in milliseconds. It
 129:Src/mc_api.c  ****   *         is possible to set 0 to perform an instantaneous change in the speed
 130:Src/mc_api.c  ****   *         value.
 131:Src/mc_api.c  ****   */
 132:Src/mc_api.c  **** __weak void MC_ProgramSpeedRampMotor1( int16_t hFinalSpeed, uint16_t hDurationms )
 133:Src/mc_api.c  **** {
 131              		.loc 1 133 1 is_stmt 1 view -0
 132              		.cfi_startproc
 133              		@ args = 0, pretend = 0, frame = 0
 134              		@ frame_needed = 0, uses_anonymous_args = 0
 135              		.loc 1 133 1 is_stmt 0 view .LVU15
 136 0000 08B5     		push	{r3, lr}
 137              		.cfi_def_cfa_offset 8
 138              		.cfi_offset 3, -8
 139              		.cfi_offset 14, -4
 140 0002 0A46     		mov	r2, r1
 134:Src/mc_api.c  **** 	MCI_ExecSpeedRamp( pMCI[M1], hFinalSpeed, hDurationms );
 141              		.loc 1 134 2 is_stmt 1 view .LVU16
 142 0004 0146     		mov	r1, r0
 143              	.LVL4:
 144              		.loc 1 134 2 is_stmt 0 view .LVU17
 145 0006 024B     		ldr	r3, .L14
 146 0008 1868     		ldr	r0, [r3]
 147              	.LVL5:
 148              		.loc 1 134 2 view .LVU18
 149 000a FFF7FEFF 		bl	MCI_ExecSpeedRamp
 150              	.LVL6:
 135:Src/mc_api.c  **** }
 151              		.loc 1 135 1 view .LVU19
 152 000e 08BD     		pop	{r3, pc}
 153              	.L15:
 154              		.align	2
 155              	.L14:
 156 0010 00000000 		.word	pMCI
 157              		.cfi_endproc
ARM GAS  /tmp/ccL1GIPz.s 			page 6


 158              	.LFE1438:
 160              		.section	.text.MC_ProgramSpeedSinMotor1,"ax",%progbits
 161              		.align	1
 162              		.weak	MC_ProgramSpeedSinMotor1
 163              		.syntax unified
 164              		.thumb
 165              		.thumb_func
 166              		.fpu fpv4-sp-d16
 168              	MC_ProgramSpeedSinMotor1:
 169              	.LVL7:
 170              	.LFB1439:
 136:Src/mc_api.c  **** 
 137:Src/mc_api.c  **** __weak void MC_ProgramSpeedSinMotor1( const int16_t hFinalSpeedMean, const uint16_t hFinalSpeedAmp,
 138:Src/mc_api.c  **** {
 171              		.loc 1 138 1 is_stmt 1 view -0
 172              		.cfi_startproc
 173              		@ args = 0, pretend = 0, frame = 0
 174              		@ frame_needed = 0, uses_anonymous_args = 0
 175              		.loc 1 138 1 is_stmt 0 view .LVU21
 176 0000 08B5     		push	{r3, lr}
 177              		.cfi_def_cfa_offset 8
 178              		.cfi_offset 3, -8
 179              		.cfi_offset 14, -4
 180 0002 1346     		mov	r3, r2
 139:Src/mc_api.c  **** 	MCI_ExecSpeedSin( pMCI[M1], hFinalSpeedMean, hFinalSpeedAmp, hPhase );
 181              		.loc 1 139 2 is_stmt 1 view .LVU22
 182 0004 0A46     		mov	r2, r1
 183              	.LVL8:
 184              		.loc 1 139 2 is_stmt 0 view .LVU23
 185 0006 0146     		mov	r1, r0
 186              	.LVL9:
 187              		.loc 1 139 2 view .LVU24
 188 0008 0248     		ldr	r0, .L18
 189              	.LVL10:
 190              		.loc 1 139 2 view .LVU25
 191 000a 0068     		ldr	r0, [r0]
 192 000c FFF7FEFF 		bl	MCI_ExecSpeedSin
 193              	.LVL11:
 140:Src/mc_api.c  **** }
 194              		.loc 1 140 1 view .LVU26
 195 0010 08BD     		pop	{r3, pc}
 196              	.L19:
 197 0012 00BF     		.align	2
 198              	.L18:
 199 0014 00000000 		.word	pMCI
 200              		.cfi_endproc
 201              	.LFE1439:
 203              		.section	.text.MC_ProgramSpeedRampMotor1_F,"ax",%progbits
 204              		.align	1
 205              		.weak	MC_ProgramSpeedRampMotor1_F
 206              		.syntax unified
 207              		.thumb
 208              		.thumb_func
 209              		.fpu fpv4-sp-d16
 211              	MC_ProgramSpeedRampMotor1_F:
 212              	.LVL12:
 213              	.LFB1440:
ARM GAS  /tmp/ccL1GIPz.s 			page 7


 141:Src/mc_api.c  **** /**
 142:Src/mc_api.c  ****   * @brief Programs a speed ramp for Motor 1 for later or immediate execution.
 143:Src/mc_api.c  ****   *
 144:Src/mc_api.c  ****   *  A speed ramp is a linear change from the current speed reference to the @p FinalSpeed
 145:Src/mc_api.c  ****   * target speed in the given @p hDurationms time.
 146:Src/mc_api.c  ****   *
 147:Src/mc_api.c  ****   *  Invoking the MC_ProgramSpeedRampMotor1() function programs a new speed ramp
 148:Src/mc_api.c  ****   * with the provided parameters. The programmed ramp is executed immediately if
 149:Src/mc_api.c  ****   * Motor 1's state machine is in the #START_RUN or #RUN states. Otherwise, the
 150:Src/mc_api.c  ****   * ramp is buffered and will be executed when the state machine reaches any of
 151:Src/mc_api.c  ****   * the aforementioned state.
 152:Src/mc_api.c  ****   *
 153:Src/mc_api.c  ****   *  The Application can check the status of the command with the MC_GetCommandStateMotor1()
 154:Src/mc_api.c  ****   * to know whether the last command was executed immediately or not.
 155:Src/mc_api.c  ****   *
 156:Src/mc_api.c  ****   * Only one command can be buffered at any given time. If another ramp - whether a
 157:Src/mc_api.c  ****   * speed or a torque one - or if another buffered command is programmed before the
 158:Src/mc_api.c  ****   * current one has completed, the latter replaces the former.
 159:Src/mc_api.c  ****   *
 160:Src/mc_api.c  ****   * @note A ramp cannot reverse the rotation direction if the Application is using
 161:Src/mc_api.c  ****   * sensorless motor control techniques. If the sign of the hFinalSpeed parameter
 162:Src/mc_api.c  ****   * differs from that of the current speed, the ramp will not complete and a Speed
 163:Src/mc_api.c  ****   * Feedback error (#MC_SPEED_FDBK) will occur when the rotation speed is about to
 164:Src/mc_api.c  ****   * reach 0 rpm.
 165:Src/mc_api.c  ****   *
 166:Src/mc_api.c  ****   * @param  FinalSpeed Mechanical rotor speed reference at the end of the ramp.
 167:Src/mc_api.c  ****   *         Expressed in rpm.
 168:Src/mc_api.c  ****   * @param  hDurationms Duration of the ramp expressed in milliseconds. It
 169:Src/mc_api.c  ****   *         is possible to set 0 to perform an instantaneous change in the speed
 170:Src/mc_api.c  ****   *         value.
 171:Src/mc_api.c  ****   */
 172:Src/mc_api.c  **** __weak void MC_ProgramSpeedRampMotor1_F( float FinalSpeed, uint16_t hDurationms )
 173:Src/mc_api.c  **** {
 214              		.loc 1 173 1 is_stmt 1 view -0
 215              		.cfi_startproc
 216              		@ args = 0, pretend = 0, frame = 0
 217              		@ frame_needed = 0, uses_anonymous_args = 0
 218              		.loc 1 173 1 is_stmt 0 view .LVU28
 219 0000 08B5     		push	{r3, lr}
 220              		.cfi_def_cfa_offset 8
 221              		.cfi_offset 3, -8
 222              		.cfi_offset 14, -4
 223 0002 0146     		mov	r1, r0
 174:Src/mc_api.c  **** 	MCI_ExecSpeedRamp_F( pMCI[M1], FinalSpeed, hDurationms );
 224              		.loc 1 174 2 is_stmt 1 view .LVU29
 225 0004 024B     		ldr	r3, .L22
 226 0006 1868     		ldr	r0, [r3]
 227              	.LVL13:
 228              		.loc 1 174 2 is_stmt 0 view .LVU30
 229 0008 FFF7FEFF 		bl	MCI_ExecSpeedRamp_F
 230              	.LVL14:
 175:Src/mc_api.c  **** }
 231              		.loc 1 175 1 view .LVU31
 232 000c 08BD     		pop	{r3, pc}
 233              	.L23:
 234 000e 00BF     		.align	2
 235              	.L22:
ARM GAS  /tmp/ccL1GIPz.s 			page 8


 236 0010 00000000 		.word	pMCI
 237              		.cfi_endproc
 238              	.LFE1440:
 240              		.section	.text.MC_ProgramTorqueRampMotor1,"ax",%progbits
 241              		.align	1
 242              		.weak	MC_ProgramTorqueRampMotor1
 243              		.syntax unified
 244              		.thumb
 245              		.thumb_func
 246              		.fpu fpv4-sp-d16
 248              	MC_ProgramTorqueRampMotor1:
 249              	.LVL15:
 250              	.LFB1441:
 176:Src/mc_api.c  **** 
 177:Src/mc_api.c  **** /**
 178:Src/mc_api.c  ****   * @brief Programs a torque ramp for Motor 1 for later or immediate execution.
 179:Src/mc_api.c  ****   *
 180:Src/mc_api.c  ****   *  A torque ramp is a linear change from the current torque reference to the @p hFinalTorque
 181:Src/mc_api.c  ****   * target torque reference in the given @p hDurationms time.
 182:Src/mc_api.c  ****   *
 183:Src/mc_api.c  ****   *  Invoking the MC_ProgramTorqueRampMotor1() function programs a new torque ramp
 184:Src/mc_api.c  ****   * with the provided parameters. The programmed ramp is executed immediately if
 185:Src/mc_api.c  ****   * Motor 1's state machine is in the #START_RUN or #RUN states. Otherwise, the
 186:Src/mc_api.c  ****   * ramp is buffered and will be executed when the state machine reaches any of
 187:Src/mc_api.c  ****   * the aforementioned state.
 188:Src/mc_api.c  ****   *
 189:Src/mc_api.c  ****   *  The Application can check the status of the command with the MC_GetCommandStateMotor1()
 190:Src/mc_api.c  ****   * to know whether the last command was executed immediately or not.
 191:Src/mc_api.c  ****   *
 192:Src/mc_api.c  ****   * Only one command can be buffered at any given time. If another ramp - whether a
 193:Src/mc_api.c  ****   * torque or a speed one - or if another buffered command is programmed before the
 194:Src/mc_api.c  ****   * current one has completed, the latter replaces the former.
 195:Src/mc_api.c  ****   *
 196:Src/mc_api.c  ****   * @note A ramp cannot reverse the rotation direction if the Application is using
 197:Src/mc_api.c  ****   * sensorless motor control techniques. If the sign of the hFinalTorque parameter
 198:Src/mc_api.c  ****   * differs from that of the current torque, the ramp will not complete and a Speed
 199:Src/mc_api.c  ****   * Feedback error (#MC_SPEED_FDBK) will occur when the rotation speed is about to
 200:Src/mc_api.c  ****   * reach 0 rpm.
 201:Src/mc_api.c  ****   *
 202:Src/mc_api.c  ****   * @param  hFinalTorque Mechanical motor torque reference at the end of the ramp.
 203:Src/mc_api.c  ****   *         This value represents actually the Iq current expressed in digit.
 204:Src/mc_api.c  ****   * @param  hDurationms Duration of the ramp expressed in milliseconds. It
 205:Src/mc_api.c  ****   *         is possible to set 0 to perform an instantaneous change in the torque
 206:Src/mc_api.c  ****   *         value.
 207:Src/mc_api.c  ****   */
 208:Src/mc_api.c  **** __weak void MC_ProgramTorqueRampMotor1( int16_t hFinalTorque, uint16_t hDurationms )
 209:Src/mc_api.c  **** {
 251              		.loc 1 209 1 is_stmt 1 view -0
 252              		.cfi_startproc
 253              		@ args = 0, pretend = 0, frame = 0
 254              		@ frame_needed = 0, uses_anonymous_args = 0
 255              		.loc 1 209 1 is_stmt 0 view .LVU33
 256 0000 08B5     		push	{r3, lr}
 257              		.cfi_def_cfa_offset 8
 258              		.cfi_offset 3, -8
 259              		.cfi_offset 14, -4
 260 0002 0A46     		mov	r2, r1
ARM GAS  /tmp/ccL1GIPz.s 			page 9


 210:Src/mc_api.c  **** 	MCI_ExecTorqueRamp( pMCI[M1], hFinalTorque, hDurationms );
 261              		.loc 1 210 2 is_stmt 1 view .LVU34
 262 0004 0146     		mov	r1, r0
 263              	.LVL16:
 264              		.loc 1 210 2 is_stmt 0 view .LVU35
 265 0006 024B     		ldr	r3, .L26
 266 0008 1868     		ldr	r0, [r3]
 267              	.LVL17:
 268              		.loc 1 210 2 view .LVU36
 269 000a FFF7FEFF 		bl	MCI_ExecTorqueRamp
 270              	.LVL18:
 211:Src/mc_api.c  **** }
 271              		.loc 1 211 1 view .LVU37
 272 000e 08BD     		pop	{r3, pc}
 273              	.L27:
 274              		.align	2
 275              	.L26:
 276 0010 00000000 		.word	pMCI
 277              		.cfi_endproc
 278              	.LFE1441:
 280              		.section	.text.MC_ProgramTorqueRampMotor1_F,"ax",%progbits
 281              		.align	1
 282              		.weak	MC_ProgramTorqueRampMotor1_F
 283              		.syntax unified
 284              		.thumb
 285              		.thumb_func
 286              		.fpu fpv4-sp-d16
 288              	MC_ProgramTorqueRampMotor1_F:
 289              	.LVL19:
 290              	.LFB1442:
 212:Src/mc_api.c  **** 
 213:Src/mc_api.c  **** /**
 214:Src/mc_api.c  ****   * @brief Programs a torque ramp for Motor 1 for later or immediate execution.
 215:Src/mc_api.c  ****   *
 216:Src/mc_api.c  ****   *  A torque ramp is a linear change from the current torque reference to the @p FinalTorque
 217:Src/mc_api.c  ****   * target torque reference in the given @p hDurationms time.
 218:Src/mc_api.c  ****   *
 219:Src/mc_api.c  ****   *  Invoking the MC_ProgramTorqueRampMotor1() function programs a new torque ramp
 220:Src/mc_api.c  ****   * with the provided parameters. The programmed ramp is executed immediately if
 221:Src/mc_api.c  ****   * Motor 1's state machine is in the #START_RUN or #RUN states. Otherwise, the
 222:Src/mc_api.c  ****   * ramp is buffered and will be executed when the state machine reaches any of
 223:Src/mc_api.c  ****   * the aforementioned state.
 224:Src/mc_api.c  ****   *
 225:Src/mc_api.c  ****   *  The Application can check the status of the command with the MC_GetCommandStateMotor1()
 226:Src/mc_api.c  ****   * to know whether the last command was executed immediately or not.
 227:Src/mc_api.c  ****   *
 228:Src/mc_api.c  ****   * Only one command can be buffered at any given time. If another ramp - whether a
 229:Src/mc_api.c  ****   * torque or a speed one - or if another buffered command is programmed before the
 230:Src/mc_api.c  ****   * current one has completed, the latter replaces the former.
 231:Src/mc_api.c  ****   *
 232:Src/mc_api.c  ****   * @note A ramp cannot reverse the rotation direction if the Application is using
 233:Src/mc_api.c  ****   * sensorless motor control techniques. If the sign of the FinalTorque parameter
 234:Src/mc_api.c  ****   * differs from that of the current torque, the ramp will not complete and a Speed
 235:Src/mc_api.c  ****   * Feedback error (#MC_SPEED_FDBK) will occur when the rotation speed is about to
 236:Src/mc_api.c  ****   * reach 0 rpm.
 237:Src/mc_api.c  ****   *
 238:Src/mc_api.c  ****   * @param  FinalTorque Mechanical motor torque reference at the end of the ramp.
ARM GAS  /tmp/ccL1GIPz.s 			page 10


 239:Src/mc_api.c  ****   *         This value represents actually the Iq current expressed in Ampere.
 240:Src/mc_api.c  ****   * @param  hDurationms Duration of the ramp expressed in milliseconds. It
 241:Src/mc_api.c  ****   *         is possible to set 0 to perform an instantaneous change in the torque
 242:Src/mc_api.c  ****   *         value.
 243:Src/mc_api.c  ****   */
 244:Src/mc_api.c  **** __weak void MC_ProgramTorqueRampMotor1_F( float FinalTorque, uint16_t hDurationms )
 245:Src/mc_api.c  **** {
 291              		.loc 1 245 1 is_stmt 1 view -0
 292              		.cfi_startproc
 293              		@ args = 0, pretend = 0, frame = 0
 294              		@ frame_needed = 0, uses_anonymous_args = 0
 295              		.loc 1 245 1 is_stmt 0 view .LVU39
 296 0000 08B5     		push	{r3, lr}
 297              		.cfi_def_cfa_offset 8
 298              		.cfi_offset 3, -8
 299              		.cfi_offset 14, -4
 300 0002 0146     		mov	r1, r0
 246:Src/mc_api.c  **** 	MCI_ExecTorqueRamp_F( pMCI[M1], FinalTorque, hDurationms );
 301              		.loc 1 246 2 is_stmt 1 view .LVU40
 302 0004 024B     		ldr	r3, .L30
 303 0006 1868     		ldr	r0, [r3]
 304              	.LVL20:
 305              		.loc 1 246 2 is_stmt 0 view .LVU41
 306 0008 FFF7FEFF 		bl	MCI_ExecTorqueRamp_F
 307              	.LVL21:
 247:Src/mc_api.c  **** }
 308              		.loc 1 247 1 view .LVU42
 309 000c 08BD     		pop	{r3, pc}
 310              	.L31:
 311 000e 00BF     		.align	2
 312              	.L30:
 313 0010 00000000 		.word	pMCI
 314              		.cfi_endproc
 315              	.LFE1442:
 317              		.section	.text.MC_SetCurrentReferenceMotor1,"ax",%progbits
 318              		.align	1
 319              		.weak	MC_SetCurrentReferenceMotor1
 320              		.syntax unified
 321              		.thumb
 322              		.thumb_func
 323              		.fpu fpv4-sp-d16
 325              	MC_SetCurrentReferenceMotor1:
 326              	.LFB1443:
 248:Src/mc_api.c  **** 
 249:Src/mc_api.c  **** /**
 250:Src/mc_api.c  ****   * @brief Programs the current reference to Motor 1 for later or immediate execution.
 251:Src/mc_api.c  ****   *
 252:Src/mc_api.c  ****   *  The current reference to consider is made of the Id and Iq current components.
 253:Src/mc_api.c  ****   *
 254:Src/mc_api.c  ****   *  Invoking the MC_SetCurrentReferenceMotor1() function programs a current reference
 255:Src/mc_api.c  ****   * with the provided parameters. The programmed reference is executed immediately if
 256:Src/mc_api.c  ****   * Motor 1's state machine is in the #START_RUN or #RUN states. Otherwise, the
 257:Src/mc_api.c  ****   * command is buffered and will be executed when the state machine reaches any of
 258:Src/mc_api.c  ****   * the aforementioned state.
 259:Src/mc_api.c  ****   *
 260:Src/mc_api.c  ****   *  The Application can check the status of the command with the MC_GetCommandStateMotor1()
 261:Src/mc_api.c  ****   * to know whether the last command was executed immediately or not.
ARM GAS  /tmp/ccL1GIPz.s 			page 11


 262:Src/mc_api.c  ****   *
 263:Src/mc_api.c  ****   * Only one command can be buffered at any given time. If another buffered command is
 264:Src/mc_api.c  ****   * programmed before the current one has completed, the latter replaces the former.
 265:Src/mc_api.c  ****   *
 266:Src/mc_api.c  ****   * @param  Iqdref current reference in the Direct-Quadratic reference frame. Expressed
 267:Src/mc_api.c  ****   *         in the qd_t format.
 268:Src/mc_api.c  ****   */
 269:Src/mc_api.c  **** __weak void MC_SetCurrentReferenceMotor1( qd_t Iqdref )
 270:Src/mc_api.c  **** {
 327              		.loc 1 270 1 is_stmt 1 view -0
 328              		.cfi_startproc
 329              		@ args = 0, pretend = 0, frame = 8
 330              		@ frame_needed = 0, uses_anonymous_args = 0
 331 0000 00B5     		push	{lr}
 332              		.cfi_def_cfa_offset 4
 333              		.cfi_offset 14, -4
 334 0002 83B0     		sub	sp, sp, #12
 335              		.cfi_def_cfa_offset 16
 336 0004 0190     		str	r0, [sp, #4]
 271:Src/mc_api.c  **** 	MCI_SetCurrentReferences( pMCI[M1], Iqdref );
 337              		.loc 1 271 2 view .LVU44
 338 0006 0146     		mov	r1, r0
 339 0008 034B     		ldr	r3, .L34
 340 000a 1868     		ldr	r0, [r3]
 341 000c FFF7FEFF 		bl	MCI_SetCurrentReferences
 342              	.LVL22:
 272:Src/mc_api.c  **** }
 343              		.loc 1 272 1 is_stmt 0 view .LVU45
 344 0010 03B0     		add	sp, sp, #12
 345              		.cfi_def_cfa_offset 4
 346              		@ sp needed
 347 0012 5DF804FB 		ldr	pc, [sp], #4
 348              	.L35:
 349 0016 00BF     		.align	2
 350              	.L34:
 351 0018 00000000 		.word	pMCI
 352              		.cfi_endproc
 353              	.LFE1443:
 355              		.section	.text.MC_SetCurrentReferenceMotor1_F,"ax",%progbits
 356              		.align	1
 357              		.weak	MC_SetCurrentReferenceMotor1_F
 358              		.syntax unified
 359              		.thumb
 360              		.thumb_func
 361              		.fpu fpv4-sp-d16
 363              	MC_SetCurrentReferenceMotor1_F:
 364              	.LFB1444:
 273:Src/mc_api.c  **** 
 274:Src/mc_api.c  **** /**
 275:Src/mc_api.c  ****   * @brief Programs the current reference to Motor 1 for later or immediate execution.
 276:Src/mc_api.c  ****   *
 277:Src/mc_api.c  ****   *  The current reference to consider is made of the Id and Iq current components.
 278:Src/mc_api.c  ****   *
 279:Src/mc_api.c  ****   *  Invoking the MC_SetCurrentReferenceMotor1_F() function programs a current reference
 280:Src/mc_api.c  ****   * with the provided parameters. The programmed reference is executed immediately if
 281:Src/mc_api.c  ****   * Motor 1's state machine is in the #START_RUN or #RUN states. Otherwise, the
 282:Src/mc_api.c  ****   * command is buffered and will be executed when the state machine reaches any of
ARM GAS  /tmp/ccL1GIPz.s 			page 12


 283:Src/mc_api.c  ****   * the aforementioned state.
 284:Src/mc_api.c  ****   *
 285:Src/mc_api.c  ****   *  The Application can check the status of the command with the MC_GetCommandStateMotor1()
 286:Src/mc_api.c  ****   * to know whether the last command was executed immediately or not.
 287:Src/mc_api.c  ****   *
 288:Src/mc_api.c  ****   * Only one command can be buffered at any given time. If another buffered command is
 289:Src/mc_api.c  ****   * programmed before the current one has completed, the latter replaces the former.
 290:Src/mc_api.c  ****   *
 291:Src/mc_api.c  ****   * @param  Iqdref current reference in the Direct-Quadratic reference frame. Expressed
 292:Src/mc_api.c  ****   *         in the qd_f_t format.
 293:Src/mc_api.c  ****   */
 294:Src/mc_api.c  **** __weak void MC_SetCurrentReferenceMotor1_F( qd_f_t IqdRef )
 295:Src/mc_api.c  **** {
 365              		.loc 1 295 1 is_stmt 1 view -0
 366              		.cfi_startproc
 367              		@ args = 0, pretend = 0, frame = 8
 368              		@ frame_needed = 0, uses_anonymous_args = 0
 369 0000 00B5     		push	{lr}
 370              		.cfi_def_cfa_offset 4
 371              		.cfi_offset 14, -4
 372 0002 83B0     		sub	sp, sp, #12
 373              		.cfi_def_cfa_offset 16
 296:Src/mc_api.c  **** 	MCI_SetCurrentReferences_F( pMCI[M1], IqdRef );
 374              		.loc 1 296 2 view .LVU47
 375 0004 034B     		ldr	r3, .L38
 376 0006 1868     		ldr	r0, [r3]
 377 0008 FFF7FEFF 		bl	MCI_SetCurrentReferences_F
 378              	.LVL23:
 297:Src/mc_api.c  **** }
 379              		.loc 1 297 1 is_stmt 0 view .LVU48
 380 000c 03B0     		add	sp, sp, #12
 381              		.cfi_def_cfa_offset 4
 382              		@ sp needed
 383 000e 5DF804FB 		ldr	pc, [sp], #4
 384              	.L39:
 385 0012 00BF     		.align	2
 386              	.L38:
 387 0014 00000000 		.word	pMCI
 388              		.cfi_endproc
 389              	.LFE1444:
 391              		.section	.text.MC_GetCommandStateMotor1,"ax",%progbits
 392              		.align	1
 393              		.weak	MC_GetCommandStateMotor1
 394              		.syntax unified
 395              		.thumb
 396              		.thumb_func
 397              		.fpu fpv4-sp-d16
 399              	MC_GetCommandStateMotor1:
 400              	.LFB1445:
 298:Src/mc_api.c  **** 
 299:Src/mc_api.c  **** /**
 300:Src/mc_api.c  ****   * @brief  Returns the status of the last buffered command for Motor 1.
 301:Src/mc_api.c  ****   * The status can be one of the following values:
 302:Src/mc_api.c  ****   * - #MCI_BUFFER_EMPTY: no buffered command is currently programmed.
 303:Src/mc_api.c  ****   * - #MCI_COMMAND_NOT_ALREADY_EXECUTED: A command has been buffered but the conditions for its
 304:Src/mc_api.c  ****   *   execution have not occurred yet. The command is still in the buffer, pending execution.
 305:Src/mc_api.c  ****   * - #MCI_COMMAND_EXECUTED_SUCCESFULLY: the last buffered command has been executed successfully.
ARM GAS  /tmp/ccL1GIPz.s 			page 13


 306:Src/mc_api.c  ****   *   In this case calling this function reset the command state to #BC_BUFFER_EMPTY.
 307:Src/mc_api.c  ****   * - #MCI_COMMAND_EXECUTED_UNSUCCESFULLY: the buffered command has been executed unsuccessfully.
 308:Src/mc_api.c  ****   *   In this case calling this function reset the command state to #BC_BUFFER_EMPTY.
 309:Src/mc_api.c  ****   */
 310:Src/mc_api.c  **** __weak MCI_CommandState_t  MC_GetCommandStateMotor1( void)
 311:Src/mc_api.c  **** {
 401              		.loc 1 311 1 is_stmt 1 view -0
 402              		.cfi_startproc
 403              		@ args = 0, pretend = 0, frame = 0
 404              		@ frame_needed = 0, uses_anonymous_args = 0
 405 0000 08B5     		push	{r3, lr}
 406              		.cfi_def_cfa_offset 8
 407              		.cfi_offset 3, -8
 408              		.cfi_offset 14, -4
 312:Src/mc_api.c  **** 	return MCI_IsCommandAcknowledged( pMCI[M1] );
 409              		.loc 1 312 2 view .LVU50
 410              		.loc 1 312 9 is_stmt 0 view .LVU51
 411 0002 024B     		ldr	r3, .L42
 412 0004 1868     		ldr	r0, [r3]
 413 0006 FFF7FEFF 		bl	MCI_IsCommandAcknowledged
 414              	.LVL24:
 313:Src/mc_api.c  **** }
 415              		.loc 1 313 1 view .LVU52
 416 000a 08BD     		pop	{r3, pc}
 417              	.L43:
 418              		.align	2
 419              	.L42:
 420 000c 00000000 		.word	pMCI
 421              		.cfi_endproc
 422              	.LFE1445:
 424              		.section	.text.MC_StopSpeedRampMotor1,"ax",%progbits
 425              		.align	1
 426              		.weak	MC_StopSpeedRampMotor1
 427              		.syntax unified
 428              		.thumb
 429              		.thumb_func
 430              		.fpu fpv4-sp-d16
 432              	MC_StopSpeedRampMotor1:
 433              	.LFB1446:
 314:Src/mc_api.c  **** 
 315:Src/mc_api.c  **** /**
 316:Src/mc_api.c  ****  * @brief Stops the execution of the on-going speed ramp for Motor 1, if any.
 317:Src/mc_api.c  ****  *
 318:Src/mc_api.c  ****  *  If a speed ramp is currently being executed, it is immediately stopped, the rotation
 319:Src/mc_api.c  ****  * speed of Motor 1 is maintained to its current value and true is returned. If no speed
 320:Src/mc_api.c  ****  * ramp is on-going, nothing is done and false is returned.
 321:Src/mc_api.c  ****  *
 322:Src/mc_api.c  ****  * @deprecated This function is deprecated and should not be used anymore. It will be
 323:Src/mc_api.c  ****  *             removed in a future version of the MCSDK. Use MC_StopRampMotor1() instead.
 324:Src/mc_api.c  ****  */
 325:Src/mc_api.c  **** __weak bool MC_StopSpeedRampMotor1(void)
 326:Src/mc_api.c  **** {
 434              		.loc 1 326 1 is_stmt 1 view -0
 435              		.cfi_startproc
 436              		@ args = 0, pretend = 0, frame = 0
 437              		@ frame_needed = 0, uses_anonymous_args = 0
 438 0000 08B5     		push	{r3, lr}
ARM GAS  /tmp/ccL1GIPz.s 			page 14


 439              		.cfi_def_cfa_offset 8
 440              		.cfi_offset 3, -8
 441              		.cfi_offset 14, -4
 327:Src/mc_api.c  **** 	return MCI_StopSpeedRamp( pMCI[M1] );
 442              		.loc 1 327 2 view .LVU54
 443              		.loc 1 327 9 is_stmt 0 view .LVU55
 444 0002 024B     		ldr	r3, .L46
 445 0004 1868     		ldr	r0, [r3]
 446 0006 FFF7FEFF 		bl	MCI_StopSpeedRamp
 447              	.LVL25:
 328:Src/mc_api.c  **** }
 448              		.loc 1 328 1 view .LVU56
 449 000a 08BD     		pop	{r3, pc}
 450              	.L47:
 451              		.align	2
 452              	.L46:
 453 000c 00000000 		.word	pMCI
 454              		.cfi_endproc
 455              	.LFE1446:
 457              		.section	.text.MC_StopRampMotor1,"ax",%progbits
 458              		.align	1
 459              		.weak	MC_StopRampMotor1
 460              		.syntax unified
 461              		.thumb
 462              		.thumb_func
 463              		.fpu fpv4-sp-d16
 465              	MC_StopRampMotor1:
 466              	.LFB1447:
 329:Src/mc_api.c  **** 
 330:Src/mc_api.c  **** /**
 331:Src/mc_api.c  ****  * @brief Stops the execution of the on-going ramp for Motor 1, if any.
 332:Src/mc_api.c  ****  *
 333:Src/mc_api.c  ****  *  If a ramp is currently being executed, it is immediately stopped, the torque or the speed
 334:Src/mc_api.c  ****  *  of Motor 1 is maintained to its current value.
 335:Src/mc_api.c  ****  */
 336:Src/mc_api.c  **** __weak void MC_StopRampMotor1(void)
 337:Src/mc_api.c  **** {
 467              		.loc 1 337 1 is_stmt 1 view -0
 468              		.cfi_startproc
 469              		@ args = 0, pretend = 0, frame = 0
 470              		@ frame_needed = 0, uses_anonymous_args = 0
 471 0000 08B5     		push	{r3, lr}
 472              		.cfi_def_cfa_offset 8
 473              		.cfi_offset 3, -8
 474              		.cfi_offset 14, -4
 338:Src/mc_api.c  ****   MCI_StopRamp( pMCI[M1] );
 475              		.loc 1 338 3 view .LVU58
 476 0002 024B     		ldr	r3, .L50
 477 0004 1868     		ldr	r0, [r3]
 478 0006 FFF7FEFF 		bl	MCI_StopRamp
 479              	.LVL26:
 339:Src/mc_api.c  **** }
 480              		.loc 1 339 1 is_stmt 0 view .LVU59
 481 000a 08BD     		pop	{r3, pc}
 482              	.L51:
 483              		.align	2
 484              	.L50:
ARM GAS  /tmp/ccL1GIPz.s 			page 15


 485 000c 00000000 		.word	pMCI
 486              		.cfi_endproc
 487              	.LFE1447:
 489              		.section	.text.MC_HasRampCompletedMotor1,"ax",%progbits
 490              		.align	1
 491              		.weak	MC_HasRampCompletedMotor1
 492              		.syntax unified
 493              		.thumb
 494              		.thumb_func
 495              		.fpu fpv4-sp-d16
 497              	MC_HasRampCompletedMotor1:
 498              	.LFB1448:
 340:Src/mc_api.c  **** 
 341:Src/mc_api.c  **** /**
 342:Src/mc_api.c  ****  * @brief Returns true if the last ramp submited for Motor 1 has completed, false otherwise
 343:Src/mc_api.c  ****  */
 344:Src/mc_api.c  **** __weak bool MC_HasRampCompletedMotor1(void)
 345:Src/mc_api.c  **** {
 499              		.loc 1 345 1 is_stmt 1 view -0
 500              		.cfi_startproc
 501              		@ args = 0, pretend = 0, frame = 0
 502              		@ frame_needed = 0, uses_anonymous_args = 0
 503 0000 08B5     		push	{r3, lr}
 504              		.cfi_def_cfa_offset 8
 505              		.cfi_offset 3, -8
 506              		.cfi_offset 14, -4
 346:Src/mc_api.c  **** 	return MCI_RampCompleted( pMCI[M1] );
 507              		.loc 1 346 2 view .LVU61
 508              		.loc 1 346 9 is_stmt 0 view .LVU62
 509 0002 024B     		ldr	r3, .L54
 510 0004 1868     		ldr	r0, [r3]
 511 0006 FFF7FEFF 		bl	MCI_RampCompleted
 512              	.LVL27:
 347:Src/mc_api.c  **** }
 513              		.loc 1 347 1 view .LVU63
 514 000a 08BD     		pop	{r3, pc}
 515              	.L55:
 516              		.align	2
 517              	.L54:
 518 000c 00000000 		.word	pMCI
 519              		.cfi_endproc
 520              	.LFE1448:
 522              		.section	.text.MC_GetMecSpeedReferenceMotor1,"ax",%progbits
 523              		.align	1
 524              		.weak	MC_GetMecSpeedReferenceMotor1
 525              		.syntax unified
 526              		.thumb
 527              		.thumb_func
 528              		.fpu fpv4-sp-d16
 530              	MC_GetMecSpeedReferenceMotor1:
 531              	.LFB1449:
 348:Src/mc_api.c  **** 
 349:Src/mc_api.c  **** /**
 350:Src/mc_api.c  ****  *  @brief Returns the current mechanical rotor speed reference set for Motor 1, expressed in the u
 351:Src/mc_api.c  ****  */
 352:Src/mc_api.c  **** __weak int16_t MC_GetMecSpeedReferenceMotor1(void)
 353:Src/mc_api.c  **** {
ARM GAS  /tmp/ccL1GIPz.s 			page 16


 532              		.loc 1 353 1 is_stmt 1 view -0
 533              		.cfi_startproc
 534              		@ args = 0, pretend = 0, frame = 0
 535              		@ frame_needed = 0, uses_anonymous_args = 0
 536 0000 08B5     		push	{r3, lr}
 537              		.cfi_def_cfa_offset 8
 538              		.cfi_offset 3, -8
 539              		.cfi_offset 14, -4
 354:Src/mc_api.c  **** 	return MCI_GetMecSpeedRefUnit( pMCI[M1] );
 540              		.loc 1 354 2 view .LVU65
 541              		.loc 1 354 9 is_stmt 0 view .LVU66
 542 0002 024B     		ldr	r3, .L58
 543 0004 1868     		ldr	r0, [r3]
 544 0006 FFF7FEFF 		bl	MCI_GetMecSpeedRefUnit
 545              	.LVL28:
 355:Src/mc_api.c  **** }
 546              		.loc 1 355 1 view .LVU67
 547 000a 08BD     		pop	{r3, pc}
 548              	.L59:
 549              		.align	2
 550              	.L58:
 551 000c 00000000 		.word	pMCI
 552              		.cfi_endproc
 553              	.LFE1449:
 555              		.section	.text.MC_GetMecSpeedAverageMotor1,"ax",%progbits
 556              		.align	1
 557              		.weak	MC_GetMecSpeedAverageMotor1
 558              		.syntax unified
 559              		.thumb
 560              		.thumb_func
 561              		.fpu fpv4-sp-d16
 563              	MC_GetMecSpeedAverageMotor1:
 564              	.LFB1450:
 356:Src/mc_api.c  **** 
 357:Src/mc_api.c  **** /**
 358:Src/mc_api.c  ****  *  @brief Returns the current mechanical rotor speed reference set for Motor 1, expressed in rpm.
 359:Src/mc_api.c  ****  */
 360:Src/mc_api.c  **** //__weak float MC_GetMecSpeedReferenceMotor1_F(void)
 361:Src/mc_api.c  **** //{
 362:Src/mc_api.c  **** //	return MCI_GetMecSpeedRef_F( pMCI[M1] );
 363:Src/mc_api.c  **** //}
 364:Src/mc_api.c  **** 
 365:Src/mc_api.c  **** /**
 366:Src/mc_api.c  ****  * @brief Returns the last computed average mechanical rotor speed for Motor 1, expressed in the un
 367:Src/mc_api.c  ****  */
 368:Src/mc_api.c  **** __weak int16_t MC_GetMecSpeedAverageMotor1(void)
 369:Src/mc_api.c  **** {
 565              		.loc 1 369 1 is_stmt 1 view -0
 566              		.cfi_startproc
 567              		@ args = 0, pretend = 0, frame = 0
 568              		@ frame_needed = 0, uses_anonymous_args = 0
 569 0000 08B5     		push	{r3, lr}
 570              		.cfi_def_cfa_offset 8
 571              		.cfi_offset 3, -8
 572              		.cfi_offset 14, -4
 370:Src/mc_api.c  **** 	return MCI_GetAvrgMecSpeedUnit( pMCI[M1] );
 573              		.loc 1 370 2 view .LVU69
ARM GAS  /tmp/ccL1GIPz.s 			page 17


 574              		.loc 1 370 9 is_stmt 0 view .LVU70
 575 0002 024B     		ldr	r3, .L62
 576 0004 1868     		ldr	r0, [r3]
 577 0006 FFF7FEFF 		bl	MCI_GetAvrgMecSpeedUnit
 578              	.LVL29:
 371:Src/mc_api.c  **** }
 579              		.loc 1 371 1 view .LVU71
 580 000a 08BD     		pop	{r3, pc}
 581              	.L63:
 582              		.align	2
 583              	.L62:
 584 000c 00000000 		.word	pMCI
 585              		.cfi_endproc
 586              	.LFE1450:
 588              		.section	.text.MC_GetMecAuxiliarySpeedAverageMotor1,"ax",%progbits
 589              		.align	1
 590              		.weak	MC_GetMecAuxiliarySpeedAverageMotor1
 591              		.syntax unified
 592              		.thumb
 593              		.thumb_func
 594              		.fpu fpv4-sp-d16
 596              	MC_GetMecAuxiliarySpeedAverageMotor1:
 597              	.LFB1451:
 372:Src/mc_api.c  **** 
 373:Src/mc_api.c  **** #define S16ToRAD 10430.37835f            /* 2^16/2Pi */
 374:Src/mc_api.c  **** 
 375:Src/mc_api.c  **** /**
 376:Src/mc_api.c  ****  * @brief Returns the last computed average mechanical rotor speed from auxiliary sensor for Motor 
 377:Src/mc_api.c  ****  */
 378:Src/mc_api.c  **** __weak int16_t MC_GetMecAuxiliarySpeedAverageMotor1(void)
 379:Src/mc_api.c  **** {
 598              		.loc 1 379 1 is_stmt 1 view -0
 599              		.cfi_startproc
 600              		@ args = 0, pretend = 0, frame = 0
 601              		@ frame_needed = 0, uses_anonymous_args = 0
 602 0000 08B5     		push	{r3, lr}
 603              		.cfi_def_cfa_offset 8
 604              		.cfi_offset 3, -8
 605              		.cfi_offset 14, -4
 380:Src/mc_api.c  **** 	return SPD_GetAvrgMecSpeedUnit(&ENCODER_M1._Super);
 606              		.loc 1 380 2 view .LVU73
 607              		.loc 1 380 9 is_stmt 0 view .LVU74
 608 0002 0248     		ldr	r0, .L66
 609 0004 FFF7FEFF 		bl	SPD_GetAvrgMecSpeedUnit
 610              	.LVL30:
 381:Src/mc_api.c  **** }
 611              		.loc 1 381 1 view .LVU75
 612 0008 08BD     		pop	{r3, pc}
 613              	.L67:
 614 000a 00BF     		.align	2
 615              	.L66:
 616 000c 00000000 		.word	ENCODER_M1
 617              		.cfi_endproc
 618              	.LFE1451:
 620              		.section	.text.MC_GetMecAuxiliarySpeedAverageMotor1_F,"ax",%progbits
 621              		.align	1
 622              		.weak	MC_GetMecAuxiliarySpeedAverageMotor1_F
ARM GAS  /tmp/ccL1GIPz.s 			page 18


 623              		.syntax unified
 624              		.thumb
 625              		.thumb_func
 626              		.fpu fpv4-sp-d16
 628              	MC_GetMecAuxiliarySpeedAverageMotor1_F:
 629              	.LFB1452:
 382:Src/mc_api.c  **** 
 383:Src/mc_api.c  **** /**
 384:Src/mc_api.c  ****  * @brief Returns the last computed average mechanical rotor speed from auxiliary sensor for Motor 
 385:Src/mc_api.c  ****  */
 386:Src/mc_api.c  **** __weak float MC_GetMecAuxiliarySpeedAverageMotor1_F(void)
 387:Src/mc_api.c  **** {
 630              		.loc 1 387 1 is_stmt 1 view -0
 631              		.cfi_startproc
 632              		@ args = 0, pretend = 0, frame = 0
 633              		@ frame_needed = 0, uses_anonymous_args = 0
 634 0000 08B5     		push	{r3, lr}
 635              		.cfi_def_cfa_offset 8
 636              		.cfi_offset 3, -8
 637              		.cfi_offset 14, -4
 388:Src/mc_api.c  ****   return( (float) ( SPD_GetAvrgMecSpeedUnit(&ENCODER_M1._Super) * U_RPM) / SPEED_UNIT);
 638              		.loc 1 388 3 view .LVU77
 639              		.loc 1 388 21 is_stmt 0 view .LVU78
 640 0002 0748     		ldr	r0, .L70
 641 0004 FFF7FEFF 		bl	SPD_GetAvrgMecSpeedUnit
 642              	.LVL31:
 643              		.loc 1 388 65 view .LVU79
 644 0008 C0EB0010 		rsb	r0, r0, r0, lsl #4
 645 000c 8000     		lsls	r0, r0, #2
 646              		.loc 1 388 11 view .LVU80
 647 000e 07EE900A 		vmov	s15, r0	@ int
 648 0012 B8EEE70A 		vcvt.f32.s32	s0, s15
 389:Src/mc_api.c  **** }
 649              		.loc 1 389 1 view .LVU81
 650 0016 F2EE047A 		vmov.f32	s15, #1.0e+1
 651 001a 80EE270A 		vdiv.f32	s0, s0, s15
 652 001e 08BD     		pop	{r3, pc}
 653              	.L71:
 654              		.align	2
 655              	.L70:
 656 0020 00000000 		.word	ENCODER_M1
 657              		.cfi_endproc
 658              	.LFE1452:
 660              		.section	.text.MC_GetAuxiliaryElAngledppMotor1,"ax",%progbits
 661              		.align	1
 662              		.weak	MC_GetAuxiliaryElAngledppMotor1
 663              		.syntax unified
 664              		.thumb
 665              		.thumb_func
 666              		.fpu fpv4-sp-d16
 668              	MC_GetAuxiliaryElAngledppMotor1:
 669              	.LFB1453:
 390:Src/mc_api.c  **** 
 391:Src/mc_api.c  **** /**
 392:Src/mc_api.c  ****  * @brief Returns the electrical angle of the rotor from auxiliary sensor of Motor 1, in DDP format
 393:Src/mc_api.c  ****  */
 394:Src/mc_api.c  **** __weak int16_t MC_GetAuxiliaryElAngledppMotor1(void)
ARM GAS  /tmp/ccL1GIPz.s 			page 19


 395:Src/mc_api.c  **** {
 670              		.loc 1 395 1 is_stmt 1 view -0
 671              		.cfi_startproc
 672              		@ args = 0, pretend = 0, frame = 0
 673              		@ frame_needed = 0, uses_anonymous_args = 0
 674 0000 08B5     		push	{r3, lr}
 675              		.cfi_def_cfa_offset 8
 676              		.cfi_offset 3, -8
 677              		.cfi_offset 14, -4
 396:Src/mc_api.c  **** 	return (SPD_GetElAngle(&ENCODER_M1._Super));
 678              		.loc 1 396 2 view .LVU83
 679              		.loc 1 396 10 is_stmt 0 view .LVU84
 680 0002 0248     		ldr	r0, .L74
 681 0004 FFF7FEFF 		bl	SPD_GetElAngle
 682              	.LVL32:
 397:Src/mc_api.c  **** }
 683              		.loc 1 397 1 view .LVU85
 684 0008 08BD     		pop	{r3, pc}
 685              	.L75:
 686 000a 00BF     		.align	2
 687              	.L74:
 688 000c 00000000 		.word	ENCODER_M1
 689              		.cfi_endproc
 690              	.LFE1453:
 692              		.section	.text.MC_GetAuxiliaryElAngleMotor1_F,"ax",%progbits
 693              		.align	1
 694              		.weak	MC_GetAuxiliaryElAngleMotor1_F
 695              		.syntax unified
 696              		.thumb
 697              		.thumb_func
 698              		.fpu fpv4-sp-d16
 700              	MC_GetAuxiliaryElAngleMotor1_F:
 701              	.LFB1454:
 398:Src/mc_api.c  **** 
 399:Src/mc_api.c  **** /**
 400:Src/mc_api.c  ****  * @brief Returns the electrical angle of the rotor from auxiliary sensor of Motor 1, expressed in 
 401:Src/mc_api.c  ****  */
 402:Src/mc_api.c  **** __weak float MC_GetAuxiliaryElAngleMotor1_F(void)
 403:Src/mc_api.c  **** {
 702              		.loc 1 403 1 is_stmt 1 view -0
 703              		.cfi_startproc
 704              		@ args = 0, pretend = 0, frame = 0
 705              		@ frame_needed = 0, uses_anonymous_args = 0
 706 0000 08B5     		push	{r3, lr}
 707              		.cfi_def_cfa_offset 8
 708              		.cfi_offset 3, -8
 709              		.cfi_offset 14, -4
 404:Src/mc_api.c  ****   return ((float)( (SPD_GetElAngle(&ENCODER_M1._Super)) / S16ToRAD) );
 710              		.loc 1 404 3 view .LVU87
 711              		.loc 1 404 21 is_stmt 0 view .LVU88
 712 0002 0648     		ldr	r0, .L78
 713 0004 FFF7FEFF 		bl	SPD_GetElAngle
 714              	.LVL33:
 715 0008 07EE900A 		vmov	s15, r0	@ int
 716              		.loc 1 404 11 view .LVU89
 717 000c F8EEE77A 		vcvt.f32.s32	s15, s15
 405:Src/mc_api.c  **** }
ARM GAS  /tmp/ccL1GIPz.s 			page 20


 718              		.loc 1 405 1 view .LVU90
 719 0010 9FED030A 		vldr.32	s0, .L78+4
 720 0014 87EE800A 		vdiv.f32	s0, s15, s0
 721 0018 08BD     		pop	{r3, pc}
 722              	.L79:
 723 001a 00BF     		.align	2
 724              	.L78:
 725 001c 00000000 		.word	ENCODER_M1
 726 0020 83F92246 		.word	1176697219
 727              		.cfi_endproc
 728              	.LFE1454:
 730              		.section	.text.MC_GetLastRampFinalSpeedMotor1,"ax",%progbits
 731              		.align	1
 732              		.weak	MC_GetLastRampFinalSpeedMotor1
 733              		.syntax unified
 734              		.thumb
 735              		.thumb_func
 736              		.fpu fpv4-sp-d16
 738              	MC_GetLastRampFinalSpeedMotor1:
 739              	.LFB1455:
 406:Src/mc_api.c  **** 
 407:Src/mc_api.c  **** /**
 408:Src/mc_api.c  ****  * @brief Returns the last computed average mechanical rotor speed for Motor 1, expressed in rpm.
 409:Src/mc_api.c  ****  */
 410:Src/mc_api.c  **** //__weak float MC_GetAverageMecSpeedMotor1_F(void)
 411:Src/mc_api.c  **** //{
 412:Src/mc_api.c  **** //	return MCI_GetAvrgMecSpeed_F( pMCI[M1] );
 413:Src/mc_api.c  **** //}
 414:Src/mc_api.c  **** 
 415:Src/mc_api.c  **** /**
 416:Src/mc_api.c  ****  * @brief Returns the final speed of the last ramp programmed for Motor 1 if this ramp was a speed 
 417:Src/mc_api.c  ****  */
 418:Src/mc_api.c  **** __weak int16_t MC_GetLastRampFinalSpeedMotor1(void)
 419:Src/mc_api.c  **** {
 740              		.loc 1 419 1 is_stmt 1 view -0
 741              		.cfi_startproc
 742              		@ args = 0, pretend = 0, frame = 0
 743              		@ frame_needed = 0, uses_anonymous_args = 0
 744 0000 08B5     		push	{r3, lr}
 745              		.cfi_def_cfa_offset 8
 746              		.cfi_offset 3, -8
 747              		.cfi_offset 14, -4
 420:Src/mc_api.c  **** 	return MCI_GetLastRampFinalSpeed( pMCI[M1] );
 748              		.loc 1 420 2 view .LVU92
 749              		.loc 1 420 9 is_stmt 0 view .LVU93
 750 0002 024B     		ldr	r3, .L82
 751 0004 1868     		ldr	r0, [r3]
 752 0006 FFF7FEFF 		bl	MCI_GetLastRampFinalSpeed
 753              	.LVL34:
 421:Src/mc_api.c  **** }
 754              		.loc 1 421 1 view .LVU94
 755 000a 08BD     		pop	{r3, pc}
 756              	.L83:
 757              		.align	2
 758              	.L82:
 759 000c 00000000 		.word	pMCI
 760              		.cfi_endproc
ARM GAS  /tmp/ccL1GIPz.s 			page 21


 761              	.LFE1455:
 763              		.section	.text.MC_GetLastRampFinalSpeedMotor1_F,"ax",%progbits
 764              		.align	1
 765              		.weak	MC_GetLastRampFinalSpeedMotor1_F
 766              		.syntax unified
 767              		.thumb
 768              		.thumb_func
 769              		.fpu fpv4-sp-d16
 771              	MC_GetLastRampFinalSpeedMotor1_F:
 772              	.LFB1456:
 422:Src/mc_api.c  **** 
 423:Src/mc_api.c  **** /**
 424:Src/mc_api.c  ****  * @brief Returns the final speed of the last ramp programmed for Motor 1 if this ramp was a speed 
 425:Src/mc_api.c  ****  */
 426:Src/mc_api.c  **** __weak float MC_GetLastRampFinalSpeedMotor1_F(void)
 427:Src/mc_api.c  **** {
 773              		.loc 1 427 1 is_stmt 1 view -0
 774              		.cfi_startproc
 775              		@ args = 0, pretend = 0, frame = 0
 776              		@ frame_needed = 0, uses_anonymous_args = 0
 777 0000 08B5     		push	{r3, lr}
 778              		.cfi_def_cfa_offset 8
 779              		.cfi_offset 3, -8
 780              		.cfi_offset 14, -4
 428:Src/mc_api.c  **** 	return MCI_GetLastRampFinalSpeed_F( pMCI[M1] );
 781              		.loc 1 428 2 view .LVU96
 782              		.loc 1 428 9 is_stmt 0 view .LVU97
 783 0002 024B     		ldr	r3, .L86
 784 0004 1868     		ldr	r0, [r3]
 785 0006 FFF7FEFF 		bl	MCI_GetLastRampFinalSpeed_F
 786              	.LVL35:
 429:Src/mc_api.c  **** }
 787              		.loc 1 429 1 view .LVU98
 788 000a 08BD     		pop	{r3, pc}
 789              	.L87:
 790              		.align	2
 791              	.L86:
 792 000c 00000000 		.word	pMCI
 793              		.cfi_endproc
 794              	.LFE1456:
 796              		.section	.text.MC_GetControlModeMotor1,"ax",%progbits
 797              		.align	1
 798              		.weak	MC_GetControlModeMotor1
 799              		.syntax unified
 800              		.thumb
 801              		.thumb_func
 802              		.fpu fpv4-sp-d16
 804              	MC_GetControlModeMotor1:
 805              	.LFB1457:
 430:Src/mc_api.c  **** 
 431:Src/mc_api.c  **** /**
 432:Src/mc_api.c  ****  * @brief Returns the Control Mode used for Motor 1 (either Speed or Torque)
 433:Src/mc_api.c  ****  */
 434:Src/mc_api.c  **** __weak MC_ControlMode_t MC_GetControlModeMotor1(void)
 435:Src/mc_api.c  **** {
 806              		.loc 1 435 1 is_stmt 1 view -0
 807              		.cfi_startproc
ARM GAS  /tmp/ccL1GIPz.s 			page 22


 808              		@ args = 0, pretend = 0, frame = 0
 809              		@ frame_needed = 0, uses_anonymous_args = 0
 810 0000 08B5     		push	{r3, lr}
 811              		.cfi_def_cfa_offset 8
 812              		.cfi_offset 3, -8
 813              		.cfi_offset 14, -4
 436:Src/mc_api.c  **** 	return MCI_GetControlMode( pMCI[M1] );
 814              		.loc 1 436 2 view .LVU100
 815              		.loc 1 436 9 is_stmt 0 view .LVU101
 816 0002 024B     		ldr	r3, .L90
 817 0004 1868     		ldr	r0, [r3]
 818 0006 FFF7FEFF 		bl	MCI_GetControlMode
 819              	.LVL36:
 437:Src/mc_api.c  **** }
 820              		.loc 1 437 1 view .LVU102
 821 000a 08BD     		pop	{r3, pc}
 822              	.L91:
 823              		.align	2
 824              	.L90:
 825 000c 00000000 		.word	pMCI
 826              		.cfi_endproc
 827              	.LFE1457:
 829              		.section	.text.MC_GetImposedDirectionMotor1,"ax",%progbits
 830              		.align	1
 831              		.weak	MC_GetImposedDirectionMotor1
 832              		.syntax unified
 833              		.thumb
 834              		.thumb_func
 835              		.fpu fpv4-sp-d16
 837              	MC_GetImposedDirectionMotor1:
 838              	.LFB1458:
 438:Src/mc_api.c  **** 
 439:Src/mc_api.c  **** /**
 440:Src/mc_api.c  ****  * @brief Returns the rotation direction imposed by the last command on Motor 1
 441:Src/mc_api.c  ****  *
 442:Src/mc_api.c  ****  * The last command is either MC_ProgramSpeedRampMotor1(), MC_ProgramTorqueRampMotor1() or
 443:Src/mc_api.c  ****  * MC_SetCurrentReferenceMotor1().
 444:Src/mc_api.c  ****  *
 445:Src/mc_api.c  ****  * The function returns -1 if the sign of the final speed, the final torque or the Iq current
 446:Src/mc_api.c  ****  * reference component of the last command is negative. Otherwise, 1 is returned.
 447:Src/mc_api.c  ****  *
 448:Src/mc_api.c  ****  * @note if no such command has ever been submitted, 1 is returned as well.
 449:Src/mc_api.c  ****  */
 450:Src/mc_api.c  **** __weak int16_t MC_GetImposedDirectionMotor1(void)
 451:Src/mc_api.c  **** {
 839              		.loc 1 451 1 is_stmt 1 view -0
 840              		.cfi_startproc
 841              		@ args = 0, pretend = 0, frame = 0
 842              		@ frame_needed = 0, uses_anonymous_args = 0
 843 0000 08B5     		push	{r3, lr}
 844              		.cfi_def_cfa_offset 8
 845              		.cfi_offset 3, -8
 846              		.cfi_offset 14, -4
 452:Src/mc_api.c  **** 	return MCI_GetImposedMotorDirection( pMCI[M1] );
 847              		.loc 1 452 2 view .LVU104
 848              		.loc 1 452 9 is_stmt 0 view .LVU105
 849 0002 024B     		ldr	r3, .L94
ARM GAS  /tmp/ccL1GIPz.s 			page 23


 850 0004 1868     		ldr	r0, [r3]
 851 0006 FFF7FEFF 		bl	MCI_GetImposedMotorDirection
 852              	.LVL37:
 453:Src/mc_api.c  **** }
 853              		.loc 1 453 1 view .LVU106
 854 000a 08BD     		pop	{r3, pc}
 855              	.L95:
 856              		.align	2
 857              	.L94:
 858 000c 00000000 		.word	pMCI
 859              		.cfi_endproc
 860              	.LFE1458:
 862              		.section	.text.MC_GetSpeedSensorReliabilityMotor1,"ax",%progbits
 863              		.align	1
 864              		.weak	MC_GetSpeedSensorReliabilityMotor1
 865              		.syntax unified
 866              		.thumb
 867              		.thumb_func
 868              		.fpu fpv4-sp-d16
 870              	MC_GetSpeedSensorReliabilityMotor1:
 871              	.LFB1459:
 454:Src/mc_api.c  **** 
 455:Src/mc_api.c  **** /**
 456:Src/mc_api.c  ****  * @brief Returns true if the speed sensor used for Motor 1 is reliable, false otherwise
 457:Src/mc_api.c  ****  */
 458:Src/mc_api.c  **** __weak bool MC_GetSpeedSensorReliabilityMotor1(void)
 459:Src/mc_api.c  **** {
 872              		.loc 1 459 1 is_stmt 1 view -0
 873              		.cfi_startproc
 874              		@ args = 0, pretend = 0, frame = 0
 875              		@ frame_needed = 0, uses_anonymous_args = 0
 876 0000 08B5     		push	{r3, lr}
 877              		.cfi_def_cfa_offset 8
 878              		.cfi_offset 3, -8
 879              		.cfi_offset 14, -4
 460:Src/mc_api.c  **** 	return MCI_GetSpdSensorReliability( pMCI[M1] );
 880              		.loc 1 460 2 view .LVU108
 881              		.loc 1 460 9 is_stmt 0 view .LVU109
 882 0002 024B     		ldr	r3, .L98
 883 0004 1868     		ldr	r0, [r3]
 884 0006 FFF7FEFF 		bl	MCI_GetSpdSensorReliability
 885              	.LVL38:
 461:Src/mc_api.c  **** }
 886              		.loc 1 461 1 view .LVU110
 887 000a 08BD     		pop	{r3, pc}
 888              	.L99:
 889              		.align	2
 890              	.L98:
 891 000c 00000000 		.word	pMCI
 892              		.cfi_endproc
 893              	.LFE1459:
 895              		.section	.text.MC_GetPhaseCurrentAmplitudeMotor1,"ax",%progbits
 896              		.align	1
 897              		.weak	MC_GetPhaseCurrentAmplitudeMotor1
 898              		.syntax unified
 899              		.thumb
 900              		.thumb_func
ARM GAS  /tmp/ccL1GIPz.s 			page 24


 901              		.fpu fpv4-sp-d16
 903              	MC_GetPhaseCurrentAmplitudeMotor1:
 904              	.LFB1460:
 462:Src/mc_api.c  **** 
 463:Src/mc_api.c  **** /**
 464:Src/mc_api.c  ****  * @brief returns the amplitude of the phase current injected in Motor 1
 465:Src/mc_api.c  ****  *
 466:Src/mc_api.c  ****  * The returned amplitude (0-to-peak) is expressed in s16A unit. To convert it to amperes, use the 
 467:Src/mc_api.c  ****  *
 468:Src/mc_api.c  ****  * @f[
 469:Src/mc_api.c  ****  * I_{Amps} = \frac{ I_{s16A} \times V_{dd}}{ 65536 \times R_{shunt} \times A_{op} }
 470:Src/mc_api.c  ****  * @f]
 471:Src/mc_api.c  ****  *
 472:Src/mc_api.c  ****  */
 473:Src/mc_api.c  **** __weak int16_t MC_GetPhaseCurrentAmplitudeMotor1(void)
 474:Src/mc_api.c  **** {
 905              		.loc 1 474 1 is_stmt 1 view -0
 906              		.cfi_startproc
 907              		@ args = 0, pretend = 0, frame = 0
 908              		@ frame_needed = 0, uses_anonymous_args = 0
 909 0000 08B5     		push	{r3, lr}
 910              		.cfi_def_cfa_offset 8
 911              		.cfi_offset 3, -8
 912              		.cfi_offset 14, -4
 475:Src/mc_api.c  **** 	return MCI_GetPhaseCurrentAmplitude( pMCI[M1] );
 913              		.loc 1 475 2 view .LVU112
 914              		.loc 1 475 9 is_stmt 0 view .LVU113
 915 0002 024B     		ldr	r3, .L102
 916 0004 1868     		ldr	r0, [r3]
 917 0006 FFF7FEFF 		bl	MCI_GetPhaseCurrentAmplitude
 918              	.LVL39:
 476:Src/mc_api.c  **** }
 919              		.loc 1 476 1 view .LVU114
 920 000a 08BD     		pop	{r3, pc}
 921              	.L103:
 922              		.align	2
 923              	.L102:
 924 000c 00000000 		.word	pMCI
 925              		.cfi_endproc
 926              	.LFE1460:
 928              		.section	.text.MC_GetPhaseVoltageAmplitudeMotor1,"ax",%progbits
 929              		.align	1
 930              		.weak	MC_GetPhaseVoltageAmplitudeMotor1
 931              		.syntax unified
 932              		.thumb
 933              		.thumb_func
 934              		.fpu fpv4-sp-d16
 936              	MC_GetPhaseVoltageAmplitudeMotor1:
 937              	.LFB1461:
 477:Src/mc_api.c  **** 
 478:Src/mc_api.c  **** /**
 479:Src/mc_api.c  ****  * @brief returns the amplitude of the phase voltage applied to Motor 1
 480:Src/mc_api.c  ****  *
 481:Src/mc_api.c  ****  * The returned amplitude (0-to-peak) is expressed in s16V unit. To convert it to volts, use the fo
 482:Src/mc_api.c  ****  *
 483:Src/mc_api.c  ****  * @f[
 484:Src/mc_api.c  ****  * U_{Volts} = \frac{ U_{s16V} \times V_{bus}}{ \sqrt{3} \times 32768  }
ARM GAS  /tmp/ccL1GIPz.s 			page 25


 485:Src/mc_api.c  ****  * @f]
 486:Src/mc_api.c  ****  *
 487:Src/mc_api.c  ****  */
 488:Src/mc_api.c  **** __weak int16_t MC_GetPhaseVoltageAmplitudeMotor1(void)
 489:Src/mc_api.c  **** {
 938              		.loc 1 489 1 is_stmt 1 view -0
 939              		.cfi_startproc
 940              		@ args = 0, pretend = 0, frame = 0
 941              		@ frame_needed = 0, uses_anonymous_args = 0
 942 0000 08B5     		push	{r3, lr}
 943              		.cfi_def_cfa_offset 8
 944              		.cfi_offset 3, -8
 945              		.cfi_offset 14, -4
 490:Src/mc_api.c  **** 	return MCI_GetPhaseVoltageAmplitude( pMCI[M1] );
 946              		.loc 1 490 2 view .LVU116
 947              		.loc 1 490 9 is_stmt 0 view .LVU117
 948 0002 024B     		ldr	r3, .L106
 949 0004 1868     		ldr	r0, [r3]
 950 0006 FFF7FEFF 		bl	MCI_GetPhaseVoltageAmplitude
 951              	.LVL40:
 491:Src/mc_api.c  **** }
 952              		.loc 1 491 1 view .LVU118
 953 000a 08BD     		pop	{r3, pc}
 954              	.L107:
 955              		.align	2
 956              	.L106:
 957 000c 00000000 		.word	pMCI
 958              		.cfi_endproc
 959              	.LFE1461:
 961              		.section	.text.MC_GetIabMotor1,"ax",%progbits
 962              		.align	1
 963              		.weak	MC_GetIabMotor1
 964              		.syntax unified
 965              		.thumb
 966              		.thumb_func
 967              		.fpu fpv4-sp-d16
 969              	MC_GetIabMotor1:
 970              	.LFB1462:
 492:Src/mc_api.c  **** 
 493:Src/mc_api.c  **** /**
 494:Src/mc_api.c  ****  * @brief returns Ia and Ib current values for Motor 1 in ab_t format
 495:Src/mc_api.c  ****  */
 496:Src/mc_api.c  **** __weak ab_t MC_GetIabMotor1(void)
 497:Src/mc_api.c  **** {
 971              		.loc 1 497 1 is_stmt 1 view -0
 972              		.cfi_startproc
 973              		@ args = 0, pretend = 0, frame = 8
 974              		@ frame_needed = 0, uses_anonymous_args = 0
 975 0000 00B5     		push	{lr}
 976              		.cfi_def_cfa_offset 4
 977              		.cfi_offset 14, -4
 978 0002 83B0     		sub	sp, sp, #12
 979              		.cfi_def_cfa_offset 16
 498:Src/mc_api.c  **** 	return MCI_GetIab( pMCI[M1] );
 980              		.loc 1 498 2 view .LVU120
 981              		.loc 1 498 9 is_stmt 0 view .LVU121
 982 0004 074B     		ldr	r3, .L110
ARM GAS  /tmp/ccL1GIPz.s 			page 26


 983 0006 1868     		ldr	r0, [r3]
 984 0008 FFF7FEFF 		bl	MCI_GetIab
 985              	.LVL41:
 986 000c 0346     		mov	r3, r0
 987 000e 0020     		movs	r0, #0
 988 0010 9AB2     		uxth	r2, r3
 989 0012 62F30F00 		bfi	r0, r2, #0, #16
 990 0016 1B0C     		lsrs	r3, r3, #16
 991 0018 63F31F40 		bfi	r0, r3, #16, #16
 499:Src/mc_api.c  **** }
 992              		.loc 1 499 1 view .LVU122
 993 001c 03B0     		add	sp, sp, #12
 994              		.cfi_def_cfa_offset 4
 995              		@ sp needed
 996 001e 5DF804FB 		ldr	pc, [sp], #4
 997              	.L111:
 998 0022 00BF     		.align	2
 999              	.L110:
 1000 0024 00000000 		.word	pMCI
 1001              		.cfi_endproc
 1002              	.LFE1462:
 1004              		.section	.text.MC_GetIabMotor1_F,"ax",%progbits
 1005              		.align	1
 1006              		.weak	MC_GetIabMotor1_F
 1007              		.syntax unified
 1008              		.thumb
 1009              		.thumb_func
 1010              		.fpu fpv4-sp-d16
 1012              	MC_GetIabMotor1_F:
 1013              	.LFB1463:
 500:Src/mc_api.c  **** 
 501:Src/mc_api.c  **** /**
 502:Src/mc_api.c  ****  * @brief returns Ia and Ib current values for Motor 1 in ab_f_t format
 503:Src/mc_api.c  ****  */
 504:Src/mc_api.c  **** __weak ab_f_t MC_GetIabMotor1_F(void)
 505:Src/mc_api.c  **** {
 1014              		.loc 1 505 1 is_stmt 1 view -0
 1015              		.cfi_startproc
 1016              		@ args = 0, pretend = 0, frame = 16
 1017              		@ frame_needed = 0, uses_anonymous_args = 0
 1018 0000 00B5     		push	{lr}
 1019              		.cfi_def_cfa_offset 4
 1020              		.cfi_offset 14, -4
 1021 0002 85B0     		sub	sp, sp, #20
 1022              		.cfi_def_cfa_offset 24
 506:Src/mc_api.c  **** 	return MCI_GetIab_F( pMCI[M1] );
 1023              		.loc 1 506 2 view .LVU124
 1024              		.loc 1 506 9 is_stmt 0 view .LVU125
 1025 0004 034B     		ldr	r3, .L114
 1026 0006 1868     		ldr	r0, [r3]
 1027 0008 FFF7FEFF 		bl	MCI_GetIab_F
 1028              	.LVL42:
 507:Src/mc_api.c  **** }
 1029              		.loc 1 507 1 view .LVU126
 1030 000c 05B0     		add	sp, sp, #20
 1031              		.cfi_def_cfa_offset 4
 1032              		@ sp needed
ARM GAS  /tmp/ccL1GIPz.s 			page 27


 1033 000e 5DF804FB 		ldr	pc, [sp], #4
 1034              	.L115:
 1035 0012 00BF     		.align	2
 1036              	.L114:
 1037 0014 00000000 		.word	pMCI
 1038              		.cfi_endproc
 1039              	.LFE1463:
 1041              		.section	.text.MC_GetIalphabetaMotor1,"ax",%progbits
 1042              		.align	1
 1043              		.weak	MC_GetIalphabetaMotor1
 1044              		.syntax unified
 1045              		.thumb
 1046              		.thumb_func
 1047              		.fpu fpv4-sp-d16
 1049              	MC_GetIalphabetaMotor1:
 1050              	.LFB1464:
 508:Src/mc_api.c  **** 
 509:Src/mc_api.c  **** /**
 510:Src/mc_api.c  ****  * @brief returns Ialpha and Ibeta current values for Motor 1 in alphabeta_t format
 511:Src/mc_api.c  ****  */
 512:Src/mc_api.c  **** __weak alphabeta_t MC_GetIalphabetaMotor1(void)
 513:Src/mc_api.c  **** {
 1051              		.loc 1 513 1 is_stmt 1 view -0
 1052              		.cfi_startproc
 1053              		@ args = 0, pretend = 0, frame = 8
 1054              		@ frame_needed = 0, uses_anonymous_args = 0
 1055 0000 00B5     		push	{lr}
 1056              		.cfi_def_cfa_offset 4
 1057              		.cfi_offset 14, -4
 1058 0002 83B0     		sub	sp, sp, #12
 1059              		.cfi_def_cfa_offset 16
 514:Src/mc_api.c  **** 	return MCI_GetIalphabeta( pMCI[M1] );
 1060              		.loc 1 514 2 view .LVU128
 1061              		.loc 1 514 9 is_stmt 0 view .LVU129
 1062 0004 074B     		ldr	r3, .L118
 1063 0006 1868     		ldr	r0, [r3]
 1064 0008 FFF7FEFF 		bl	MCI_GetIalphabeta
 1065              	.LVL43:
 1066 000c 0346     		mov	r3, r0
 1067 000e 0020     		movs	r0, #0
 1068 0010 9AB2     		uxth	r2, r3
 1069 0012 62F30F00 		bfi	r0, r2, #0, #16
 1070 0016 1B0C     		lsrs	r3, r3, #16
 1071 0018 63F31F40 		bfi	r0, r3, #16, #16
 515:Src/mc_api.c  **** }
 1072              		.loc 1 515 1 view .LVU130
 1073 001c 03B0     		add	sp, sp, #12
 1074              		.cfi_def_cfa_offset 4
 1075              		@ sp needed
 1076 001e 5DF804FB 		ldr	pc, [sp], #4
 1077              	.L119:
 1078 0022 00BF     		.align	2
 1079              	.L118:
 1080 0024 00000000 		.word	pMCI
 1081              		.cfi_endproc
 1082              	.LFE1464:
 1084              		.section	.text.MC_GetIqdMotor1,"ax",%progbits
ARM GAS  /tmp/ccL1GIPz.s 			page 28


 1085              		.align	1
 1086              		.weak	MC_GetIqdMotor1
 1087              		.syntax unified
 1088              		.thumb
 1089              		.thumb_func
 1090              		.fpu fpv4-sp-d16
 1092              	MC_GetIqdMotor1:
 1093              	.LFB1465:
 516:Src/mc_api.c  **** 
 517:Src/mc_api.c  **** /**
 518:Src/mc_api.c  ****  * @brief returns Iq and Id current values for Motor 1 in qd_t format
 519:Src/mc_api.c  ****  */
 520:Src/mc_api.c  **** __weak qd_t MC_GetIqdMotor1(void)
 521:Src/mc_api.c  **** {
 1094              		.loc 1 521 1 is_stmt 1 view -0
 1095              		.cfi_startproc
 1096              		@ args = 0, pretend = 0, frame = 8
 1097              		@ frame_needed = 0, uses_anonymous_args = 0
 1098 0000 00B5     		push	{lr}
 1099              		.cfi_def_cfa_offset 4
 1100              		.cfi_offset 14, -4
 1101 0002 83B0     		sub	sp, sp, #12
 1102              		.cfi_def_cfa_offset 16
 522:Src/mc_api.c  **** 	return MCI_GetIqd( pMCI[M1] );
 1103              		.loc 1 522 2 view .LVU132
 1104              		.loc 1 522 9 is_stmt 0 view .LVU133
 1105 0004 074B     		ldr	r3, .L122
 1106 0006 1868     		ldr	r0, [r3]
 1107 0008 FFF7FEFF 		bl	MCI_GetIqd
 1108              	.LVL44:
 1109 000c 0346     		mov	r3, r0
 1110 000e 0020     		movs	r0, #0
 1111 0010 9AB2     		uxth	r2, r3
 1112 0012 62F30F00 		bfi	r0, r2, #0, #16
 1113 0016 1B0C     		lsrs	r3, r3, #16
 1114 0018 63F31F40 		bfi	r0, r3, #16, #16
 523:Src/mc_api.c  **** }
 1115              		.loc 1 523 1 view .LVU134
 1116 001c 03B0     		add	sp, sp, #12
 1117              		.cfi_def_cfa_offset 4
 1118              		@ sp needed
 1119 001e 5DF804FB 		ldr	pc, [sp], #4
 1120              	.L123:
 1121 0022 00BF     		.align	2
 1122              	.L122:
 1123 0024 00000000 		.word	pMCI
 1124              		.cfi_endproc
 1125              	.LFE1465:
 1127              		.section	.text.MC_GetIqdMotor1_F,"ax",%progbits
 1128              		.align	1
 1129              		.weak	MC_GetIqdMotor1_F
 1130              		.syntax unified
 1131              		.thumb
 1132              		.thumb_func
 1133              		.fpu fpv4-sp-d16
 1135              	MC_GetIqdMotor1_F:
 1136              	.LFB1466:
ARM GAS  /tmp/ccL1GIPz.s 			page 29


 524:Src/mc_api.c  **** 
 525:Src/mc_api.c  **** /**
 526:Src/mc_api.c  ****  * @brief returns Iq and Id current values for Motor 1 in float type
 527:Src/mc_api.c  ****  */
 528:Src/mc_api.c  **** __weak qd_f_t MC_GetIqdMotor1_F(void)
 529:Src/mc_api.c  **** {
 1137              		.loc 1 529 1 is_stmt 1 view -0
 1138              		.cfi_startproc
 1139              		@ args = 0, pretend = 0, frame = 16
 1140              		@ frame_needed = 0, uses_anonymous_args = 0
 1141 0000 00B5     		push	{lr}
 1142              		.cfi_def_cfa_offset 4
 1143              		.cfi_offset 14, -4
 1144 0002 85B0     		sub	sp, sp, #20
 1145              		.cfi_def_cfa_offset 24
 530:Src/mc_api.c  **** 	return MCI_GetIqd_F( pMCI[M1] );
 1146              		.loc 1 530 2 view .LVU136
 1147              		.loc 1 530 9 is_stmt 0 view .LVU137
 1148 0004 034B     		ldr	r3, .L126
 1149 0006 1868     		ldr	r0, [r3]
 1150 0008 FFF7FEFF 		bl	MCI_GetIqd_F
 1151              	.LVL45:
 531:Src/mc_api.c  **** }
 1152              		.loc 1 531 1 view .LVU138
 1153 000c 05B0     		add	sp, sp, #20
 1154              		.cfi_def_cfa_offset 4
 1155              		@ sp needed
 1156 000e 5DF804FB 		ldr	pc, [sp], #4
 1157              	.L127:
 1158 0012 00BF     		.align	2
 1159              	.L126:
 1160 0014 00000000 		.word	pMCI
 1161              		.cfi_endproc
 1162              	.LFE1466:
 1164              		.section	.text.MC_GetIqdrefMotor1,"ax",%progbits
 1165              		.align	1
 1166              		.weak	MC_GetIqdrefMotor1
 1167              		.syntax unified
 1168              		.thumb
 1169              		.thumb_func
 1170              		.fpu fpv4-sp-d16
 1172              	MC_GetIqdrefMotor1:
 1173              	.LFB1467:
 532:Src/mc_api.c  **** 
 533:Src/mc_api.c  **** /**
 534:Src/mc_api.c  ****  * @brief returns Iq and Id reference current values for Motor 1 in qd_t format
 535:Src/mc_api.c  ****  */
 536:Src/mc_api.c  **** __weak qd_t MC_GetIqdrefMotor1(void)
 537:Src/mc_api.c  **** {
 1174              		.loc 1 537 1 is_stmt 1 view -0
 1175              		.cfi_startproc
 1176              		@ args = 0, pretend = 0, frame = 8
 1177              		@ frame_needed = 0, uses_anonymous_args = 0
 1178 0000 00B5     		push	{lr}
 1179              		.cfi_def_cfa_offset 4
 1180              		.cfi_offset 14, -4
 1181 0002 83B0     		sub	sp, sp, #12
ARM GAS  /tmp/ccL1GIPz.s 			page 30


 1182              		.cfi_def_cfa_offset 16
 538:Src/mc_api.c  **** 	return MCI_GetIqdref( pMCI[M1] );
 1183              		.loc 1 538 2 view .LVU140
 1184              		.loc 1 538 9 is_stmt 0 view .LVU141
 1185 0004 074B     		ldr	r3, .L130
 1186 0006 1868     		ldr	r0, [r3]
 1187 0008 FFF7FEFF 		bl	MCI_GetIqdref
 1188              	.LVL46:
 1189 000c 0346     		mov	r3, r0
 1190 000e 0020     		movs	r0, #0
 1191 0010 9AB2     		uxth	r2, r3
 1192 0012 62F30F00 		bfi	r0, r2, #0, #16
 1193 0016 1B0C     		lsrs	r3, r3, #16
 1194 0018 63F31F40 		bfi	r0, r3, #16, #16
 539:Src/mc_api.c  **** }
 1195              		.loc 1 539 1 view .LVU142
 1196 001c 03B0     		add	sp, sp, #12
 1197              		.cfi_def_cfa_offset 4
 1198              		@ sp needed
 1199 001e 5DF804FB 		ldr	pc, [sp], #4
 1200              	.L131:
 1201 0022 00BF     		.align	2
 1202              	.L130:
 1203 0024 00000000 		.word	pMCI
 1204              		.cfi_endproc
 1205              	.LFE1467:
 1207              		.section	.text.MC_GetIqdrefMotor1_F,"ax",%progbits
 1208              		.align	1
 1209              		.weak	MC_GetIqdrefMotor1_F
 1210              		.syntax unified
 1211              		.thumb
 1212              		.thumb_func
 1213              		.fpu fpv4-sp-d16
 1215              	MC_GetIqdrefMotor1_F:
 1216              	.LFB1468:
 540:Src/mc_api.c  **** 
 541:Src/mc_api.c  **** /**
 542:Src/mc_api.c  ****  * @brief returns Iq and Id reference current values for Motor 1 in float type
 543:Src/mc_api.c  ****  */
 544:Src/mc_api.c  **** __weak qd_f_t MC_GetIqdrefMotor1_F(void)
 545:Src/mc_api.c  **** {
 1217              		.loc 1 545 1 is_stmt 1 view -0
 1218              		.cfi_startproc
 1219              		@ args = 0, pretend = 0, frame = 16
 1220              		@ frame_needed = 0, uses_anonymous_args = 0
 1221 0000 00B5     		push	{lr}
 1222              		.cfi_def_cfa_offset 4
 1223              		.cfi_offset 14, -4
 1224 0002 85B0     		sub	sp, sp, #20
 1225              		.cfi_def_cfa_offset 24
 546:Src/mc_api.c  **** 	return MCI_GetIqdref_F( pMCI[M1] );
 1226              		.loc 1 546 2 view .LVU144
 1227              		.loc 1 546 9 is_stmt 0 view .LVU145
 1228 0004 034B     		ldr	r3, .L134
 1229 0006 1868     		ldr	r0, [r3]
 1230 0008 FFF7FEFF 		bl	MCI_GetIqdref_F
 1231              	.LVL47:
ARM GAS  /tmp/ccL1GIPz.s 			page 31


 547:Src/mc_api.c  **** }
 1232              		.loc 1 547 1 view .LVU146
 1233 000c 05B0     		add	sp, sp, #20
 1234              		.cfi_def_cfa_offset 4
 1235              		@ sp needed
 1236 000e 5DF804FB 		ldr	pc, [sp], #4
 1237              	.L135:
 1238 0012 00BF     		.align	2
 1239              	.L134:
 1240 0014 00000000 		.word	pMCI
 1241              		.cfi_endproc
 1242              	.LFE1468:
 1244              		.section	.text.MC_GetVqdMotor1,"ax",%progbits
 1245              		.align	1
 1246              		.weak	MC_GetVqdMotor1
 1247              		.syntax unified
 1248              		.thumb
 1249              		.thumb_func
 1250              		.fpu fpv4-sp-d16
 1252              	MC_GetVqdMotor1:
 1253              	.LFB1469:
 548:Src/mc_api.c  **** 
 549:Src/mc_api.c  **** /**
 550:Src/mc_api.c  ****  * @brief returns Vq and Vd voltage values for Motor 1 in qd_t format
 551:Src/mc_api.c  ****  */
 552:Src/mc_api.c  **** __weak qd_t MC_GetVqdMotor1(void)
 553:Src/mc_api.c  **** {
 1254              		.loc 1 553 1 is_stmt 1 view -0
 1255              		.cfi_startproc
 1256              		@ args = 0, pretend = 0, frame = 8
 1257              		@ frame_needed = 0, uses_anonymous_args = 0
 1258 0000 00B5     		push	{lr}
 1259              		.cfi_def_cfa_offset 4
 1260              		.cfi_offset 14, -4
 1261 0002 83B0     		sub	sp, sp, #12
 1262              		.cfi_def_cfa_offset 16
 554:Src/mc_api.c  **** 	return MCI_GetVqd( pMCI[M1] );
 1263              		.loc 1 554 2 view .LVU148
 1264              		.loc 1 554 9 is_stmt 0 view .LVU149
 1265 0004 074B     		ldr	r3, .L138
 1266 0006 1868     		ldr	r0, [r3]
 1267 0008 FFF7FEFF 		bl	MCI_GetVqd
 1268              	.LVL48:
 1269 000c 0346     		mov	r3, r0
 1270 000e 0020     		movs	r0, #0
 1271 0010 9AB2     		uxth	r2, r3
 1272 0012 62F30F00 		bfi	r0, r2, #0, #16
 1273 0016 1B0C     		lsrs	r3, r3, #16
 1274 0018 63F31F40 		bfi	r0, r3, #16, #16
 555:Src/mc_api.c  **** }
 1275              		.loc 1 555 1 view .LVU150
 1276 001c 03B0     		add	sp, sp, #12
 1277              		.cfi_def_cfa_offset 4
 1278              		@ sp needed
 1279 001e 5DF804FB 		ldr	pc, [sp], #4
 1280              	.L139:
 1281 0022 00BF     		.align	2
ARM GAS  /tmp/ccL1GIPz.s 			page 32


 1282              	.L138:
 1283 0024 00000000 		.word	pMCI
 1284              		.cfi_endproc
 1285              	.LFE1469:
 1287              		.section	.text.MC_GetValphabetaMotor1,"ax",%progbits
 1288              		.align	1
 1289              		.weak	MC_GetValphabetaMotor1
 1290              		.syntax unified
 1291              		.thumb
 1292              		.thumb_func
 1293              		.fpu fpv4-sp-d16
 1295              	MC_GetValphabetaMotor1:
 1296              	.LFB1470:
 556:Src/mc_api.c  **** 
 557:Src/mc_api.c  **** /**
 558:Src/mc_api.c  ****  * @brief returns Valpha and Vbeta voltage values for Motor 1 in alphabeta_t format
 559:Src/mc_api.c  ****  */
 560:Src/mc_api.c  **** __weak alphabeta_t MC_GetValphabetaMotor1(void)
 561:Src/mc_api.c  **** {
 1297              		.loc 1 561 1 is_stmt 1 view -0
 1298              		.cfi_startproc
 1299              		@ args = 0, pretend = 0, frame = 8
 1300              		@ frame_needed = 0, uses_anonymous_args = 0
 1301 0000 00B5     		push	{lr}
 1302              		.cfi_def_cfa_offset 4
 1303              		.cfi_offset 14, -4
 1304 0002 83B0     		sub	sp, sp, #12
 1305              		.cfi_def_cfa_offset 16
 562:Src/mc_api.c  **** 	return MCI_GetValphabeta( pMCI[M1] );
 1306              		.loc 1 562 2 view .LVU152
 1307              		.loc 1 562 9 is_stmt 0 view .LVU153
 1308 0004 074B     		ldr	r3, .L142
 1309 0006 1868     		ldr	r0, [r3]
 1310 0008 FFF7FEFF 		bl	MCI_GetValphabeta
 1311              	.LVL49:
 1312 000c 0346     		mov	r3, r0
 1313 000e 0020     		movs	r0, #0
 1314 0010 9AB2     		uxth	r2, r3
 1315 0012 62F30F00 		bfi	r0, r2, #0, #16
 1316 0016 1B0C     		lsrs	r3, r3, #16
 1317 0018 63F31F40 		bfi	r0, r3, #16, #16
 563:Src/mc_api.c  **** }
 1318              		.loc 1 563 1 view .LVU154
 1319 001c 03B0     		add	sp, sp, #12
 1320              		.cfi_def_cfa_offset 4
 1321              		@ sp needed
 1322 001e 5DF804FB 		ldr	pc, [sp], #4
 1323              	.L143:
 1324 0022 00BF     		.align	2
 1325              	.L142:
 1326 0024 00000000 		.word	pMCI
 1327              		.cfi_endproc
 1328              	.LFE1470:
 1330              		.section	.text.MC_GetElAngledppMotor1,"ax",%progbits
 1331              		.align	1
 1332              		.weak	MC_GetElAngledppMotor1
 1333              		.syntax unified
ARM GAS  /tmp/ccL1GIPz.s 			page 33


 1334              		.thumb
 1335              		.thumb_func
 1336              		.fpu fpv4-sp-d16
 1338              	MC_GetElAngledppMotor1:
 1339              	.LFB1471:
 564:Src/mc_api.c  **** 
 565:Src/mc_api.c  **** /**
 566:Src/mc_api.c  ****  * @brief returns the electrical angle of the rotor of Motor 1, in DDP format
 567:Src/mc_api.c  ****  */
 568:Src/mc_api.c  **** __weak int16_t MC_GetElAngledppMotor1(void)
 569:Src/mc_api.c  **** {
 1340              		.loc 1 569 1 is_stmt 1 view -0
 1341              		.cfi_startproc
 1342              		@ args = 0, pretend = 0, frame = 0
 1343              		@ frame_needed = 0, uses_anonymous_args = 0
 1344 0000 08B5     		push	{r3, lr}
 1345              		.cfi_def_cfa_offset 8
 1346              		.cfi_offset 3, -8
 1347              		.cfi_offset 14, -4
 570:Src/mc_api.c  **** 	return MCI_GetElAngledpp( pMCI[M1] );
 1348              		.loc 1 570 2 view .LVU156
 1349              		.loc 1 570 9 is_stmt 0 view .LVU157
 1350 0002 024B     		ldr	r3, .L146
 1351 0004 1868     		ldr	r0, [r3]
 1352 0006 FFF7FEFF 		bl	MCI_GetElAngledpp
 1353              	.LVL50:
 571:Src/mc_api.c  **** }
 1354              		.loc 1 571 1 view .LVU158
 1355 000a 08BD     		pop	{r3, pc}
 1356              	.L147:
 1357              		.align	2
 1358              	.L146:
 1359 000c 00000000 		.word	pMCI
 1360              		.cfi_endproc
 1361              	.LFE1471:
 1363              		.section	.text.MC_GetTerefMotor1,"ax",%progbits
 1364              		.align	1
 1365              		.weak	MC_GetTerefMotor1
 1366              		.syntax unified
 1367              		.thumb
 1368              		.thumb_func
 1369              		.fpu fpv4-sp-d16
 1371              	MC_GetTerefMotor1:
 1372              	.LFB1472:
 572:Src/mc_api.c  **** 
 573:Src/mc_api.c  **** /**
 574:Src/mc_api.c  ****  * @brief returns the electrical torque reference for Motor 1
 575:Src/mc_api.c  ****  */
 576:Src/mc_api.c  **** __weak int16_t MC_GetTerefMotor1(void)
 577:Src/mc_api.c  **** {
 1373              		.loc 1 577 1 is_stmt 1 view -0
 1374              		.cfi_startproc
 1375              		@ args = 0, pretend = 0, frame = 0
 1376              		@ frame_needed = 0, uses_anonymous_args = 0
 1377 0000 08B5     		push	{r3, lr}
 1378              		.cfi_def_cfa_offset 8
 1379              		.cfi_offset 3, -8
ARM GAS  /tmp/ccL1GIPz.s 			page 34


 1380              		.cfi_offset 14, -4
 578:Src/mc_api.c  **** 	return MCI_GetTeref( pMCI[M1] );
 1381              		.loc 1 578 2 view .LVU160
 1382              		.loc 1 578 9 is_stmt 0 view .LVU161
 1383 0002 024B     		ldr	r3, .L150
 1384 0004 1868     		ldr	r0, [r3]
 1385 0006 FFF7FEFF 		bl	MCI_GetTeref
 1386              	.LVL51:
 579:Src/mc_api.c  **** }
 1387              		.loc 1 579 1 view .LVU162
 1388 000a 08BD     		pop	{r3, pc}
 1389              	.L151:
 1390              		.align	2
 1391              	.L150:
 1392 000c 00000000 		.word	pMCI
 1393              		.cfi_endproc
 1394              	.LFE1472:
 1396              		.section	.text.MC_GetTerefMotor1_F,"ax",%progbits
 1397              		.align	1
 1398              		.weak	MC_GetTerefMotor1_F
 1399              		.syntax unified
 1400              		.thumb
 1401              		.thumb_func
 1402              		.fpu fpv4-sp-d16
 1404              	MC_GetTerefMotor1_F:
 1405              	.LFB1473:
 580:Src/mc_api.c  **** 
 581:Src/mc_api.c  **** /**
 582:Src/mc_api.c  ****  * @brief returns the electrical torque reference for Motor 1
 583:Src/mc_api.c  ****  */
 584:Src/mc_api.c  **** __weak float MC_GetTerefMotor1_F(void)
 585:Src/mc_api.c  **** {
 1406              		.loc 1 585 1 is_stmt 1 view -0
 1407              		.cfi_startproc
 1408              		@ args = 0, pretend = 0, frame = 0
 1409              		@ frame_needed = 0, uses_anonymous_args = 0
 1410 0000 08B5     		push	{r3, lr}
 1411              		.cfi_def_cfa_offset 8
 1412              		.cfi_offset 3, -8
 1413              		.cfi_offset 14, -4
 586:Src/mc_api.c  **** 	return MCI_GetTeref_F( pMCI[M1] );
 1414              		.loc 1 586 2 view .LVU164
 1415              		.loc 1 586 9 is_stmt 0 view .LVU165
 1416 0002 024B     		ldr	r3, .L154
 1417 0004 1868     		ldr	r0, [r3]
 1418 0006 FFF7FEFF 		bl	MCI_GetTeref_F
 1419              	.LVL52:
 587:Src/mc_api.c  **** }
 1420              		.loc 1 587 1 view .LVU166
 1421 000a 08BD     		pop	{r3, pc}
 1422              	.L155:
 1423              		.align	2
 1424              	.L154:
 1425 000c 00000000 		.word	pMCI
 1426              		.cfi_endproc
 1427              	.LFE1473:
 1429              		.section	.text.MC_Clear_IqdrefMotor1,"ax",%progbits
ARM GAS  /tmp/ccL1GIPz.s 			page 35


 1430              		.align	1
 1431              		.weak	MC_Clear_IqdrefMotor1
 1432              		.syntax unified
 1433              		.thumb
 1434              		.thumb_func
 1435              		.fpu fpv4-sp-d16
 1437              	MC_Clear_IqdrefMotor1:
 1438              	.LFB1474:
 588:Src/mc_api.c  **** 
 589:Src/mc_api.c  **** /**
 590:Src/mc_api.c  ****  * @brief re-initializes Iq and Id references to their default values for Motor 1
 591:Src/mc_api.c  ****  *
 592:Src/mc_api.c  ****  * The default values for the Iq and Id references are coming from the Speed
 593:Src/mc_api.c  ****  * or the Torque controller depending on the control mode.
 594:Src/mc_api.c  ****  *
 595:Src/mc_api.c  ****  * @see   SpeednTorqCtrl for more details.
 596:Src/mc_api.c  ****  */
 597:Src/mc_api.c  **** __weak void MC_Clear_IqdrefMotor1(void)
 598:Src/mc_api.c  **** {
 1439              		.loc 1 598 1 is_stmt 1 view -0
 1440              		.cfi_startproc
 1441              		@ args = 0, pretend = 0, frame = 0
 1442              		@ frame_needed = 0, uses_anonymous_args = 0
 1443 0000 08B5     		push	{r3, lr}
 1444              		.cfi_def_cfa_offset 8
 1445              		.cfi_offset 3, -8
 1446              		.cfi_offset 14, -4
 599:Src/mc_api.c  **** 	MCI_Clear_Iqdref( pMCI[M1] );
 1447              		.loc 1 599 2 view .LVU168
 1448 0002 024B     		ldr	r3, .L158
 1449 0004 1868     		ldr	r0, [r3]
 1450 0006 FFF7FEFF 		bl	MCI_Clear_Iqdref
 1451              	.LVL53:
 600:Src/mc_api.c  **** }
 1452              		.loc 1 600 1 is_stmt 0 view .LVU169
 1453 000a 08BD     		pop	{r3, pc}
 1454              	.L159:
 1455              		.align	2
 1456              	.L158:
 1457 000c 00000000 		.word	pMCI
 1458              		.cfi_endproc
 1459              	.LFE1474:
 1461              		.section	.text.MC_AcknowledgeFaultMotor1,"ax",%progbits
 1462              		.align	1
 1463              		.weak	MC_AcknowledgeFaultMotor1
 1464              		.syntax unified
 1465              		.thumb
 1466              		.thumb_func
 1467              		.fpu fpv4-sp-d16
 1469              	MC_AcknowledgeFaultMotor1:
 1470              	.LFB1475:
 601:Src/mc_api.c  **** 
 602:Src/mc_api.c  **** /**
 603:Src/mc_api.c  ****  * @brief Acknowledge a Motor Control fault that occured on Motor 1
 604:Src/mc_api.c  ****  *
 605:Src/mc_api.c  ****  *  This function informs Motor 1's state machine that the Application has taken
 606:Src/mc_api.c  ****  * the error condition that occured into account. If no error condition exists when
ARM GAS  /tmp/ccL1GIPz.s 			page 36


 607:Src/mc_api.c  ****  * the function is called, nothing is done and false is returned. Otherwise, true is
 608:Src/mc_api.c  ****  * returned.
 609:Src/mc_api.c  ****  */
 610:Src/mc_api.c  **** __weak bool MC_AcknowledgeFaultMotor1( void )
 611:Src/mc_api.c  **** {
 1471              		.loc 1 611 1 is_stmt 1 view -0
 1472              		.cfi_startproc
 1473              		@ args = 0, pretend = 0, frame = 0
 1474              		@ frame_needed = 0, uses_anonymous_args = 0
 1475 0000 08B5     		push	{r3, lr}
 1476              		.cfi_def_cfa_offset 8
 1477              		.cfi_offset 3, -8
 1478              		.cfi_offset 14, -4
 612:Src/mc_api.c  **** 	return MCI_FaultAcknowledged( pMCI[M1] );
 1479              		.loc 1 612 2 view .LVU171
 1480              		.loc 1 612 9 is_stmt 0 view .LVU172
 1481 0002 024B     		ldr	r3, .L162
 1482 0004 1868     		ldr	r0, [r3]
 1483 0006 FFF7FEFF 		bl	MCI_FaultAcknowledged
 1484              	.LVL54:
 613:Src/mc_api.c  **** }
 1485              		.loc 1 613 1 view .LVU173
 1486 000a 08BD     		pop	{r3, pc}
 1487              	.L163:
 1488              		.align	2
 1489              	.L162:
 1490 000c 00000000 		.word	pMCI
 1491              		.cfi_endproc
 1492              	.LFE1475:
 1494              		.section	.text.MC_GetOccurredFaultsMotor1,"ax",%progbits
 1495              		.align	1
 1496              		.weak	MC_GetOccurredFaultsMotor1
 1497              		.syntax unified
 1498              		.thumb
 1499              		.thumb_func
 1500              		.fpu fpv4-sp-d16
 1502              	MC_GetOccurredFaultsMotor1:
 1503              	.LFB1476:
 614:Src/mc_api.c  **** 
 615:Src/mc_api.c  **** /**
 616:Src/mc_api.c  ****  * @brief Returns a bitfiled showing "new" faults that occured on Motor 1
 617:Src/mc_api.c  ****  *
 618:Src/mc_api.c  ****  * This function returns a 16 bit fields containing the Motor Control faults
 619:Src/mc_api.c  ****  * that have occurred on Motor 1 since its state machine moved to the #FAULT_NOW state.
 620:Src/mc_api.c  ****  *
 621:Src/mc_api.c  ****  * See @ref fault_codes "Motor Control Faults" for a list of
 622:Src/mc_api.c  ****  * of all possible faults codes.
 623:Src/mc_api.c  ****  */
 624:Src/mc_api.c  **** __weak uint16_t MC_GetOccurredFaultsMotor1(void)
 625:Src/mc_api.c  **** {
 1504              		.loc 1 625 1 is_stmt 1 view -0
 1505              		.cfi_startproc
 1506              		@ args = 0, pretend = 0, frame = 0
 1507              		@ frame_needed = 0, uses_anonymous_args = 0
 1508 0000 08B5     		push	{r3, lr}
 1509              		.cfi_def_cfa_offset 8
 1510              		.cfi_offset 3, -8
ARM GAS  /tmp/ccL1GIPz.s 			page 37


 1511              		.cfi_offset 14, -4
 626:Src/mc_api.c  **** 	return MCI_GetOccurredFaults( pMCI[M1] );
 1512              		.loc 1 626 2 view .LVU175
 1513              		.loc 1 626 9 is_stmt 0 view .LVU176
 1514 0002 024B     		ldr	r3, .L166
 1515 0004 1868     		ldr	r0, [r3]
 1516 0006 FFF7FEFF 		bl	MCI_GetOccurredFaults
 1517              	.LVL55:
 627:Src/mc_api.c  **** }
 1518              		.loc 1 627 1 view .LVU177
 1519 000a 08BD     		pop	{r3, pc}
 1520              	.L167:
 1521              		.align	2
 1522              	.L166:
 1523 000c 00000000 		.word	pMCI
 1524              		.cfi_endproc
 1525              	.LFE1476:
 1527              		.section	.text.MC_GetCurrentFaultsMotor1,"ax",%progbits
 1528              		.align	1
 1529              		.weak	MC_GetCurrentFaultsMotor1
 1530              		.syntax unified
 1531              		.thumb
 1532              		.thumb_func
 1533              		.fpu fpv4-sp-d16
 1535              	MC_GetCurrentFaultsMotor1:
 1536              	.LFB1477:
 628:Src/mc_api.c  **** 
 629:Src/mc_api.c  **** /**
 630:Src/mc_api.c  ****  * @brief returns a bitfield showing all current faults on Motor 1
 631:Src/mc_api.c  ****  *
 632:Src/mc_api.c  ****  * This function returns a 16 bit fields containing the Motor Control faults
 633:Src/mc_api.c  ****  * that are currently active.
 634:Src/mc_api.c  ****  *
 635:Src/mc_api.c  ****  * See @ref fault_codes "Motor Control Faults" for a list of
 636:Src/mc_api.c  ****  * of all possible faults codes.
 637:Src/mc_api.c  ****  */
 638:Src/mc_api.c  **** __weak uint16_t MC_GetCurrentFaultsMotor1(void)
 639:Src/mc_api.c  **** {
 1537              		.loc 1 639 1 is_stmt 1 view -0
 1538              		.cfi_startproc
 1539              		@ args = 0, pretend = 0, frame = 0
 1540              		@ frame_needed = 0, uses_anonymous_args = 0
 1541 0000 08B5     		push	{r3, lr}
 1542              		.cfi_def_cfa_offset 8
 1543              		.cfi_offset 3, -8
 1544              		.cfi_offset 14, -4
 640:Src/mc_api.c  **** 	return MCI_GetCurrentFaults( pMCI[M1] );
 1545              		.loc 1 640 2 view .LVU179
 1546              		.loc 1 640 9 is_stmt 0 view .LVU180
 1547 0002 024B     		ldr	r3, .L170
 1548 0004 1868     		ldr	r0, [r3]
 1549 0006 FFF7FEFF 		bl	MCI_GetCurrentFaults
 1550              	.LVL56:
 641:Src/mc_api.c  **** }
 1551              		.loc 1 641 1 view .LVU181
 1552 000a 08BD     		pop	{r3, pc}
 1553              	.L171:
ARM GAS  /tmp/ccL1GIPz.s 			page 38


 1554              		.align	2
 1555              	.L170:
 1556 000c 00000000 		.word	pMCI
 1557              		.cfi_endproc
 1558              	.LFE1477:
 1560              		.section	.text.MC_GetSTMStateMotor1,"ax",%progbits
 1561              		.align	1
 1562              		.weak	MC_GetSTMStateMotor1
 1563              		.syntax unified
 1564              		.thumb
 1565              		.thumb_func
 1566              		.fpu fpv4-sp-d16
 1568              	MC_GetSTMStateMotor1:
 1569              	.LFB1478:
 642:Src/mc_api.c  **** 
 643:Src/mc_api.c  **** /**
 644:Src/mc_api.c  ****  * @brief returns the current state of Motor 1 state machine
 645:Src/mc_api.c  ****  */
 646:Src/mc_api.c  **** __weak MCI_State_t  MC_GetSTMStateMotor1(void)
 647:Src/mc_api.c  **** {
 1570              		.loc 1 647 1 is_stmt 1 view -0
 1571              		.cfi_startproc
 1572              		@ args = 0, pretend = 0, frame = 0
 1573              		@ frame_needed = 0, uses_anonymous_args = 0
 1574 0000 08B5     		push	{r3, lr}
 1575              		.cfi_def_cfa_offset 8
 1576              		.cfi_offset 3, -8
 1577              		.cfi_offset 14, -4
 648:Src/mc_api.c  **** 	return MCI_GetSTMState( pMCI[M1] );
 1578              		.loc 1 648 2 view .LVU183
 1579              		.loc 1 648 9 is_stmt 0 view .LVU184
 1580 0002 024B     		ldr	r3, .L174
 1581 0004 1868     		ldr	r0, [r3]
 1582 0006 FFF7FEFF 		bl	MCI_GetSTMState
 1583              	.LVL57:
 649:Src/mc_api.c  **** }
 1584              		.loc 1 649 1 view .LVU185
 1585 000a 08BD     		pop	{r3, pc}
 1586              	.L175:
 1587              		.align	2
 1588              	.L174:
 1589 000c 00000000 		.word	pMCI
 1590              		.cfi_endproc
 1591              	.LFE1478:
 1593              		.section	.text.MC_SetPolarizationOffsetsMotor1,"ax",%progbits
 1594              		.align	1
 1595              		.global	MC_SetPolarizationOffsetsMotor1
 1596              		.syntax unified
 1597              		.thumb
 1598              		.thumb_func
 1599              		.fpu fpv4-sp-d16
 1601              	MC_SetPolarizationOffsetsMotor1:
 1602              	.LVL58:
 1603              	.LFB1479:
 650:Src/mc_api.c  **** 
 651:Src/mc_api.c  **** /**
 652:Src/mc_api.c  ****   * @brief Sets the polarization offset values to use for Motor 1
ARM GAS  /tmp/ccL1GIPz.s 			page 39


 653:Src/mc_api.c  ****   *
 654:Src/mc_api.c  ****   * The Motor Control algorithm relies on a number of current and voltage measures. The hardware
 655:Src/mc_api.c  ****   * parts that make these measurements need to be characterized at least once in the course of
 656:Src/mc_api.c  ****   * product life, prior to its first activation. This characterization consists in measuring the
 657:Src/mc_api.c  ****   * voltage presented to the ADC channels when either no current flows into the phases of the motor
 658:Src/mc_api.c  ****   * or no voltage is applied to them. This characterization is named polarization offsets measureme
 659:Src/mc_api.c  ****   * and its results are the polarization offsets.
 660:Src/mc_api.c  ****   *
 661:Src/mc_api.c  ****   * The Motor Control Firmware can performs this polarization offsets measurement procedure which
 662:Src/mc_api.c  ****   * results in a number of offset values that the application can store in a non volatile memory an
 663:Src/mc_api.c  ****   * then set into the Motor Control subsystem at power-on or after a reset.
 664:Src/mc_api.c  ****   *
 665:Src/mc_api.c  ****   * The application uses this function to set the polarization offset values that the Motor Control
 666:Src/mc_api.c  ****   * subsystem is to use in the current session. This function can only be used when the state machi
 667:Src/mc_api.c  ****   * of the motor is in the #IDLE state in which case it returns #MC_SUCCESS. Otherwise, it does not
 668:Src/mc_api.c  ****   * and returns the #MC_WRONG_STATE_ERROR error code.
 669:Src/mc_api.c  ****   *
 670:Src/mc_api.c  ****   *  The Motor Control subsystem needs to know the polarization offsets before the motor can be con
 671:Src/mc_api.c  ****   * The MC_SetPolarizationOffsetsMotor1() function provides a way to set these offsets. Alternative
 672:Src/mc_api.c  ****   * application can either:
 673:Src/mc_api.c  ****   *
 674:Src/mc_api.c  ****   *  * Execute the polarization offsets measurement procedure with a call to
 675:Src/mc_api.c  ****   *    MC_StartPolarizationOffsetsMeasurementMotor1() after a reset or a power on;
 676:Src/mc_api.c  ****   *  * Start the motor control with the MC_StartWithPolarizationMotor1() that will execute the proc
 677:Src/mc_api.c  ****   *    before actually starting the motor, on the first time it is called after a reset or a power 
 678:Src/mc_api.c  ****   *
 679:Src/mc_api.c  ****   * When this function completes successfully, the state of the polarization offsets measurement pr
 680:Src/mc_api.c  ****   * is set to #COMPLETED. See MC_GetPolarizationState().
 681:Src/mc_api.c  ****   *
 682:Src/mc_api.c  ****   * @param PolarizationOffsets an pointer on a structure containing the offset values
 683:Src/mc_api.c  ****   */
 684:Src/mc_api.c  **** bool MC_SetPolarizationOffsetsMotor1( PolarizationOffsets_t * PolarizationOffsets )
 685:Src/mc_api.c  **** {
 1604              		.loc 1 685 1 is_stmt 1 view -0
 1605              		.cfi_startproc
 1606              		@ args = 0, pretend = 0, frame = 0
 1607              		@ frame_needed = 0, uses_anonymous_args = 0
 1608              		.loc 1 685 1 is_stmt 0 view .LVU187
 1609 0000 08B5     		push	{r3, lr}
 1610              		.cfi_def_cfa_offset 8
 1611              		.cfi_offset 3, -8
 1612              		.cfi_offset 14, -4
 1613 0002 0146     		mov	r1, r0
 686:Src/mc_api.c  **** 	return( MCI_SetCalibratedOffsetsMotor( pMCI[M1], PolarizationOffsets ) );
 1614              		.loc 1 686 2 is_stmt 1 view .LVU188
 1615              		.loc 1 686 10 is_stmt 0 view .LVU189
 1616 0004 024B     		ldr	r3, .L178
 1617 0006 1868     		ldr	r0, [r3]
 1618              	.LVL59:
 1619              		.loc 1 686 10 view .LVU190
 1620 0008 FFF7FEFF 		bl	MCI_SetCalibratedOffsetsMotor
 1621              	.LVL60:
 687:Src/mc_api.c  **** }
 1622              		.loc 1 687 1 view .LVU191
 1623 000c 08BD     		pop	{r3, pc}
 1624              	.L179:
 1625 000e 00BF     		.align	2
ARM GAS  /tmp/ccL1GIPz.s 			page 40


 1626              	.L178:
 1627 0010 00000000 		.word	pMCI
 1628              		.cfi_endproc
 1629              	.LFE1479:
 1631              		.section	.text.MC_GetPolarizationOffsetsMotor1,"ax",%progbits
 1632              		.align	1
 1633              		.global	MC_GetPolarizationOffsetsMotor1
 1634              		.syntax unified
 1635              		.thumb
 1636              		.thumb_func
 1637              		.fpu fpv4-sp-d16
 1639              	MC_GetPolarizationOffsetsMotor1:
 1640              	.LVL61:
 1641              	.LFB1480:
 688:Src/mc_api.c  **** 
 689:Src/mc_api.c  **** /**
 690:Src/mc_api.c  ****   * @brief Returns the polarization offset values measured or set for Motor 1
 691:Src/mc_api.c  ****   *
 692:Src/mc_api.c  ****   *  See MC_SetPolarizationOffsetsMotor1() for more details.
 693:Src/mc_api.c  ****   *
 694:Src/mc_api.c  ****   *  If the Motor Control Firmware knows the polarization offset values, they are copied into the
 695:Src/mc_api.c  ****   * @p PolarizationOffsets structure and #MC_SUCCESS is returned. Otherwise, nothing is done and
 696:Src/mc_api.c  ****   * #MC_NO_POLARIZATION_OFFSETS_ERROR is returned.
 697:Src/mc_api.c  ****   *
 698:Src/mc_api.c  ****   * @param PolarizationOffsets an pointer on the structure into which the polarization offsets will
 699:Src/mc_api.c  ****   *        copied
 700:Src/mc_api.c  ****   * @return #MC_SUCCESS if calibration data were present and could be copied into @p PolarizationOf
 701:Src/mc_api.c  ****   *         #MC_NO_POLARIZATION_OFFSETS_ERROR otherwise.
 702:Src/mc_api.c  ****   */
 703:Src/mc_api.c  **** bool MC_GetPolarizationOffsetsMotor1( PolarizationOffsets_t * PolarizationOffsets )
 704:Src/mc_api.c  **** {
 1642              		.loc 1 704 1 is_stmt 1 view -0
 1643              		.cfi_startproc
 1644              		@ args = 0, pretend = 0, frame = 0
 1645              		@ frame_needed = 0, uses_anonymous_args = 0
 1646              		.loc 1 704 1 is_stmt 0 view .LVU193
 1647 0000 08B5     		push	{r3, lr}
 1648              		.cfi_def_cfa_offset 8
 1649              		.cfi_offset 3, -8
 1650              		.cfi_offset 14, -4
 1651 0002 0146     		mov	r1, r0
 705:Src/mc_api.c  ****    return ( MCI_GetCalibratedOffsetsMotor( pMCI[M1], PolarizationOffsets) );
 1652              		.loc 1 705 4 is_stmt 1 view .LVU194
 1653              		.loc 1 705 13 is_stmt 0 view .LVU195
 1654 0004 024B     		ldr	r3, .L182
 1655 0006 1868     		ldr	r0, [r3]
 1656              	.LVL62:
 1657              		.loc 1 705 13 view .LVU196
 1658 0008 FFF7FEFF 		bl	MCI_GetCalibratedOffsetsMotor
 1659              	.LVL63:
 706:Src/mc_api.c  **** }
 1660              		.loc 1 706 1 view .LVU197
 1661 000c 08BD     		pop	{r3, pc}
 1662              	.L183:
 1663 000e 00BF     		.align	2
 1664              	.L182:
 1665 0010 00000000 		.word	pMCI
ARM GAS  /tmp/ccL1GIPz.s 			page 41


 1666              		.cfi_endproc
 1667              	.LFE1480:
 1669              		.section	.text.MC_StartPolarizationOffsetsMeasurementMotor1,"ax",%progbits
 1670              		.align	1
 1671              		.global	MC_StartPolarizationOffsetsMeasurementMotor1
 1672              		.syntax unified
 1673              		.thumb
 1674              		.thumb_func
 1675              		.fpu fpv4-sp-d16
 1677              	MC_StartPolarizationOffsetsMeasurementMotor1:
 1678              	.LFB1481:
 707:Src/mc_api.c  **** 
 708:Src/mc_api.c  **** /**
 709:Src/mc_api.c  ****   * @brief Starts the polarization offsets measurement procedure.
 710:Src/mc_api.c  ****   *
 711:Src/mc_api.c  ****   * See MC_SetPolarizationOffsetsMotor1() for more details.
 712:Src/mc_api.c  ****   *
 713:Src/mc_api.c  ****   * If the Motor Control Firmware is in the #IDLE state, the procedure is started, the state machin
 714:Src/mc_api.c  ****   * of the motor switches to #OFFSET_CALIB and #MC_SUCCESS is returned. Otherwise, nothing is done
 715:Src/mc_api.c  ****   * and the #MC_WRONG_STATE_ERROR error code is returned.
 716:Src/mc_api.c  ****   *
 717:Src/mc_api.c  ****   * The polarization offsets measurement procedure is only triggered by this function and it is has
 718:Src/mc_api.c  ****   * completed when this function returns. The application can use the MC_GetPolarizationState()
 719:Src/mc_api.c  ****   * function to query the state of the procedure.
 720:Src/mc_api.c  ****   *
 721:Src/mc_api.c  ****   * @see MC_GetPolarizationState()
 722:Src/mc_api.c  ****   */
 723:Src/mc_api.c  **** bool MC_StartPolarizationOffsetsMeasurementMotor1( void )
 724:Src/mc_api.c  **** {
 1679              		.loc 1 724 1 is_stmt 1 view -0
 1680              		.cfi_startproc
 1681              		@ args = 0, pretend = 0, frame = 0
 1682              		@ frame_needed = 0, uses_anonymous_args = 0
 1683 0000 08B5     		push	{r3, lr}
 1684              		.cfi_def_cfa_offset 8
 1685              		.cfi_offset 3, -8
 1686              		.cfi_offset 14, -4
 725:Src/mc_api.c  **** 	return( MCI_StartOffsetMeasurments( pMCI[M1] ) );
 1687              		.loc 1 725 2 view .LVU199
 1688              		.loc 1 725 10 is_stmt 0 view .LVU200
 1689 0002 024B     		ldr	r3, .L186
 1690 0004 1868     		ldr	r0, [r3]
 1691 0006 FFF7FEFF 		bl	MCI_StartOffsetMeasurments
 1692              	.LVL64:
 726:Src/mc_api.c  **** }
 1693              		.loc 1 726 1 view .LVU201
 1694 000a 08BD     		pop	{r3, pc}
 1695              	.L187:
 1696              		.align	2
 1697              	.L186:
 1698 000c 00000000 		.word	pMCI
 1699              		.cfi_endproc
 1700              	.LFE1481:
 1702              		.section	.text.MC_GetAveragePowerMotor1_F,"ax",%progbits
 1703              		.align	1
 1704              		.weak	MC_GetAveragePowerMotor1_F
 1705              		.syntax unified
ARM GAS  /tmp/ccL1GIPz.s 			page 42


 1706              		.thumb
 1707              		.thumb_func
 1708              		.fpu fpv4-sp-d16
 1710              	MC_GetAveragePowerMotor1_F:
 1711              	.LFB1482:
 727:Src/mc_api.c  **** 
 728:Src/mc_api.c  **** /**
 729:Src/mc_api.c  ****  * @brief This method is used to get the average measured motor power
 730:Src/mc_api.c  ****  *        expressed in watt for Motor 1.
 731:Src/mc_api.c  **** 
 732:Src/mc_api.c  ****  * @retval float The average measured motor power expressed in watt.
 733:Src/mc_api.c  ****  */
 734:Src/mc_api.c  **** __weak float MC_GetAveragePowerMotor1_F(void)
 735:Src/mc_api.c  **** {
 1712              		.loc 1 735 1 is_stmt 1 view -0
 1713              		.cfi_startproc
 1714              		@ args = 0, pretend = 0, frame = 0
 1715              		@ frame_needed = 0, uses_anonymous_args = 0
 1716 0000 08B5     		push	{r3, lr}
 1717              		.cfi_def_cfa_offset 8
 1718              		.cfi_offset 3, -8
 1719              		.cfi_offset 14, -4
 736:Src/mc_api.c  **** 	return (PQD_GetAvrgElMotorPowerW(pMPM[M1]));
 1720              		.loc 1 736 2 view .LVU203
 1721              		.loc 1 736 10 is_stmt 0 view .LVU204
 1722 0002 024B     		ldr	r3, .L190
 1723 0004 1868     		ldr	r0, [r3]
 1724 0006 FFF7FEFF 		bl	PQD_GetAvrgElMotorPowerW
 1725              	.LVL65:
 737:Src/mc_api.c  **** }
 1726              		.loc 1 737 1 view .LVU205
 1727 000a 08BD     		pop	{r3, pc}
 1728              	.L191:
 1729              		.align	2
 1730              	.L190:
 1731 000c 00000000 		.word	pMPM
 1732              		.cfi_endproc
 1733              	.LFE1482:
 1735              		.section	.text.MC_ProfilerCommand,"ax",%progbits
 1736              		.align	1
 1737              		.weak	MC_ProfilerCommand
 1738              		.syntax unified
 1739              		.thumb
 1740              		.thumb_func
 1741              		.fpu fpv4-sp-d16
 1743              	MC_ProfilerCommand:
 1744              	.LVL66:
 1745              	.LFB1483:
 738:Src/mc_api.c  **** 
 739:Src/mc_api.c  **** /**
 740:Src/mc_api.c  ****  * @brief Not implemented MC_Profiler function.
 741:Src/mc_api.c  ****  *  */
 742:Src/mc_api.c  **** __weak uint8_t MC_ProfilerCommand (uint16_t rxLength, uint8_t *rxBuffer, int16_t txSyncFreeSpace, u
 743:Src/mc_api.c  **** {
 1746              		.loc 1 743 1 is_stmt 1 view -0
 1747              		.cfi_startproc
 1748              		@ args = 4, pretend = 0, frame = 0
ARM GAS  /tmp/ccL1GIPz.s 			page 43


 1749              		@ frame_needed = 0, uses_anonymous_args = 0
 1750              		@ link register save eliminated.
 744:Src/mc_api.c  ****   return MCP_CMD_UNKNOWN;
 1751              		.loc 1 744 3 view .LVU207
 745:Src/mc_api.c  **** }
 1752              		.loc 1 745 1 is_stmt 0 view .LVU208
 1753 0000 0220     		movs	r0, #2
 1754              	.LVL67:
 1755              		.loc 1 745 1 view .LVU209
 1756 0002 7047     		bx	lr
 1757              		.cfi_endproc
 1758              	.LFE1483:
 1760              		.section	.data.startMotorTime,"aw"
 1761              		.align	3
 1762              		.set	.LANCHOR0,. + 0
 1765              	startMotorTime:
 1766 0000 FFFFFFFF 		.word	-1
 1767 0004 FFFFFFFF 		.word	-1
 1768              		.text
 1769              	.Letext0:
 1770              		.file 2 "/usr/lib/gcc/arm-none-eabi/9.2.1/include/stdint.h"
 1771              		.file 3 "Drivers/CMSIS/Include/core_cm4.h"
 1772              		.file 4 "Drivers/CMSIS/Device/ST/STM32G4xx/Include/system_stm32g4xx.h"
 1773              		.file 5 "Drivers/CMSIS/Device/ST/STM32G4xx/Include/stm32g431xx.h"
 1774              		.file 6 "Drivers/STM32G4xx_HAL_Driver/Inc/stm32g4xx_hal_def.h"
 1775              		.file 7 "Drivers/STM32G4xx_HAL_Driver/Inc/stm32g4xx_hal_flash.h"
 1776              		.file 8 "Drivers/STM32G4xx_HAL_Driver/Inc/stm32g4xx_hal.h"
 1777              		.file 9 "Drivers/STM32G4xx_HAL_Driver/Inc/stm32g4xx_ll_tim.h"
 1778              		.file 10 "Drivers/STM32G4xx_HAL_Driver/Inc/stm32g4xx_ll_usart.h"
 1779              		.file 11 "Drivers/STM32G4xx_HAL_Driver/Inc/stm32g4xx_ll_dma.h"
 1780              		.file 12 "MCSDK_v6.1.0-Full/MotorControl/MCSDK/MCLib/Any/Inc/mc_type.h"
 1781              		.file 13 "MCSDK_v6.1.0-Full/MotorControl/MCSDK/MCLib/Any/Inc/pwm_curr_fdbk.h"
 1782              		.file 14 "MCSDK_v6.1.0-Full/MotorControl/MCSDK/MCLib/Any/Inc/pid_regulator.h"
 1783              		.file 15 "MCSDK_v6.1.0-Full/MotorControl/MCSDK/MCLib/Any/Inc/speed_pos_fdbk.h"
 1784              		.file 16 "MCSDK_v6.1.0-Full/MotorControl/MCSDK/MCLib/Any/Inc/speed_torq_ctrl.h"
 1785              		.file 17 "Inc/mc_interface.h"
 1786              		.file 18 "MCSDK_v6.1.0-Full/MotorControl/MCSDK/MCLib/Any/Inc/virtual_speed_sensor.h"
 1787              		.file 19 "Inc/regular_conversion_manager.h"
 1788              		.file 20 "MCSDK_v6.1.0-Full/MotorControl/MCSDK/MCLib/Any/Inc/ntc_temperature_sensor.h"
 1789              		.file 21 "MCSDK_v6.1.0-Full/MotorControl/MCSDK/MCLib/Any/Inc/sto_speed_pos_fdbk.h"
 1790              		.file 22 "MCSDK_v6.1.0-Full/MotorControl/MCSDK/MCLib/Any/Inc/revup_ctrl.h"
 1791              		.file 23 "Inc/mc_configuration_registers.h"
 1792              		.file 24 "MCSDK_v6.1.0-Full/MotorControl/MCSDK/MCLib/Any/Inc/bus_voltage_sensor.h"
 1793              		.file 25 "MCSDK_v6.1.0-Full/MotorControl/MCSDK/MCLib/Any/Inc/r_divider_bus_voltage_sensor.h"
 1794              		.file 26 "MCSDK_v6.1.0-Full/MotorControl/MCSDK/MCLib/Any/Inc/feed_forward_ctrl.h"
 1795              		.file 27 "MCSDK_v6.1.0-Full/MotorControl/MCSDK/MCLib/Any/Inc/pqd_motor_power_measurement.h"
 1796              		.file 28 "MCSDK_v6.1.0-Full/MotorControl/MCSDK/MCLib/G4xx/Inc/r3_2_g4xx_pwm_curr_fdbk.h"
 1797              		.file 29 "MCSDK_v6.1.0-Full/MotorControl/MCSDK/MCLib/Any/Inc/encoder_speed_pos_fdbk.h"
 1798              		.file 30 "MCSDK_v6.1.0-Full/MotorControl/MCSDK/MCLib/Any/Inc/enc_align_ctrl.h"
 1799              		.file 31 "MCSDK_v6.1.0-Full/MotorControl/MCSDK/MCLib/Any/Inc/ramp_ext_mngr.h"
 1800              		.file 32 "MCSDK_v6.1.0-Full/MotorControl/MCSDK/MCLib/Any/Inc/circle_limitation.h"
 1801              		.file 33 "MCSDK_v6.1.0-Full/MotorControl/MCSDK/MCLib/Any/Inc/sto_pll_speed_pos_fdbk.h"
 1802              		.file 34 "Inc/mc_config.h"
 1803              		.file 35 "Inc/debug_scope.h"
ARM GAS  /tmp/ccL1GIPz.s 			page 44

