ARM GAS  /tmp/cc5CqDfs.s 			page 1


   1              		.cpu cortex-m4
   2              		.eabi_attribute 27, 1
   3              		.eabi_attribute 28, 1
   4              		.eabi_attribute 20, 1
   5              		.eabi_attribute 21, 1
   6              		.eabi_attribute 23, 3
   7              		.eabi_attribute 24, 1
   8              		.eabi_attribute 25, 1
   9              		.eabi_attribute 26, 1
  10              		.eabi_attribute 30, 1
  11              		.eabi_attribute 34, 1
  12              		.eabi_attribute 18, 4
  13              		.file	"mc_perf.c"
  14              		.text
  15              	.Ltext0:
  16              		.cfi_sections	.debug_frame
  17              		.section	.text.MC_Perf_Measure_Init,"ax",%progbits
  18              		.align	1
  19              		.global	MC_Perf_Measure_Init
  20              		.arch armv7e-m
  21              		.syntax unified
  22              		.thumb
  23              		.thumb_func
  24              		.fpu fpv4-sp-d16
  26              	MC_Perf_Measure_Init:
  27              	.LVL0:
  28              	.LFB1437:
  29              		.file 1 "Src/mc_perf.c"
   1:Src/mc_perf.c **** /**
   2:Src/mc_perf.c ****   ******************************************************************************
   3:Src/mc_perf.c ****   * @file    mc_perf.c
   4:Src/mc_perf.c ****   * @author  Motor Control SDK Team, ST Microelectronics
   5:Src/mc_perf.c ****   * @brief   Execution time measurement
   6:Src/mc_perf.c ****   ******************************************************************************
   7:Src/mc_perf.c ****   * @attention
   8:Src/mc_perf.c ****   *
   9:Src/mc_perf.c ****   * <h2><center>&copy; Copyright (c) 2022 STMicroelectronics.
  10:Src/mc_perf.c ****   * All rights reserved.</center></h2>
  11:Src/mc_perf.c ****   *
  12:Src/mc_perf.c ****   * This software component is licensed by ST under Ultimate Liberty license
  13:Src/mc_perf.c ****   * SLA0044, the "License"; You may not use this file except in compliance with
  14:Src/mc_perf.c ****   * the License. You may obtain a copy of the License at:
  15:Src/mc_perf.c ****   *                             www.st.com/SLA0044
  16:Src/mc_perf.c ****   *
  17:Src/mc_perf.c ****   ******************************************************************************
  18:Src/mc_perf.c ****   */
  19:Src/mc_perf.c **** 
  20:Src/mc_perf.c **** #include "parameters_conversion.h"
  21:Src/mc_perf.c **** #include "mc_perf.h"
  22:Src/mc_perf.c **** 
  23:Src/mc_perf.c **** void  MC_Perf_Measure_Init (MC_Perf_Handle_t *pHandle)
  24:Src/mc_perf.c **** {
  30              		.loc 1 24 1 view -0
  31              		.cfi_startproc
  32              		@ args = 0, pretend = 0, frame = 0
  33              		@ frame_needed = 0, uses_anonymous_args = 0
  34              		@ link register save eliminated.
ARM GAS  /tmp/cc5CqDfs.s 			page 2


  25:Src/mc_perf.c ****   uint8_t  i;
  35              		.loc 1 25 3 view .LVU1
  26:Src/mc_perf.c ****   Perf_Handle_t  *pHdl;
  36              		.loc 1 26 3 view .LVU2
  27:Src/mc_perf.c **** 
  28:Src/mc_perf.c ****   /* Set Debug mod for DWT IP Enabling */
  29:Src/mc_perf.c ****   CoreDebug->DEMCR |= CoreDebug_DEMCR_TRCENA_Msk;
  37              		.loc 1 29 3 view .LVU3
  38              		.loc 1 29 20 is_stmt 0 view .LVU4
  39 0000 154A     		ldr	r2, .L10
  40 0002 D368     		ldr	r3, [r2, #12]
  41 0004 43F08073 		orr	r3, r3, #16777216
  42 0008 D360     		str	r3, [r2, #12]
  30:Src/mc_perf.c **** 
  31:Src/mc_perf.c ****   if (DWT->CTRL != 0) {                         // Check if DWT is present
  43              		.loc 1 31 3 is_stmt 1 view .LVU5
  44              		.loc 1 31 10 is_stmt 0 view .LVU6
  45 000a 144B     		ldr	r3, .L10+4
  46 000c 1B68     		ldr	r3, [r3]
  47              		.loc 1 31 6 view .LVU7
  48 000e 33B1     		cbz	r3, .L2
  32:Src/mc_perf.c ****     DWT->CYCCNT  = 0;
  49              		.loc 1 32 5 is_stmt 1 view .LVU8
  50              		.loc 1 32 18 is_stmt 0 view .LVU9
  51 0010 124B     		ldr	r3, .L10+4
  52 0012 0022     		movs	r2, #0
  53 0014 5A60     		str	r2, [r3, #4]
  33:Src/mc_perf.c ****     DWT->CTRL   |= DWT_CTRL_CYCCNTENA_Msk;      // Enable Cycle Counter
  54              		.loc 1 33 5 is_stmt 1 view .LVU10
  55              		.loc 1 33 17 is_stmt 0 view .LVU11
  56 0016 1A68     		ldr	r2, [r3]
  57 0018 42F00102 		orr	r2, r2, #1
  58 001c 1A60     		str	r2, [r3]
  59              	.L2:
  24:Src/mc_perf.c ****   uint8_t  i;
  60              		.loc 1 24 1 discriminator 1 view .LVU12
  61 001e 0023     		movs	r3, #0
  62              	.LVL1:
  34:Src/mc_perf.c ****   }
  35:Src/mc_perf.c **** 
  36:Src/mc_perf.c ****   for (i = 0; i<MC_PERF_NB_TRACES; i++) {
  63              		.loc 1 36 15 is_stmt 1 discriminator 1 view .LVU13
  64              		.loc 1 36 3 is_stmt 0 discriminator 1 view .LVU14
  65 0020 012B     		cmp	r3, #1
  66 0022 15D8     		bhi	.L9
  24:Src/mc_perf.c ****   uint8_t  i;
  67              		.loc 1 24 1 view .LVU15
  68 0024 30B4     		push	{r4, r5}
  69              		.cfi_def_cfa_offset 8
  70              		.cfi_offset 4, -8
  71              		.cfi_offset 5, -4
  72              	.L4:
  37:Src/mc_perf.c ****     pHdl = &pHandle->MC_Perf_TraceLog[i];
  73              		.loc 1 37 5 is_stmt 1 discriminator 3 view .LVU16
  74              	.LVL2:
  38:Src/mc_perf.c ****     pHdl->StartMeasure = 0;
  75              		.loc 1 38 5 discriminator 3 view .LVU17
ARM GAS  /tmp/cc5CqDfs.s 			page 3


  76              		.loc 1 38 24 is_stmt 0 discriminator 3 view .LVU18
  77 0026 00EB0311 		add	r1, r0, r3, lsl #4
  78 002a 0022     		movs	r2, #0
  79 002c 8A60     		str	r2, [r1, #8]
  39:Src/mc_perf.c ****     pHdl->DeltaTimeInCycle = 0;
  80              		.loc 1 39 5 is_stmt 1 discriminator 3 view .LVU19
  81              		.loc 1 39 28 is_stmt 0 discriminator 3 view .LVU20
  82 002e CA60     		str	r2, [r1, #12]
  40:Src/mc_perf.c ****     pHdl->min = UINT32_MAX;
  83              		.loc 1 40 5 is_stmt 1 discriminator 3 view .LVU21
  84              		.loc 1 40 15 is_stmt 0 discriminator 3 view .LVU22
  85 0030 0133     		adds	r3, r3, #1
  86              	.LVL3:
  87              		.loc 1 40 15 discriminator 3 view .LVU23
  88 0032 1C01     		lsls	r4, r3, #4
  89 0034 00EB0311 		add	r1, r0, r3, lsl #4
  90 0038 4FF0FF35 		mov	r5, #-1
  91 003c 0551     		str	r5, [r0, r4]
  41:Src/mc_perf.c ****     pHdl->max = 0;
  92              		.loc 1 41 5 is_stmt 1 discriminator 3 view .LVU24
  93              		.loc 1 41 15 is_stmt 0 discriminator 3 view .LVU25
  94 003e 4A60     		str	r2, [r1, #4]
  36:Src/mc_perf.c ****     pHdl = &pHandle->MC_Perf_TraceLog[i];
  95              		.loc 1 36 36 is_stmt 1 discriminator 3 view .LVU26
  36:Src/mc_perf.c ****     pHdl = &pHandle->MC_Perf_TraceLog[i];
  96              		.loc 1 36 37 is_stmt 0 discriminator 3 view .LVU27
  97 0040 DBB2     		uxtb	r3, r3
  98              	.LVL4:
  36:Src/mc_perf.c ****     pHdl = &pHandle->MC_Perf_TraceLog[i];
  99              		.loc 1 36 15 is_stmt 1 discriminator 3 view .LVU28
  36:Src/mc_perf.c ****     pHdl = &pHandle->MC_Perf_TraceLog[i];
 100              		.loc 1 36 3 is_stmt 0 discriminator 3 view .LVU29
 101 0042 012B     		cmp	r3, #1
 102 0044 EFD9     		bls	.L4
  42:Src/mc_perf.c ****   }
  43:Src/mc_perf.c ****   pHandle->BG_Task_OnGoing = false;
 103              		.loc 1 43 3 is_stmt 1 view .LVU30
 104              		.loc 1 43 28 is_stmt 0 view .LVU31
 105 0046 0023     		movs	r3, #0
 106              	.LVL5:
 107              		.loc 1 43 28 view .LVU32
 108 0048 0370     		strb	r3, [r0]
  44:Src/mc_perf.c ****   pHandle->AccHighFreqTasksCnt = 0;
 109              		.loc 1 44 3 is_stmt 1 view .LVU33
 110              		.loc 1 44 32 is_stmt 0 view .LVU34
 111 004a 4360     		str	r3, [r0, #4]
  45:Src/mc_perf.c **** 
  46:Src/mc_perf.c **** }
 112              		.loc 1 46 1 view .LVU35
 113 004c 30BC     		pop	{r4, r5}
 114              		.cfi_restore 5
 115              		.cfi_restore 4
 116              		.cfi_def_cfa_offset 0
 117 004e 7047     		bx	lr
 118              	.LVL6:
 119              	.L9:
  43:Src/mc_perf.c ****   pHandle->AccHighFreqTasksCnt = 0;
ARM GAS  /tmp/cc5CqDfs.s 			page 4


 120              		.loc 1 43 3 is_stmt 1 view .LVU36
  43:Src/mc_perf.c ****   pHandle->AccHighFreqTasksCnt = 0;
 121              		.loc 1 43 28 is_stmt 0 view .LVU37
 122 0050 0023     		movs	r3, #0
  43:Src/mc_perf.c ****   pHandle->AccHighFreqTasksCnt = 0;
 123              		.loc 1 43 28 view .LVU38
 124 0052 0370     		strb	r3, [r0]
  44:Src/mc_perf.c ****   pHandle->AccHighFreqTasksCnt = 0;
 125              		.loc 1 44 3 is_stmt 1 view .LVU39
  44:Src/mc_perf.c ****   pHandle->AccHighFreqTasksCnt = 0;
 126              		.loc 1 44 32 is_stmt 0 view .LVU40
 127 0054 4360     		str	r3, [r0, #4]
 128 0056 7047     		bx	lr
 129              	.L11:
 130              		.align	2
 131              	.L10:
 132 0058 F0ED00E0 		.word	-536810000
 133 005c 001000E0 		.word	-536866816
 134              		.cfi_endproc
 135              	.LFE1437:
 137              		.section	.text.MC_Perf_Clear,"ax",%progbits
 138              		.align	1
 139              		.global	MC_Perf_Clear
 140              		.syntax unified
 141              		.thumb
 142              		.thumb_func
 143              		.fpu fpv4-sp-d16
 145              	MC_Perf_Clear:
 146              	.LVL7:
 147              	.LFB1438:
  47:Src/mc_perf.c **** 
  48:Src/mc_perf.c **** void  MC_Perf_Clear(MC_Perf_Handle_t *pHandle)
  49:Src/mc_perf.c **** {
 148              		.loc 1 49 1 is_stmt 1 view -0
 149              		.cfi_startproc
 150              		@ args = 0, pretend = 0, frame = 0
 151              		@ frame_needed = 0, uses_anonymous_args = 0
 152              		@ link register save eliminated.
  50:Src/mc_perf.c ****   uint8_t  i;
 153              		.loc 1 50 3 view .LVU42
  51:Src/mc_perf.c ****   Perf_Handle_t  *pHdl;
 154              		.loc 1 51 3 view .LVU43
  52:Src/mc_perf.c **** 
  53:Src/mc_perf.c ****   for (i = 0; i<MC_PERF_NB_TRACES; i++) {
 155              		.loc 1 53 3 view .LVU44
 156              		.loc 1 53 10 is_stmt 0 view .LVU45
 157 0000 0023     		movs	r3, #0
 158              	.LVL8:
 159              		.loc 1 53 15 is_stmt 1 view .LVU46
 160              		.loc 1 53 3 is_stmt 0 view .LVU47
 161 0002 012B     		cmp	r3, #1
 162 0004 11D8     		bhi	.L18
  49:Src/mc_perf.c ****   uint8_t  i;
 163              		.loc 1 49 1 view .LVU48
 164 0006 30B4     		push	{r4, r5}
 165              		.cfi_def_cfa_offset 8
 166              		.cfi_offset 4, -8
ARM GAS  /tmp/cc5CqDfs.s 			page 5


 167              		.cfi_offset 5, -4
 168              	.L14:
  54:Src/mc_perf.c ****     pHdl = &pHandle->MC_Perf_TraceLog[i];
 169              		.loc 1 54 5 is_stmt 1 discriminator 3 view .LVU49
 170              	.LVL9:
  55:Src/mc_perf.c ****     pHdl->DeltaTimeInCycle = 0;
 171              		.loc 1 55 5 discriminator 3 view .LVU50
 172              		.loc 1 55 28 is_stmt 0 discriminator 3 view .LVU51
 173 0008 00EB0311 		add	r1, r0, r3, lsl #4
 174 000c 0022     		movs	r2, #0
 175 000e CA60     		str	r2, [r1, #12]
  56:Src/mc_perf.c ****     pHdl->min = UINT32_MAX;
 176              		.loc 1 56 5 is_stmt 1 discriminator 3 view .LVU52
 177              		.loc 1 56 15 is_stmt 0 discriminator 3 view .LVU53
 178 0010 0133     		adds	r3, r3, #1
 179              	.LVL10:
 180              		.loc 1 56 15 discriminator 3 view .LVU54
 181 0012 1C01     		lsls	r4, r3, #4
 182 0014 00EB0311 		add	r1, r0, r3, lsl #4
 183 0018 4FF0FF35 		mov	r5, #-1
 184 001c 0551     		str	r5, [r0, r4]
  57:Src/mc_perf.c ****     pHdl->max = 0;
 185              		.loc 1 57 5 is_stmt 1 discriminator 3 view .LVU55
 186              		.loc 1 57 15 is_stmt 0 discriminator 3 view .LVU56
 187 001e 4A60     		str	r2, [r1, #4]
  53:Src/mc_perf.c ****     pHdl = &pHandle->MC_Perf_TraceLog[i];
 188              		.loc 1 53 36 is_stmt 1 discriminator 3 view .LVU57
  53:Src/mc_perf.c ****     pHdl = &pHandle->MC_Perf_TraceLog[i];
 189              		.loc 1 53 37 is_stmt 0 discriminator 3 view .LVU58
 190 0020 DBB2     		uxtb	r3, r3
 191              	.LVL11:
  53:Src/mc_perf.c ****     pHdl = &pHandle->MC_Perf_TraceLog[i];
 192              		.loc 1 53 15 is_stmt 1 discriminator 3 view .LVU59
  53:Src/mc_perf.c ****     pHdl = &pHandle->MC_Perf_TraceLog[i];
 193              		.loc 1 53 3 is_stmt 0 discriminator 3 view .LVU60
 194 0022 012B     		cmp	r3, #1
 195 0024 F0D9     		bls	.L14
  58:Src/mc_perf.c ****   }
  59:Src/mc_perf.c **** }
 196              		.loc 1 59 1 view .LVU61
 197 0026 30BC     		pop	{r4, r5}
 198              		.cfi_restore 5
 199              		.cfi_restore 4
 200              		.cfi_def_cfa_offset 0
 201 0028 7047     		bx	lr
 202              	.L18:
 203              		.loc 1 59 1 view .LVU62
 204 002a 7047     		bx	lr
 205              		.cfi_endproc
 206              	.LFE1438:
 208              		.section	.text.MC_Perf_Measure_Start,"ax",%progbits
 209              		.align	1
 210              		.global	MC_Perf_Measure_Start
 211              		.syntax unified
 212              		.thumb
 213              		.thumb_func
 214              		.fpu fpv4-sp-d16
ARM GAS  /tmp/cc5CqDfs.s 			page 6


 216              	MC_Perf_Measure_Start:
 217              	.LVL12:
 218              	.LFB1439:
  60:Src/mc_perf.c **** 
  61:Src/mc_perf.c **** /**
  62:Src/mc_perf.c ****  * @brief  Start the measure of a code section called in foreground.
  63:Src/mc_perf.c ****  * @param  pHandle: handler of the performance measurement component
  64:Src/mc_perf.c ****  * @param  CodeSection: code section to measure
  65:Src/mc_perf.c ****  */
  66:Src/mc_perf.c **** void  MC_Perf_Measure_Start (MC_Perf_Handle_t *pHandle, uint8_t  CodeSection)
  67:Src/mc_perf.c **** {
 219              		.loc 1 67 1 is_stmt 1 view -0
 220              		.cfi_startproc
 221              		@ args = 0, pretend = 0, frame = 0
 222              		@ frame_needed = 0, uses_anonymous_args = 0
 223              		@ link register save eliminated.
  68:Src/mc_perf.c ****   uint32_t StartMeasure = DWT->CYCCNT;
 224              		.loc 1 68 3 view .LVU64
 225              		.loc 1 68 12 is_stmt 0 view .LVU65
 226 0000 024B     		ldr	r3, .L20
 227 0002 5B68     		ldr	r3, [r3, #4]
 228              	.LVL13:
  69:Src/mc_perf.c ****   pHandle->MC_Perf_TraceLog[CodeSection].StartMeasure = StartMeasure;
 229              		.loc 1 69 3 is_stmt 1 view .LVU66
 230              		.loc 1 69 55 is_stmt 0 view .LVU67
 231 0004 00EB0110 		add	r0, r0, r1, lsl #4
 232              	.LVL14:
 233              		.loc 1 69 55 view .LVU68
 234 0008 8360     		str	r3, [r0, #8]
  70:Src/mc_perf.c **** }
 235              		.loc 1 70 1 view .LVU69
 236 000a 7047     		bx	lr
 237              	.L21:
 238              		.align	2
 239              	.L20:
 240 000c 001000E0 		.word	-536866816
 241              		.cfi_endproc
 242              	.LFE1439:
 244              		.section	.text.MC_BG_Perf_Measure_Start,"ax",%progbits
 245              		.align	1
 246              		.global	MC_BG_Perf_Measure_Start
 247              		.syntax unified
 248              		.thumb
 249              		.thumb_func
 250              		.fpu fpv4-sp-d16
 252              	MC_BG_Perf_Measure_Start:
 253              	.LVL15:
 254              	.LFB1440:
  71:Src/mc_perf.c **** 
  72:Src/mc_perf.c **** /**
  73:Src/mc_perf.c ****  * @brief  Start the measure of a code section called in background
  74:Src/mc_perf.c ****  * @param  pHandle: handler of the performance measurement component
  75:Src/mc_perf.c ****  * @param  CodeSection: code section to measure
  76:Src/mc_perf.c ****  */
  77:Src/mc_perf.c **** void  MC_BG_Perf_Measure_Start (MC_Perf_Handle_t *pHandle, uint8_t  CodeSection)
  78:Src/mc_perf.c **** {
 255              		.loc 1 78 1 is_stmt 1 view -0
ARM GAS  /tmp/cc5CqDfs.s 			page 7


 256              		.cfi_startproc
 257              		@ args = 0, pretend = 0, frame = 0
 258              		@ frame_needed = 0, uses_anonymous_args = 0
 259              		@ link register save eliminated.
  79:Src/mc_perf.c ****   pHandle->BG_Task_OnGoing = true;
 260              		.loc 1 79 3 view .LVU71
 261              		.loc 1 79 28 is_stmt 0 view .LVU72
 262 0000 0123     		movs	r3, #1
 263 0002 0370     		strb	r3, [r0]
  80:Src/mc_perf.c ****   pHandle->AccHighFreqTasksCnt = 0;
 264              		.loc 1 80 3 is_stmt 1 view .LVU73
 265              		.loc 1 80 32 is_stmt 0 view .LVU74
 266 0004 0023     		movs	r3, #0
 267 0006 4360     		str	r3, [r0, #4]
  81:Src/mc_perf.c ****   uint32_t StartMeasure = DWT->CYCCNT;
 268              		.loc 1 81 3 is_stmt 1 view .LVU75
 269              		.loc 1 81 12 is_stmt 0 view .LVU76
 270 0008 024B     		ldr	r3, .L23
 271 000a 5B68     		ldr	r3, [r3, #4]
 272              	.LVL16:
  82:Src/mc_perf.c ****   pHandle->MC_Perf_TraceLog[CodeSection].StartMeasure = StartMeasure;
 273              		.loc 1 82 3 is_stmt 1 view .LVU77
 274              		.loc 1 82 55 is_stmt 0 view .LVU78
 275 000c 00EB0110 		add	r0, r0, r1, lsl #4
 276              	.LVL17:
 277              		.loc 1 82 55 view .LVU79
 278 0010 8360     		str	r3, [r0, #8]
  83:Src/mc_perf.c **** }
 279              		.loc 1 83 1 view .LVU80
 280 0012 7047     		bx	lr
 281              	.L24:
 282              		.align	2
 283              	.L23:
 284 0014 001000E0 		.word	-536866816
 285              		.cfi_endproc
 286              	.LFE1440:
 288              		.section	.text.MC_Perf_Measure_Stop,"ax",%progbits
 289              		.align	1
 290              		.global	MC_Perf_Measure_Stop
 291              		.syntax unified
 292              		.thumb
 293              		.thumb_func
 294              		.fpu fpv4-sp-d16
 296              	MC_Perf_Measure_Stop:
 297              	.LVL18:
 298              	.LFB1441:
  84:Src/mc_perf.c **** 
  85:Src/mc_perf.c **** /**
  86:Src/mc_perf.c ****  * @brief  Stop the measurement of a code section and compute elapse time
  87:Src/mc_perf.c ****  * @param  pHandle: handler of the performance measurement component
  88:Src/mc_perf.c ****  * @param  CodeSection: code section to measure
  89:Src/mc_perf.c ****  */
  90:Src/mc_perf.c **** void  MC_Perf_Measure_Stop (MC_Perf_Handle_t *pHandle, uint8_t  CodeSection)
  91:Src/mc_perf.c **** {
 299              		.loc 1 91 1 is_stmt 1 view -0
 300              		.cfi_startproc
 301              		@ args = 0, pretend = 0, frame = 0
ARM GAS  /tmp/cc5CqDfs.s 			page 8


 302              		@ frame_needed = 0, uses_anonymous_args = 0
 303              		@ link register save eliminated.
  92:Src/mc_perf.c ****   uint32_t StopMeasure;
 304              		.loc 1 92 3 view .LVU82
  93:Src/mc_perf.c ****   Perf_Handle_t *pHdl;
 305              		.loc 1 93 3 view .LVU83
  94:Src/mc_perf.c **** 
  95:Src/mc_perf.c ****   StopMeasure = DWT->CYCCNT;
 306              		.loc 1 95 3 view .LVU84
 307              		.loc 1 95 15 is_stmt 0 view .LVU85
 308 0000 184B     		ldr	r3, .L31
 309 0002 5B68     		ldr	r3, [r3, #4]
 310              	.LVL19:
  96:Src/mc_perf.c ****   pHdl = &pHandle->MC_Perf_TraceLog[CodeSection];
 311              		.loc 1 96 3 is_stmt 1 view .LVU86
  97:Src/mc_perf.c **** 
  98:Src/mc_perf.c ****   /* Check Overflow cases */
  99:Src/mc_perf.c ****   if (StopMeasure < pHdl->StartMeasure)
 312              		.loc 1 99 3 view .LVU87
 313              		.loc 1 99 25 is_stmt 0 view .LVU88
 314 0004 00EB0112 		add	r2, r0, r1, lsl #4
 315 0008 9268     		ldr	r2, [r2, #8]
 316              		.loc 1 99 6 view .LVU89
 317 000a 9A42     		cmp	r2, r3
 318 000c 25D9     		bls	.L26
 100:Src/mc_perf.c ****   {
 101:Src/mc_perf.c ****     pHdl->DeltaTimeInCycle = (UINT32_MAX - pHdl->StartMeasure) + StopMeasure;
 319              		.loc 1 101 5 is_stmt 1 view .LVU90
 320              		.loc 1 101 64 is_stmt 0 view .LVU91
 321 000e 9B1A     		subs	r3, r3, r2
 322              	.LVL20:
 323              		.loc 1 101 64 view .LVU92
 324 0010 013B     		subs	r3, r3, #1
 325              		.loc 1 101 28 view .LVU93
 326 0012 00EB0112 		add	r2, r0, r1, lsl #4
 327 0016 D360     		str	r3, [r2, #12]
 328              	.L27:
 102:Src/mc_perf.c ****   }
 103:Src/mc_perf.c ****   else
 104:Src/mc_perf.c ****   {
 105:Src/mc_perf.c ****     pHdl->DeltaTimeInCycle = StopMeasure - pHdl->StartMeasure;
 106:Src/mc_perf.c ****   }
 107:Src/mc_perf.c **** 
 108:Src/mc_perf.c ****   if( pHandle->BG_Task_OnGoing )
 329              		.loc 1 108 3 is_stmt 1 view .LVU94
 330              		.loc 1 108 14 is_stmt 0 view .LVU95
 331 0018 0378     		ldrb	r3, [r0]	@ zero_extendqisi2
 332              		.loc 1 108 5 view .LVU96
 333 001a 2BB1     		cbz	r3, .L28
 109:Src/mc_perf.c ****   {
 110:Src/mc_perf.c ****     pHandle->AccHighFreqTasksCnt += pHdl->DeltaTimeInCycle;
 334              		.loc 1 110 5 is_stmt 1 view .LVU97
 335              		.loc 1 110 41 is_stmt 0 view .LVU98
 336 001c 00EB0113 		add	r3, r0, r1, lsl #4
 337 0020 DA68     		ldr	r2, [r3, #12]
 338              		.loc 1 110 34 view .LVU99
 339 0022 4368     		ldr	r3, [r0, #4]
ARM GAS  /tmp/cc5CqDfs.s 			page 9


 340 0024 1344     		add	r3, r3, r2
 341 0026 4360     		str	r3, [r0, #4]
 342              	.L28:
 111:Src/mc_perf.c ****   }
 112:Src/mc_perf.c **** 
 113:Src/mc_perf.c ****   if (pHdl->max < pHdl->DeltaTimeInCycle) { pHdl->max = pHdl->DeltaTimeInCycle; }
 343              		.loc 1 113 3 is_stmt 1 view .LVU100
 344              		.loc 1 113 11 is_stmt 0 view .LVU101
 345 0028 4B1C     		adds	r3, r1, #1
 346 002a 00EB0313 		add	r3, r0, r3, lsl #4
 347 002e 5A68     		ldr	r2, [r3, #4]
 348              		.loc 1 113 23 view .LVU102
 349 0030 00EB0113 		add	r3, r0, r1, lsl #4
 350 0034 DB68     		ldr	r3, [r3, #12]
 351              		.loc 1 113 6 view .LVU103
 352 0036 9A42     		cmp	r2, r3
 353 0038 03D2     		bcs	.L29
 354              		.loc 1 113 45 is_stmt 1 discriminator 1 view .LVU104
 355              		.loc 1 113 55 is_stmt 0 discriminator 1 view .LVU105
 356 003a 4A1C     		adds	r2, r1, #1
 357 003c 00EB0212 		add	r2, r0, r2, lsl #4
 358 0040 5360     		str	r3, [r2, #4]
 359              	.L29:
 114:Src/mc_perf.c ****   if (pHdl->min > pHdl->DeltaTimeInCycle) { pHdl->min = pHdl->DeltaTimeInCycle; }
 360              		.loc 1 114 3 is_stmt 1 view .LVU106
 361              		.loc 1 114 11 is_stmt 0 view .LVU107
 362 0042 4B1C     		adds	r3, r1, #1
 363 0044 1B01     		lsls	r3, r3, #4
 364 0046 C258     		ldr	r2, [r0, r3]
 365              		.loc 1 114 23 view .LVU108
 366 0048 00EB0113 		add	r3, r0, r1, lsl #4
 367 004c DB68     		ldr	r3, [r3, #12]
 368              		.loc 1 114 6 view .LVU109
 369 004e 9A42     		cmp	r2, r3
 370 0050 02D9     		bls	.L25
 371              		.loc 1 114 45 is_stmt 1 discriminator 1 view .LVU110
 372              		.loc 1 114 55 is_stmt 0 discriminator 1 view .LVU111
 373 0052 0131     		adds	r1, r1, #1
 374              	.LVL21:
 375              		.loc 1 114 55 discriminator 1 view .LVU112
 376 0054 0901     		lsls	r1, r1, #4
 377              	.LVL22:
 378              		.loc 1 114 55 discriminator 1 view .LVU113
 379 0056 4350     		str	r3, [r0, r1]
 380              	.L25:
 115:Src/mc_perf.c **** 
 116:Src/mc_perf.c **** }
 381              		.loc 1 116 1 view .LVU114
 382 0058 7047     		bx	lr
 383              	.LVL23:
 384              	.L26:
 105:Src/mc_perf.c ****   }
 385              		.loc 1 105 5 is_stmt 1 view .LVU115
 105:Src/mc_perf.c ****   }
 386              		.loc 1 105 42 is_stmt 0 view .LVU116
 387 005a 9B1A     		subs	r3, r3, r2
 388              	.LVL24:
ARM GAS  /tmp/cc5CqDfs.s 			page 10


 105:Src/mc_perf.c ****   }
 389              		.loc 1 105 28 view .LVU117
 390 005c 00EB0112 		add	r2, r0, r1, lsl #4
 391 0060 D360     		str	r3, [r2, #12]
 392 0062 D9E7     		b	.L27
 393              	.L32:
 394              		.align	2
 395              	.L31:
 396 0064 001000E0 		.word	-536866816
 397              		.cfi_endproc
 398              	.LFE1441:
 400              		.section	.text.MC_BG_Perf_Measure_Stop,"ax",%progbits
 401              		.align	1
 402              		.global	MC_BG_Perf_Measure_Stop
 403              		.syntax unified
 404              		.thumb
 405              		.thumb_func
 406              		.fpu fpv4-sp-d16
 408              	MC_BG_Perf_Measure_Stop:
 409              	.LVL25:
 410              	.LFB1442:
 117:Src/mc_perf.c **** 
 118:Src/mc_perf.c **** /**
 119:Src/mc_perf.c ****  * @brief  Stop the measurement of a code section in BG and compute elapse time.
 120:Src/mc_perf.c ****  * @param  pHandle: handler of the performance measurement component
 121:Src/mc_perf.c ****  * @param  CodeSection: code section to measure
 122:Src/mc_perf.c ****  */
 123:Src/mc_perf.c **** void  MC_BG_Perf_Measure_Stop (MC_Perf_Handle_t *pHandle, uint8_t  CodeSection)
 124:Src/mc_perf.c **** {
 411              		.loc 1 124 1 is_stmt 1 view -0
 412              		.cfi_startproc
 413              		@ args = 0, pretend = 0, frame = 0
 414              		@ frame_needed = 0, uses_anonymous_args = 0
 415              		@ link register save eliminated.
 416              		.loc 1 124 1 is_stmt 0 view .LVU119
 417 0000 10B4     		push	{r4}
 418              		.cfi_def_cfa_offset 4
 419              		.cfi_offset 4, -4
 125:Src/mc_perf.c ****   Perf_Handle_t *pHdl;
 420              		.loc 1 125 3 is_stmt 1 view .LVU120
 126:Src/mc_perf.c **** 
 127:Src/mc_perf.c ****   uint32_t StopMeasure = DWT->CYCCNT;
 421              		.loc 1 127 3 view .LVU121
 422              		.loc 1 127 12 is_stmt 0 view .LVU122
 423 0002 1C4B     		ldr	r3, .L40
 424 0004 5B68     		ldr	r3, [r3, #4]
 425              	.LVL26:
 128:Src/mc_perf.c ****   pHandle->BG_Task_OnGoing = false;
 426              		.loc 1 128 3 is_stmt 1 view .LVU123
 427              		.loc 1 128 28 is_stmt 0 view .LVU124
 428 0006 0022     		movs	r2, #0
 429 0008 0270     		strb	r2, [r0]
 129:Src/mc_perf.c **** 
 130:Src/mc_perf.c ****   pHdl  = &pHandle->MC_Perf_TraceLog[CodeSection];
 430              		.loc 1 130 3 is_stmt 1 view .LVU125
 431              	.LVL27:
 131:Src/mc_perf.c **** 
ARM GAS  /tmp/cc5CqDfs.s 			page 11


 132:Src/mc_perf.c ****   /* Check Overflow cases */
 133:Src/mc_perf.c ****   if (StopMeasure < pHdl->StartMeasure)
 432              		.loc 1 133 3 view .LVU126
 433              		.loc 1 133 25 is_stmt 0 view .LVU127
 434 000a 00EB0112 		add	r2, r0, r1, lsl #4
 435 000e 9268     		ldr	r2, [r2, #8]
 436              		.loc 1 133 6 view .LVU128
 437 0010 9A42     		cmp	r2, r3
 438 0012 29D9     		bls	.L34
 134:Src/mc_perf.c ****   {
 135:Src/mc_perf.c ****     pHdl->DeltaTimeInCycle = (UINT32_MAX - pHdl->StartMeasure) + StopMeasure;
 439              		.loc 1 135 5 is_stmt 1 view .LVU129
 440              		.loc 1 135 64 is_stmt 0 view .LVU130
 441 0014 9B1A     		subs	r3, r3, r2
 442              	.LVL28:
 443              		.loc 1 135 64 view .LVU131
 444 0016 013B     		subs	r3, r3, #1
 445              		.loc 1 135 28 view .LVU132
 446 0018 00EB0112 		add	r2, r0, r1, lsl #4
 447 001c D360     		str	r3, [r2, #12]
 448              	.L35:
 136:Src/mc_perf.c ****   }
 137:Src/mc_perf.c ****   else
 138:Src/mc_perf.c ****   {
 139:Src/mc_perf.c ****     pHdl->DeltaTimeInCycle = StopMeasure - pHdl->StartMeasure;
 140:Src/mc_perf.c ****   }
 141:Src/mc_perf.c **** 
 142:Src/mc_perf.c ****   if (pHdl->DeltaTimeInCycle > pHandle->AccHighFreqTasksCnt)
 449              		.loc 1 142 3 is_stmt 1 view .LVU133
 450              		.loc 1 142 11 is_stmt 0 view .LVU134
 451 001e 00EB0113 		add	r3, r0, r1, lsl #4
 452 0022 DB68     		ldr	r3, [r3, #12]
 453              		.loc 1 142 39 view .LVU135
 454 0024 4268     		ldr	r2, [r0, #4]
 455              		.loc 1 142 6 view .LVU136
 456 0026 9342     		cmp	r3, r2
 457 0028 03D9     		bls	.L36
 143:Src/mc_perf.c ****   {
 144:Src/mc_perf.c ****     pHdl->DeltaTimeInCycle -= pHandle->AccHighFreqTasksCnt;
 458              		.loc 1 144 5 is_stmt 1 view .LVU137
 459              		.loc 1 144 28 is_stmt 0 view .LVU138
 460 002a 00EB0114 		add	r4, r0, r1, lsl #4
 461 002e 9B1A     		subs	r3, r3, r2
 462 0030 E360     		str	r3, [r4, #12]
 463              	.L36:
 145:Src/mc_perf.c ****   }
 146:Src/mc_perf.c ****   if (pHdl->max < pHdl->DeltaTimeInCycle) { pHdl->max = pHdl->DeltaTimeInCycle; }
 464              		.loc 1 146 3 is_stmt 1 view .LVU139
 465              		.loc 1 146 11 is_stmt 0 view .LVU140
 466 0032 4B1C     		adds	r3, r1, #1
 467 0034 00EB0313 		add	r3, r0, r3, lsl #4
 468 0038 5A68     		ldr	r2, [r3, #4]
 469              		.loc 1 146 23 view .LVU141
 470 003a 00EB0113 		add	r3, r0, r1, lsl #4
 471 003e DB68     		ldr	r3, [r3, #12]
 472              		.loc 1 146 6 view .LVU142
 473 0040 9A42     		cmp	r2, r3
ARM GAS  /tmp/cc5CqDfs.s 			page 12


 474 0042 03D2     		bcs	.L37
 475              		.loc 1 146 45 is_stmt 1 discriminator 1 view .LVU143
 476              		.loc 1 146 55 is_stmt 0 discriminator 1 view .LVU144
 477 0044 4A1C     		adds	r2, r1, #1
 478 0046 00EB0212 		add	r2, r0, r2, lsl #4
 479 004a 5360     		str	r3, [r2, #4]
 480              	.L37:
 147:Src/mc_perf.c ****   if (pHdl->min > pHdl->DeltaTimeInCycle) { pHdl->min = pHdl->DeltaTimeInCycle; }
 481              		.loc 1 147 3 is_stmt 1 view .LVU145
 482              		.loc 1 147 11 is_stmt 0 view .LVU146
 483 004c 4B1C     		adds	r3, r1, #1
 484 004e 1B01     		lsls	r3, r3, #4
 485 0050 C258     		ldr	r2, [r0, r3]
 486              		.loc 1 147 23 view .LVU147
 487 0052 00EB0113 		add	r3, r0, r1, lsl #4
 488 0056 DB68     		ldr	r3, [r3, #12]
 489              		.loc 1 147 6 view .LVU148
 490 0058 9A42     		cmp	r2, r3
 491 005a 02D9     		bls	.L33
 492              		.loc 1 147 45 is_stmt 1 discriminator 1 view .LVU149
 493              		.loc 1 147 55 is_stmt 0 discriminator 1 view .LVU150
 494 005c 0131     		adds	r1, r1, #1
 495              	.LVL29:
 496              		.loc 1 147 55 discriminator 1 view .LVU151
 497 005e 0901     		lsls	r1, r1, #4
 498              	.LVL30:
 499              		.loc 1 147 55 discriminator 1 view .LVU152
 500 0060 4350     		str	r3, [r0, r1]
 501              	.L33:
 148:Src/mc_perf.c **** 
 149:Src/mc_perf.c **** }
 502              		.loc 1 149 1 view .LVU153
 503 0062 5DF8044B 		ldr	r4, [sp], #4
 504              		.cfi_remember_state
 505              		.cfi_restore 4
 506              		.cfi_def_cfa_offset 0
 507 0066 7047     		bx	lr
 508              	.LVL31:
 509              	.L34:
 510              		.cfi_restore_state
 139:Src/mc_perf.c ****   }
 511              		.loc 1 139 5 is_stmt 1 view .LVU154
 139:Src/mc_perf.c ****   }
 512              		.loc 1 139 42 is_stmt 0 view .LVU155
 513 0068 9B1A     		subs	r3, r3, r2
 514              	.LVL32:
 139:Src/mc_perf.c ****   }
 515              		.loc 1 139 28 view .LVU156
 516 006a 00EB0112 		add	r2, r0, r1, lsl #4
 517 006e D360     		str	r3, [r2, #12]
 518 0070 D5E7     		b	.L35
 519              	.L41:
 520 0072 00BF     		.align	2
 521              	.L40:
 522 0074 001000E0 		.word	-536866816
 523              		.cfi_endproc
 524              	.LFE1442:
ARM GAS  /tmp/cc5CqDfs.s 			page 13


 526              		.section	.text.MC_Perf_GetCPU_Load,"ax",%progbits
 527              		.align	1
 528              		.global	MC_Perf_GetCPU_Load
 529              		.syntax unified
 530              		.thumb
 531              		.thumb_func
 532              		.fpu fpv4-sp-d16
 534              	MC_Perf_GetCPU_Load:
 535              	.LVL33:
 536              	.LFB1443:
 150:Src/mc_perf.c **** 
 151:Src/mc_perf.c **** /**
 152:Src/mc_perf.c ****  * @brief  It returns the current CPU load of both High and Medium frequency tasks
 153:Src/mc_perf.c ****  * @param  pHandle: handler of the performance measurement component
 154:Src/mc_perf.c ****  * @retval CPU load
 155:Src/mc_perf.c ****  */
 156:Src/mc_perf.c **** float MC_Perf_GetCPU_Load( MC_Perf_Handle_t * pHandle )
 157:Src/mc_perf.c **** {
 537              		.loc 1 157 1 is_stmt 1 view -0
 538              		.cfi_startproc
 539              		@ args = 0, pretend = 0, frame = 0
 540              		@ frame_needed = 0, uses_anonymous_args = 0
 541              		@ link register save eliminated.
 158:Src/mc_perf.c ****   float MFT_cpu_load;
 542              		.loc 1 158 3 view .LVU158
 159:Src/mc_perf.c ****   float HFT_cpu_load;
 543              		.loc 1 159 3 view .LVU159
 160:Src/mc_perf.c **** 
 161:Src/mc_perf.c ****   MFT_cpu_load = (((float)pHandle->MC_Perf_TraceLog[MEASURE_TSK_MediumFrequencyTaskM1].DeltaTimeInC
 544              		.loc 1 161 3 view .LVU160
 545              		.loc 1 161 20 is_stmt 0 view .LVU161
 546 0000 D0ED077A 		vldr.32	s15, [r0, #28]	@ int
 547 0004 F8EE677A 		vcvt.f32.u32	s15, s15
 548              		.loc 1 161 105 view .LVU162
 549 0008 9FED0D6A 		vldr.32	s12, .L43
 550 000c 87EE860A 		vdiv.f32	s0, s15, s12
 551              		.loc 1 161 121 view .LVU163
 552 0010 DFED0C7A 		vldr.32	s15, .L43+4
 553 0014 20EE270A 		vmul.f32	s0, s0, s15
 554              		.loc 1 161 16 view .LVU164
 555 0018 DFED0B6A 		vldr.32	s13, .L43+8
 556 001c 20EE260A 		vmul.f32	s0, s0, s13
 557              	.LVL34:
 162:Src/mc_perf.c ****   HFT_cpu_load = (((float)pHandle->MC_Perf_TraceLog[MEASURE_TSK_HighFrequencyTask].DeltaTimeInCycle
 558              		.loc 1 162 3 is_stmt 1 view .LVU165
 559              		.loc 1 162 83 is_stmt 0 view .LVU166
 560 0020 90ED037A 		vldr.32	s14, [r0, #12]	@ int
 561              		.loc 1 162 20 view .LVU167
 562 0024 B8EE477A 		vcvt.f32.u32	s14, s14
 563              		.loc 1 162 101 view .LVU168
 564 0028 C7EE067A 		vdiv.f32	s15, s14, s12
 565              		.loc 1 162 117 view .LVU169
 566 002c 9FED077A 		vldr.32	s14, .L43+12
 567 0030 67EE877A 		vmul.f32	s15, s15, s14
 568              		.loc 1 162 16 view .LVU170
 569 0034 67EEA67A 		vmul.f32	s15, s15, s13
 570              	.LVL35:
ARM GAS  /tmp/cc5CqDfs.s 			page 14


 163:Src/mc_perf.c **** 
 164:Src/mc_perf.c ****   return ( (float) (MFT_cpu_load + HFT_cpu_load) );
 571              		.loc 1 164 3 is_stmt 1 view .LVU171
 165:Src/mc_perf.c **** }
 572              		.loc 1 165 1 is_stmt 0 view .LVU172
 573 0038 30EE270A 		vadd.f32	s0, s0, s15
 574              	.LVL36:
 575              		.loc 1 165 1 view .LVU173
 576 003c 7047     		bx	lr
 577              	.L44:
 578 003e 00BF     		.align	2
 579              	.L43:
 580 0040 E81F224D 		.word	1294082024
 581 0044 00007A44 		.word	1148846080
 582 0048 0000C842 		.word	1120403456
 583 004c 00007A46 		.word	1182400512
 584              		.cfi_endproc
 585              	.LFE1443:
 587              		.section	.text.MC_Perf_GetMaxCPU_Load,"ax",%progbits
 588              		.align	1
 589              		.global	MC_Perf_GetMaxCPU_Load
 590              		.syntax unified
 591              		.thumb
 592              		.thumb_func
 593              		.fpu fpv4-sp-d16
 595              	MC_Perf_GetMaxCPU_Load:
 596              	.LVL37:
 597              	.LFB1444:
 166:Src/mc_perf.c **** 
 167:Src/mc_perf.c **** /**
 168:Src/mc_perf.c ****  * @brief  It returns the maximum CPU load of both High and Medium frequency tasks
 169:Src/mc_perf.c ****  * @param  pHandle: handler of the performance measurement component
 170:Src/mc_perf.c ****  * @retval Max CPU load measured
 171:Src/mc_perf.c ****  */
 172:Src/mc_perf.c **** float MC_Perf_GetMaxCPU_Load( MC_Perf_Handle_t * pHandle )
 173:Src/mc_perf.c **** {
 598              		.loc 1 173 1 is_stmt 1 view -0
 599              		.cfi_startproc
 600              		@ args = 0, pretend = 0, frame = 0
 601              		@ frame_needed = 0, uses_anonymous_args = 0
 602              		@ link register save eliminated.
 174:Src/mc_perf.c ****   float MFT_cpu_load;
 603              		.loc 1 174 3 view .LVU175
 175:Src/mc_perf.c ****   float HFT_cpu_load;
 604              		.loc 1 175 3 view .LVU176
 176:Src/mc_perf.c **** 
 177:Src/mc_perf.c ****   MFT_cpu_load = (((float)pHandle->MC_Perf_TraceLog[MEASURE_TSK_MediumFrequencyTaskM1].max / SYSCLK
 605              		.loc 1 177 3 view .LVU177
 606              		.loc 1 177 20 is_stmt 0 view .LVU178
 607 0000 D0ED097A 		vldr.32	s15, [r0, #36]	@ int
 608 0004 F8EE677A 		vcvt.f32.u32	s15, s15
 609              		.loc 1 177 92 view .LVU179
 610 0008 9FED0D6A 		vldr.32	s12, .L46
 611 000c 87EE860A 		vdiv.f32	s0, s15, s12
 612              		.loc 1 177 108 view .LVU180
 613 0010 DFED0C7A 		vldr.32	s15, .L46+4
 614 0014 20EE270A 		vmul.f32	s0, s0, s15
ARM GAS  /tmp/cc5CqDfs.s 			page 15


 615              		.loc 1 177 16 view .LVU181
 616 0018 DFED0B6A 		vldr.32	s13, .L46+8
 617 001c 20EE260A 		vmul.f32	s0, s0, s13
 618              	.LVL38:
 178:Src/mc_perf.c ****   HFT_cpu_load = (((float)pHandle->MC_Perf_TraceLog[MEASURE_TSK_HighFrequencyTask].max / SYSCLK_FRE
 619              		.loc 1 178 3 is_stmt 1 view .LVU182
 620              		.loc 1 178 83 is_stmt 0 view .LVU183
 621 0020 90ED057A 		vldr.32	s14, [r0, #20]	@ int
 622              		.loc 1 178 20 view .LVU184
 623 0024 B8EE477A 		vcvt.f32.u32	s14, s14
 624              		.loc 1 178 88 view .LVU185
 625 0028 C7EE067A 		vdiv.f32	s15, s14, s12
 626              		.loc 1 178 104 view .LVU186
 627 002c 9FED077A 		vldr.32	s14, .L46+12
 628 0030 67EE877A 		vmul.f32	s15, s15, s14
 629              		.loc 1 178 16 view .LVU187
 630 0034 67EEA67A 		vmul.f32	s15, s15, s13
 631              	.LVL39:
 179:Src/mc_perf.c **** 
 180:Src/mc_perf.c ****   return ( (float) (MFT_cpu_load + HFT_cpu_load) );
 632              		.loc 1 180 3 is_stmt 1 view .LVU188
 181:Src/mc_perf.c **** }
 633              		.loc 1 181 1 is_stmt 0 view .LVU189
 634 0038 30EE270A 		vadd.f32	s0, s0, s15
 635              	.LVL40:
 636              		.loc 1 181 1 view .LVU190
 637 003c 7047     		bx	lr
 638              	.L47:
 639 003e 00BF     		.align	2
 640              	.L46:
 641 0040 E81F224D 		.word	1294082024
 642 0044 00007A44 		.word	1148846080
 643 0048 0000C842 		.word	1120403456
 644 004c 00007A46 		.word	1182400512
 645              		.cfi_endproc
 646              	.LFE1444:
 648              		.section	.text.MC_Perf_GetMinCPU_Load,"ax",%progbits
 649              		.align	1
 650              		.global	MC_Perf_GetMinCPU_Load
 651              		.syntax unified
 652              		.thumb
 653              		.thumb_func
 654              		.fpu fpv4-sp-d16
 656              	MC_Perf_GetMinCPU_Load:
 657              	.LVL41:
 658              	.LFB1445:
 182:Src/mc_perf.c **** 
 183:Src/mc_perf.c **** /**
 184:Src/mc_perf.c ****  * @brief  It returns the minimum CPU load of both High and Medium frequency tasks
 185:Src/mc_perf.c ****  * @param  pHandle: handler of the performance measurement component
 186:Src/mc_perf.c ****  * @retval Min CPU load measured
 187:Src/mc_perf.c ****  */
 188:Src/mc_perf.c **** float MC_Perf_GetMinCPU_Load( MC_Perf_Handle_t * pHandle )
 189:Src/mc_perf.c **** {
 659              		.loc 1 189 1 is_stmt 1 view -0
 660              		.cfi_startproc
 661              		@ args = 0, pretend = 0, frame = 0
ARM GAS  /tmp/cc5CqDfs.s 			page 16


 662              		@ frame_needed = 0, uses_anonymous_args = 0
 663              		@ link register save eliminated.
 190:Src/mc_perf.c ****   float MFT_cpu_load;
 664              		.loc 1 190 3 view .LVU192
 191:Src/mc_perf.c ****   float HFT_cpu_load;
 665              		.loc 1 191 3 view .LVU193
 192:Src/mc_perf.c **** 
 193:Src/mc_perf.c ****   MFT_cpu_load = (((float)pHandle->MC_Perf_TraceLog[MEASURE_TSK_MediumFrequencyTaskM1].min / SYSCLK
 666              		.loc 1 193 3 view .LVU194
 667              		.loc 1 193 20 is_stmt 0 view .LVU195
 668 0000 D0ED087A 		vldr.32	s15, [r0, #32]	@ int
 669 0004 F8EE677A 		vcvt.f32.u32	s15, s15
 670              		.loc 1 193 92 view .LVU196
 671 0008 DFED106A 		vldr.32	s13, .L52
 672 000c 87EEA60A 		vdiv.f32	s0, s15, s13
 673              		.loc 1 193 108 view .LVU197
 674 0010 DFED0F7A 		vldr.32	s15, .L52+4
 675 0014 20EE270A 		vmul.f32	s0, s0, s15
 676              		.loc 1 193 16 view .LVU198
 677 0018 9FED0E7A 		vldr.32	s14, .L52+8
 678 001c 20EE070A 		vmul.f32	s0, s0, s14
 679              	.LVL42:
 194:Src/mc_perf.c ****   HFT_cpu_load = (((float)pHandle->MC_Perf_TraceLog[MEASURE_TSK_HighFrequencyTask].min / SYSCLK_FRE
 680              		.loc 1 194 3 is_stmt 1 view .LVU199
 681              		.loc 1 194 83 is_stmt 0 view .LVU200
 682 0020 0369     		ldr	r3, [r0, #16]
 683              		.loc 1 194 20 view .LVU201
 684 0022 07EE903A 		vmov	s15, r3	@ int
 685 0026 B8EE676A 		vcvt.f32.u32	s12, s15
 686              		.loc 1 194 88 view .LVU202
 687 002a C6EE267A 		vdiv.f32	s15, s12, s13
 688              		.loc 1 194 104 view .LVU203
 689 002e DFED0A6A 		vldr.32	s13, .L52+12
 690 0032 67EEA67A 		vmul.f32	s15, s15, s13
 691              		.loc 1 194 16 view .LVU204
 692 0036 67EE877A 		vmul.f32	s15, s15, s14
 693              	.LVL43:
 195:Src/mc_perf.c **** 
 196:Src/mc_perf.c ****   if (pHandle->MC_Perf_TraceLog[MEASURE_TSK_HighFrequencyTask].min == UINT32_MAX)
 694              		.loc 1 196 3 is_stmt 1 view .LVU205
 695              		.loc 1 196 6 is_stmt 0 view .LVU206
 696 003a B3F1FF3F 		cmp	r3, #-1
 697 003e 02D0     		beq	.L51
 698              	.LVL44:
 699              	.L49:
 197:Src/mc_perf.c ****   {
 198:Src/mc_perf.c ****     HFT_cpu_load = 0;
 199:Src/mc_perf.c ****   }
 200:Src/mc_perf.c ****   return ( (float) (MFT_cpu_load + HFT_cpu_load) );
 700              		.loc 1 200 3 is_stmt 1 view .LVU207
 201:Src/mc_perf.c **** }
 701              		.loc 1 201 1 is_stmt 0 view .LVU208
 702 0040 37EE800A 		vadd.f32	s0, s15, s0
 703              	.LVL45:
 704              		.loc 1 201 1 view .LVU209
 705 0044 7047     		bx	lr
 706              	.LVL46:
ARM GAS  /tmp/cc5CqDfs.s 			page 17


 707              	.L51:
 198:Src/mc_perf.c ****   }
 708              		.loc 1 198 18 view .LVU210
 709 0046 DFED057A 		vldr.32	s15, .L52+16
 710              	.LVL47:
 198:Src/mc_perf.c ****   }
 711              		.loc 1 198 18 view .LVU211
 712 004a F9E7     		b	.L49
 713              	.L53:
 714              		.align	2
 715              	.L52:
 716 004c E81F224D 		.word	1294082024
 717 0050 00007A44 		.word	1148846080
 718 0054 0000C842 		.word	1120403456
 719 0058 00007A46 		.word	1182400512
 720 005c 00000000 		.word	0
 721              		.cfi_endproc
 722              	.LFE1445:
 724              		.text
 725              	.Letext0:
 726              		.file 2 "/usr/lib/gcc/arm-none-eabi/9.2.1/include/stdint.h"
 727              		.file 3 "Drivers/CMSIS/Include/core_cm4.h"
 728              		.file 4 "Drivers/CMSIS/Device/ST/STM32G4xx/Include/system_stm32g4xx.h"
 729              		.file 5 "Drivers/STM32G4xx_HAL_Driver/Inc/stm32g4xx_hal_def.h"
 730              		.file 6 "Drivers/STM32G4xx_HAL_Driver/Inc/stm32g4xx_hal_flash.h"
 731              		.file 7 "Drivers/STM32G4xx_HAL_Driver/Inc/stm32g4xx_hal.h"
 732              		.file 8 "Drivers/STM32G4xx_HAL_Driver/Inc/stm32g4xx_ll_tim.h"
 733              		.file 9 "Drivers/STM32G4xx_HAL_Driver/Inc/stm32g4xx_ll_usart.h"
 734              		.file 10 "Drivers/STM32G4xx_HAL_Driver/Inc/stm32g4xx_ll_dma.h"
 735              		.file 11 "Inc/mc_perf.h"
ARM GAS  /tmp/cc5CqDfs.s 			page 18

