ARM GAS  /tmp/cccNSa3S.s 			page 1


   1              		.cpu cortex-m4
   2              		.eabi_attribute 27, 1
   3              		.eabi_attribute 28, 1
   4              		.eabi_attribute 20, 1
   5              		.eabi_attribute 21, 1
   6              		.eabi_attribute 23, 3
   7              		.eabi_attribute 24, 1
   8              		.eabi_attribute 25, 1
   9              		.eabi_attribute 26, 1
  10              		.eabi_attribute 30, 1
  11              		.eabi_attribute 34, 1
  12              		.eabi_attribute 18, 4
  13              		.file	"mcp.c"
  14              		.text
  15              	.Ltext0:
  16              		.cfi_sections	.debug_frame
  17              		.section	.text.MCP_ReceivedPacket,"ax",%progbits
  18              		.align	1
  19              		.global	MCP_ReceivedPacket
  20              		.arch armv7e-m
  21              		.syntax unified
  22              		.thumb
  23              		.thumb_func
  24              		.fpu fpv4-sp-d16
  26              	MCP_ReceivedPacket:
  27              	.LVL0:
  28              	.LFB1437:
  29              		.file 1 "MCSDK_v6.1.0-Full/MotorControl/MCSDK/MCLib/Any/Src/mcp.c"
   1:MCSDK_v6.1.0-Full/MotorControl/MCSDK/MCLib/Any/Src/mcp.c **** /**
   2:MCSDK_v6.1.0-Full/MotorControl/MCSDK/MCLib/Any/Src/mcp.c ****   ******************************************************************************
   3:MCSDK_v6.1.0-Full/MotorControl/MCSDK/MCLib/Any/Src/mcp.c ****   * @file    mcp.c
   4:MCSDK_v6.1.0-Full/MotorControl/MCSDK/MCLib/Any/Src/mcp.c ****   * @author  Motor Control SDK Team, ST Microelectronics
   5:MCSDK_v6.1.0-Full/MotorControl/MCSDK/MCLib/Any/Src/mcp.c ****   * @brief   This file provides firmware functions that implement the MCP protocol
   6:MCSDK_v6.1.0-Full/MotorControl/MCSDK/MCLib/Any/Src/mcp.c ****   *
   7:MCSDK_v6.1.0-Full/MotorControl/MCSDK/MCLib/Any/Src/mcp.c ****   *
   8:MCSDK_v6.1.0-Full/MotorControl/MCSDK/MCLib/Any/Src/mcp.c ****   ******************************************************************************
   9:MCSDK_v6.1.0-Full/MotorControl/MCSDK/MCLib/Any/Src/mcp.c ****   * @attention
  10:MCSDK_v6.1.0-Full/MotorControl/MCSDK/MCLib/Any/Src/mcp.c ****   *
  11:MCSDK_v6.1.0-Full/MotorControl/MCSDK/MCLib/Any/Src/mcp.c ****   * <h2><center>&copy; Copyright (c) 2022 STMicroelectronics.
  12:MCSDK_v6.1.0-Full/MotorControl/MCSDK/MCLib/Any/Src/mcp.c ****   * All rights reserved.</center></h2>
  13:MCSDK_v6.1.0-Full/MotorControl/MCSDK/MCLib/Any/Src/mcp.c ****   *
  14:MCSDK_v6.1.0-Full/MotorControl/MCSDK/MCLib/Any/Src/mcp.c ****   * This software component is licensed by ST under Ultimate Liberty license
  15:MCSDK_v6.1.0-Full/MotorControl/MCSDK/MCLib/Any/Src/mcp.c ****   * SLA0044, the "License"; You may not use this file except in compliance with
  16:MCSDK_v6.1.0-Full/MotorControl/MCSDK/MCLib/Any/Src/mcp.c ****   * the License. You may obtain a copy of the License at:
  17:MCSDK_v6.1.0-Full/MotorControl/MCSDK/MCLib/Any/Src/mcp.c ****   *                             www.st.com/SLA0044
  18:MCSDK_v6.1.0-Full/MotorControl/MCSDK/MCLib/Any/Src/mcp.c ****   *
  19:MCSDK_v6.1.0-Full/MotorControl/MCSDK/MCLib/Any/Src/mcp.c ****   ******************************************************************************
  20:MCSDK_v6.1.0-Full/MotorControl/MCSDK/MCLib/Any/Src/mcp.c ****   */
  21:MCSDK_v6.1.0-Full/MotorControl/MCSDK/MCLib/Any/Src/mcp.c **** 
  22:MCSDK_v6.1.0-Full/MotorControl/MCSDK/MCLib/Any/Src/mcp.c **** #include "mc_type.h"
  23:MCSDK_v6.1.0-Full/MotorControl/MCSDK/MCLib/Any/Src/mcp.c **** #include "mcp.h"
  24:MCSDK_v6.1.0-Full/MotorControl/MCSDK/MCLib/Any/Src/mcp.c **** #include "register_interface.h"
  25:MCSDK_v6.1.0-Full/MotorControl/MCSDK/MCLib/Any/Src/mcp.c **** #include "mc_config.h"
  26:MCSDK_v6.1.0-Full/MotorControl/MCSDK/MCLib/Any/Src/mcp.c **** #include "mcp_config.h"
  27:MCSDK_v6.1.0-Full/MotorControl/MCSDK/MCLib/Any/Src/mcp.c **** #include "mc_api.h"
  28:MCSDK_v6.1.0-Full/MotorControl/MCSDK/MCLib/Any/Src/mcp.c **** #include "debug_scope.h"
  29:MCSDK_v6.1.0-Full/MotorControl/MCSDK/MCLib/Any/Src/mcp.c **** extern DebugScope_Handle_t debugScopeM1;
ARM GAS  /tmp/cccNSa3S.s 			page 2


  30:MCSDK_v6.1.0-Full/MotorControl/MCSDK/MCLib/Any/Src/mcp.c **** 
  31:MCSDK_v6.1.0-Full/MotorControl/MCSDK/MCLib/Any/Src/mcp.c **** void MCP_ReceivedPacket(MCP_Handle_t *pHandle)
  32:MCSDK_v6.1.0-Full/MotorControl/MCSDK/MCLib/Any/Src/mcp.c **** {
  30              		.loc 1 32 1 view -0
  31              		.cfi_startproc
  32              		@ args = 0, pretend = 0, frame = 0
  33              		@ frame_needed = 0, uses_anonymous_args = 0
  34              		.loc 1 32 1 is_stmt 0 view .LVU1
  35 0000 F0B5     		push	{r4, r5, r6, r7, lr}
  36              		.cfi_def_cfa_offset 20
  37              		.cfi_offset 4, -20
  38              		.cfi_offset 5, -16
  39              		.cfi_offset 6, -12
  40              		.cfi_offset 7, -8
  41              		.cfi_offset 14, -4
  42 0002 83B0     		sub	sp, sp, #12
  43              		.cfi_def_cfa_offset 32
  44 0004 0446     		mov	r4, r0
  33:MCSDK_v6.1.0-Full/MotorControl/MCSDK/MCLib/Any/Src/mcp.c ****   uint16_t *packetHeader;
  45              		.loc 1 33 3 is_stmt 1 view .LVU2
  34:MCSDK_v6.1.0-Full/MotorControl/MCSDK/MCLib/Any/Src/mcp.c ****   uint16_t command;
  46              		.loc 1 34 3 view .LVU3
  35:MCSDK_v6.1.0-Full/MotorControl/MCSDK/MCLib/Any/Src/mcp.c ****   uint8_t motorID;
  47              		.loc 1 35 3 view .LVU4
  36:MCSDK_v6.1.0-Full/MotorControl/MCSDK/MCLib/Any/Src/mcp.c ****   uint8_t MCPResponse;
  48              		.loc 1 36 3 view .LVU5
  37:MCSDK_v6.1.0-Full/MotorControl/MCSDK/MCLib/Any/Src/mcp.c ****   uint8_t userCommand=0;
  49              		.loc 1 37 3 view .LVU6
  50              	.LVL1:
  38:MCSDK_v6.1.0-Full/MotorControl/MCSDK/MCLib/Any/Src/mcp.c ****   int16_t txSyncFreeSpace;
  51              		.loc 1 38 3 view .LVU7
  39:MCSDK_v6.1.0-Full/MotorControl/MCSDK/MCLib/Any/Src/mcp.c **** #ifdef NULL_PTR_CHECK_MCP
  40:MCSDK_v6.1.0-Full/MotorControl/MCSDK/MCLib/Any/Src/mcp.c ****   if ((MC_NULL == pHandle) || (0U == pHandle->rxLength))
  41:MCSDK_v6.1.0-Full/MotorControl/MCSDK/MCLib/Any/Src/mcp.c ****   {
  42:MCSDK_v6.1.0-Full/MotorControl/MCSDK/MCLib/Any/Src/mcp.c ****     /* Nothing to do, txBuffer and txLength have not been modified */
  43:MCSDK_v6.1.0-Full/MotorControl/MCSDK/MCLib/Any/Src/mcp.c ****   }
  44:MCSDK_v6.1.0-Full/MotorControl/MCSDK/MCLib/Any/Src/mcp.c ****   else /* Length is 0, this is a request to send back the last packet */
  45:MCSDK_v6.1.0-Full/MotorControl/MCSDK/MCLib/Any/Src/mcp.c ****   {
  46:MCSDK_v6.1.0-Full/MotorControl/MCSDK/MCLib/Any/Src/mcp.c **** #endif
  47:MCSDK_v6.1.0-Full/MotorControl/MCSDK/MCLib/Any/Src/mcp.c ****     packetHeader = (uint16_t *)pHandle->rxBuffer; //cstat !MISRAC2012-Rule-11.3
  52              		.loc 1 47 5 view .LVU8
  53              		.loc 1 47 18 is_stmt 0 view .LVU9
  54 0006 4168     		ldr	r1, [r0, #4]
  55              	.LVL2:
  48:MCSDK_v6.1.0-Full/MotorControl/MCSDK/MCLib/Any/Src/mcp.c ****     command = (uint16_t)(*packetHeader & CMD_MASK);
  56              		.loc 1 48 5 is_stmt 1 view .LVU10
  57              		.loc 1 48 26 is_stmt 0 view .LVU11
  58 0008 0A88     		ldrh	r2, [r1]
  59              		.loc 1 48 13 view .LVU12
  60 000a 22F00703 		bic	r3, r2, #7
  61 000e 9BB2     		uxth	r3, r3
  62              	.LVL3:
  49:MCSDK_v6.1.0-Full/MotorControl/MCSDK/MCLib/Any/Src/mcp.c ****     if ((command & MCP_USER_CMD_MASK) == MCP_USER_CMD)
  63              		.loc 1 49 5 is_stmt 1 view .LVU13
  64 0010 02F47F40 		and	r0, r2, #65280
  65              	.LVL4:
  66              		.loc 1 49 8 is_stmt 0 view .LVU14
ARM GAS  /tmp/cccNSa3S.s 			page 3


  67 0014 B0F5807F 		cmp	r0, #256
  68 0018 3AD0     		beq	.L28
  37:MCSDK_v6.1.0-Full/MotorControl/MCSDK/MCLib/Any/Src/mcp.c ****   int16_t txSyncFreeSpace;
  69              		.loc 1 37 11 view .LVU15
  70 001a 0026     		movs	r6, #0
  71              	.LVL5:
  72              	.L2:
  50:MCSDK_v6.1.0-Full/MotorControl/MCSDK/MCLib/Any/Src/mcp.c ****     {
  51:MCSDK_v6.1.0-Full/MotorControl/MCSDK/MCLib/Any/Src/mcp.c ****       userCommand = (command >> 3) & 0x1f;
  52:MCSDK_v6.1.0-Full/MotorControl/MCSDK/MCLib/Any/Src/mcp.c ****       command = MCP_USER_CMD;    	
  53:MCSDK_v6.1.0-Full/MotorControl/MCSDK/MCLib/Any/Src/mcp.c ****     }
  54:MCSDK_v6.1.0-Full/MotorControl/MCSDK/MCLib/Any/Src/mcp.c **** 
  55:MCSDK_v6.1.0-Full/MotorControl/MCSDK/MCLib/Any/Src/mcp.c ****     motorID = (uint8_t)((*packetHeader - 1U) & MOTOR_MASK);
  73              		.loc 1 55 5 is_stmt 1 view .LVU16
  74              		.loc 1 55 40 is_stmt 0 view .LVU17
  75 001c 013A     		subs	r2, r2, #1
  76              		.loc 1 55 13 view .LVU18
  77 001e 02F00702 		and	r2, r2, #7
  78              	.LVL6:
  56:MCSDK_v6.1.0-Full/MotorControl/MCSDK/MCLib/Any/Src/mcp.c **** 
  57:MCSDK_v6.1.0-Full/MotorControl/MCSDK/MCLib/Any/Src/mcp.c ****     
  58:MCSDK_v6.1.0-Full/MotorControl/MCSDK/MCLib/Any/Src/mcp.c ****     MCI_Handle_t *pMCI = &Mci[motorID];
  79              		.loc 1 58 5 is_stmt 1 view .LVU19
  80              		.loc 1 58 19 is_stmt 0 view .LVU20
  81 0022 02EB8202 		add	r2, r2, r2, lsl #2
  82              	.LVL7:
  83              		.loc 1 58 19 view .LVU21
  84 0026 5D4D     		ldr	r5, .L34
  85 0028 05EBC205 		add	r5, r5, r2, lsl #3
  86              	.LVL8:
  59:MCSDK_v6.1.0-Full/MotorControl/MCSDK/MCLib/Any/Src/mcp.c ****     /* Removing MCP Header from RxBuffer*/
  60:MCSDK_v6.1.0-Full/MotorControl/MCSDK/MCLib/Any/Src/mcp.c ****     pHandle->rxLength = pHandle->rxLength-MCP_HEADER_SIZE;
  87              		.loc 1 60 5 is_stmt 1 view .LVU22
  88              		.loc 1 60 32 is_stmt 0 view .LVU23
  89 002c A089     		ldrh	r0, [r4, #12]
  90              		.loc 1 60 42 view .LVU24
  91 002e 0238     		subs	r0, r0, #2
  92 0030 80B2     		uxth	r0, r0
  93              		.loc 1 60 23 view .LVU25
  94 0032 A081     		strh	r0, [r4, #12]	@ movhi
  95              	.LVL9:
  61:MCSDK_v6.1.0-Full/MotorControl/MCSDK/MCLib/Any/Src/mcp.c ****     pHandle->rxBuffer = pHandle->rxBuffer+MCP_HEADER_SIZE;
  96              		.loc 1 61 5 is_stmt 1 view .LVU26
  97              		.loc 1 61 42 is_stmt 0 view .LVU27
  98 0034 0231     		adds	r1, r1, #2
  99              	.LVL10:
 100              		.loc 1 61 23 view .LVU28
 101 0036 6160     		str	r1, [r4, #4]
 102              	.LVL11:
  62:MCSDK_v6.1.0-Full/MotorControl/MCSDK/MCLib/Any/Src/mcp.c ****     /* Commands requiering payload response must be aware of space available for the payload*/
  63:MCSDK_v6.1.0-Full/MotorControl/MCSDK/MCLib/Any/Src/mcp.c ****     txSyncFreeSpace = pHandle->pTransportLayer->txSyncMaxPayload-1; /* Last byte is reserved for MC
 103              		.loc 1 63 5 is_stmt 1 view .LVU29
 104              		.loc 1 63 30 is_stmt 0 view .LVU30
 105 0038 2268     		ldr	r2, [r4]
 106              		.loc 1 63 47 view .LVU31
 107 003a 9289     		ldrh	r2, [r2, #12]
 108              		.loc 1 63 65 view .LVU32
ARM GAS  /tmp/cccNSa3S.s 			page 4


 109 003c 013A     		subs	r2, r2, #1
 110 003e 1FFA82FC 		uxth	ip, r2
 111              		.loc 1 63 21 view .LVU33
 112 0042 12B2     		sxth	r2, r2
 113              	.LVL12:
  64:MCSDK_v6.1.0-Full/MotorControl/MCSDK/MCLib/Any/Src/mcp.c ****     /* Initialization of the tx length, command which send back data has to increment the txLength
  65:MCSDK_v6.1.0-Full/MotorControl/MCSDK/MCLib/Any/Src/mcp.c ****      * (case of Read register) */
  66:MCSDK_v6.1.0-Full/MotorControl/MCSDK/MCLib/Any/Src/mcp.c ****     pHandle->txLength = 0;
 114              		.loc 1 66 5 is_stmt 1 view .LVU34
 115              		.loc 1 66 23 is_stmt 0 view .LVU35
 116 0044 0027     		movs	r7, #0
 117 0046 E781     		strh	r7, [r4, #14]	@ movhi
  67:MCSDK_v6.1.0-Full/MotorControl/MCSDK/MCLib/Any/Src/mcp.c **** 
  68:MCSDK_v6.1.0-Full/MotorControl/MCSDK/MCLib/Any/Src/mcp.c ****     switch (command)
 118              		.loc 1 68 5 is_stmt 1 view .LVU36
 119 0048 382B     		cmp	r3, #56
 120 004a 25D8     		bhi	.L3
 121 004c 382B     		cmp	r3, #56
 122 004e 00F2A180 		bhi	.L22
 123 0052 DFE803F0 		tbb	[pc, r3]
 124              	.LVL13:
 125              	.L6:
 126 0056 41       		.byte	(.L13-.L6)/2
 127 0057 9F       		.byte	(.L22-.L6)/2
 128 0058 9F       		.byte	(.L22-.L6)/2
 129 0059 9F       		.byte	(.L22-.L6)/2
 130 005a 9F       		.byte	(.L22-.L6)/2
 131 005b 9F       		.byte	(.L22-.L6)/2
 132 005c 9F       		.byte	(.L22-.L6)/2
 133 005d 9F       		.byte	(.L22-.L6)/2
 134 005e 48       		.byte	(.L12-.L6)/2
 135 005f 9F       		.byte	(.L22-.L6)/2
 136 0060 9F       		.byte	(.L22-.L6)/2
 137 0061 9F       		.byte	(.L22-.L6)/2
 138 0062 9F       		.byte	(.L22-.L6)/2
 139 0063 9F       		.byte	(.L22-.L6)/2
 140 0064 9F       		.byte	(.L22-.L6)/2
 141 0065 9F       		.byte	(.L22-.L6)/2
 142 0066 4D       		.byte	(.L11-.L6)/2
 143 0067 9F       		.byte	(.L22-.L6)/2
 144 0068 9F       		.byte	(.L22-.L6)/2
 145 0069 9F       		.byte	(.L22-.L6)/2
 146 006a 9F       		.byte	(.L22-.L6)/2
 147 006b 9F       		.byte	(.L22-.L6)/2
 148 006c 9F       		.byte	(.L22-.L6)/2
 149 006d 9F       		.byte	(.L22-.L6)/2
 150 006e 52       		.byte	(.L10-.L6)/2
 151 006f 9F       		.byte	(.L22-.L6)/2
 152 0070 9F       		.byte	(.L22-.L6)/2
 153 0071 9F       		.byte	(.L22-.L6)/2
 154 0072 9F       		.byte	(.L22-.L6)/2
 155 0073 9F       		.byte	(.L22-.L6)/2
 156 0074 9F       		.byte	(.L22-.L6)/2
 157 0075 9F       		.byte	(.L22-.L6)/2
 158 0076 59       		.byte	(.L9-.L6)/2
 159 0077 9F       		.byte	(.L22-.L6)/2
 160 0078 9F       		.byte	(.L22-.L6)/2
ARM GAS  /tmp/cccNSa3S.s 			page 5


 161 0079 9F       		.byte	(.L22-.L6)/2
 162 007a 9F       		.byte	(.L22-.L6)/2
 163 007b 9F       		.byte	(.L22-.L6)/2
 164 007c 9F       		.byte	(.L22-.L6)/2
 165 007d 9F       		.byte	(.L22-.L6)/2
 166 007e 5E       		.byte	(.L8-.L6)/2
 167 007f 9F       		.byte	(.L22-.L6)/2
 168 0080 9F       		.byte	(.L22-.L6)/2
 169 0081 9F       		.byte	(.L22-.L6)/2
 170 0082 9F       		.byte	(.L22-.L6)/2
 171 0083 9F       		.byte	(.L22-.L6)/2
 172 0084 9F       		.byte	(.L22-.L6)/2
 173 0085 9F       		.byte	(.L22-.L6)/2
 174 0086 6A       		.byte	(.L7-.L6)/2
 175 0087 9F       		.byte	(.L22-.L6)/2
 176 0088 9F       		.byte	(.L22-.L6)/2
 177 0089 9F       		.byte	(.L22-.L6)/2
 178 008a 9F       		.byte	(.L22-.L6)/2
 179 008b 9F       		.byte	(.L22-.L6)/2
 180 008c 9F       		.byte	(.L22-.L6)/2
 181 008d 9F       		.byte	(.L22-.L6)/2
 182 008e 7A       		.byte	(.L5-.L6)/2
 183 008f 00       		.p2align 1
 184              	.L28:
  51:MCSDK_v6.1.0-Full/MotorControl/MCSDK/MCLib/Any/Src/mcp.c ****       command = MCP_USER_CMD;    	
 185              		.loc 1 51 7 view .LVU37
  51:MCSDK_v6.1.0-Full/MotorControl/MCSDK/MCLib/Any/Src/mcp.c ****       command = MCP_USER_CMD;    	
 186              		.loc 1 51 19 is_stmt 0 view .LVU38
 187 0090 C3F3C406 		ubfx	r6, r3, #3, #5
 188              	.LVL14:
  52:MCSDK_v6.1.0-Full/MotorControl/MCSDK/MCLib/Any/Src/mcp.c ****     }
 189              		.loc 1 52 7 is_stmt 1 view .LVU39
  52:MCSDK_v6.1.0-Full/MotorControl/MCSDK/MCLib/Any/Src/mcp.c ****     }
 190              		.loc 1 52 15 is_stmt 0 view .LVU40
 191 0094 0346     		mov	r3, r0
 192 0096 C1E7     		b	.L2
 193              	.LVL15:
 194              	.L3:
 195              		.loc 1 68 5 view .LVU41
 196 0098 702B     		cmp	r3, #112
 197 009a 60D0     		beq	.L14
 198 009c 06D9     		bls	.L29
 199 009e B3F5807F 		cmp	r3, #256
 200 00a2 10D1     		bne	.L30
  69:MCSDK_v6.1.0-Full/MotorControl/MCSDK/MCLib/Any/Src/mcp.c ****     {
  70:MCSDK_v6.1.0-Full/MotorControl/MCSDK/MCLib/Any/Src/mcp.c ****       case GET_MCP_VERSION:
  71:MCSDK_v6.1.0-Full/MotorControl/MCSDK/MCLib/Any/Src/mcp.c ****         pHandle->txLength = 4;
  72:MCSDK_v6.1.0-Full/MotorControl/MCSDK/MCLib/Any/Src/mcp.c ****         *pHandle->txBuffer = (uint32_t) MCP_VERSION;
  73:MCSDK_v6.1.0-Full/MotorControl/MCSDK/MCLib/Any/Src/mcp.c ****         MCPResponse = MCP_CMD_OK;
  74:MCSDK_v6.1.0-Full/MotorControl/MCSDK/MCLib/Any/Src/mcp.c ****       break;
  75:MCSDK_v6.1.0-Full/MotorControl/MCSDK/MCLib/Any/Src/mcp.c ****       case SET_DATA_ELEMENT:
  76:MCSDK_v6.1.0-Full/MotorControl/MCSDK/MCLib/Any/Src/mcp.c ****       {
  77:MCSDK_v6.1.0-Full/MotorControl/MCSDK/MCLib/Any/Src/mcp.c ****         MCPResponse = RI_SetRegCommandParser(pHandle, txSyncFreeSpace);
  78:MCSDK_v6.1.0-Full/MotorControl/MCSDK/MCLib/Any/Src/mcp.c ****         break;
  79:MCSDK_v6.1.0-Full/MotorControl/MCSDK/MCLib/Any/Src/mcp.c ****       }
  80:MCSDK_v6.1.0-Full/MotorControl/MCSDK/MCLib/Any/Src/mcp.c **** 
  81:MCSDK_v6.1.0-Full/MotorControl/MCSDK/MCLib/Any/Src/mcp.c ****       case GET_DATA_ELEMENT:
ARM GAS  /tmp/cccNSa3S.s 			page 6


  82:MCSDK_v6.1.0-Full/MotorControl/MCSDK/MCLib/Any/Src/mcp.c ****       {
  83:MCSDK_v6.1.0-Full/MotorControl/MCSDK/MCLib/Any/Src/mcp.c ****         MCPResponse = RI_GetRegCommandParser(pHandle, txSyncFreeSpace);
  84:MCSDK_v6.1.0-Full/MotorControl/MCSDK/MCLib/Any/Src/mcp.c ****         break;
  85:MCSDK_v6.1.0-Full/MotorControl/MCSDK/MCLib/Any/Src/mcp.c ****       }
  86:MCSDK_v6.1.0-Full/MotorControl/MCSDK/MCLib/Any/Src/mcp.c **** 
  87:MCSDK_v6.1.0-Full/MotorControl/MCSDK/MCLib/Any/Src/mcp.c ****       case START_MOTOR:
  88:MCSDK_v6.1.0-Full/MotorControl/MCSDK/MCLib/Any/Src/mcp.c ****       {
  89:MCSDK_v6.1.0-Full/MotorControl/MCSDK/MCLib/Any/Src/mcp.c ****         MCPResponse = (MCI_StartMotor(pMCI)) ? MCP_CMD_OK : MCP_CMD_NOK;
  90:MCSDK_v6.1.0-Full/MotorControl/MCSDK/MCLib/Any/Src/mcp.c ****         break;
  91:MCSDK_v6.1.0-Full/MotorControl/MCSDK/MCLib/Any/Src/mcp.c ****       }
  92:MCSDK_v6.1.0-Full/MotorControl/MCSDK/MCLib/Any/Src/mcp.c **** 
  93:MCSDK_v6.1.0-Full/MotorControl/MCSDK/MCLib/Any/Src/mcp.c ****       case STOP_MOTOR: /* Todo: Check the pertinance of return value*/
  94:MCSDK_v6.1.0-Full/MotorControl/MCSDK/MCLib/Any/Src/mcp.c ****       {
  95:MCSDK_v6.1.0-Full/MotorControl/MCSDK/MCLib/Any/Src/mcp.c ****         (void)MCI_StopMotor(pMCI);
  96:MCSDK_v6.1.0-Full/MotorControl/MCSDK/MCLib/Any/Src/mcp.c ****         MCPResponse = MCP_CMD_OK;
  97:MCSDK_v6.1.0-Full/MotorControl/MCSDK/MCLib/Any/Src/mcp.c ****         break;
  98:MCSDK_v6.1.0-Full/MotorControl/MCSDK/MCLib/Any/Src/mcp.c ****       }
  99:MCSDK_v6.1.0-Full/MotorControl/MCSDK/MCLib/Any/Src/mcp.c **** 
 100:MCSDK_v6.1.0-Full/MotorControl/MCSDK/MCLib/Any/Src/mcp.c ****       case STOP_RAMP:
 101:MCSDK_v6.1.0-Full/MotorControl/MCSDK/MCLib/Any/Src/mcp.c ****       {
 102:MCSDK_v6.1.0-Full/MotorControl/MCSDK/MCLib/Any/Src/mcp.c ****         if (RUN == MCI_GetSTMState(pMCI))
 103:MCSDK_v6.1.0-Full/MotorControl/MCSDK/MCLib/Any/Src/mcp.c ****         {
 104:MCSDK_v6.1.0-Full/MotorControl/MCSDK/MCLib/Any/Src/mcp.c ****           MCI_StopRamp(pMCI);
 105:MCSDK_v6.1.0-Full/MotorControl/MCSDK/MCLib/Any/Src/mcp.c ****         }
 106:MCSDK_v6.1.0-Full/MotorControl/MCSDK/MCLib/Any/Src/mcp.c ****         MCPResponse = MCP_CMD_OK;
 107:MCSDK_v6.1.0-Full/MotorControl/MCSDK/MCLib/Any/Src/mcp.c ****         break;
 108:MCSDK_v6.1.0-Full/MotorControl/MCSDK/MCLib/Any/Src/mcp.c ****       }
 109:MCSDK_v6.1.0-Full/MotorControl/MCSDK/MCLib/Any/Src/mcp.c **** 
 110:MCSDK_v6.1.0-Full/MotorControl/MCSDK/MCLib/Any/Src/mcp.c ****       case START_STOP:
 111:MCSDK_v6.1.0-Full/MotorControl/MCSDK/MCLib/Any/Src/mcp.c ****       {
 112:MCSDK_v6.1.0-Full/MotorControl/MCSDK/MCLib/Any/Src/mcp.c ****         /* Queries the STM and a command start or stop depending on the state. */
 113:MCSDK_v6.1.0-Full/MotorControl/MCSDK/MCLib/Any/Src/mcp.c ****         if (IDLE == MCI_GetSTMState(pMCI))
 114:MCSDK_v6.1.0-Full/MotorControl/MCSDK/MCLib/Any/Src/mcp.c ****         {
 115:MCSDK_v6.1.0-Full/MotorControl/MCSDK/MCLib/Any/Src/mcp.c ****           MCPResponse = (MCI_StartMotor(pMCI)) ? MCP_CMD_OK : MCP_CMD_NOK;
 116:MCSDK_v6.1.0-Full/MotorControl/MCSDK/MCLib/Any/Src/mcp.c ****         }
 117:MCSDK_v6.1.0-Full/MotorControl/MCSDK/MCLib/Any/Src/mcp.c ****         else
 118:MCSDK_v6.1.0-Full/MotorControl/MCSDK/MCLib/Any/Src/mcp.c ****         {
 119:MCSDK_v6.1.0-Full/MotorControl/MCSDK/MCLib/Any/Src/mcp.c ****           (void)MCI_StopMotor(pMCI);
 120:MCSDK_v6.1.0-Full/MotorControl/MCSDK/MCLib/Any/Src/mcp.c ****           MCPResponse = MCP_CMD_OK;
 121:MCSDK_v6.1.0-Full/MotorControl/MCSDK/MCLib/Any/Src/mcp.c ****         }
 122:MCSDK_v6.1.0-Full/MotorControl/MCSDK/MCLib/Any/Src/mcp.c ****         break;
 123:MCSDK_v6.1.0-Full/MotorControl/MCSDK/MCLib/Any/Src/mcp.c ****       }
 124:MCSDK_v6.1.0-Full/MotorControl/MCSDK/MCLib/Any/Src/mcp.c **** 
 125:MCSDK_v6.1.0-Full/MotorControl/MCSDK/MCLib/Any/Src/mcp.c ****       case FAULT_ACK:
 126:MCSDK_v6.1.0-Full/MotorControl/MCSDK/MCLib/Any/Src/mcp.c ****       {
 127:MCSDK_v6.1.0-Full/MotorControl/MCSDK/MCLib/Any/Src/mcp.c ****         (void)MCI_FaultAcknowledged(pMCI);
 128:MCSDK_v6.1.0-Full/MotorControl/MCSDK/MCLib/Any/Src/mcp.c ****         MCPResponse = MCP_CMD_OK;
 129:MCSDK_v6.1.0-Full/MotorControl/MCSDK/MCLib/Any/Src/mcp.c ****         break;
 130:MCSDK_v6.1.0-Full/MotorControl/MCSDK/MCLib/Any/Src/mcp.c ****       }
 131:MCSDK_v6.1.0-Full/MotorControl/MCSDK/MCLib/Any/Src/mcp.c **** 
 132:MCSDK_v6.1.0-Full/MotorControl/MCSDK/MCLib/Any/Src/mcp.c ****       case IQDREF_CLEAR:
 133:MCSDK_v6.1.0-Full/MotorControl/MCSDK/MCLib/Any/Src/mcp.c ****       {
 134:MCSDK_v6.1.0-Full/MotorControl/MCSDK/MCLib/Any/Src/mcp.c ****         MCI_Clear_Iqdref(pMCI);
 135:MCSDK_v6.1.0-Full/MotorControl/MCSDK/MCLib/Any/Src/mcp.c ****         MCPResponse = MCP_CMD_OK;
 136:MCSDK_v6.1.0-Full/MotorControl/MCSDK/MCLib/Any/Src/mcp.c ****         break;
 137:MCSDK_v6.1.0-Full/MotorControl/MCSDK/MCLib/Any/Src/mcp.c ****       }
 138:MCSDK_v6.1.0-Full/MotorControl/MCSDK/MCLib/Any/Src/mcp.c ****       case GET_DBG_DATA:
ARM GAS  /tmp/cccNSa3S.s 			page 7


 139:MCSDK_v6.1.0-Full/MotorControl/MCSDK/MCLib/Any/Src/mcp.c ****       {
 140:MCSDK_v6.1.0-Full/MotorControl/MCSDK/MCLib/Any/Src/mcp.c ****         MCI_State_t state = MCI_GetSTMState(pHandle);
 141:MCSDK_v6.1.0-Full/MotorControl/MCSDK/MCLib/Any/Src/mcp.c ****         if (state == IDLE || state == FAULT_NOW)
 142:MCSDK_v6.1.0-Full/MotorControl/MCSDK/MCLib/Any/Src/mcp.c ****           UASPEP_SEND_PACKET(aspepOverUartA.HWIp, debugScopeM1.Ch1, sizeof(debugScopeM1.Ch1) * DEBU
 143:MCSDK_v6.1.0-Full/MotorControl/MCSDK/MCLib/Any/Src/mcp.c ****         MCPResponse = MCP_CMD_OK;
 144:MCSDK_v6.1.0-Full/MotorControl/MCSDK/MCLib/Any/Src/mcp.c ****         break;
 145:MCSDK_v6.1.0-Full/MotorControl/MCSDK/MCLib/Any/Src/mcp.c ****       }
 146:MCSDK_v6.1.0-Full/MotorControl/MCSDK/MCLib/Any/Src/mcp.c ****       case PFC_ENABLE:
 147:MCSDK_v6.1.0-Full/MotorControl/MCSDK/MCLib/Any/Src/mcp.c ****       case PFC_DISABLE:
 148:MCSDK_v6.1.0-Full/MotorControl/MCSDK/MCLib/Any/Src/mcp.c ****       case PFC_FAULT_ACK:
 149:MCSDK_v6.1.0-Full/MotorControl/MCSDK/MCLib/Any/Src/mcp.c ****       {
 150:MCSDK_v6.1.0-Full/MotorControl/MCSDK/MCLib/Any/Src/mcp.c ****         MCPResponse = MCP_CMD_UNKNOWN;
 151:MCSDK_v6.1.0-Full/MotorControl/MCSDK/MCLib/Any/Src/mcp.c ****         break;
 152:MCSDK_v6.1.0-Full/MotorControl/MCSDK/MCLib/Any/Src/mcp.c ****       }      
 153:MCSDK_v6.1.0-Full/MotorControl/MCSDK/MCLib/Any/Src/mcp.c ****       case PROFILER_CMD:
 154:MCSDK_v6.1.0-Full/MotorControl/MCSDK/MCLib/Any/Src/mcp.c ****       {
 155:MCSDK_v6.1.0-Full/MotorControl/MCSDK/MCLib/Any/Src/mcp.c ****   	    MCPResponse = MC_ProfilerCommand(pHandle->rxLength, pHandle->rxBuffer, txSyncFreeSpace, &pHa
 156:MCSDK_v6.1.0-Full/MotorControl/MCSDK/MCLib/Any/Src/mcp.c ****         break;
 157:MCSDK_v6.1.0-Full/MotorControl/MCSDK/MCLib/Any/Src/mcp.c ****       }
 158:MCSDK_v6.1.0-Full/MotorControl/MCSDK/MCLib/Any/Src/mcp.c ****       
 159:MCSDK_v6.1.0-Full/MotorControl/MCSDK/MCLib/Any/Src/mcp.c ****       case MCP_USER_CMD:
 160:MCSDK_v6.1.0-Full/MotorControl/MCSDK/MCLib/Any/Src/mcp.c ****     	  if (userCommand < MCP_USER_CALLBACK_MAX && MCP_UserCallBack[userCommand] != NULL)
 201              		.loc 1 160 8 is_stmt 1 view .LVU42
 202              		.loc 1 160 11 is_stmt 0 view .LVU43
 203 00a4 012E     		cmp	r6, #1
 204 00a6 6BD9     		bls	.L31
 161:MCSDK_v6.1.0-Full/MotorControl/MCSDK/MCLib/Any/Src/mcp.c ****     	  {
 162:MCSDK_v6.1.0-Full/MotorControl/MCSDK/MCLib/Any/Src/mcp.c ****     	    MCPResponse = MCP_UserCallBack[userCommand](pHandle->rxLength, pHandle->rxBuffer, txSyncFr
 163:MCSDK_v6.1.0-Full/MotorControl/MCSDK/MCLib/Any/Src/mcp.c ****     	  }
 164:MCSDK_v6.1.0-Full/MotorControl/MCSDK/MCLib/Any/Src/mcp.c ****     	  else
 165:MCSDK_v6.1.0-Full/MotorControl/MCSDK/MCLib/Any/Src/mcp.c ****     	  {
 166:MCSDK_v6.1.0-Full/MotorControl/MCSDK/MCLib/Any/Src/mcp.c ****           MCPResponse = MCP_ERROR_CALLBACK_NOT_REGISTRED;
 205              		.loc 1 166 23 view .LVU44
 206 00a8 0D20     		movs	r0, #13
 207 00aa 0DE0     		b	.L4
 208              	.L29:
  68:MCSDK_v6.1.0-Full/MotorControl/MCSDK/MCLib/Any/Src/mcp.c ****     {
 209              		.loc 1 68 5 view .LVU45
 210 00ac 482B     		cmp	r3, #72
 211 00ae 51D0     		beq	.L16
 212 00b0 682B     		cmp	r3, #104
 213 00b2 06D1     		bne	.L32
 155:MCSDK_v6.1.0-Full/MotorControl/MCSDK/MCLib/Any/Src/mcp.c ****         break;
 214              		.loc 1 155 8 is_stmt 1 view .LVU46
 155:MCSDK_v6.1.0-Full/MotorControl/MCSDK/MCLib/Any/Src/mcp.c ****         break;
 215              		.loc 1 155 22 is_stmt 0 view .LVU47
 216 00b4 A368     		ldr	r3, [r4, #8]
 217              	.LVL16:
 155:MCSDK_v6.1.0-Full/MotorControl/MCSDK/MCLib/Any/Src/mcp.c ****         break;
 218              		.loc 1 155 22 view .LVU48
 219 00b6 0093     		str	r3, [sp]
 220 00b8 04F10E03 		add	r3, r4, #14
 221 00bc FFF7FEFF 		bl	MC_ProfilerCommand
 222              	.LVL17:
 156:MCSDK_v6.1.0-Full/MotorControl/MCSDK/MCLib/Any/Src/mcp.c ****       }
 223              		.loc 1 156 9 is_stmt 1 view .LVU49
 224 00c0 02E0     		b	.L4
ARM GAS  /tmp/cccNSa3S.s 			page 8


 225              	.LVL18:
 226              	.L32:
  68:MCSDK_v6.1.0-Full/MotorControl/MCSDK/MCLib/Any/Src/mcp.c ****     {
 227              		.loc 1 68 5 is_stmt 0 view .LVU50
 228 00c2 0220     		movs	r0, #2
 229 00c4 00E0     		b	.L4
 230              	.L30:
 231 00c6 0220     		movs	r0, #2
 232              	.LVL19:
 233              	.L4:
 167:MCSDK_v6.1.0-Full/MotorControl/MCSDK/MCLib/Any/Src/mcp.c ****     	  }
 168:MCSDK_v6.1.0-Full/MotorControl/MCSDK/MCLib/Any/Src/mcp.c ****         break;
 169:MCSDK_v6.1.0-Full/MotorControl/MCSDK/MCLib/Any/Src/mcp.c ****       default :
 170:MCSDK_v6.1.0-Full/MotorControl/MCSDK/MCLib/Any/Src/mcp.c ****       {
 171:MCSDK_v6.1.0-Full/MotorControl/MCSDK/MCLib/Any/Src/mcp.c ****         MCPResponse = MCP_CMD_UNKNOWN;
 172:MCSDK_v6.1.0-Full/MotorControl/MCSDK/MCLib/Any/Src/mcp.c ****         break;
 173:MCSDK_v6.1.0-Full/MotorControl/MCSDK/MCLib/Any/Src/mcp.c ****       }
 174:MCSDK_v6.1.0-Full/MotorControl/MCSDK/MCLib/Any/Src/mcp.c ****     }
 175:MCSDK_v6.1.0-Full/MotorControl/MCSDK/MCLib/Any/Src/mcp.c ****     pHandle->txBuffer[pHandle->txLength] = MCPResponse;
 234              		.loc 1 175 5 is_stmt 1 view .LVU51
 235              		.loc 1 175 12 is_stmt 0 view .LVU52
 236 00c8 A268     		ldr	r2, [r4, #8]
 237              		.loc 1 175 30 view .LVU53
 238 00ca E389     		ldrh	r3, [r4, #14]
 239              		.loc 1 175 42 view .LVU54
 240 00cc D054     		strb	r0, [r2, r3]
 176:MCSDK_v6.1.0-Full/MotorControl/MCSDK/MCLib/Any/Src/mcp.c ****     pHandle->txLength++;
 241              		.loc 1 176 5 is_stmt 1 view .LVU55
 242              		.loc 1 176 12 is_stmt 0 view .LVU56
 243 00ce E389     		ldrh	r3, [r4, #14]
 244              		.loc 1 176 22 view .LVU57
 245 00d0 0133     		adds	r3, r3, #1
 246 00d2 E381     		strh	r3, [r4, #14]	@ movhi
 177:MCSDK_v6.1.0-Full/MotorControl/MCSDK/MCLib/Any/Src/mcp.c **** #ifdef NULL_PTR_CHECK_MCP
 178:MCSDK_v6.1.0-Full/MotorControl/MCSDK/MCLib/Any/Src/mcp.c ****   }
 179:MCSDK_v6.1.0-Full/MotorControl/MCSDK/MCLib/Any/Src/mcp.c **** #endif
 180:MCSDK_v6.1.0-Full/MotorControl/MCSDK/MCLib/Any/Src/mcp.c **** }
 247              		.loc 1 180 1 view .LVU58
 248 00d4 03B0     		add	sp, sp, #12
 249              		.cfi_remember_state
 250              		.cfi_def_cfa_offset 20
 251              		@ sp needed
 252 00d6 F0BD     		pop	{r4, r5, r6, r7, pc}
 253              	.LVL20:
 254              	.L13:
 255              		.cfi_restore_state
  71:MCSDK_v6.1.0-Full/MotorControl/MCSDK/MCLib/Any/Src/mcp.c ****         *pHandle->txBuffer = (uint32_t) MCP_VERSION;
 256              		.loc 1 71 9 is_stmt 1 view .LVU59
  71:MCSDK_v6.1.0-Full/MotorControl/MCSDK/MCLib/Any/Src/mcp.c ****         *pHandle->txBuffer = (uint32_t) MCP_VERSION;
 257              		.loc 1 71 27 is_stmt 0 view .LVU60
 258 00d8 0423     		movs	r3, #4
 259              	.LVL21:
  71:MCSDK_v6.1.0-Full/MotorControl/MCSDK/MCLib/Any/Src/mcp.c ****         *pHandle->txBuffer = (uint32_t) MCP_VERSION;
 260              		.loc 1 71 27 view .LVU61
 261 00da E381     		strh	r3, [r4, #14]	@ movhi
  72:MCSDK_v6.1.0-Full/MotorControl/MCSDK/MCLib/Any/Src/mcp.c ****         MCPResponse = MCP_CMD_OK;
 262              		.loc 1 72 9 is_stmt 1 view .LVU62
ARM GAS  /tmp/cccNSa3S.s 			page 9


  72:MCSDK_v6.1.0-Full/MotorControl/MCSDK/MCLib/Any/Src/mcp.c ****         MCPResponse = MCP_CMD_OK;
 263              		.loc 1 72 17 is_stmt 0 view .LVU63
 264 00dc A368     		ldr	r3, [r4, #8]
  72:MCSDK_v6.1.0-Full/MotorControl/MCSDK/MCLib/Any/Src/mcp.c ****         MCPResponse = MCP_CMD_OK;
 265              		.loc 1 72 28 view .LVU64
 266 00de 0122     		movs	r2, #1
 267 00e0 1A70     		strb	r2, [r3]
  73:MCSDK_v6.1.0-Full/MotorControl/MCSDK/MCLib/Any/Src/mcp.c ****       break;
 268              		.loc 1 73 9 is_stmt 1 view .LVU65
 269              	.LVL22:
  74:MCSDK_v6.1.0-Full/MotorControl/MCSDK/MCLib/Any/Src/mcp.c ****       case SET_DATA_ELEMENT:
 270              		.loc 1 74 7 view .LVU66
  73:MCSDK_v6.1.0-Full/MotorControl/MCSDK/MCLib/Any/Src/mcp.c ****       break;
 271              		.loc 1 73 21 is_stmt 0 view .LVU67
 272 00e2 0020     		movs	r0, #0
  74:MCSDK_v6.1.0-Full/MotorControl/MCSDK/MCLib/Any/Src/mcp.c ****       case SET_DATA_ELEMENT:
 273              		.loc 1 74 7 view .LVU68
 274 00e4 F0E7     		b	.L4
 275              	.LVL23:
 276              	.L12:
  77:MCSDK_v6.1.0-Full/MotorControl/MCSDK/MCLib/Any/Src/mcp.c ****         break;
 277              		.loc 1 77 9 is_stmt 1 view .LVU69
  77:MCSDK_v6.1.0-Full/MotorControl/MCSDK/MCLib/Any/Src/mcp.c ****         break;
 278              		.loc 1 77 23 is_stmt 0 view .LVU70
 279 00e6 6146     		mov	r1, ip
 280              	.LVL24:
  77:MCSDK_v6.1.0-Full/MotorControl/MCSDK/MCLib/Any/Src/mcp.c ****         break;
 281              		.loc 1 77 23 view .LVU71
 282 00e8 2046     		mov	r0, r4
 283 00ea FFF7FEFF 		bl	RI_SetRegCommandParser
 284              	.LVL25:
  78:MCSDK_v6.1.0-Full/MotorControl/MCSDK/MCLib/Any/Src/mcp.c ****       }
 285              		.loc 1 78 9 is_stmt 1 view .LVU72
 286 00ee EBE7     		b	.L4
 287              	.LVL26:
 288              	.L11:
  83:MCSDK_v6.1.0-Full/MotorControl/MCSDK/MCLib/Any/Src/mcp.c ****         break;
 289              		.loc 1 83 9 view .LVU73
  83:MCSDK_v6.1.0-Full/MotorControl/MCSDK/MCLib/Any/Src/mcp.c ****         break;
 290              		.loc 1 83 23 is_stmt 0 view .LVU74
 291 00f0 6146     		mov	r1, ip
 292              	.LVL27:
  83:MCSDK_v6.1.0-Full/MotorControl/MCSDK/MCLib/Any/Src/mcp.c ****         break;
 293              		.loc 1 83 23 view .LVU75
 294 00f2 2046     		mov	r0, r4
 295 00f4 FFF7FEFF 		bl	RI_GetRegCommandParser
 296              	.LVL28:
  84:MCSDK_v6.1.0-Full/MotorControl/MCSDK/MCLib/Any/Src/mcp.c ****       }
 297              		.loc 1 84 9 is_stmt 1 view .LVU76
 298 00f8 E6E7     		b	.L4
 299              	.LVL29:
 300              	.L10:
  89:MCSDK_v6.1.0-Full/MotorControl/MCSDK/MCLib/Any/Src/mcp.c ****         break;
 301              		.loc 1 89 9 view .LVU77
  89:MCSDK_v6.1.0-Full/MotorControl/MCSDK/MCLib/Any/Src/mcp.c ****         break;
 302              		.loc 1 89 24 is_stmt 0 view .LVU78
 303 00fa 2846     		mov	r0, r5
ARM GAS  /tmp/cccNSa3S.s 			page 10


 304 00fc FFF7FEFF 		bl	MCI_StartMotor
 305              	.LVL30:
  89:MCSDK_v6.1.0-Full/MotorControl/MCSDK/MCLib/Any/Src/mcp.c ****         break;
 306              		.loc 1 89 59 view .LVU79
 307 0100 80F00100 		eor	r0, r0, #1
 308 0104 C0B2     		uxtb	r0, r0
 309              	.LVL31:
  90:MCSDK_v6.1.0-Full/MotorControl/MCSDK/MCLib/Any/Src/mcp.c ****       }
 310              		.loc 1 90 9 is_stmt 1 view .LVU80
 311 0106 DFE7     		b	.L4
 312              	.LVL32:
 313              	.L9:
  95:MCSDK_v6.1.0-Full/MotorControl/MCSDK/MCLib/Any/Src/mcp.c ****         MCPResponse = MCP_CMD_OK;
 314              		.loc 1 95 9 view .LVU81
  95:MCSDK_v6.1.0-Full/MotorControl/MCSDK/MCLib/Any/Src/mcp.c ****         MCPResponse = MCP_CMD_OK;
 315              		.loc 1 95 15 is_stmt 0 view .LVU82
 316 0108 2846     		mov	r0, r5
 317 010a FFF7FEFF 		bl	MCI_StopMotor
 318              	.LVL33:
  96:MCSDK_v6.1.0-Full/MotorControl/MCSDK/MCLib/Any/Src/mcp.c ****         break;
 319              		.loc 1 96 9 is_stmt 1 view .LVU83
  97:MCSDK_v6.1.0-Full/MotorControl/MCSDK/MCLib/Any/Src/mcp.c ****       }
 320              		.loc 1 97 9 view .LVU84
  96:MCSDK_v6.1.0-Full/MotorControl/MCSDK/MCLib/Any/Src/mcp.c ****         break;
 321              		.loc 1 96 21 is_stmt 0 view .LVU85
 322 010e 0020     		movs	r0, #0
  97:MCSDK_v6.1.0-Full/MotorControl/MCSDK/MCLib/Any/Src/mcp.c ****       }
 323              		.loc 1 97 9 view .LVU86
 324 0110 DAE7     		b	.L4
 325              	.LVL34:
 326              	.L8:
 102:MCSDK_v6.1.0-Full/MotorControl/MCSDK/MCLib/Any/Src/mcp.c ****         {
 327              		.loc 1 102 9 is_stmt 1 view .LVU87
 102:MCSDK_v6.1.0-Full/MotorControl/MCSDK/MCLib/Any/Src/mcp.c ****         {
 328              		.loc 1 102 20 is_stmt 0 view .LVU88
 329 0112 2846     		mov	r0, r5
 330 0114 FFF7FEFF 		bl	MCI_GetSTMState
 331              	.LVL35:
 102:MCSDK_v6.1.0-Full/MotorControl/MCSDK/MCLib/Any/Src/mcp.c ****         {
 332              		.loc 1 102 12 view .LVU89
 333 0118 0628     		cmp	r0, #6
 334 011a 01D0     		beq	.L33
 106:MCSDK_v6.1.0-Full/MotorControl/MCSDK/MCLib/Any/Src/mcp.c ****         break;
 335              		.loc 1 106 21 view .LVU90
 336 011c 0020     		movs	r0, #0
 337 011e D3E7     		b	.L4
 338              	.L33:
 104:MCSDK_v6.1.0-Full/MotorControl/MCSDK/MCLib/Any/Src/mcp.c ****         }
 339              		.loc 1 104 11 is_stmt 1 view .LVU91
 340 0120 2846     		mov	r0, r5
 341 0122 FFF7FEFF 		bl	MCI_StopRamp
 342              	.LVL36:
 106:MCSDK_v6.1.0-Full/MotorControl/MCSDK/MCLib/Any/Src/mcp.c ****         break;
 343              		.loc 1 106 21 is_stmt 0 view .LVU92
 344 0126 0020     		movs	r0, #0
 345 0128 CEE7     		b	.L4
 346              	.LVL37:
ARM GAS  /tmp/cccNSa3S.s 			page 11


 347              	.L7:
 113:MCSDK_v6.1.0-Full/MotorControl/MCSDK/MCLib/Any/Src/mcp.c ****         {
 348              		.loc 1 113 9 is_stmt 1 view .LVU93
 113:MCSDK_v6.1.0-Full/MotorControl/MCSDK/MCLib/Any/Src/mcp.c ****         {
 349              		.loc 1 113 21 is_stmt 0 view .LVU94
 350 012a 2846     		mov	r0, r5
 351 012c FFF7FEFF 		bl	MCI_GetSTMState
 352              	.LVL38:
 113:MCSDK_v6.1.0-Full/MotorControl/MCSDK/MCLib/Any/Src/mcp.c ****         {
 353              		.loc 1 113 12 view .LVU95
 354 0130 30B9     		cbnz	r0, .L19
 115:MCSDK_v6.1.0-Full/MotorControl/MCSDK/MCLib/Any/Src/mcp.c ****         }
 355              		.loc 1 115 11 is_stmt 1 view .LVU96
 115:MCSDK_v6.1.0-Full/MotorControl/MCSDK/MCLib/Any/Src/mcp.c ****         }
 356              		.loc 1 115 26 is_stmt 0 view .LVU97
 357 0132 2846     		mov	r0, r5
 358 0134 FFF7FEFF 		bl	MCI_StartMotor
 359              	.LVL39:
 115:MCSDK_v6.1.0-Full/MotorControl/MCSDK/MCLib/Any/Src/mcp.c ****         }
 360              		.loc 1 115 61 view .LVU98
 361 0138 80F00100 		eor	r0, r0, #1
 362 013c C0B2     		uxtb	r0, r0
 363              	.LVL40:
 115:MCSDK_v6.1.0-Full/MotorControl/MCSDK/MCLib/Any/Src/mcp.c ****         }
 364              		.loc 1 115 61 view .LVU99
 365 013e C3E7     		b	.L4
 366              	.LVL41:
 367              	.L19:
 119:MCSDK_v6.1.0-Full/MotorControl/MCSDK/MCLib/Any/Src/mcp.c ****           MCPResponse = MCP_CMD_OK;
 368              		.loc 1 119 11 is_stmt 1 view .LVU100
 119:MCSDK_v6.1.0-Full/MotorControl/MCSDK/MCLib/Any/Src/mcp.c ****           MCPResponse = MCP_CMD_OK;
 369              		.loc 1 119 17 is_stmt 0 view .LVU101
 370 0140 2846     		mov	r0, r5
 371 0142 FFF7FEFF 		bl	MCI_StopMotor
 372              	.LVL42:
 120:MCSDK_v6.1.0-Full/MotorControl/MCSDK/MCLib/Any/Src/mcp.c ****         }
 373              		.loc 1 120 11 is_stmt 1 view .LVU102
 120:MCSDK_v6.1.0-Full/MotorControl/MCSDK/MCLib/Any/Src/mcp.c ****         }
 374              		.loc 1 120 23 is_stmt 0 view .LVU103
 375 0146 0020     		movs	r0, #0
 376 0148 BEE7     		b	.L4
 377              	.LVL43:
 378              	.L5:
 127:MCSDK_v6.1.0-Full/MotorControl/MCSDK/MCLib/Any/Src/mcp.c ****         MCPResponse = MCP_CMD_OK;
 379              		.loc 1 127 9 is_stmt 1 view .LVU104
 127:MCSDK_v6.1.0-Full/MotorControl/MCSDK/MCLib/Any/Src/mcp.c ****         MCPResponse = MCP_CMD_OK;
 380              		.loc 1 127 15 is_stmt 0 view .LVU105
 381 014a 2846     		mov	r0, r5
 382 014c FFF7FEFF 		bl	MCI_FaultAcknowledged
 383              	.LVL44:
 128:MCSDK_v6.1.0-Full/MotorControl/MCSDK/MCLib/Any/Src/mcp.c ****         break;
 384              		.loc 1 128 9 is_stmt 1 view .LVU106
 129:MCSDK_v6.1.0-Full/MotorControl/MCSDK/MCLib/Any/Src/mcp.c ****       }
 385              		.loc 1 129 9 view .LVU107
 128:MCSDK_v6.1.0-Full/MotorControl/MCSDK/MCLib/Any/Src/mcp.c ****         break;
 386              		.loc 1 128 21 is_stmt 0 view .LVU108
 387 0150 0020     		movs	r0, #0
ARM GAS  /tmp/cccNSa3S.s 			page 12


 129:MCSDK_v6.1.0-Full/MotorControl/MCSDK/MCLib/Any/Src/mcp.c ****       }
 388              		.loc 1 129 9 view .LVU109
 389 0152 B9E7     		b	.L4
 390              	.LVL45:
 391              	.L16:
 134:MCSDK_v6.1.0-Full/MotorControl/MCSDK/MCLib/Any/Src/mcp.c ****         MCPResponse = MCP_CMD_OK;
 392              		.loc 1 134 9 is_stmt 1 view .LVU110
 393 0154 2846     		mov	r0, r5
 394 0156 FFF7FEFF 		bl	MCI_Clear_Iqdref
 395              	.LVL46:
 135:MCSDK_v6.1.0-Full/MotorControl/MCSDK/MCLib/Any/Src/mcp.c ****         break;
 396              		.loc 1 135 9 view .LVU111
 136:MCSDK_v6.1.0-Full/MotorControl/MCSDK/MCLib/Any/Src/mcp.c ****       }
 397              		.loc 1 136 9 view .LVU112
 135:MCSDK_v6.1.0-Full/MotorControl/MCSDK/MCLib/Any/Src/mcp.c ****         break;
 398              		.loc 1 135 21 is_stmt 0 view .LVU113
 399 015a 0020     		movs	r0, #0
 136:MCSDK_v6.1.0-Full/MotorControl/MCSDK/MCLib/Any/Src/mcp.c ****       }
 400              		.loc 1 136 9 view .LVU114
 401 015c B4E7     		b	.L4
 402              	.LVL47:
 403              	.L14:
 404              	.LBB2:
 140:MCSDK_v6.1.0-Full/MotorControl/MCSDK/MCLib/Any/Src/mcp.c ****         if (state == IDLE || state == FAULT_NOW)
 405              		.loc 1 140 9 is_stmt 1 view .LVU115
 140:MCSDK_v6.1.0-Full/MotorControl/MCSDK/MCLib/Any/Src/mcp.c ****         if (state == IDLE || state == FAULT_NOW)
 406              		.loc 1 140 29 is_stmt 0 view .LVU116
 407 015e 2046     		mov	r0, r4
 408 0160 FFF7FEFF 		bl	MCI_GetSTMState
 409              	.LVL48:
 141:MCSDK_v6.1.0-Full/MotorControl/MCSDK/MCLib/Any/Src/mcp.c ****           UASPEP_SEND_PACKET(aspepOverUartA.HWIp, debugScopeM1.Ch1, sizeof(debugScopeM1.Ch1) * DEBU
 410              		.loc 1 141 9 is_stmt 1 view .LVU117
 141:MCSDK_v6.1.0-Full/MotorControl/MCSDK/MCLib/Any/Src/mcp.c ****           UASPEP_SEND_PACKET(aspepOverUartA.HWIp, debugScopeM1.Ch1, sizeof(debugScopeM1.Ch1) * DEBU
 411              		.loc 1 141 12 is_stmt 0 view .LVU118
 412 0164 18B1     		cbz	r0, .L20
 141:MCSDK_v6.1.0-Full/MotorControl/MCSDK/MCLib/Any/Src/mcp.c ****           UASPEP_SEND_PACKET(aspepOverUartA.HWIp, debugScopeM1.Ch1, sizeof(debugScopeM1.Ch1) * DEBU
 413              		.loc 1 141 27 discriminator 1 view .LVU119
 414 0166 0A28     		cmp	r0, #10
 415 0168 01D0     		beq	.L20
 143:MCSDK_v6.1.0-Full/MotorControl/MCSDK/MCLib/Any/Src/mcp.c ****         break;
 416              		.loc 1 143 21 view .LVU120
 417 016a 0020     		movs	r0, #0
 418              	.LVL49:
 143:MCSDK_v6.1.0-Full/MotorControl/MCSDK/MCLib/Any/Src/mcp.c ****         break;
 419              		.loc 1 143 21 view .LVU121
 420 016c ACE7     		b	.L4
 421              	.LVL50:
 422              	.L20:
 423              	.LBB3:
 142:MCSDK_v6.1.0-Full/MotorControl/MCSDK/MCLib/Any/Src/mcp.c ****         MCPResponse = MCP_CMD_OK;
 424              		.loc 1 142 11 is_stmt 1 view .LVU122
 425 016e 4FF4C052 		mov	r2, #6144
 426 0172 0B49     		ldr	r1, .L34+4
 427 0174 0B4B     		ldr	r3, .L34+8
 428 0176 5869     		ldr	r0, [r3, #20]
 429              	.LVL51:
 142:MCSDK_v6.1.0-Full/MotorControl/MCSDK/MCLib/Any/Src/mcp.c ****         MCPResponse = MCP_CMD_OK;
ARM GAS  /tmp/cccNSa3S.s 			page 13


 430              		.loc 1 142 11 is_stmt 0 view .LVU123
 431 0178 FFF7FEFF 		bl	UASPEP_SEND_PACKET
 432              	.LVL52:
 433              	.LBE3:
 143:MCSDK_v6.1.0-Full/MotorControl/MCSDK/MCLib/Any/Src/mcp.c ****         break;
 434              		.loc 1 143 21 view .LVU124
 435 017c 0020     		movs	r0, #0
 436 017e A3E7     		b	.L4
 437              	.LVL53:
 438              	.L31:
 143:MCSDK_v6.1.0-Full/MotorControl/MCSDK/MCLib/Any/Src/mcp.c ****         break;
 439              		.loc 1 143 21 view .LVU125
 440              	.LBE2:
 160:MCSDK_v6.1.0-Full/MotorControl/MCSDK/MCLib/Any/Src/mcp.c ****     	  {
 441              		.loc 1 160 67 discriminator 1 view .LVU126
 442 0180 094B     		ldr	r3, .L34+12
 443              	.LVL54:
 160:MCSDK_v6.1.0-Full/MotorControl/MCSDK/MCLib/Any/Src/mcp.c ****     	  {
 444              		.loc 1 160 67 discriminator 1 view .LVU127
 445 0182 53F82650 		ldr	r5, [r3, r6, lsl #2]
 446              	.LVL55:
 160:MCSDK_v6.1.0-Full/MotorControl/MCSDK/MCLib/Any/Src/mcp.c ****     	  {
 447              		.loc 1 160 48 discriminator 1 view .LVU128
 448 0186 3DB1     		cbz	r5, .L26
 162:MCSDK_v6.1.0-Full/MotorControl/MCSDK/MCLib/Any/Src/mcp.c ****     	  }
 449              		.loc 1 162 10 is_stmt 1 view .LVU129
 162:MCSDK_v6.1.0-Full/MotorControl/MCSDK/MCLib/Any/Src/mcp.c ****     	  }
 450              		.loc 1 162 24 is_stmt 0 view .LVU130
 451 0188 A368     		ldr	r3, [r4, #8]
 452 018a 0093     		str	r3, [sp]
 453 018c 04F10E03 		add	r3, r4, #14
 454 0190 A847     		blx	r5
 455              	.LVL56:
 162:MCSDK_v6.1.0-Full/MotorControl/MCSDK/MCLib/Any/Src/mcp.c ****     	  }
 456              		.loc 1 162 22 view .LVU131
 457 0192 99E7     		b	.L4
 458              	.LVL57:
 459              	.L22:
  68:MCSDK_v6.1.0-Full/MotorControl/MCSDK/MCLib/Any/Src/mcp.c ****     {
 460              		.loc 1 68 5 view .LVU132
 461 0194 0220     		movs	r0, #2
 462 0196 97E7     		b	.L4
 463              	.LVL58:
 464              	.L26:
 166:MCSDK_v6.1.0-Full/MotorControl/MCSDK/MCLib/Any/Src/mcp.c ****     	  }
 465              		.loc 1 166 23 view .LVU133
 466 0198 0D20     		movs	r0, #13
 467 019a 95E7     		b	.L4
 468              	.L35:
 469              		.align	2
 470              	.L34:
 471 019c 00000000 		.word	Mci
 472 01a0 0E000000 		.word	debugScopeM1+14
 473 01a4 00000000 		.word	aspepOverUartA
 474 01a8 00000000 		.word	MCP_UserCallBack
 475              		.cfi_endproc
 476              	.LFE1437:
ARM GAS  /tmp/cccNSa3S.s 			page 14


 478              		.section	.text.MCP_RegisterCallBack,"ax",%progbits
 479              		.align	1
 480              		.global	MCP_RegisterCallBack
 481              		.syntax unified
 482              		.thumb
 483              		.thumb_func
 484              		.fpu fpv4-sp-d16
 486              	MCP_RegisterCallBack:
 487              	.LVL59:
 488              	.LFB1438:
 181:MCSDK_v6.1.0-Full/MotorControl/MCSDK/MCLib/Any/Src/mcp.c **** 
 182:MCSDK_v6.1.0-Full/MotorControl/MCSDK/MCLib/Any/Src/mcp.c **** uint8_t MCP_RegisterCallBack (uint8_t callBackID, MCP_user_cb_t fctCB)
 183:MCSDK_v6.1.0-Full/MotorControl/MCSDK/MCLib/Any/Src/mcp.c **** {
 489              		.loc 1 183 1 is_stmt 1 view -0
 490              		.cfi_startproc
 491              		@ args = 0, pretend = 0, frame = 0
 492              		@ frame_needed = 0, uses_anonymous_args = 0
 493              		@ link register save eliminated.
 184:MCSDK_v6.1.0-Full/MotorControl/MCSDK/MCLib/Any/Src/mcp.c **** 	uint8_t result;
 494              		.loc 1 184 2 view .LVU135
 185:MCSDK_v6.1.0-Full/MotorControl/MCSDK/MCLib/Any/Src/mcp.c **** 
 186:MCSDK_v6.1.0-Full/MotorControl/MCSDK/MCLib/Any/Src/mcp.c ****   if (callBackID < MCP_USER_CALLBACK_MAX)
 495              		.loc 1 186 3 view .LVU136
 496              		.loc 1 186 6 is_stmt 0 view .LVU137
 497 0000 0128     		cmp	r0, #1
 498 0002 01D9     		bls	.L39
 187:MCSDK_v6.1.0-Full/MotorControl/MCSDK/MCLib/Any/Src/mcp.c ****   {
 188:MCSDK_v6.1.0-Full/MotorControl/MCSDK/MCLib/Any/Src/mcp.c **** 	  MCP_UserCallBack[callBackID] = fctCB;
 189:MCSDK_v6.1.0-Full/MotorControl/MCSDK/MCLib/Any/Src/mcp.c **** 	  result = MCP_CMD_OK;
 190:MCSDK_v6.1.0-Full/MotorControl/MCSDK/MCLib/Any/Src/mcp.c ****   }
 191:MCSDK_v6.1.0-Full/MotorControl/MCSDK/MCLib/Any/Src/mcp.c ****   else
 192:MCSDK_v6.1.0-Full/MotorControl/MCSDK/MCLib/Any/Src/mcp.c ****   {
 193:MCSDK_v6.1.0-Full/MotorControl/MCSDK/MCLib/Any/Src/mcp.c **** 	  result = MCP_CMD_NOK;
 499              		.loc 1 193 11 view .LVU138
 500 0004 0120     		movs	r0, #1
 501              	.LVL60:
 194:MCSDK_v6.1.0-Full/MotorControl/MCSDK/MCLib/Any/Src/mcp.c ****   }
 195:MCSDK_v6.1.0-Full/MotorControl/MCSDK/MCLib/Any/Src/mcp.c ****   return result;
 502              		.loc 1 195 3 is_stmt 1 view .LVU139
 196:MCSDK_v6.1.0-Full/MotorControl/MCSDK/MCLib/Any/Src/mcp.c **** }
 503              		.loc 1 196 1 is_stmt 0 view .LVU140
 504 0006 7047     		bx	lr
 505              	.LVL61:
 506              	.L39:
 188:MCSDK_v6.1.0-Full/MotorControl/MCSDK/MCLib/Any/Src/mcp.c **** 	  result = MCP_CMD_OK;
 507              		.loc 1 188 4 is_stmt 1 view .LVU141
 188:MCSDK_v6.1.0-Full/MotorControl/MCSDK/MCLib/Any/Src/mcp.c **** 	  result = MCP_CMD_OK;
 508              		.loc 1 188 33 is_stmt 0 view .LVU142
 509 0008 024B     		ldr	r3, .L40
 510 000a 43F82010 		str	r1, [r3, r0, lsl #2]
 189:MCSDK_v6.1.0-Full/MotorControl/MCSDK/MCLib/Any/Src/mcp.c ****   }
 511              		.loc 1 189 4 is_stmt 1 view .LVU143
 512              	.LVL62:
 189:MCSDK_v6.1.0-Full/MotorControl/MCSDK/MCLib/Any/Src/mcp.c ****   }
 513              		.loc 1 189 11 is_stmt 0 view .LVU144
 514 000e 0020     		movs	r0, #0
 515              	.LVL63:
ARM GAS  /tmp/cccNSa3S.s 			page 15


 189:MCSDK_v6.1.0-Full/MotorControl/MCSDK/MCLib/Any/Src/mcp.c ****   }
 516              		.loc 1 189 11 view .LVU145
 517 0010 7047     		bx	lr
 518              	.L41:
 519 0012 00BF     		.align	2
 520              	.L40:
 521 0014 00000000 		.word	MCP_UserCallBack
 522              		.cfi_endproc
 523              	.LFE1438:
 525              		.text
 526              	.Letext0:
 527              		.file 2 "/usr/lib/gcc/arm-none-eabi/9.2.1/include/stdint.h"
 528              		.file 3 "Drivers/CMSIS/Include/core_cm4.h"
 529              		.file 4 "Drivers/CMSIS/Device/ST/STM32G4xx/Include/system_stm32g4xx.h"
 530              		.file 5 "Drivers/CMSIS/Device/ST/STM32G4xx/Include/stm32g431xx.h"
 531              		.file 6 "Drivers/STM32G4xx_HAL_Driver/Inc/stm32g4xx_hal_def.h"
 532              		.file 7 "Drivers/STM32G4xx_HAL_Driver/Inc/stm32g4xx_hal_flash.h"
 533              		.file 8 "Drivers/STM32G4xx_HAL_Driver/Inc/stm32g4xx_hal.h"
 534              		.file 9 "Drivers/STM32G4xx_HAL_Driver/Inc/stm32g4xx_ll_tim.h"
 535              		.file 10 "Drivers/STM32G4xx_HAL_Driver/Inc/stm32g4xx_ll_usart.h"
 536              		.file 11 "Drivers/STM32G4xx_HAL_Driver/Inc/stm32g4xx_ll_dma.h"
 537              		.file 12 "MCSDK_v6.1.0-Full/MotorControl/MCSDK/MCLib/Any/Inc/mc_type.h"
 538              		.file 13 "MCSDK_v6.1.0-Full/MotorControl/MCSDK/MCLib/Any/Inc/mcptl.h"
 539              		.file 14 "MCSDK_v6.1.0-Full/MotorControl/MCSDK/MCLib/Any/Inc/mcp.h"
 540              		.file 15 "MCSDK_v6.1.0-Full/MotorControl/MCSDK/MCLib/Any/Inc/pid_regulator.h"
 541              		.file 16 "MCSDK_v6.1.0-Full/MotorControl/MCSDK/MCLib/Any/Inc/speed_pos_fdbk.h"
 542              		.file 17 "MCSDK_v6.1.0-Full/MotorControl/MCSDK/MCLib/Any/Inc/speed_torq_ctrl.h"
 543              		.file 18 "MCSDK_v6.1.0-Full/MotorControl/MCSDK/MCLib/Any/Inc/virtual_speed_sensor.h"
 544              		.file 19 "Inc/regular_conversion_manager.h"
 545              		.file 20 "MCSDK_v6.1.0-Full/MotorControl/MCSDK/MCLib/Any/Inc/ntc_temperature_sensor.h"
 546              		.file 21 "MCSDK_v6.1.0-Full/MotorControl/MCSDK/MCLib/Any/Inc/sto_speed_pos_fdbk.h"
 547              		.file 22 "MCSDK_v6.1.0-Full/MotorControl/MCSDK/MCLib/Any/Inc/pwm_curr_fdbk.h"
 548              		.file 23 "MCSDK_v6.1.0-Full/MotorControl/MCSDK/MCLib/Any/Inc/revup_ctrl.h"
 549              		.file 24 "Inc/mc_interface.h"
 550              		.file 25 "Inc/mc_configuration_registers.h"
 551              		.file 26 "MCSDK_v6.1.0-Full/MotorControl/MCSDK/MCLib/Any/Inc/bus_voltage_sensor.h"
 552              		.file 27 "MCSDK_v6.1.0-Full/MotorControl/MCSDK/MCLib/Any/Inc/r_divider_bus_voltage_sensor.h"
 553              		.file 28 "MCSDK_v6.1.0-Full/MotorControl/MCSDK/MCLib/Any/Inc/feed_forward_ctrl.h"
 554              		.file 29 "MCSDK_v6.1.0-Full/MotorControl/MCSDK/MCLib/Any/Inc/pqd_motor_power_measurement.h"
 555              		.file 30 "MCSDK_v6.1.0-Full/MotorControl/MCSDK/MCLib/G4xx/Inc/r3_2_g4xx_pwm_curr_fdbk.h"
 556              		.file 31 "MCSDK_v6.1.0-Full/MotorControl/MCSDK/MCLib/Any/Inc/encoder_speed_pos_fdbk.h"
 557              		.file 32 "MCSDK_v6.1.0-Full/MotorControl/MCSDK/MCLib/Any/Inc/enc_align_ctrl.h"
 558              		.file 33 "MCSDK_v6.1.0-Full/MotorControl/MCSDK/MCLib/Any/Inc/ramp_ext_mngr.h"
 559              		.file 34 "MCSDK_v6.1.0-Full/MotorControl/MCSDK/MCLib/Any/Inc/circle_limitation.h"
 560              		.file 35 "MCSDK_v6.1.0-Full/MotorControl/MCSDK/MCLib/Any/Inc/sto_pll_speed_pos_fdbk.h"
 561              		.file 36 "Inc/mc_config.h"
 562              		.file 37 "Inc/aspep.h"
 563              		.file 38 "MCSDK_v6.1.0-Full/MotorControl/MCSDK/MCLib/Any/Inc/mcpa.h"
 564              		.file 39 "Inc/mcp_config.h"
 565              		.file 40 "Inc/debug_scope.h"
 566              		.file 41 "Inc/mc_api.h"
 567              		.file 42 "Inc/register_interface.h"
ARM GAS  /tmp/cccNSa3S.s 			page 16

