ARM GAS  /tmp/ccNUmFhH.s 			page 1


   1              		.cpu cortex-m4
   2              		.eabi_attribute 27, 1
   3              		.eabi_attribute 28, 1
   4              		.eabi_attribute 20, 1
   5              		.eabi_attribute 21, 1
   6              		.eabi_attribute 23, 3
   7              		.eabi_attribute 24, 1
   8              		.eabi_attribute 25, 1
   9              		.eabi_attribute 26, 1
  10              		.eabi_attribute 30, 1
  11              		.eabi_attribute 34, 1
  12              		.eabi_attribute 18, 4
  13              		.file	"mcp.c"
  14              		.text
  15              	.Ltext0:
  16              		.cfi_sections	.debug_frame
  17              		.section	.text.MCP_ReceivedPacket,"ax",%progbits
  18              		.align	1
  19              		.global	MCP_ReceivedPacket
  20              		.arch armv7e-m
  21              		.syntax unified
  22              		.thumb
  23              		.thumb_func
  24              		.fpu fpv4-sp-d16
  26              	MCP_ReceivedPacket:
  27              	.LVL0:
  28              	.LFB1437:
  29              		.file 1 "MCSDK_v6.0.0-Full/MotorControl/MCSDK/MCLib/Any/Src/mcp.c"
   1:MCSDK_v6.0.0-Full/MotorControl/MCSDK/MCLib/Any/Src/mcp.c **** /**
   2:MCSDK_v6.0.0-Full/MotorControl/MCSDK/MCLib/Any/Src/mcp.c ****   ******************************************************************************
   3:MCSDK_v6.0.0-Full/MotorControl/MCSDK/MCLib/Any/Src/mcp.c ****   * @file    mcp.c
   4:MCSDK_v6.0.0-Full/MotorControl/MCSDK/MCLib/Any/Src/mcp.c ****   * @author  Motor Control SDK Team, ST Microelectronics
   5:MCSDK_v6.0.0-Full/MotorControl/MCSDK/MCLib/Any/Src/mcp.c ****   * @brief   This file provides firmware functions that implement the MCP protocol
   6:MCSDK_v6.0.0-Full/MotorControl/MCSDK/MCLib/Any/Src/mcp.c ****   *
   7:MCSDK_v6.0.0-Full/MotorControl/MCSDK/MCLib/Any/Src/mcp.c ****   *
   8:MCSDK_v6.0.0-Full/MotorControl/MCSDK/MCLib/Any/Src/mcp.c ****   ******************************************************************************
   9:MCSDK_v6.0.0-Full/MotorControl/MCSDK/MCLib/Any/Src/mcp.c ****   * @attention
  10:MCSDK_v6.0.0-Full/MotorControl/MCSDK/MCLib/Any/Src/mcp.c ****   *
  11:MCSDK_v6.0.0-Full/MotorControl/MCSDK/MCLib/Any/Src/mcp.c ****   * <h2><center>&copy; Copyright (c) 2022 STMicroelectronics.
  12:MCSDK_v6.0.0-Full/MotorControl/MCSDK/MCLib/Any/Src/mcp.c ****   * All rights reserved.</center></h2>
  13:MCSDK_v6.0.0-Full/MotorControl/MCSDK/MCLib/Any/Src/mcp.c ****   *
  14:MCSDK_v6.0.0-Full/MotorControl/MCSDK/MCLib/Any/Src/mcp.c ****   * This software component is licensed by ST under Ultimate Liberty license
  15:MCSDK_v6.0.0-Full/MotorControl/MCSDK/MCLib/Any/Src/mcp.c ****   * SLA0044, the "License"; You may not use this file except in compliance with
  16:MCSDK_v6.0.0-Full/MotorControl/MCSDK/MCLib/Any/Src/mcp.c ****   * the License. You may obtain a copy of the License at:
  17:MCSDK_v6.0.0-Full/MotorControl/MCSDK/MCLib/Any/Src/mcp.c ****   *                             www.st.com/SLA0044
  18:MCSDK_v6.0.0-Full/MotorControl/MCSDK/MCLib/Any/Src/mcp.c ****   *
  19:MCSDK_v6.0.0-Full/MotorControl/MCSDK/MCLib/Any/Src/mcp.c ****   ******************************************************************************
  20:MCSDK_v6.0.0-Full/MotorControl/MCSDK/MCLib/Any/Src/mcp.c ****   */
  21:MCSDK_v6.0.0-Full/MotorControl/MCSDK/MCLib/Any/Src/mcp.c **** 
  22:MCSDK_v6.0.0-Full/MotorControl/MCSDK/MCLib/Any/Src/mcp.c **** #include "mc_type.h"
  23:MCSDK_v6.0.0-Full/MotorControl/MCSDK/MCLib/Any/Src/mcp.c **** #include "mcp.h"
  24:MCSDK_v6.0.0-Full/MotorControl/MCSDK/MCLib/Any/Src/mcp.c **** #include "register_interface.h"
  25:MCSDK_v6.0.0-Full/MotorControl/MCSDK/MCLib/Any/Src/mcp.c **** #include "mc_config.h"
  26:MCSDK_v6.0.0-Full/MotorControl/MCSDK/MCLib/Any/Src/mcp.c **** #include "mcp_config.h"
  27:MCSDK_v6.0.0-Full/MotorControl/MCSDK/MCLib/Any/Src/mcp.c **** #include "debug_scope.h"
  28:MCSDK_v6.0.0-Full/MotorControl/MCSDK/MCLib/Any/Src/mcp.c **** extern DebugScope_Handle_t debugScopeM1;
  29:MCSDK_v6.0.0-Full/MotorControl/MCSDK/MCLib/Any/Src/mcp.c **** 
ARM GAS  /tmp/ccNUmFhH.s 			page 2


  30:MCSDK_v6.0.0-Full/MotorControl/MCSDK/MCLib/Any/Src/mcp.c **** void MCP_ReceivedPacket(MCP_Handle_t *pHandle)
  31:MCSDK_v6.0.0-Full/MotorControl/MCSDK/MCLib/Any/Src/mcp.c **** {
  30              		.loc 1 31 1 view -0
  31              		.cfi_startproc
  32              		@ args = 0, pretend = 0, frame = 0
  33              		@ frame_needed = 0, uses_anonymous_args = 0
  34              		.loc 1 31 1 is_stmt 0 view .LVU1
  35 0000 F0B5     		push	{r4, r5, r6, r7, lr}
  36              		.cfi_def_cfa_offset 20
  37              		.cfi_offset 4, -20
  38              		.cfi_offset 5, -16
  39              		.cfi_offset 6, -12
  40              		.cfi_offset 7, -8
  41              		.cfi_offset 14, -4
  42 0002 83B0     		sub	sp, sp, #12
  43              		.cfi_def_cfa_offset 32
  44 0004 0446     		mov	r4, r0
  32:MCSDK_v6.0.0-Full/MotorControl/MCSDK/MCLib/Any/Src/mcp.c ****   uint16_t *packetHeader;
  45              		.loc 1 32 3 is_stmt 1 view .LVU2
  33:MCSDK_v6.0.0-Full/MotorControl/MCSDK/MCLib/Any/Src/mcp.c ****   uint16_t command;
  46              		.loc 1 33 3 view .LVU3
  34:MCSDK_v6.0.0-Full/MotorControl/MCSDK/MCLib/Any/Src/mcp.c ****   uint8_t motorID;
  47              		.loc 1 34 3 view .LVU4
  35:MCSDK_v6.0.0-Full/MotorControl/MCSDK/MCLib/Any/Src/mcp.c ****   uint8_t MCPResponse;
  48              		.loc 1 35 3 view .LVU5
  36:MCSDK_v6.0.0-Full/MotorControl/MCSDK/MCLib/Any/Src/mcp.c ****   uint8_t userCommand=0;
  49              		.loc 1 36 3 view .LVU6
  50              	.LVL1:
  37:MCSDK_v6.0.0-Full/MotorControl/MCSDK/MCLib/Any/Src/mcp.c ****   int16_t txSyncFreeSpace;
  51              		.loc 1 37 3 view .LVU7
  38:MCSDK_v6.0.0-Full/MotorControl/MCSDK/MCLib/Any/Src/mcp.c **** #ifdef NULL_PTR_CHECK_MCP
  39:MCSDK_v6.0.0-Full/MotorControl/MCSDK/MCLib/Any/Src/mcp.c ****   if ((MC_NULL == pHandle) || (0U == pHandle->rxLength))
  40:MCSDK_v6.0.0-Full/MotorControl/MCSDK/MCLib/Any/Src/mcp.c ****   {
  41:MCSDK_v6.0.0-Full/MotorControl/MCSDK/MCLib/Any/Src/mcp.c ****     /* Nothing to do, txBuffer and txLength have not been modified */
  42:MCSDK_v6.0.0-Full/MotorControl/MCSDK/MCLib/Any/Src/mcp.c ****   }
  43:MCSDK_v6.0.0-Full/MotorControl/MCSDK/MCLib/Any/Src/mcp.c ****   else /* Length is 0, this is a request to send back the last packet */
  44:MCSDK_v6.0.0-Full/MotorControl/MCSDK/MCLib/Any/Src/mcp.c ****   {
  45:MCSDK_v6.0.0-Full/MotorControl/MCSDK/MCLib/Any/Src/mcp.c **** #endif
  46:MCSDK_v6.0.0-Full/MotorControl/MCSDK/MCLib/Any/Src/mcp.c ****     packetHeader = (uint16_t *)pHandle->rxBuffer; //cstat !MISRAC2012-Rule-11.3
  52              		.loc 1 46 5 view .LVU8
  53              		.loc 1 46 18 is_stmt 0 view .LVU9
  54 0006 4768     		ldr	r7, [r0, #4]
  55              	.LVL2:
  47:MCSDK_v6.0.0-Full/MotorControl/MCSDK/MCLib/Any/Src/mcp.c ****     command = (uint16_t)(*packetHeader & CMD_MASK);
  56              		.loc 1 47 5 is_stmt 1 view .LVU10
  57              		.loc 1 47 26 is_stmt 0 view .LVU11
  58 0008 3A88     		ldrh	r2, [r7]
  59              		.loc 1 47 13 view .LVU12
  60 000a 22F00703 		bic	r3, r2, #7
  61 000e 9BB2     		uxth	r3, r3
  62              	.LVL3:
  48:MCSDK_v6.0.0-Full/MotorControl/MCSDK/MCLib/Any/Src/mcp.c ****     if ((command & MCP_USER_CMD_MASK) == MCP_USER_CMD)
  63              		.loc 1 48 5 is_stmt 1 view .LVU13
  64 0010 02F47F40 		and	r0, r2, #65280
  65              	.LVL4:
  66              		.loc 1 48 8 is_stmt 0 view .LVU14
  67 0014 B0F5807F 		cmp	r0, #256
ARM GAS  /tmp/ccNUmFhH.s 			page 3


  68 0018 3BD0     		beq	.L32
  36:MCSDK_v6.0.0-Full/MotorControl/MCSDK/MCLib/Any/Src/mcp.c ****   int16_t txSyncFreeSpace;
  69              		.loc 1 36 11 view .LVU15
  70 001a 0026     		movs	r6, #0
  71              	.LVL5:
  72              	.L2:
  49:MCSDK_v6.0.0-Full/MotorControl/MCSDK/MCLib/Any/Src/mcp.c ****     {
  50:MCSDK_v6.0.0-Full/MotorControl/MCSDK/MCLib/Any/Src/mcp.c ****       userCommand = (command >> 3) & 0x1f;
  51:MCSDK_v6.0.0-Full/MotorControl/MCSDK/MCLib/Any/Src/mcp.c ****       command = MCP_USER_CMD;    	
  52:MCSDK_v6.0.0-Full/MotorControl/MCSDK/MCLib/Any/Src/mcp.c ****     }
  53:MCSDK_v6.0.0-Full/MotorControl/MCSDK/MCLib/Any/Src/mcp.c **** 
  54:MCSDK_v6.0.0-Full/MotorControl/MCSDK/MCLib/Any/Src/mcp.c ****     motorID = (uint8_t)((*packetHeader - 1U) & MOTOR_MASK);
  73              		.loc 1 54 5 is_stmt 1 view .LVU16
  74              		.loc 1 54 40 is_stmt 0 view .LVU17
  75 001c 013A     		subs	r2, r2, #1
  76              		.loc 1 54 13 view .LVU18
  77 001e 02F00702 		and	r2, r2, #7
  78              	.LVL6:
  55:MCSDK_v6.0.0-Full/MotorControl/MCSDK/MCLib/Any/Src/mcp.c **** 
  56:MCSDK_v6.0.0-Full/MotorControl/MCSDK/MCLib/Any/Src/mcp.c ****     
  57:MCSDK_v6.0.0-Full/MotorControl/MCSDK/MCLib/Any/Src/mcp.c ****     MCI_Handle_t *pMCI = &Mci[motorID];
  79              		.loc 1 57 5 is_stmt 1 view .LVU19
  80              		.loc 1 57 19 is_stmt 0 view .LVU20
  81 0022 02EBC202 		add	r2, r2, r2, lsl #3
  82              	.LVL7:
  83              		.loc 1 57 19 view .LVU21
  84 0026 654D     		ldr	r5, .L37
  85 0028 05EB8205 		add	r5, r5, r2, lsl #2
  86              	.LVL8:
  58:MCSDK_v6.0.0-Full/MotorControl/MCSDK/MCLib/Any/Src/mcp.c ****     /* Removing MCP Header from RxBuffer*/
  59:MCSDK_v6.0.0-Full/MotorControl/MCSDK/MCLib/Any/Src/mcp.c ****     pHandle->rxLength = pHandle->rxLength-MCP_HEADER_SIZE;
  87              		.loc 1 59 5 is_stmt 1 view .LVU22
  88              		.loc 1 59 32 is_stmt 0 view .LVU23
  89 002c A089     		ldrh	r0, [r4, #12]
  90              		.loc 1 59 42 view .LVU24
  91 002e 0238     		subs	r0, r0, #2
  92 0030 80B2     		uxth	r0, r0
  93              		.loc 1 59 23 view .LVU25
  94 0032 A081     		strh	r0, [r4, #12]	@ movhi
  95              	.LVL9:
  60:MCSDK_v6.0.0-Full/MotorControl/MCSDK/MCLib/Any/Src/mcp.c ****     pHandle->rxBuffer = pHandle->rxBuffer+MCP_HEADER_SIZE;
  96              		.loc 1 60 5 is_stmt 1 view .LVU26
  97              		.loc 1 60 42 is_stmt 0 view .LVU27
  98 0034 0237     		adds	r7, r7, #2
  99              	.LVL10:
 100              		.loc 1 60 23 view .LVU28
 101 0036 6760     		str	r7, [r4, #4]
 102              	.LVL11:
  61:MCSDK_v6.0.0-Full/MotorControl/MCSDK/MCLib/Any/Src/mcp.c ****     /* Commands requiering payload response must be aware of space available for the payload*/
  62:MCSDK_v6.0.0-Full/MotorControl/MCSDK/MCLib/Any/Src/mcp.c ****     txSyncFreeSpace = pHandle->pTransportLayer->txSyncMaxPayload-1; /* Last byte is reserved for MC
 103              		.loc 1 62 5 is_stmt 1 view .LVU29
 104              		.loc 1 62 30 is_stmt 0 view .LVU30
 105 0038 2268     		ldr	r2, [r4]
 106              		.loc 1 62 47 view .LVU31
 107 003a 9289     		ldrh	r2, [r2, #12]
 108              		.loc 1 62 65 view .LVU32
 109 003c 013A     		subs	r2, r2, #1
ARM GAS  /tmp/ccNUmFhH.s 			page 4


 110 003e 91B2     		uxth	r1, r2
 111              		.loc 1 62 21 view .LVU33
 112 0040 12B2     		sxth	r2, r2
 113              	.LVL12:
  63:MCSDK_v6.0.0-Full/MotorControl/MCSDK/MCLib/Any/Src/mcp.c ****     /* Initialization of the tx length, command which send back data has to increment the txLength
  64:MCSDK_v6.0.0-Full/MotorControl/MCSDK/MCLib/Any/Src/mcp.c ****      * (case of Read register) */
  65:MCSDK_v6.0.0-Full/MotorControl/MCSDK/MCLib/Any/Src/mcp.c ****     pHandle->txLength = 0;
 114              		.loc 1 65 5 is_stmt 1 view .LVU34
 115              		.loc 1 65 23 is_stmt 0 view .LVU35
 116 0042 4FF0000C 		mov	ip, #0
 117 0046 A4F80EC0 		strh	ip, [r4, #14]	@ movhi
  66:MCSDK_v6.0.0-Full/MotorControl/MCSDK/MCLib/Any/Src/mcp.c **** 
  67:MCSDK_v6.0.0-Full/MotorControl/MCSDK/MCLib/Any/Src/mcp.c ****     switch (command)
 118              		.loc 1 67 5 is_stmt 1 view .LVU36
 119 004a 382B     		cmp	r3, #56
 120 004c 25D8     		bhi	.L33
 121 004e 382B     		cmp	r3, #56
 122 0050 00F2AF80 		bhi	.L25
 123 0054 DFE803F0 		tbb	[pc, r3]
 124              	.LVL13:
 125              	.L11:
 126 0058 4A       		.byte	(.L18-.L11)/2
 127 0059 AD       		.byte	(.L25-.L11)/2
 128 005a AD       		.byte	(.L25-.L11)/2
 129 005b AD       		.byte	(.L25-.L11)/2
 130 005c AD       		.byte	(.L25-.L11)/2
 131 005d AD       		.byte	(.L25-.L11)/2
 132 005e AD       		.byte	(.L25-.L11)/2
 133 005f AD       		.byte	(.L25-.L11)/2
 134 0060 51       		.byte	(.L17-.L11)/2
 135 0061 AD       		.byte	(.L25-.L11)/2
 136 0062 AD       		.byte	(.L25-.L11)/2
 137 0063 AD       		.byte	(.L25-.L11)/2
 138 0064 AD       		.byte	(.L25-.L11)/2
 139 0065 AD       		.byte	(.L25-.L11)/2
 140 0066 AD       		.byte	(.L25-.L11)/2
 141 0067 AD       		.byte	(.L25-.L11)/2
 142 0068 55       		.byte	(.L16-.L11)/2
 143 0069 AD       		.byte	(.L25-.L11)/2
 144 006a AD       		.byte	(.L25-.L11)/2
 145 006b AD       		.byte	(.L25-.L11)/2
 146 006c AD       		.byte	(.L25-.L11)/2
 147 006d AD       		.byte	(.L25-.L11)/2
 148 006e AD       		.byte	(.L25-.L11)/2
 149 006f AD       		.byte	(.L25-.L11)/2
 150 0070 59       		.byte	(.L15-.L11)/2
 151 0071 AD       		.byte	(.L25-.L11)/2
 152 0072 AD       		.byte	(.L25-.L11)/2
 153 0073 AD       		.byte	(.L25-.L11)/2
 154 0074 AD       		.byte	(.L25-.L11)/2
 155 0075 AD       		.byte	(.L25-.L11)/2
 156 0076 AD       		.byte	(.L25-.L11)/2
 157 0077 AD       		.byte	(.L25-.L11)/2
 158 0078 60       		.byte	(.L14-.L11)/2
 159 0079 AD       		.byte	(.L25-.L11)/2
 160 007a AD       		.byte	(.L25-.L11)/2
 161 007b AD       		.byte	(.L25-.L11)/2
ARM GAS  /tmp/ccNUmFhH.s 			page 5


 162 007c AD       		.byte	(.L25-.L11)/2
 163 007d AD       		.byte	(.L25-.L11)/2
 164 007e AD       		.byte	(.L25-.L11)/2
 165 007f AD       		.byte	(.L25-.L11)/2
 166 0080 65       		.byte	(.L13-.L11)/2
 167 0081 AD       		.byte	(.L25-.L11)/2
 168 0082 AD       		.byte	(.L25-.L11)/2
 169 0083 AD       		.byte	(.L25-.L11)/2
 170 0084 AD       		.byte	(.L25-.L11)/2
 171 0085 AD       		.byte	(.L25-.L11)/2
 172 0086 AD       		.byte	(.L25-.L11)/2
 173 0087 AD       		.byte	(.L25-.L11)/2
 174 0088 71       		.byte	(.L12-.L11)/2
 175 0089 AD       		.byte	(.L25-.L11)/2
 176 008a AD       		.byte	(.L25-.L11)/2
 177 008b AD       		.byte	(.L25-.L11)/2
 178 008c AD       		.byte	(.L25-.L11)/2
 179 008d AD       		.byte	(.L25-.L11)/2
 180 008e AD       		.byte	(.L25-.L11)/2
 181 008f AD       		.byte	(.L25-.L11)/2
 182 0090 81       		.byte	(.L10-.L11)/2
 183 0091 00       		.p2align 1
 184              	.L32:
  50:MCSDK_v6.0.0-Full/MotorControl/MCSDK/MCLib/Any/Src/mcp.c ****       command = MCP_USER_CMD;    	
 185              		.loc 1 50 7 view .LVU37
  50:MCSDK_v6.0.0-Full/MotorControl/MCSDK/MCLib/Any/Src/mcp.c ****       command = MCP_USER_CMD;    	
 186              		.loc 1 50 19 is_stmt 0 view .LVU38
 187 0092 C3F3C406 		ubfx	r6, r3, #3, #5
 188              	.LVL14:
  51:MCSDK_v6.0.0-Full/MotorControl/MCSDK/MCLib/Any/Src/mcp.c ****     }
 189              		.loc 1 51 7 is_stmt 1 view .LVU39
  51:MCSDK_v6.0.0-Full/MotorControl/MCSDK/MCLib/Any/Src/mcp.c ****     }
 190              		.loc 1 51 15 is_stmt 0 view .LVU40
 191 0096 0346     		mov	r3, r0
 192 0098 C0E7     		b	.L2
 193              	.LVL15:
 194              	.L33:
 195              		.loc 1 67 5 view .LVU41
 196 009a 682B     		cmp	r3, #104
 197 009c 1AD8     		bhi	.L19
 198 009e 482B     		cmp	r3, #72
 199 00a0 16D3     		bcc	.L34
 200 00a2 483B     		subs	r3, r3, #72
 201              	.LVL16:
 202              		.loc 1 67 5 view .LVU42
 203 00a4 202B     		cmp	r3, #32
 204 00a6 00F28280 		bhi	.L24
 205 00aa DFE803F0 		tbb	[pc, r3]
 206              	.L7:
 207 00ae 5B       		.byte	(.L9-.L7)/2
 208 00af 80       		.byte	(.L24-.L7)/2
 209 00b0 80       		.byte	(.L24-.L7)/2
 210 00b1 80       		.byte	(.L24-.L7)/2
 211 00b2 80       		.byte	(.L24-.L7)/2
 212 00b3 80       		.byte	(.L24-.L7)/2
 213 00b4 80       		.byte	(.L24-.L7)/2
 214 00b5 80       		.byte	(.L24-.L7)/2
ARM GAS  /tmp/ccNUmFhH.s 			page 6


 215 00b6 71       		.byte	(.L8-.L7)/2
 216 00b7 80       		.byte	(.L24-.L7)/2
 217 00b8 80       		.byte	(.L24-.L7)/2
 218 00b9 80       		.byte	(.L24-.L7)/2
 219 00ba 80       		.byte	(.L24-.L7)/2
 220 00bb 80       		.byte	(.L24-.L7)/2
 221 00bc 80       		.byte	(.L24-.L7)/2
 222 00bd 80       		.byte	(.L24-.L7)/2
 223 00be 71       		.byte	(.L8-.L7)/2
 224 00bf 80       		.byte	(.L24-.L7)/2
 225 00c0 80       		.byte	(.L24-.L7)/2
 226 00c1 80       		.byte	(.L24-.L7)/2
 227 00c2 80       		.byte	(.L24-.L7)/2
 228 00c3 80       		.byte	(.L24-.L7)/2
 229 00c4 80       		.byte	(.L24-.L7)/2
 230 00c5 80       		.byte	(.L24-.L7)/2
 231 00c6 71       		.byte	(.L8-.L7)/2
 232 00c7 80       		.byte	(.L24-.L7)/2
 233 00c8 80       		.byte	(.L24-.L7)/2
 234 00c9 80       		.byte	(.L24-.L7)/2
 235 00ca 80       		.byte	(.L24-.L7)/2
 236 00cb 80       		.byte	(.L24-.L7)/2
 237 00cc 80       		.byte	(.L24-.L7)/2
 238 00cd 80       		.byte	(.L24-.L7)/2
 239 00ce 60       		.byte	(.L6-.L7)/2
 240              	.LVL17:
 241 00cf 00       		.p2align 1
 242              	.L34:
 243              		.loc 1 67 5 view .LVU43
 244 00d0 0220     		movs	r0, #2
 245 00d2 03E0     		b	.L5
 246              	.L19:
 247 00d4 B3F5807F 		cmp	r3, #256
 248 00d8 5AD0     		beq	.L8
 249 00da 0220     		movs	r0, #2
 250              	.LVL18:
 251              	.L5:
  68:MCSDK_v6.0.0-Full/MotorControl/MCSDK/MCLib/Any/Src/mcp.c ****     {
  69:MCSDK_v6.0.0-Full/MotorControl/MCSDK/MCLib/Any/Src/mcp.c ****       case GET_MCP_VERSION:
  70:MCSDK_v6.0.0-Full/MotorControl/MCSDK/MCLib/Any/Src/mcp.c ****         pHandle->txLength = 4;
  71:MCSDK_v6.0.0-Full/MotorControl/MCSDK/MCLib/Any/Src/mcp.c ****         *pHandle->txBuffer = (uint32_t) MCP_VERSION;
  72:MCSDK_v6.0.0-Full/MotorControl/MCSDK/MCLib/Any/Src/mcp.c ****         MCPResponse = MCP_CMD_OK;
  73:MCSDK_v6.0.0-Full/MotorControl/MCSDK/MCLib/Any/Src/mcp.c ****       break;
  74:MCSDK_v6.0.0-Full/MotorControl/MCSDK/MCLib/Any/Src/mcp.c ****       case SET_DATA_ELEMENT:
  75:MCSDK_v6.0.0-Full/MotorControl/MCSDK/MCLib/Any/Src/mcp.c ****       {
  76:MCSDK_v6.0.0-Full/MotorControl/MCSDK/MCLib/Any/Src/mcp.c ****         MCPResponse = RI_SetRegCommandParser(pHandle, txSyncFreeSpace);
  77:MCSDK_v6.0.0-Full/MotorControl/MCSDK/MCLib/Any/Src/mcp.c ****         break;
  78:MCSDK_v6.0.0-Full/MotorControl/MCSDK/MCLib/Any/Src/mcp.c ****       }
  79:MCSDK_v6.0.0-Full/MotorControl/MCSDK/MCLib/Any/Src/mcp.c **** 
  80:MCSDK_v6.0.0-Full/MotorControl/MCSDK/MCLib/Any/Src/mcp.c ****       case GET_DATA_ELEMENT:
  81:MCSDK_v6.0.0-Full/MotorControl/MCSDK/MCLib/Any/Src/mcp.c ****       {
  82:MCSDK_v6.0.0-Full/MotorControl/MCSDK/MCLib/Any/Src/mcp.c ****         MCPResponse = RI_GetRegCommandParser(pHandle, txSyncFreeSpace);
  83:MCSDK_v6.0.0-Full/MotorControl/MCSDK/MCLib/Any/Src/mcp.c ****         break;
  84:MCSDK_v6.0.0-Full/MotorControl/MCSDK/MCLib/Any/Src/mcp.c ****       }
  85:MCSDK_v6.0.0-Full/MotorControl/MCSDK/MCLib/Any/Src/mcp.c **** 
  86:MCSDK_v6.0.0-Full/MotorControl/MCSDK/MCLib/Any/Src/mcp.c ****       case START_MOTOR:
  87:MCSDK_v6.0.0-Full/MotorControl/MCSDK/MCLib/Any/Src/mcp.c ****       {
ARM GAS  /tmp/ccNUmFhH.s 			page 7


  88:MCSDK_v6.0.0-Full/MotorControl/MCSDK/MCLib/Any/Src/mcp.c ****         MCPResponse = (MCI_StartMotor(pMCI)) ? MCP_CMD_OK : MCP_CMD_NOK;
  89:MCSDK_v6.0.0-Full/MotorControl/MCSDK/MCLib/Any/Src/mcp.c ****         break;
  90:MCSDK_v6.0.0-Full/MotorControl/MCSDK/MCLib/Any/Src/mcp.c ****       }
  91:MCSDK_v6.0.0-Full/MotorControl/MCSDK/MCLib/Any/Src/mcp.c **** 
  92:MCSDK_v6.0.0-Full/MotorControl/MCSDK/MCLib/Any/Src/mcp.c ****       case STOP_MOTOR: /* Todo: Check the pertinance of return value*/
  93:MCSDK_v6.0.0-Full/MotorControl/MCSDK/MCLib/Any/Src/mcp.c ****       {
  94:MCSDK_v6.0.0-Full/MotorControl/MCSDK/MCLib/Any/Src/mcp.c ****         (void)MCI_StopMotor(pMCI);
  95:MCSDK_v6.0.0-Full/MotorControl/MCSDK/MCLib/Any/Src/mcp.c ****         MCPResponse = MCP_CMD_OK;
  96:MCSDK_v6.0.0-Full/MotorControl/MCSDK/MCLib/Any/Src/mcp.c ****         break;
  97:MCSDK_v6.0.0-Full/MotorControl/MCSDK/MCLib/Any/Src/mcp.c ****       }
  98:MCSDK_v6.0.0-Full/MotorControl/MCSDK/MCLib/Any/Src/mcp.c **** 
  99:MCSDK_v6.0.0-Full/MotorControl/MCSDK/MCLib/Any/Src/mcp.c ****       case STOP_RAMP:
 100:MCSDK_v6.0.0-Full/MotorControl/MCSDK/MCLib/Any/Src/mcp.c ****       {
 101:MCSDK_v6.0.0-Full/MotorControl/MCSDK/MCLib/Any/Src/mcp.c ****         if (RUN == MCI_GetSTMState(pMCI))
 102:MCSDK_v6.0.0-Full/MotorControl/MCSDK/MCLib/Any/Src/mcp.c ****         {
 103:MCSDK_v6.0.0-Full/MotorControl/MCSDK/MCLib/Any/Src/mcp.c ****           MCI_StopRamp(pMCI);
 104:MCSDK_v6.0.0-Full/MotorControl/MCSDK/MCLib/Any/Src/mcp.c ****         }
 105:MCSDK_v6.0.0-Full/MotorControl/MCSDK/MCLib/Any/Src/mcp.c ****         MCPResponse = MCP_CMD_OK;
 106:MCSDK_v6.0.0-Full/MotorControl/MCSDK/MCLib/Any/Src/mcp.c ****         break;
 107:MCSDK_v6.0.0-Full/MotorControl/MCSDK/MCLib/Any/Src/mcp.c ****       }
 108:MCSDK_v6.0.0-Full/MotorControl/MCSDK/MCLib/Any/Src/mcp.c **** 
 109:MCSDK_v6.0.0-Full/MotorControl/MCSDK/MCLib/Any/Src/mcp.c ****       case START_STOP:
 110:MCSDK_v6.0.0-Full/MotorControl/MCSDK/MCLib/Any/Src/mcp.c ****       {
 111:MCSDK_v6.0.0-Full/MotorControl/MCSDK/MCLib/Any/Src/mcp.c ****         /* Queries the STM and a command start or stop depending on the state. */
 112:MCSDK_v6.0.0-Full/MotorControl/MCSDK/MCLib/Any/Src/mcp.c ****         if (IDLE == MCI_GetSTMState(pMCI))
 113:MCSDK_v6.0.0-Full/MotorControl/MCSDK/MCLib/Any/Src/mcp.c ****         {
 114:MCSDK_v6.0.0-Full/MotorControl/MCSDK/MCLib/Any/Src/mcp.c ****           MCPResponse = (MCI_StartMotor(pMCI)) ? MCP_CMD_OK : MCP_CMD_NOK;
 115:MCSDK_v6.0.0-Full/MotorControl/MCSDK/MCLib/Any/Src/mcp.c ****         }
 116:MCSDK_v6.0.0-Full/MotorControl/MCSDK/MCLib/Any/Src/mcp.c ****         else
 117:MCSDK_v6.0.0-Full/MotorControl/MCSDK/MCLib/Any/Src/mcp.c ****         {
 118:MCSDK_v6.0.0-Full/MotorControl/MCSDK/MCLib/Any/Src/mcp.c ****           (void)MCI_StopMotor(pMCI);
 119:MCSDK_v6.0.0-Full/MotorControl/MCSDK/MCLib/Any/Src/mcp.c ****           MCPResponse = MCP_CMD_OK;
 120:MCSDK_v6.0.0-Full/MotorControl/MCSDK/MCLib/Any/Src/mcp.c ****         }
 121:MCSDK_v6.0.0-Full/MotorControl/MCSDK/MCLib/Any/Src/mcp.c ****         break;
 122:MCSDK_v6.0.0-Full/MotorControl/MCSDK/MCLib/Any/Src/mcp.c ****       }
 123:MCSDK_v6.0.0-Full/MotorControl/MCSDK/MCLib/Any/Src/mcp.c **** 
 124:MCSDK_v6.0.0-Full/MotorControl/MCSDK/MCLib/Any/Src/mcp.c ****       case FAULT_ACK:
 125:MCSDK_v6.0.0-Full/MotorControl/MCSDK/MCLib/Any/Src/mcp.c ****       {
 126:MCSDK_v6.0.0-Full/MotorControl/MCSDK/MCLib/Any/Src/mcp.c ****         (void)MCI_FaultAcknowledged(pMCI);
 127:MCSDK_v6.0.0-Full/MotorControl/MCSDK/MCLib/Any/Src/mcp.c ****         MCPResponse = MCP_CMD_OK;
 128:MCSDK_v6.0.0-Full/MotorControl/MCSDK/MCLib/Any/Src/mcp.c ****         break;
 129:MCSDK_v6.0.0-Full/MotorControl/MCSDK/MCLib/Any/Src/mcp.c ****       }
 130:MCSDK_v6.0.0-Full/MotorControl/MCSDK/MCLib/Any/Src/mcp.c **** 
 131:MCSDK_v6.0.0-Full/MotorControl/MCSDK/MCLib/Any/Src/mcp.c ****       case IQDREF_CLEAR:
 132:MCSDK_v6.0.0-Full/MotorControl/MCSDK/MCLib/Any/Src/mcp.c ****       {
 133:MCSDK_v6.0.0-Full/MotorControl/MCSDK/MCLib/Any/Src/mcp.c ****         MCI_Clear_Iqdref(pMCI);
 134:MCSDK_v6.0.0-Full/MotorControl/MCSDK/MCLib/Any/Src/mcp.c ****         MCPResponse = MCP_CMD_OK;
 135:MCSDK_v6.0.0-Full/MotorControl/MCSDK/MCLib/Any/Src/mcp.c ****         break;
 136:MCSDK_v6.0.0-Full/MotorControl/MCSDK/MCLib/Any/Src/mcp.c ****       }
 137:MCSDK_v6.0.0-Full/MotorControl/MCSDK/MCLib/Any/Src/mcp.c ****       case GET_DBG_DATA:
 138:MCSDK_v6.0.0-Full/MotorControl/MCSDK/MCLib/Any/Src/mcp.c ****       {
 139:MCSDK_v6.0.0-Full/MotorControl/MCSDK/MCLib/Any/Src/mcp.c ****         MCI_State_t state = MCI_GetSTMState(pHandle);
 140:MCSDK_v6.0.0-Full/MotorControl/MCSDK/MCLib/Any/Src/mcp.c ****         if (state == IDLE || state == FAULT_NOW)
 141:MCSDK_v6.0.0-Full/MotorControl/MCSDK/MCLib/Any/Src/mcp.c ****           UASPEP_SEND_PACKET(aspepOverUartA.HWIp, debugScopeM1.Ch1, sizeof(debugScopeM1.Ch1) * DEBU
 142:MCSDK_v6.0.0-Full/MotorControl/MCSDK/MCLib/Any/Src/mcp.c ****         MCPResponse = MCP_CMD_OK;
 143:MCSDK_v6.0.0-Full/MotorControl/MCSDK/MCLib/Any/Src/mcp.c ****         break;
 144:MCSDK_v6.0.0-Full/MotorControl/MCSDK/MCLib/Any/Src/mcp.c ****       }
ARM GAS  /tmp/ccNUmFhH.s 			page 8


 145:MCSDK_v6.0.0-Full/MotorControl/MCSDK/MCLib/Any/Src/mcp.c ****       case PFC_ENABLE:
 146:MCSDK_v6.0.0-Full/MotorControl/MCSDK/MCLib/Any/Src/mcp.c ****       case PFC_DISABLE:
 147:MCSDK_v6.0.0-Full/MotorControl/MCSDK/MCLib/Any/Src/mcp.c ****       case PFC_FAULT_ACK:
 148:MCSDK_v6.0.0-Full/MotorControl/MCSDK/MCLib/Any/Src/mcp.c ****       case MCP_USER_CMD:
 149:MCSDK_v6.0.0-Full/MotorControl/MCSDK/MCLib/Any/Src/mcp.c ****     	  if (userCommand < MCP_USER_CALLBACK_MAX && MCP_UserCallBack[userCommand] != NULL)
 150:MCSDK_v6.0.0-Full/MotorControl/MCSDK/MCLib/Any/Src/mcp.c ****     	  {
 151:MCSDK_v6.0.0-Full/MotorControl/MCSDK/MCLib/Any/Src/mcp.c ****     	    MCPResponse = MCP_UserCallBack[userCommand](pHandle->rxLength, pHandle->rxBuffer, txSyncFr
 152:MCSDK_v6.0.0-Full/MotorControl/MCSDK/MCLib/Any/Src/mcp.c ****     	  }
 153:MCSDK_v6.0.0-Full/MotorControl/MCSDK/MCLib/Any/Src/mcp.c ****     	  else
 154:MCSDK_v6.0.0-Full/MotorControl/MCSDK/MCLib/Any/Src/mcp.c ****     	  {
 155:MCSDK_v6.0.0-Full/MotorControl/MCSDK/MCLib/Any/Src/mcp.c ****           MCPResponse = MCP_ERROR_CALLBACK_NOT_REGISTRED;
 156:MCSDK_v6.0.0-Full/MotorControl/MCSDK/MCLib/Any/Src/mcp.c ****     	  }
 157:MCSDK_v6.0.0-Full/MotorControl/MCSDK/MCLib/Any/Src/mcp.c ****         break;
 158:MCSDK_v6.0.0-Full/MotorControl/MCSDK/MCLib/Any/Src/mcp.c ****       default :
 159:MCSDK_v6.0.0-Full/MotorControl/MCSDK/MCLib/Any/Src/mcp.c ****       {
 160:MCSDK_v6.0.0-Full/MotorControl/MCSDK/MCLib/Any/Src/mcp.c ****         MCPResponse = MCP_CMD_UNKNOWN;
 161:MCSDK_v6.0.0-Full/MotorControl/MCSDK/MCLib/Any/Src/mcp.c ****         break;
 162:MCSDK_v6.0.0-Full/MotorControl/MCSDK/MCLib/Any/Src/mcp.c ****       }
 163:MCSDK_v6.0.0-Full/MotorControl/MCSDK/MCLib/Any/Src/mcp.c ****     }
 164:MCSDK_v6.0.0-Full/MotorControl/MCSDK/MCLib/Any/Src/mcp.c ****     pHandle->txBuffer[pHandle->txLength] = MCPResponse;
 252              		.loc 1 164 5 is_stmt 1 view .LVU44
 253              		.loc 1 164 12 is_stmt 0 view .LVU45
 254 00dc A268     		ldr	r2, [r4, #8]
 255              		.loc 1 164 30 view .LVU46
 256 00de E389     		ldrh	r3, [r4, #14]
 257              		.loc 1 164 42 view .LVU47
 258 00e0 D054     		strb	r0, [r2, r3]
 165:MCSDK_v6.0.0-Full/MotorControl/MCSDK/MCLib/Any/Src/mcp.c ****     pHandle->txLength++;
 259              		.loc 1 165 5 is_stmt 1 view .LVU48
 260              		.loc 1 165 12 is_stmt 0 view .LVU49
 261 00e2 E389     		ldrh	r3, [r4, #14]
 262              		.loc 1 165 22 view .LVU50
 263 00e4 0133     		adds	r3, r3, #1
 264 00e6 E381     		strh	r3, [r4, #14]	@ movhi
 166:MCSDK_v6.0.0-Full/MotorControl/MCSDK/MCLib/Any/Src/mcp.c **** #ifdef NULL_PTR_CHECK_MCP
 167:MCSDK_v6.0.0-Full/MotorControl/MCSDK/MCLib/Any/Src/mcp.c ****   }
 168:MCSDK_v6.0.0-Full/MotorControl/MCSDK/MCLib/Any/Src/mcp.c **** #endif
 169:MCSDK_v6.0.0-Full/MotorControl/MCSDK/MCLib/Any/Src/mcp.c **** }
 265              		.loc 1 169 1 view .LVU51
 266 00e8 03B0     		add	sp, sp, #12
 267              		.cfi_remember_state
 268              		.cfi_def_cfa_offset 20
 269              		@ sp needed
 270 00ea F0BD     		pop	{r4, r5, r6, r7, pc}
 271              	.LVL19:
 272              	.L18:
 273              		.cfi_restore_state
  70:MCSDK_v6.0.0-Full/MotorControl/MCSDK/MCLib/Any/Src/mcp.c ****         *pHandle->txBuffer = (uint32_t) MCP_VERSION;
 274              		.loc 1 70 9 is_stmt 1 view .LVU52
  70:MCSDK_v6.0.0-Full/MotorControl/MCSDK/MCLib/Any/Src/mcp.c ****         *pHandle->txBuffer = (uint32_t) MCP_VERSION;
 275              		.loc 1 70 27 is_stmt 0 view .LVU53
 276 00ec 0423     		movs	r3, #4
 277              	.LVL20:
  70:MCSDK_v6.0.0-Full/MotorControl/MCSDK/MCLib/Any/Src/mcp.c ****         *pHandle->txBuffer = (uint32_t) MCP_VERSION;
 278              		.loc 1 70 27 view .LVU54
 279 00ee E381     		strh	r3, [r4, #14]	@ movhi
  71:MCSDK_v6.0.0-Full/MotorControl/MCSDK/MCLib/Any/Src/mcp.c ****         MCPResponse = MCP_CMD_OK;
ARM GAS  /tmp/ccNUmFhH.s 			page 9


 280              		.loc 1 71 9 is_stmt 1 view .LVU55
  71:MCSDK_v6.0.0-Full/MotorControl/MCSDK/MCLib/Any/Src/mcp.c ****         MCPResponse = MCP_CMD_OK;
 281              		.loc 1 71 17 is_stmt 0 view .LVU56
 282 00f0 A368     		ldr	r3, [r4, #8]
  71:MCSDK_v6.0.0-Full/MotorControl/MCSDK/MCLib/Any/Src/mcp.c ****         MCPResponse = MCP_CMD_OK;
 283              		.loc 1 71 28 view .LVU57
 284 00f2 0122     		movs	r2, #1
 285 00f4 1A70     		strb	r2, [r3]
  72:MCSDK_v6.0.0-Full/MotorControl/MCSDK/MCLib/Any/Src/mcp.c ****       break;
 286              		.loc 1 72 9 is_stmt 1 view .LVU58
 287              	.LVL21:
  73:MCSDK_v6.0.0-Full/MotorControl/MCSDK/MCLib/Any/Src/mcp.c ****       case SET_DATA_ELEMENT:
 288              		.loc 1 73 7 view .LVU59
  72:MCSDK_v6.0.0-Full/MotorControl/MCSDK/MCLib/Any/Src/mcp.c ****       break;
 289              		.loc 1 72 21 is_stmt 0 view .LVU60
 290 00f6 0020     		movs	r0, #0
  73:MCSDK_v6.0.0-Full/MotorControl/MCSDK/MCLib/Any/Src/mcp.c ****       case SET_DATA_ELEMENT:
 291              		.loc 1 73 7 view .LVU61
 292 00f8 F0E7     		b	.L5
 293              	.LVL22:
 294              	.L17:
  76:MCSDK_v6.0.0-Full/MotorControl/MCSDK/MCLib/Any/Src/mcp.c ****         break;
 295              		.loc 1 76 9 is_stmt 1 view .LVU62
  76:MCSDK_v6.0.0-Full/MotorControl/MCSDK/MCLib/Any/Src/mcp.c ****         break;
 296              		.loc 1 76 23 is_stmt 0 view .LVU63
 297 00fa 2046     		mov	r0, r4
 298 00fc FFF7FEFF 		bl	RI_SetRegCommandParser
 299              	.LVL23:
  77:MCSDK_v6.0.0-Full/MotorControl/MCSDK/MCLib/Any/Src/mcp.c ****       }
 300              		.loc 1 77 9 is_stmt 1 view .LVU64
 301 0100 ECE7     		b	.L5
 302              	.LVL24:
 303              	.L16:
  82:MCSDK_v6.0.0-Full/MotorControl/MCSDK/MCLib/Any/Src/mcp.c ****         break;
 304              		.loc 1 82 9 view .LVU65
  82:MCSDK_v6.0.0-Full/MotorControl/MCSDK/MCLib/Any/Src/mcp.c ****         break;
 305              		.loc 1 82 23 is_stmt 0 view .LVU66
 306 0102 2046     		mov	r0, r4
 307 0104 FFF7FEFF 		bl	RI_GetRegCommandParser
 308              	.LVL25:
  83:MCSDK_v6.0.0-Full/MotorControl/MCSDK/MCLib/Any/Src/mcp.c ****       }
 309              		.loc 1 83 9 is_stmt 1 view .LVU67
 310 0108 E8E7     		b	.L5
 311              	.LVL26:
 312              	.L15:
  88:MCSDK_v6.0.0-Full/MotorControl/MCSDK/MCLib/Any/Src/mcp.c ****         break;
 313              		.loc 1 88 9 view .LVU68
  88:MCSDK_v6.0.0-Full/MotorControl/MCSDK/MCLib/Any/Src/mcp.c ****         break;
 314              		.loc 1 88 24 is_stmt 0 view .LVU69
 315 010a 2846     		mov	r0, r5
 316 010c FFF7FEFF 		bl	MCI_StartMotor
 317              	.LVL27:
  88:MCSDK_v6.0.0-Full/MotorControl/MCSDK/MCLib/Any/Src/mcp.c ****         break;
 318              		.loc 1 88 59 view .LVU70
 319 0110 80F00100 		eor	r0, r0, #1
 320 0114 C0B2     		uxtb	r0, r0
 321              	.LVL28:
ARM GAS  /tmp/ccNUmFhH.s 			page 10


  89:MCSDK_v6.0.0-Full/MotorControl/MCSDK/MCLib/Any/Src/mcp.c ****       }
 322              		.loc 1 89 9 is_stmt 1 view .LVU71
 323 0116 E1E7     		b	.L5
 324              	.LVL29:
 325              	.L14:
  94:MCSDK_v6.0.0-Full/MotorControl/MCSDK/MCLib/Any/Src/mcp.c ****         MCPResponse = MCP_CMD_OK;
 326              		.loc 1 94 9 view .LVU72
  94:MCSDK_v6.0.0-Full/MotorControl/MCSDK/MCLib/Any/Src/mcp.c ****         MCPResponse = MCP_CMD_OK;
 327              		.loc 1 94 15 is_stmt 0 view .LVU73
 328 0118 2846     		mov	r0, r5
 329 011a FFF7FEFF 		bl	MCI_StopMotor
 330              	.LVL30:
  95:MCSDK_v6.0.0-Full/MotorControl/MCSDK/MCLib/Any/Src/mcp.c ****         break;
 331              		.loc 1 95 9 is_stmt 1 view .LVU74
  96:MCSDK_v6.0.0-Full/MotorControl/MCSDK/MCLib/Any/Src/mcp.c ****       }
 332              		.loc 1 96 9 view .LVU75
  95:MCSDK_v6.0.0-Full/MotorControl/MCSDK/MCLib/Any/Src/mcp.c ****         break;
 333              		.loc 1 95 21 is_stmt 0 view .LVU76
 334 011e 0020     		movs	r0, #0
  96:MCSDK_v6.0.0-Full/MotorControl/MCSDK/MCLib/Any/Src/mcp.c ****       }
 335              		.loc 1 96 9 view .LVU77
 336 0120 DCE7     		b	.L5
 337              	.LVL31:
 338              	.L13:
 101:MCSDK_v6.0.0-Full/MotorControl/MCSDK/MCLib/Any/Src/mcp.c ****         {
 339              		.loc 1 101 9 is_stmt 1 view .LVU78
 101:MCSDK_v6.0.0-Full/MotorControl/MCSDK/MCLib/Any/Src/mcp.c ****         {
 340              		.loc 1 101 20 is_stmt 0 view .LVU79
 341 0122 2846     		mov	r0, r5
 342 0124 FFF7FEFF 		bl	MCI_GetSTMState
 343              	.LVL32:
 101:MCSDK_v6.0.0-Full/MotorControl/MCSDK/MCLib/Any/Src/mcp.c ****         {
 344              		.loc 1 101 12 view .LVU80
 345 0128 0628     		cmp	r0, #6
 346 012a 01D0     		beq	.L35
 105:MCSDK_v6.0.0-Full/MotorControl/MCSDK/MCLib/Any/Src/mcp.c ****         break;
 347              		.loc 1 105 21 view .LVU81
 348 012c 0020     		movs	r0, #0
 349 012e D5E7     		b	.L5
 350              	.L35:
 103:MCSDK_v6.0.0-Full/MotorControl/MCSDK/MCLib/Any/Src/mcp.c ****         }
 351              		.loc 1 103 11 is_stmt 1 view .LVU82
 352 0130 2846     		mov	r0, r5
 353 0132 FFF7FEFF 		bl	MCI_StopRamp
 354              	.LVL33:
 105:MCSDK_v6.0.0-Full/MotorControl/MCSDK/MCLib/Any/Src/mcp.c ****         break;
 355              		.loc 1 105 21 is_stmt 0 view .LVU83
 356 0136 0020     		movs	r0, #0
 357 0138 D0E7     		b	.L5
 358              	.LVL34:
 359              	.L12:
 112:MCSDK_v6.0.0-Full/MotorControl/MCSDK/MCLib/Any/Src/mcp.c ****         {
 360              		.loc 1 112 9 is_stmt 1 view .LVU84
 112:MCSDK_v6.0.0-Full/MotorControl/MCSDK/MCLib/Any/Src/mcp.c ****         {
 361              		.loc 1 112 21 is_stmt 0 view .LVU85
 362 013a 2846     		mov	r0, r5
 363 013c FFF7FEFF 		bl	MCI_GetSTMState
ARM GAS  /tmp/ccNUmFhH.s 			page 11


 364              	.LVL35:
 112:MCSDK_v6.0.0-Full/MotorControl/MCSDK/MCLib/Any/Src/mcp.c ****         {
 365              		.loc 1 112 12 view .LVU86
 366 0140 30B9     		cbnz	r0, .L21
 114:MCSDK_v6.0.0-Full/MotorControl/MCSDK/MCLib/Any/Src/mcp.c ****         }
 367              		.loc 1 114 11 is_stmt 1 view .LVU87
 114:MCSDK_v6.0.0-Full/MotorControl/MCSDK/MCLib/Any/Src/mcp.c ****         }
 368              		.loc 1 114 26 is_stmt 0 view .LVU88
 369 0142 2846     		mov	r0, r5
 370 0144 FFF7FEFF 		bl	MCI_StartMotor
 371              	.LVL36:
 114:MCSDK_v6.0.0-Full/MotorControl/MCSDK/MCLib/Any/Src/mcp.c ****         }
 372              		.loc 1 114 61 view .LVU89
 373 0148 80F00100 		eor	r0, r0, #1
 374 014c C0B2     		uxtb	r0, r0
 375              	.LVL37:
 114:MCSDK_v6.0.0-Full/MotorControl/MCSDK/MCLib/Any/Src/mcp.c ****         }
 376              		.loc 1 114 61 view .LVU90
 377 014e C5E7     		b	.L5
 378              	.LVL38:
 379              	.L21:
 118:MCSDK_v6.0.0-Full/MotorControl/MCSDK/MCLib/Any/Src/mcp.c ****           MCPResponse = MCP_CMD_OK;
 380              		.loc 1 118 11 is_stmt 1 view .LVU91
 118:MCSDK_v6.0.0-Full/MotorControl/MCSDK/MCLib/Any/Src/mcp.c ****           MCPResponse = MCP_CMD_OK;
 381              		.loc 1 118 17 is_stmt 0 view .LVU92
 382 0150 2846     		mov	r0, r5
 383 0152 FFF7FEFF 		bl	MCI_StopMotor
 384              	.LVL39:
 119:MCSDK_v6.0.0-Full/MotorControl/MCSDK/MCLib/Any/Src/mcp.c ****         }
 385              		.loc 1 119 11 is_stmt 1 view .LVU93
 119:MCSDK_v6.0.0-Full/MotorControl/MCSDK/MCLib/Any/Src/mcp.c ****         }
 386              		.loc 1 119 23 is_stmt 0 view .LVU94
 387 0156 0020     		movs	r0, #0
 388 0158 C0E7     		b	.L5
 389              	.LVL40:
 390              	.L10:
 126:MCSDK_v6.0.0-Full/MotorControl/MCSDK/MCLib/Any/Src/mcp.c ****         MCPResponse = MCP_CMD_OK;
 391              		.loc 1 126 9 is_stmt 1 view .LVU95
 126:MCSDK_v6.0.0-Full/MotorControl/MCSDK/MCLib/Any/Src/mcp.c ****         MCPResponse = MCP_CMD_OK;
 392              		.loc 1 126 15 is_stmt 0 view .LVU96
 393 015a 2846     		mov	r0, r5
 394 015c FFF7FEFF 		bl	MCI_FaultAcknowledged
 395              	.LVL41:
 127:MCSDK_v6.0.0-Full/MotorControl/MCSDK/MCLib/Any/Src/mcp.c ****         break;
 396              		.loc 1 127 9 is_stmt 1 view .LVU97
 128:MCSDK_v6.0.0-Full/MotorControl/MCSDK/MCLib/Any/Src/mcp.c ****       }
 397              		.loc 1 128 9 view .LVU98
 127:MCSDK_v6.0.0-Full/MotorControl/MCSDK/MCLib/Any/Src/mcp.c ****         break;
 398              		.loc 1 127 21 is_stmt 0 view .LVU99
 399 0160 0020     		movs	r0, #0
 128:MCSDK_v6.0.0-Full/MotorControl/MCSDK/MCLib/Any/Src/mcp.c ****       }
 400              		.loc 1 128 9 view .LVU100
 401 0162 BBE7     		b	.L5
 402              	.LVL42:
 403              	.L9:
 133:MCSDK_v6.0.0-Full/MotorControl/MCSDK/MCLib/Any/Src/mcp.c ****         MCPResponse = MCP_CMD_OK;
 404              		.loc 1 133 9 is_stmt 1 view .LVU101
ARM GAS  /tmp/ccNUmFhH.s 			page 12


 405 0164 2846     		mov	r0, r5
 406 0166 FFF7FEFF 		bl	MCI_Clear_Iqdref
 407              	.LVL43:
 134:MCSDK_v6.0.0-Full/MotorControl/MCSDK/MCLib/Any/Src/mcp.c ****         break;
 408              		.loc 1 134 9 view .LVU102
 135:MCSDK_v6.0.0-Full/MotorControl/MCSDK/MCLib/Any/Src/mcp.c ****       }
 409              		.loc 1 135 9 view .LVU103
 134:MCSDK_v6.0.0-Full/MotorControl/MCSDK/MCLib/Any/Src/mcp.c ****         break;
 410              		.loc 1 134 21 is_stmt 0 view .LVU104
 411 016a 0020     		movs	r0, #0
 135:MCSDK_v6.0.0-Full/MotorControl/MCSDK/MCLib/Any/Src/mcp.c ****       }
 412              		.loc 1 135 9 view .LVU105
 413 016c B6E7     		b	.L5
 414              	.LVL44:
 415              	.L6:
 416              	.LBB2:
 139:MCSDK_v6.0.0-Full/MotorControl/MCSDK/MCLib/Any/Src/mcp.c ****         if (state == IDLE || state == FAULT_NOW)
 417              		.loc 1 139 9 is_stmt 1 view .LVU106
 139:MCSDK_v6.0.0-Full/MotorControl/MCSDK/MCLib/Any/Src/mcp.c ****         if (state == IDLE || state == FAULT_NOW)
 418              		.loc 1 139 29 is_stmt 0 view .LVU107
 419 016e 2046     		mov	r0, r4
 420 0170 FFF7FEFF 		bl	MCI_GetSTMState
 421              	.LVL45:
 140:MCSDK_v6.0.0-Full/MotorControl/MCSDK/MCLib/Any/Src/mcp.c ****           UASPEP_SEND_PACKET(aspepOverUartA.HWIp, debugScopeM1.Ch1, sizeof(debugScopeM1.Ch1) * DEBU
 422              		.loc 1 140 9 is_stmt 1 view .LVU108
 140:MCSDK_v6.0.0-Full/MotorControl/MCSDK/MCLib/Any/Src/mcp.c ****           UASPEP_SEND_PACKET(aspepOverUartA.HWIp, debugScopeM1.Ch1, sizeof(debugScopeM1.Ch1) * DEBU
 423              		.loc 1 140 12 is_stmt 0 view .LVU109
 424 0174 18B1     		cbz	r0, .L22
 140:MCSDK_v6.0.0-Full/MotorControl/MCSDK/MCLib/Any/Src/mcp.c ****           UASPEP_SEND_PACKET(aspepOverUartA.HWIp, debugScopeM1.Ch1, sizeof(debugScopeM1.Ch1) * DEBU
 425              		.loc 1 140 27 discriminator 1 view .LVU110
 426 0176 0A28     		cmp	r0, #10
 427 0178 01D0     		beq	.L22
 142:MCSDK_v6.0.0-Full/MotorControl/MCSDK/MCLib/Any/Src/mcp.c ****         break;
 428              		.loc 1 142 21 view .LVU111
 429 017a 0020     		movs	r0, #0
 430              	.LVL46:
 142:MCSDK_v6.0.0-Full/MotorControl/MCSDK/MCLib/Any/Src/mcp.c ****         break;
 431              		.loc 1 142 21 view .LVU112
 432 017c AEE7     		b	.L5
 433              	.LVL47:
 434              	.L22:
 435              	.LBB3:
 141:MCSDK_v6.0.0-Full/MotorControl/MCSDK/MCLib/Any/Src/mcp.c ****         MCPResponse = MCP_CMD_OK;
 436              		.loc 1 141 11 is_stmt 1 view .LVU113
 437 017e 4FF4C052 		mov	r2, #6144
 438 0182 0F49     		ldr	r1, .L37+4
 439 0184 0F4B     		ldr	r3, .L37+8
 440 0186 5869     		ldr	r0, [r3, #20]
 441              	.LVL48:
 141:MCSDK_v6.0.0-Full/MotorControl/MCSDK/MCLib/Any/Src/mcp.c ****         MCPResponse = MCP_CMD_OK;
 442              		.loc 1 141 11 is_stmt 0 view .LVU114
 443 0188 FFF7FEFF 		bl	UASPEP_SEND_PACKET
 444              	.LVL49:
 445              	.LBE3:
 142:MCSDK_v6.0.0-Full/MotorControl/MCSDK/MCLib/Any/Src/mcp.c ****         break;
 446              		.loc 1 142 21 view .LVU115
 447 018c 0020     		movs	r0, #0
ARM GAS  /tmp/ccNUmFhH.s 			page 13


 448 018e A5E7     		b	.L5
 449              	.LVL50:
 450              	.L8:
 142:MCSDK_v6.0.0-Full/MotorControl/MCSDK/MCLib/Any/Src/mcp.c ****         break;
 451              		.loc 1 142 21 view .LVU116
 452              	.LBE2:
 149:MCSDK_v6.0.0-Full/MotorControl/MCSDK/MCLib/Any/Src/mcp.c ****     	  {
 453              		.loc 1 149 8 is_stmt 1 view .LVU117
 149:MCSDK_v6.0.0-Full/MotorControl/MCSDK/MCLib/Any/Src/mcp.c ****     	  {
 454              		.loc 1 149 11 is_stmt 0 view .LVU118
 455 0190 012E     		cmp	r6, #1
 456 0192 01D9     		bls	.L36
 155:MCSDK_v6.0.0-Full/MotorControl/MCSDK/MCLib/Any/Src/mcp.c ****     	  }
 457              		.loc 1 155 23 view .LVU119
 458 0194 0D20     		movs	r0, #13
 459 0196 A1E7     		b	.L5
 460              	.L36:
 149:MCSDK_v6.0.0-Full/MotorControl/MCSDK/MCLib/Any/Src/mcp.c ****     	  {
 461              		.loc 1 149 67 discriminator 1 view .LVU120
 462 0198 0B4B     		ldr	r3, .L37+12
 463 019a 53F82650 		ldr	r5, [r3, r6, lsl #2]
 464              	.LVL51:
 149:MCSDK_v6.0.0-Full/MotorControl/MCSDK/MCLib/Any/Src/mcp.c ****     	  {
 465              		.loc 1 149 48 discriminator 1 view .LVU121
 466 019e 55B1     		cbz	r5, .L29
 151:MCSDK_v6.0.0-Full/MotorControl/MCSDK/MCLib/Any/Src/mcp.c ****     	  }
 467              		.loc 1 151 10 is_stmt 1 view .LVU122
 151:MCSDK_v6.0.0-Full/MotorControl/MCSDK/MCLib/Any/Src/mcp.c ****     	  }
 468              		.loc 1 151 24 is_stmt 0 view .LVU123
 469 01a0 A368     		ldr	r3, [r4, #8]
 470 01a2 0093     		str	r3, [sp]
 471 01a4 04F10E03 		add	r3, r4, #14
 472 01a8 3946     		mov	r1, r7
 473 01aa A847     		blx	r5
 474              	.LVL52:
 151:MCSDK_v6.0.0-Full/MotorControl/MCSDK/MCLib/Any/Src/mcp.c ****     	  }
 475              		.loc 1 151 22 view .LVU124
 476 01ac 96E7     		b	.L5
 477              	.LVL53:
 478              	.L24:
  67:MCSDK_v6.0.0-Full/MotorControl/MCSDK/MCLib/Any/Src/mcp.c ****     {
 479              		.loc 1 67 5 view .LVU125
 480 01ae 0220     		movs	r0, #2
 481 01b0 94E7     		b	.L5
 482              	.LVL54:
 483              	.L25:
  67:MCSDK_v6.0.0-Full/MotorControl/MCSDK/MCLib/Any/Src/mcp.c ****     {
 484              		.loc 1 67 5 view .LVU126
 485 01b2 0220     		movs	r0, #2
 486 01b4 92E7     		b	.L5
 487              	.LVL55:
 488              	.L29:
 155:MCSDK_v6.0.0-Full/MotorControl/MCSDK/MCLib/Any/Src/mcp.c ****     	  }
 489              		.loc 1 155 23 view .LVU127
 490 01b6 0D20     		movs	r0, #13
 491 01b8 90E7     		b	.L5
 492              	.L38:
ARM GAS  /tmp/ccNUmFhH.s 			page 14


 493 01ba 00BF     		.align	2
 494              	.L37:
 495 01bc 00000000 		.word	Mci
 496 01c0 0E000000 		.word	debugScopeM1+14
 497 01c4 00000000 		.word	aspepOverUartA
 498 01c8 00000000 		.word	MCP_UserCallBack
 499              		.cfi_endproc
 500              	.LFE1437:
 502              		.section	.text.MCP_RegisterCallBack,"ax",%progbits
 503              		.align	1
 504              		.global	MCP_RegisterCallBack
 505              		.syntax unified
 506              		.thumb
 507              		.thumb_func
 508              		.fpu fpv4-sp-d16
 510              	MCP_RegisterCallBack:
 511              	.LVL56:
 512              	.LFB1438:
 170:MCSDK_v6.0.0-Full/MotorControl/MCSDK/MCLib/Any/Src/mcp.c **** 
 171:MCSDK_v6.0.0-Full/MotorControl/MCSDK/MCLib/Any/Src/mcp.c **** uint8_t MCP_RegisterCallBack (uint8_t callBackID, MCP_user_cb_t fctCB)
 172:MCSDK_v6.0.0-Full/MotorControl/MCSDK/MCLib/Any/Src/mcp.c **** {
 513              		.loc 1 172 1 is_stmt 1 view -0
 514              		.cfi_startproc
 515              		@ args = 0, pretend = 0, frame = 0
 516              		@ frame_needed = 0, uses_anonymous_args = 0
 517              		@ link register save eliminated.
 173:MCSDK_v6.0.0-Full/MotorControl/MCSDK/MCLib/Any/Src/mcp.c **** 	uint8_t result;
 518              		.loc 1 173 2 view .LVU129
 174:MCSDK_v6.0.0-Full/MotorControl/MCSDK/MCLib/Any/Src/mcp.c **** 
 175:MCSDK_v6.0.0-Full/MotorControl/MCSDK/MCLib/Any/Src/mcp.c ****   if (callBackID < MCP_USER_CALLBACK_MAX)
 519              		.loc 1 175 3 view .LVU130
 520              		.loc 1 175 6 is_stmt 0 view .LVU131
 521 0000 0128     		cmp	r0, #1
 522 0002 01D9     		bls	.L42
 176:MCSDK_v6.0.0-Full/MotorControl/MCSDK/MCLib/Any/Src/mcp.c ****   {
 177:MCSDK_v6.0.0-Full/MotorControl/MCSDK/MCLib/Any/Src/mcp.c **** 	  MCP_UserCallBack[callBackID] = fctCB;
 178:MCSDK_v6.0.0-Full/MotorControl/MCSDK/MCLib/Any/Src/mcp.c **** 	  result = MCP_CMD_OK;
 179:MCSDK_v6.0.0-Full/MotorControl/MCSDK/MCLib/Any/Src/mcp.c ****   }
 180:MCSDK_v6.0.0-Full/MotorControl/MCSDK/MCLib/Any/Src/mcp.c ****   else
 181:MCSDK_v6.0.0-Full/MotorControl/MCSDK/MCLib/Any/Src/mcp.c ****   {
 182:MCSDK_v6.0.0-Full/MotorControl/MCSDK/MCLib/Any/Src/mcp.c **** 	  result = MCP_CMD_NOK;
 523              		.loc 1 182 11 view .LVU132
 524 0004 0120     		movs	r0, #1
 525              	.LVL57:
 183:MCSDK_v6.0.0-Full/MotorControl/MCSDK/MCLib/Any/Src/mcp.c ****   }
 184:MCSDK_v6.0.0-Full/MotorControl/MCSDK/MCLib/Any/Src/mcp.c ****   return result;
 526              		.loc 1 184 3 is_stmt 1 view .LVU133
 185:MCSDK_v6.0.0-Full/MotorControl/MCSDK/MCLib/Any/Src/mcp.c **** }
 527              		.loc 1 185 1 is_stmt 0 view .LVU134
 528 0006 7047     		bx	lr
 529              	.LVL58:
 530              	.L42:
 177:MCSDK_v6.0.0-Full/MotorControl/MCSDK/MCLib/Any/Src/mcp.c **** 	  result = MCP_CMD_OK;
 531              		.loc 1 177 4 is_stmt 1 view .LVU135
 177:MCSDK_v6.0.0-Full/MotorControl/MCSDK/MCLib/Any/Src/mcp.c **** 	  result = MCP_CMD_OK;
 532              		.loc 1 177 33 is_stmt 0 view .LVU136
 533 0008 024B     		ldr	r3, .L43
ARM GAS  /tmp/ccNUmFhH.s 			page 15


 534 000a 43F82010 		str	r1, [r3, r0, lsl #2]
 178:MCSDK_v6.0.0-Full/MotorControl/MCSDK/MCLib/Any/Src/mcp.c ****   }
 535              		.loc 1 178 4 is_stmt 1 view .LVU137
 536              	.LVL59:
 178:MCSDK_v6.0.0-Full/MotorControl/MCSDK/MCLib/Any/Src/mcp.c ****   }
 537              		.loc 1 178 11 is_stmt 0 view .LVU138
 538 000e 0020     		movs	r0, #0
 539              	.LVL60:
 178:MCSDK_v6.0.0-Full/MotorControl/MCSDK/MCLib/Any/Src/mcp.c ****   }
 540              		.loc 1 178 11 view .LVU139
 541 0010 7047     		bx	lr
 542              	.L44:
 543 0012 00BF     		.align	2
 544              	.L43:
 545 0014 00000000 		.word	MCP_UserCallBack
 546              		.cfi_endproc
 547              	.LFE1438:
 549              		.text
 550              	.Letext0:
 551              		.file 2 "/usr/lib/gcc/arm-none-eabi/9.2.1/include/stdint.h"
 552              		.file 3 "Drivers/CMSIS/Include/core_cm4.h"
 553              		.file 4 "Drivers/CMSIS/Device/ST/STM32G4xx/Include/system_stm32g4xx.h"
 554              		.file 5 "Drivers/CMSIS/Device/ST/STM32G4xx/Include/stm32g431xx.h"
 555              		.file 6 "Drivers/STM32G4xx_HAL_Driver/Inc/stm32g4xx_hal_def.h"
 556              		.file 7 "Drivers/STM32G4xx_HAL_Driver/Inc/stm32g4xx_hal_flash.h"
 557              		.file 8 "Drivers/STM32G4xx_HAL_Driver/Inc/stm32g4xx_hal.h"
 558              		.file 9 "Drivers/STM32G4xx_HAL_Driver/Inc/stm32g4xx_ll_tim.h"
 559              		.file 10 "Drivers/STM32G4xx_HAL_Driver/Inc/stm32g4xx_ll_usart.h"
 560              		.file 11 "Drivers/STM32G4xx_HAL_Driver/Inc/stm32g4xx_ll_dma.h"
 561              		.file 12 "MCSDK_v6.0.0-Full/MotorControl/MCSDK/MCLib/Any/Inc/mc_type.h"
 562              		.file 13 "MCSDK_v6.0.0-Full/MotorControl/MCSDK/MCLib/Any/Inc/mcptl.h"
 563              		.file 14 "MCSDK_v6.0.0-Full/MotorControl/MCSDK/MCLib/Any/Inc/mcp.h"
 564              		.file 15 "MCSDK_v6.0.0-Full/MotorControl/MCSDK/MCLib/Any/Inc/pid_regulator.h"
 565              		.file 16 "MCSDK_v6.0.0-Full/MotorControl/MCSDK/MCLib/Any/Inc/speed_pos_fdbk.h"
 566              		.file 17 "MCSDK_v6.0.0-Full/MotorControl/MCSDK/MCLib/Any/Inc/speed_torq_ctrl.h"
 567              		.file 18 "MCSDK_v6.0.0-Full/MotorControl/MCSDK/MCLib/Any/Inc/virtual_speed_sensor.h"
 568              		.file 19 "Inc/regular_conversion_manager.h"
 569              		.file 20 "MCSDK_v6.0.0-Full/MotorControl/MCSDK/MCLib/Any/Inc/ntc_temperature_sensor.h"
 570              		.file 21 "MCSDK_v6.0.0-Full/MotorControl/MCSDK/MCLib/Any/Inc/sto_speed_pos_fdbk.h"
 571              		.file 22 "MCSDK_v6.0.0-Full/MotorControl/MCSDK/MCLib/Any/Inc/pwm_curr_fdbk.h"
 572              		.file 23 "MCSDK_v6.0.0-Full/MotorControl/MCSDK/MCLib/Any/Inc/revup_ctrl.h"
 573              		.file 24 "Inc/mc_interface.h"
 574              		.file 25 "Inc/mc_configuration_registers.h"
 575              		.file 26 "MCSDK_v6.0.0-Full/MotorControl/MCSDK/MCLib/Any/Inc/bus_voltage_sensor.h"
 576              		.file 27 "MCSDK_v6.0.0-Full/MotorControl/MCSDK/MCLib/Any/Inc/r_divider_bus_voltage_sensor.h"
 577              		.file 28 "MCSDK_v6.0.0-Full/MotorControl/MCSDK/MCLib/Any/Inc/pqd_motor_power_measurement.h"
 578              		.file 29 "MCSDK_v6.0.0-Full/MotorControl/MCSDK/MCLib/G4xx/Inc/r3_2_g4xx_pwm_curr_fdbk.h"
 579              		.file 30 "MCSDK_v6.0.0-Full/MotorControl/MCSDK/MCLib/Any/Inc/ramp_ext_mngr.h"
 580              		.file 31 "MCSDK_v6.0.0-Full/MotorControl/MCSDK/MCLib/Any/Inc/circle_limitation.h"
 581              		.file 32 "MCSDK_v6.0.0-Full/MotorControl/MCSDK/MCLib/Any/Inc/sto_pll_speed_pos_fdbk.h"
 582              		.file 33 "MCSDK_v6.0.0-Full/MotorControl/MCSDK/MCLib/Any/Inc/sto_cordic_speed_pos_fdbk.h"
 583              		.file 34 "Inc/mc_config.h"
 584              		.file 35 "Inc/aspep.h"
 585              		.file 36 "MCSDK_v6.0.0-Full/MotorControl/MCSDK/MCLib/Any/Inc/mcpa.h"
 586              		.file 37 "Inc/mcp_config.h"
 587              		.file 38 "Inc/debug_scope.h"
 588              		.file 39 "Inc/register_interface.h"
ARM GAS  /tmp/ccNUmFhH.s 			page 16


ARM GAS  /tmp/ccNUmFhH.s 			page 17


DEFINED SYMBOLS
                            *ABS*:0000000000000000 mcp.c
     /tmp/ccNUmFhH.s:18     .text.MCP_ReceivedPacket:0000000000000000 $t
     /tmp/ccNUmFhH.s:26     .text.MCP_ReceivedPacket:0000000000000000 MCP_ReceivedPacket
     /tmp/ccNUmFhH.s:126    .text.MCP_ReceivedPacket:0000000000000058 $d
     /tmp/ccNUmFhH.s:207    .text.MCP_ReceivedPacket:00000000000000ae $d
     /tmp/ccNUmFhH.s:495    .text.MCP_ReceivedPacket:00000000000001bc $d
     /tmp/ccNUmFhH.s:503    .text.MCP_RegisterCallBack:0000000000000000 $t
     /tmp/ccNUmFhH.s:510    .text.MCP_RegisterCallBack:0000000000000000 MCP_RegisterCallBack
     /tmp/ccNUmFhH.s:545    .text.MCP_RegisterCallBack:0000000000000014 $d
     /tmp/ccNUmFhH.s:183    .text.MCP_ReceivedPacket:0000000000000091 $d
     /tmp/ccNUmFhH.s:183    .text.MCP_ReceivedPacket:0000000000000092 $t
     /tmp/ccNUmFhH.s:241    .text.MCP_ReceivedPacket:00000000000000cf $d
     /tmp/ccNUmFhH.s:241    .text.MCP_ReceivedPacket:00000000000000d0 $t

UNDEFINED SYMBOLS
RI_SetRegCommandParser
RI_GetRegCommandParser
MCI_StartMotor
MCI_StopMotor
MCI_GetSTMState
MCI_StopRamp
MCI_FaultAcknowledged
MCI_Clear_Iqdref
UASPEP_SEND_PACKET
Mci
debugScopeM1
aspepOverUartA
MCP_UserCallBack
