ARM GAS  /tmp/ccF9PGRx.s 			page 1


   1              		.cpu cortex-m4
   2              		.eabi_attribute 27, 1
   3              		.eabi_attribute 28, 1
   4              		.eabi_attribute 20, 1
   5              		.eabi_attribute 21, 1
   6              		.eabi_attribute 23, 3
   7              		.eabi_attribute 24, 1
   8              		.eabi_attribute 25, 1
   9              		.eabi_attribute 26, 1
  10              		.eabi_attribute 30, 1
  11              		.eabi_attribute 34, 1
  12              		.eabi_attribute 18, 4
  13              		.file	"ntc_temperature_sensor.c"
  14              		.text
  15              	.Ltext0:
  16              		.cfi_sections	.debug_frame
  17              		.section	.text.NTC_SetFaultState,"ax",%progbits
  18              		.align	1
  19              		.weak	NTC_SetFaultState
  20              		.arch armv7e-m
  21              		.syntax unified
  22              		.thumb
  23              		.thumb_func
  24              		.fpu fpv4-sp-d16
  26              	NTC_SetFaultState:
  27              	.LVL0:
  28              	.LFB1435:
  29              		.file 1 "MCSDK_v6.1.0-Full/MotorControl/MCSDK/MCLib/Any/Src/ntc_temperature_sensor.c"
   1:MCSDK_v6.1.0-Full/MotorControl/MCSDK/MCLib/Any/Src/ntc_temperature_sensor.c **** /**
   2:MCSDK_v6.1.0-Full/MotorControl/MCSDK/MCLib/Any/Src/ntc_temperature_sensor.c ****   ******************************************************************************
   3:MCSDK_v6.1.0-Full/MotorControl/MCSDK/MCLib/Any/Src/ntc_temperature_sensor.c ****   * @file    ntc_temperature_sensor.c
   4:MCSDK_v6.1.0-Full/MotorControl/MCSDK/MCLib/Any/Src/ntc_temperature_sensor.c ****   * @author  Motor Control SDK Team, ST Microelectronics
   5:MCSDK_v6.1.0-Full/MotorControl/MCSDK/MCLib/Any/Src/ntc_temperature_sensor.c ****   * @brief   This file provides firmware functions that implement the features
   6:MCSDK_v6.1.0-Full/MotorControl/MCSDK/MCLib/Any/Src/ntc_temperature_sensor.c ****   *          of the Temperature Sensor component of the Motor Control SDK.
   7:MCSDK_v6.1.0-Full/MotorControl/MCSDK/MCLib/Any/Src/ntc_temperature_sensor.c ****   ******************************************************************************
   8:MCSDK_v6.1.0-Full/MotorControl/MCSDK/MCLib/Any/Src/ntc_temperature_sensor.c ****   * @attention
   9:MCSDK_v6.1.0-Full/MotorControl/MCSDK/MCLib/Any/Src/ntc_temperature_sensor.c ****   *
  10:MCSDK_v6.1.0-Full/MotorControl/MCSDK/MCLib/Any/Src/ntc_temperature_sensor.c ****   * <h2><center>&copy; Copyright (c) 2022 STMicroelectronics.
  11:MCSDK_v6.1.0-Full/MotorControl/MCSDK/MCLib/Any/Src/ntc_temperature_sensor.c ****   * All rights reserved.</center></h2>
  12:MCSDK_v6.1.0-Full/MotorControl/MCSDK/MCLib/Any/Src/ntc_temperature_sensor.c ****   *
  13:MCSDK_v6.1.0-Full/MotorControl/MCSDK/MCLib/Any/Src/ntc_temperature_sensor.c ****   * This software component is licensed by ST under Ultimate Liberty license
  14:MCSDK_v6.1.0-Full/MotorControl/MCSDK/MCLib/Any/Src/ntc_temperature_sensor.c ****   * SLA0044, the "License"; You may not use this file except in compliance with
  15:MCSDK_v6.1.0-Full/MotorControl/MCSDK/MCLib/Any/Src/ntc_temperature_sensor.c ****   * the License. You may obtain a copy of the License at:
  16:MCSDK_v6.1.0-Full/MotorControl/MCSDK/MCLib/Any/Src/ntc_temperature_sensor.c ****   *                             www.st.com/SLA0044
  17:MCSDK_v6.1.0-Full/MotorControl/MCSDK/MCLib/Any/Src/ntc_temperature_sensor.c ****   *
  18:MCSDK_v6.1.0-Full/MotorControl/MCSDK/MCLib/Any/Src/ntc_temperature_sensor.c ****   ******************************************************************************
  19:MCSDK_v6.1.0-Full/MotorControl/MCSDK/MCLib/Any/Src/ntc_temperature_sensor.c ****   * @ingroup TemperatureSensor
  20:MCSDK_v6.1.0-Full/MotorControl/MCSDK/MCLib/Any/Src/ntc_temperature_sensor.c ****   */
  21:MCSDK_v6.1.0-Full/MotorControl/MCSDK/MCLib/Any/Src/ntc_temperature_sensor.c **** 
  22:MCSDK_v6.1.0-Full/MotorControl/MCSDK/MCLib/Any/Src/ntc_temperature_sensor.c **** /* Includes ------------------------------------------------------------------*/
  23:MCSDK_v6.1.0-Full/MotorControl/MCSDK/MCLib/Any/Src/ntc_temperature_sensor.c **** #include "ntc_temperature_sensor.h"
  24:MCSDK_v6.1.0-Full/MotorControl/MCSDK/MCLib/Any/Src/ntc_temperature_sensor.c **** 
  25:MCSDK_v6.1.0-Full/MotorControl/MCSDK/MCLib/Any/Src/ntc_temperature_sensor.c **** /** @addtogroup MCSDK
  26:MCSDK_v6.1.0-Full/MotorControl/MCSDK/MCLib/Any/Src/ntc_temperature_sensor.c ****   * @{
  27:MCSDK_v6.1.0-Full/MotorControl/MCSDK/MCLib/Any/Src/ntc_temperature_sensor.c ****   */
  28:MCSDK_v6.1.0-Full/MotorControl/MCSDK/MCLib/Any/Src/ntc_temperature_sensor.c **** 
  29:MCSDK_v6.1.0-Full/MotorControl/MCSDK/MCLib/Any/Src/ntc_temperature_sensor.c **** /** @defgroup TemperatureSensor NTC Temperature Sensor
ARM GAS  /tmp/ccF9PGRx.s 			page 2


  30:MCSDK_v6.1.0-Full/MotorControl/MCSDK/MCLib/Any/Src/ntc_temperature_sensor.c ****   * @brief Allows to read the temperature of the heat sink
  31:MCSDK_v6.1.0-Full/MotorControl/MCSDK/MCLib/Any/Src/ntc_temperature_sensor.c ****   *
  32:MCSDK_v6.1.0-Full/MotorControl/MCSDK/MCLib/Any/Src/ntc_temperature_sensor.c ****   * This component implements both a virtual and a real temperature sensor,
  33:MCSDK_v6.1.0-Full/MotorControl/MCSDK/MCLib/Any/Src/ntc_temperature_sensor.c ****   * depending on the sensor availability.
  34:MCSDK_v6.1.0-Full/MotorControl/MCSDK/MCLib/Any/Src/ntc_temperature_sensor.c ****   *
  35:MCSDK_v6.1.0-Full/MotorControl/MCSDK/MCLib/Any/Src/ntc_temperature_sensor.c ****   * Access to the MCU peripherals needed to acquire the temperature (GPIO and ADC
  36:MCSDK_v6.1.0-Full/MotorControl/MCSDK/MCLib/Any/Src/ntc_temperature_sensor.c ****   * used for regular conversion) is managed by the PWM component used in the Motor
  37:MCSDK_v6.1.0-Full/MotorControl/MCSDK/MCLib/Any/Src/ntc_temperature_sensor.c ****   * Control subsystem. As a consequence, this NTC temperature sensor implementation
  38:MCSDK_v6.1.0-Full/MotorControl/MCSDK/MCLib/Any/Src/ntc_temperature_sensor.c ****   * is hardware-independent.
  39:MCSDK_v6.1.0-Full/MotorControl/MCSDK/MCLib/Any/Src/ntc_temperature_sensor.c ****   *
  40:MCSDK_v6.1.0-Full/MotorControl/MCSDK/MCLib/Any/Src/ntc_temperature_sensor.c ****   * If a real temperature sensor is available (Sensor Type = #REAL_SENSOR),
  41:MCSDK_v6.1.0-Full/MotorControl/MCSDK/MCLib/Any/Src/ntc_temperature_sensor.c ****   * this component can handle NTC sensors or, more generally, analog temperature sensors
  42:MCSDK_v6.1.0-Full/MotorControl/MCSDK/MCLib/Any/Src/ntc_temperature_sensor.c ****   * which output is related to the temperature by the following formula:
  43:MCSDK_v6.1.0-Full/MotorControl/MCSDK/MCLib/Any/Src/ntc_temperature_sensor.c ****   *
  44:MCSDK_v6.1.0-Full/MotorControl/MCSDK/MCLib/Any/Src/ntc_temperature_sensor.c ****   * @f[
  45:MCSDK_v6.1.0-Full/MotorControl/MCSDK/MCLib/Any/Src/ntc_temperature_sensor.c ****   *               V_{out} = V_0 + \frac{dV}{dT} \cdot ( T - T_0)
  46:MCSDK_v6.1.0-Full/MotorControl/MCSDK/MCLib/Any/Src/ntc_temperature_sensor.c ****   * @f]
  47:MCSDK_v6.1.0-Full/MotorControl/MCSDK/MCLib/Any/Src/ntc_temperature_sensor.c ****   *
  48:MCSDK_v6.1.0-Full/MotorControl/MCSDK/MCLib/Any/Src/ntc_temperature_sensor.c ****   * In case of Pull up configuration @f$\frac{dV}{dT}@f$ is positive and @f$V_0@f$ is low.
  49:MCSDK_v6.1.0-Full/MotorControl/MCSDK/MCLib/Any/Src/ntc_temperature_sensor.c ****   * In case of Pull down configuration @f$\frac{dV}{dT}@f$ is negative and @f$V_0@f$ is high.
  50:MCSDK_v6.1.0-Full/MotorControl/MCSDK/MCLib/Any/Src/ntc_temperature_sensor.c ****   *
  51:MCSDK_v6.1.0-Full/MotorControl/MCSDK/MCLib/Any/Src/ntc_temperature_sensor.c ****   * In case a real temperature sensor is not available (Sensor Type = #VIRTUAL_SENSOR),
  52:MCSDK_v6.1.0-Full/MotorControl/MCSDK/MCLib/Any/Src/ntc_temperature_sensor.c ****   * This component will always returns a constant, programmable, temperature.
  53:MCSDK_v6.1.0-Full/MotorControl/MCSDK/MCLib/Any/Src/ntc_temperature_sensor.c ****   *
  54:MCSDK_v6.1.0-Full/MotorControl/MCSDK/MCLib/Any/Src/ntc_temperature_sensor.c ****   * @{
  55:MCSDK_v6.1.0-Full/MotorControl/MCSDK/MCLib/Any/Src/ntc_temperature_sensor.c ****   */
  56:MCSDK_v6.1.0-Full/MotorControl/MCSDK/MCLib/Any/Src/ntc_temperature_sensor.c **** 
  57:MCSDK_v6.1.0-Full/MotorControl/MCSDK/MCLib/Any/Src/ntc_temperature_sensor.c **** /* Private function prototypes -----------------------------------------------*/
  58:MCSDK_v6.1.0-Full/MotorControl/MCSDK/MCLib/Any/Src/ntc_temperature_sensor.c **** uint16_t NTC_SetFaultState(NTC_Handle_t *pHandle);
  59:MCSDK_v6.1.0-Full/MotorControl/MCSDK/MCLib/Any/Src/ntc_temperature_sensor.c **** 
  60:MCSDK_v6.1.0-Full/MotorControl/MCSDK/MCLib/Any/Src/ntc_temperature_sensor.c **** /* Private functions ---------------------------------------------------------*/
  61:MCSDK_v6.1.0-Full/MotorControl/MCSDK/MCLib/Any/Src/ntc_temperature_sensor.c **** 
  62:MCSDK_v6.1.0-Full/MotorControl/MCSDK/MCLib/Any/Src/ntc_temperature_sensor.c **** /**
  63:MCSDK_v6.1.0-Full/MotorControl/MCSDK/MCLib/Any/Src/ntc_temperature_sensor.c ****   * @brief Returns fault when temperature exceeds the related temperature voltage protection thresh
  64:MCSDK_v6.1.0-Full/MotorControl/MCSDK/MCLib/Any/Src/ntc_temperature_sensor.c ****   *
  65:MCSDK_v6.1.0-Full/MotorControl/MCSDK/MCLib/Any/Src/ntc_temperature_sensor.c ****   * @param pHandle : Pointer on Handle structure of TemperatureSensor component
  66:MCSDK_v6.1.0-Full/MotorControl/MCSDK/MCLib/Any/Src/ntc_temperature_sensor.c ****   *
  67:MCSDK_v6.1.0-Full/MotorControl/MCSDK/MCLib/Any/Src/ntc_temperature_sensor.c ****   * @retval Fault status : Updated internal fault status
  68:MCSDK_v6.1.0-Full/MotorControl/MCSDK/MCLib/Any/Src/ntc_temperature_sensor.c ****   */
  69:MCSDK_v6.1.0-Full/MotorControl/MCSDK/MCLib/Any/Src/ntc_temperature_sensor.c **** __weak uint16_t NTC_SetFaultState(NTC_Handle_t *pHandle)
  70:MCSDK_v6.1.0-Full/MotorControl/MCSDK/MCLib/Any/Src/ntc_temperature_sensor.c **** {
  30              		.loc 1 70 1 view -0
  31              		.cfi_startproc
  32              		@ args = 0, pretend = 0, frame = 0
  33              		@ frame_needed = 0, uses_anonymous_args = 0
  34              		@ link register save eliminated.
  71:MCSDK_v6.1.0-Full/MotorControl/MCSDK/MCLib/Any/Src/ntc_temperature_sensor.c ****   uint16_t hFault;
  35              		.loc 1 71 3 view .LVU1
  72:MCSDK_v6.1.0-Full/MotorControl/MCSDK/MCLib/Any/Src/ntc_temperature_sensor.c **** #ifdef NULL_PTR_CHECK_NTC_TEMP_SENS
  73:MCSDK_v6.1.0-Full/MotorControl/MCSDK/MCLib/Any/Src/ntc_temperature_sensor.c ****   if (MC_NULL == pHandle)
  74:MCSDK_v6.1.0-Full/MotorControl/MCSDK/MCLib/Any/Src/ntc_temperature_sensor.c ****   {
  75:MCSDK_v6.1.0-Full/MotorControl/MCSDK/MCLib/Any/Src/ntc_temperature_sensor.c ****     hFault = MC_SW_ERROR;
  76:MCSDK_v6.1.0-Full/MotorControl/MCSDK/MCLib/Any/Src/ntc_temperature_sensor.c ****   }
  77:MCSDK_v6.1.0-Full/MotorControl/MCSDK/MCLib/Any/Src/ntc_temperature_sensor.c ****   else
  78:MCSDK_v6.1.0-Full/MotorControl/MCSDK/MCLib/Any/Src/ntc_temperature_sensor.c ****   {
  79:MCSDK_v6.1.0-Full/MotorControl/MCSDK/MCLib/Any/Src/ntc_temperature_sensor.c **** #endif
  80:MCSDK_v6.1.0-Full/MotorControl/MCSDK/MCLib/Any/Src/ntc_temperature_sensor.c ****     if (pHandle->hAvTemp_d > pHandle->hOverTempThreshold)
ARM GAS  /tmp/ccF9PGRx.s 			page 3


  36              		.loc 1 80 5 view .LVU2
  37              		.loc 1 80 16 is_stmt 0 view .LVU3
  38 0000 038A     		ldrh	r3, [r0, #16]
  39              		.loc 1 80 37 view .LVU4
  40 0002 428B     		ldrh	r2, [r0, #26]
  41              		.loc 1 80 8 view .LVU5
  42 0004 9342     		cmp	r3, r2
  43 0006 04D8     		bhi	.L3
  81:MCSDK_v6.1.0-Full/MotorControl/MCSDK/MCLib/Any/Src/ntc_temperature_sensor.c ****     {
  82:MCSDK_v6.1.0-Full/MotorControl/MCSDK/MCLib/Any/Src/ntc_temperature_sensor.c ****       hFault = MC_OVER_TEMP;
  83:MCSDK_v6.1.0-Full/MotorControl/MCSDK/MCLib/Any/Src/ntc_temperature_sensor.c ****     }
  84:MCSDK_v6.1.0-Full/MotorControl/MCSDK/MCLib/Any/Src/ntc_temperature_sensor.c ****     else if (pHandle->hAvTemp_d < pHandle->hOverTempDeactThreshold)
  44              		.loc 1 84 10 is_stmt 1 view .LVU6
  45              		.loc 1 84 42 is_stmt 0 view .LVU7
  46 0008 828B     		ldrh	r2, [r0, #28]
  47              		.loc 1 84 13 view .LVU8
  48 000a 9342     		cmp	r3, r2
  49 000c 03D3     		bcc	.L4
  85:MCSDK_v6.1.0-Full/MotorControl/MCSDK/MCLib/Any/Src/ntc_temperature_sensor.c ****     {
  86:MCSDK_v6.1.0-Full/MotorControl/MCSDK/MCLib/Any/Src/ntc_temperature_sensor.c ****       hFault = MC_NO_ERROR;
  87:MCSDK_v6.1.0-Full/MotorControl/MCSDK/MCLib/Any/Src/ntc_temperature_sensor.c ****     }
  88:MCSDK_v6.1.0-Full/MotorControl/MCSDK/MCLib/Any/Src/ntc_temperature_sensor.c ****     else
  89:MCSDK_v6.1.0-Full/MotorControl/MCSDK/MCLib/Any/Src/ntc_temperature_sensor.c ****     {
  90:MCSDK_v6.1.0-Full/MotorControl/MCSDK/MCLib/Any/Src/ntc_temperature_sensor.c ****       hFault = pHandle->hFaultState;
  50              		.loc 1 90 7 is_stmt 1 view .LVU9
  51              		.loc 1 90 14 is_stmt 0 view .LVU10
  52 000e C08A     		ldrh	r0, [r0, #22]
  53              	.LVL1:
  54              		.loc 1 90 14 view .LVU11
  55 0010 7047     		bx	lr
  56              	.LVL2:
  57              	.L3:
  82:MCSDK_v6.1.0-Full/MotorControl/MCSDK/MCLib/Any/Src/ntc_temperature_sensor.c ****     }
  58              		.loc 1 82 14 view .LVU12
  59 0012 0820     		movs	r0, #8
  60              	.LVL3:
  82:MCSDK_v6.1.0-Full/MotorControl/MCSDK/MCLib/Any/Src/ntc_temperature_sensor.c ****     }
  61              		.loc 1 82 14 view .LVU13
  62 0014 7047     		bx	lr
  63              	.LVL4:
  64              	.L4:
  86:MCSDK_v6.1.0-Full/MotorControl/MCSDK/MCLib/Any/Src/ntc_temperature_sensor.c ****     }
  65              		.loc 1 86 14 view .LVU14
  66 0016 0020     		movs	r0, #0
  67              	.LVL5:
  91:MCSDK_v6.1.0-Full/MotorControl/MCSDK/MCLib/Any/Src/ntc_temperature_sensor.c ****     }
  92:MCSDK_v6.1.0-Full/MotorControl/MCSDK/MCLib/Any/Src/ntc_temperature_sensor.c **** #ifdef NULL_PTR_CHECK_NTC_TEMP_SENS
  93:MCSDK_v6.1.0-Full/MotorControl/MCSDK/MCLib/Any/Src/ntc_temperature_sensor.c ****   }
  94:MCSDK_v6.1.0-Full/MotorControl/MCSDK/MCLib/Any/Src/ntc_temperature_sensor.c **** #endif
  95:MCSDK_v6.1.0-Full/MotorControl/MCSDK/MCLib/Any/Src/ntc_temperature_sensor.c ****   return hFault;
  68              		.loc 1 95 3 is_stmt 1 view .LVU15
  96:MCSDK_v6.1.0-Full/MotorControl/MCSDK/MCLib/Any/Src/ntc_temperature_sensor.c **** }
  69              		.loc 1 96 1 is_stmt 0 view .LVU16
  70 0018 7047     		bx	lr
  71              		.cfi_endproc
  72              	.LFE1435:
  74              		.section	.text.NTC_Clear,"ax",%progbits
ARM GAS  /tmp/ccF9PGRx.s 			page 4


  75              		.align	1
  76              		.weak	NTC_Clear
  77              		.syntax unified
  78              		.thumb
  79              		.thumb_func
  80              		.fpu fpv4-sp-d16
  82              	NTC_Clear:
  83              	.LVL6:
  84              	.LFB1437:
  97:MCSDK_v6.1.0-Full/MotorControl/MCSDK/MCLib/Any/Src/ntc_temperature_sensor.c **** 
  98:MCSDK_v6.1.0-Full/MotorControl/MCSDK/MCLib/Any/Src/ntc_temperature_sensor.c **** /* Functions ---------------------------------------------------- */
  99:MCSDK_v6.1.0-Full/MotorControl/MCSDK/MCLib/Any/Src/ntc_temperature_sensor.c **** 
 100:MCSDK_v6.1.0-Full/MotorControl/MCSDK/MCLib/Any/Src/ntc_temperature_sensor.c **** /**
 101:MCSDK_v6.1.0-Full/MotorControl/MCSDK/MCLib/Any/Src/ntc_temperature_sensor.c ****   * @brief Initializes temperature sensing conversions
 102:MCSDK_v6.1.0-Full/MotorControl/MCSDK/MCLib/Any/Src/ntc_temperature_sensor.c ****   *
 103:MCSDK_v6.1.0-Full/MotorControl/MCSDK/MCLib/Any/Src/ntc_temperature_sensor.c ****   * @param pHandle : Pointer on Handle structure of TemperatureSensor component
 104:MCSDK_v6.1.0-Full/MotorControl/MCSDK/MCLib/Any/Src/ntc_temperature_sensor.c ****   *
 105:MCSDK_v6.1.0-Full/MotorControl/MCSDK/MCLib/Any/Src/ntc_temperature_sensor.c ****   */
 106:MCSDK_v6.1.0-Full/MotorControl/MCSDK/MCLib/Any/Src/ntc_temperature_sensor.c **** __weak void NTC_Init(NTC_Handle_t *pHandle)
 107:MCSDK_v6.1.0-Full/MotorControl/MCSDK/MCLib/Any/Src/ntc_temperature_sensor.c **** {
 108:MCSDK_v6.1.0-Full/MotorControl/MCSDK/MCLib/Any/Src/ntc_temperature_sensor.c **** #ifdef NULL_PTR_CHECK_NTC_TEMP_SENS
 109:MCSDK_v6.1.0-Full/MotorControl/MCSDK/MCLib/Any/Src/ntc_temperature_sensor.c ****   if (MC_NULL == pHandle)
 110:MCSDK_v6.1.0-Full/MotorControl/MCSDK/MCLib/Any/Src/ntc_temperature_sensor.c ****   {
 111:MCSDK_v6.1.0-Full/MotorControl/MCSDK/MCLib/Any/Src/ntc_temperature_sensor.c ****     /* Nothing to do */
 112:MCSDK_v6.1.0-Full/MotorControl/MCSDK/MCLib/Any/Src/ntc_temperature_sensor.c ****   }
 113:MCSDK_v6.1.0-Full/MotorControl/MCSDK/MCLib/Any/Src/ntc_temperature_sensor.c ****   else
 114:MCSDK_v6.1.0-Full/MotorControl/MCSDK/MCLib/Any/Src/ntc_temperature_sensor.c ****   {
 115:MCSDK_v6.1.0-Full/MotorControl/MCSDK/MCLib/Any/Src/ntc_temperature_sensor.c **** #endif
 116:MCSDK_v6.1.0-Full/MotorControl/MCSDK/MCLib/Any/Src/ntc_temperature_sensor.c ****     if (REAL_SENSOR == pHandle->bSensorType)
 117:MCSDK_v6.1.0-Full/MotorControl/MCSDK/MCLib/Any/Src/ntc_temperature_sensor.c ****     {
 118:MCSDK_v6.1.0-Full/MotorControl/MCSDK/MCLib/Any/Src/ntc_temperature_sensor.c ****       /* Need to be register with RegularConvManager */
 119:MCSDK_v6.1.0-Full/MotorControl/MCSDK/MCLib/Any/Src/ntc_temperature_sensor.c ****       pHandle->convHandle = RCM_RegisterRegConv(&pHandle->TempRegConv);
 120:MCSDK_v6.1.0-Full/MotorControl/MCSDK/MCLib/Any/Src/ntc_temperature_sensor.c ****       NTC_Clear(pHandle);
 121:MCSDK_v6.1.0-Full/MotorControl/MCSDK/MCLib/Any/Src/ntc_temperature_sensor.c ****     }
 122:MCSDK_v6.1.0-Full/MotorControl/MCSDK/MCLib/Any/Src/ntc_temperature_sensor.c ****     else  /* case VIRTUAL_SENSOR */
 123:MCSDK_v6.1.0-Full/MotorControl/MCSDK/MCLib/Any/Src/ntc_temperature_sensor.c ****     {
 124:MCSDK_v6.1.0-Full/MotorControl/MCSDK/MCLib/Any/Src/ntc_temperature_sensor.c ****       pHandle->hFaultState = MC_NO_ERROR;
 125:MCSDK_v6.1.0-Full/MotorControl/MCSDK/MCLib/Any/Src/ntc_temperature_sensor.c ****       pHandle->hAvTemp_d = pHandle->hExpectedTemp_d;
 126:MCSDK_v6.1.0-Full/MotorControl/MCSDK/MCLib/Any/Src/ntc_temperature_sensor.c ****     }
 127:MCSDK_v6.1.0-Full/MotorControl/MCSDK/MCLib/Any/Src/ntc_temperature_sensor.c **** #ifdef NULL_PTR_CHECK_NTC_TEMP_SENS
 128:MCSDK_v6.1.0-Full/MotorControl/MCSDK/MCLib/Any/Src/ntc_temperature_sensor.c ****   }
 129:MCSDK_v6.1.0-Full/MotorControl/MCSDK/MCLib/Any/Src/ntc_temperature_sensor.c **** #endif
 130:MCSDK_v6.1.0-Full/MotorControl/MCSDK/MCLib/Any/Src/ntc_temperature_sensor.c **** }
 131:MCSDK_v6.1.0-Full/MotorControl/MCSDK/MCLib/Any/Src/ntc_temperature_sensor.c **** 
 132:MCSDK_v6.1.0-Full/MotorControl/MCSDK/MCLib/Any/Src/ntc_temperature_sensor.c **** /**
 133:MCSDK_v6.1.0-Full/MotorControl/MCSDK/MCLib/Any/Src/ntc_temperature_sensor.c ****   * @brief Initializes internal average temperature computed value
 134:MCSDK_v6.1.0-Full/MotorControl/MCSDK/MCLib/Any/Src/ntc_temperature_sensor.c ****   *
 135:MCSDK_v6.1.0-Full/MotorControl/MCSDK/MCLib/Any/Src/ntc_temperature_sensor.c ****   * @param pHandle : Pointer on Handle structure of TemperatureSensor component
 136:MCSDK_v6.1.0-Full/MotorControl/MCSDK/MCLib/Any/Src/ntc_temperature_sensor.c ****   */
 137:MCSDK_v6.1.0-Full/MotorControl/MCSDK/MCLib/Any/Src/ntc_temperature_sensor.c **** __weak void NTC_Clear(NTC_Handle_t *pHandle)
 138:MCSDK_v6.1.0-Full/MotorControl/MCSDK/MCLib/Any/Src/ntc_temperature_sensor.c **** {
  85              		.loc 1 138 1 is_stmt 1 view -0
  86              		.cfi_startproc
  87              		@ args = 0, pretend = 0, frame = 0
  88              		@ frame_needed = 0, uses_anonymous_args = 0
  89              		@ link register save eliminated.
 139:MCSDK_v6.1.0-Full/MotorControl/MCSDK/MCLib/Any/Src/ntc_temperature_sensor.c **** #ifdef NULL_PTR_CHECK_NTC_TEMP_SENS
ARM GAS  /tmp/ccF9PGRx.s 			page 5


 140:MCSDK_v6.1.0-Full/MotorControl/MCSDK/MCLib/Any/Src/ntc_temperature_sensor.c ****   if (MC_NULL == pHandle)
 141:MCSDK_v6.1.0-Full/MotorControl/MCSDK/MCLib/Any/Src/ntc_temperature_sensor.c ****   {
 142:MCSDK_v6.1.0-Full/MotorControl/MCSDK/MCLib/Any/Src/ntc_temperature_sensor.c ****     /* nothing to do */
 143:MCSDK_v6.1.0-Full/MotorControl/MCSDK/MCLib/Any/Src/ntc_temperature_sensor.c ****   }
 144:MCSDK_v6.1.0-Full/MotorControl/MCSDK/MCLib/Any/Src/ntc_temperature_sensor.c ****   else
 145:MCSDK_v6.1.0-Full/MotorControl/MCSDK/MCLib/Any/Src/ntc_temperature_sensor.c ****   {
 146:MCSDK_v6.1.0-Full/MotorControl/MCSDK/MCLib/Any/Src/ntc_temperature_sensor.c **** #endif
 147:MCSDK_v6.1.0-Full/MotorControl/MCSDK/MCLib/Any/Src/ntc_temperature_sensor.c ****     pHandle->hAvTemp_d = 0U;
  90              		.loc 1 147 5 view .LVU18
  91              		.loc 1 147 24 is_stmt 0 view .LVU19
  92 0000 0023     		movs	r3, #0
  93 0002 0382     		strh	r3, [r0, #16]	@ movhi
 148:MCSDK_v6.1.0-Full/MotorControl/MCSDK/MCLib/Any/Src/ntc_temperature_sensor.c **** #ifdef NULL_PTR_CHECK_NTC_TEMP_SENS
 149:MCSDK_v6.1.0-Full/MotorControl/MCSDK/MCLib/Any/Src/ntc_temperature_sensor.c ****   }
 150:MCSDK_v6.1.0-Full/MotorControl/MCSDK/MCLib/Any/Src/ntc_temperature_sensor.c **** #endif
 151:MCSDK_v6.1.0-Full/MotorControl/MCSDK/MCLib/Any/Src/ntc_temperature_sensor.c **** }
  94              		.loc 1 151 1 view .LVU20
  95 0004 7047     		bx	lr
  96              		.cfi_endproc
  97              	.LFE1437:
  99              		.section	.text.NTC_Init,"ax",%progbits
 100              		.align	1
 101              		.weak	NTC_Init
 102              		.syntax unified
 103              		.thumb
 104              		.thumb_func
 105              		.fpu fpv4-sp-d16
 107              	NTC_Init:
 108              	.LVL7:
 109              	.LFB1436:
 107:MCSDK_v6.1.0-Full/MotorControl/MCSDK/MCLib/Any/Src/ntc_temperature_sensor.c **** #ifdef NULL_PTR_CHECK_NTC_TEMP_SENS
 110              		.loc 1 107 1 is_stmt 1 view -0
 111              		.cfi_startproc
 112              		@ args = 0, pretend = 0, frame = 0
 113              		@ frame_needed = 0, uses_anonymous_args = 0
 107:MCSDK_v6.1.0-Full/MotorControl/MCSDK/MCLib/Any/Src/ntc_temperature_sensor.c **** #ifdef NULL_PTR_CHECK_NTC_TEMP_SENS
 114              		.loc 1 107 1 is_stmt 0 view .LVU22
 115 0000 10B5     		push	{r4, lr}
 116              		.cfi_def_cfa_offset 8
 117              		.cfi_offset 4, -8
 118              		.cfi_offset 14, -4
 119 0002 0446     		mov	r4, r0
 116:MCSDK_v6.1.0-Full/MotorControl/MCSDK/MCLib/Any/Src/ntc_temperature_sensor.c ****     {
 120              		.loc 1 116 5 is_stmt 1 view .LVU23
 116:MCSDK_v6.1.0-Full/MotorControl/MCSDK/MCLib/Any/Src/ntc_temperature_sensor.c ****     {
 121              		.loc 1 116 31 is_stmt 0 view .LVU24
 122 0004 0378     		ldrb	r3, [r0]	@ zero_extendqisi2
 116:MCSDK_v6.1.0-Full/MotorControl/MCSDK/MCLib/Any/Src/ntc_temperature_sensor.c ****     {
 123              		.loc 1 116 8 view .LVU25
 124 0006 23B1     		cbz	r3, .L10
 124:MCSDK_v6.1.0-Full/MotorControl/MCSDK/MCLib/Any/Src/ntc_temperature_sensor.c ****       pHandle->hAvTemp_d = pHandle->hExpectedTemp_d;
 125              		.loc 1 124 7 is_stmt 1 view .LVU26
 124:MCSDK_v6.1.0-Full/MotorControl/MCSDK/MCLib/Any/Src/ntc_temperature_sensor.c ****       pHandle->hAvTemp_d = pHandle->hExpectedTemp_d;
 126              		.loc 1 124 28 is_stmt 0 view .LVU27
 127 0008 0023     		movs	r3, #0
 128 000a C382     		strh	r3, [r0, #22]	@ movhi
 125:MCSDK_v6.1.0-Full/MotorControl/MCSDK/MCLib/Any/Src/ntc_temperature_sensor.c ****     }
ARM GAS  /tmp/ccF9PGRx.s 			page 6


 129              		.loc 1 125 7 is_stmt 1 view .LVU28
 125:MCSDK_v6.1.0-Full/MotorControl/MCSDK/MCLib/Any/Src/ntc_temperature_sensor.c ****     }
 130              		.loc 1 125 35 is_stmt 0 view .LVU29
 131 000c 438A     		ldrh	r3, [r0, #18]
 125:MCSDK_v6.1.0-Full/MotorControl/MCSDK/MCLib/Any/Src/ntc_temperature_sensor.c ****     }
 132              		.loc 1 125 26 view .LVU30
 133 000e 0382     		strh	r3, [r0, #16]	@ movhi
 134              	.LVL8:
 135              	.L6:
 130:MCSDK_v6.1.0-Full/MotorControl/MCSDK/MCLib/Any/Src/ntc_temperature_sensor.c **** 
 136              		.loc 1 130 1 view .LVU31
 137 0010 10BD     		pop	{r4, pc}
 138              	.LVL9:
 139              	.L10:
 119:MCSDK_v6.1.0-Full/MotorControl/MCSDK/MCLib/Any/Src/ntc_temperature_sensor.c ****       NTC_Clear(pHandle);
 140              		.loc 1 119 7 is_stmt 1 view .LVU32
 119:MCSDK_v6.1.0-Full/MotorControl/MCSDK/MCLib/Any/Src/ntc_temperature_sensor.c ****       NTC_Clear(pHandle);
 141              		.loc 1 119 29 is_stmt 0 view .LVU33
 142 0012 0430     		adds	r0, r0, #4
 143              	.LVL10:
 119:MCSDK_v6.1.0-Full/MotorControl/MCSDK/MCLib/Any/Src/ntc_temperature_sensor.c ****       NTC_Clear(pHandle);
 144              		.loc 1 119 29 view .LVU34
 145 0014 FFF7FEFF 		bl	RCM_RegisterRegConv
 146              	.LVL11:
 119:MCSDK_v6.1.0-Full/MotorControl/MCSDK/MCLib/Any/Src/ntc_temperature_sensor.c ****       NTC_Clear(pHandle);
 147              		.loc 1 119 27 view .LVU35
 148 0018 84F82600 		strb	r0, [r4, #38]
 120:MCSDK_v6.1.0-Full/MotorControl/MCSDK/MCLib/Any/Src/ntc_temperature_sensor.c ****     }
 149              		.loc 1 120 7 is_stmt 1 view .LVU36
 150 001c 2046     		mov	r0, r4
 151 001e FFF7FEFF 		bl	NTC_Clear
 152              	.LVL12:
 153 0022 F5E7     		b	.L6
 154              		.cfi_endproc
 155              	.LFE1436:
 157              		.section	.text.NTC_CalcAvTemp,"ax",%progbits
 158              		.align	1
 159              		.weak	NTC_CalcAvTemp
 160              		.syntax unified
 161              		.thumb
 162              		.thumb_func
 163              		.fpu fpv4-sp-d16
 165              	NTC_CalcAvTemp:
 166              	.LVL13:
 167              	.LFB1438:
 152:MCSDK_v6.1.0-Full/MotorControl/MCSDK/MCLib/Any/Src/ntc_temperature_sensor.c **** 
 153:MCSDK_v6.1.0-Full/MotorControl/MCSDK/MCLib/Any/Src/ntc_temperature_sensor.c **** /**
 154:MCSDK_v6.1.0-Full/MotorControl/MCSDK/MCLib/Any/Src/ntc_temperature_sensor.c ****   * @brief Performs the temperature sensing average computation after an ADC conversion
 155:MCSDK_v6.1.0-Full/MotorControl/MCSDK/MCLib/Any/Src/ntc_temperature_sensor.c ****   *
 156:MCSDK_v6.1.0-Full/MotorControl/MCSDK/MCLib/Any/Src/ntc_temperature_sensor.c ****   * @param pHandle : Pointer on Handle structure of TemperatureSensor component
 157:MCSDK_v6.1.0-Full/MotorControl/MCSDK/MCLib/Any/Src/ntc_temperature_sensor.c ****   *
 158:MCSDK_v6.1.0-Full/MotorControl/MCSDK/MCLib/Any/Src/ntc_temperature_sensor.c ****   * @retval Fault status : Error reported in case of an over temperature detection
 159:MCSDK_v6.1.0-Full/MotorControl/MCSDK/MCLib/Any/Src/ntc_temperature_sensor.c ****   */
 160:MCSDK_v6.1.0-Full/MotorControl/MCSDK/MCLib/Any/Src/ntc_temperature_sensor.c **** __weak uint16_t NTC_CalcAvTemp(NTC_Handle_t *pHandle)
 161:MCSDK_v6.1.0-Full/MotorControl/MCSDK/MCLib/Any/Src/ntc_temperature_sensor.c **** {
 168              		.loc 1 161 1 view -0
 169              		.cfi_startproc
ARM GAS  /tmp/ccF9PGRx.s 			page 7


 170              		@ args = 0, pretend = 0, frame = 0
 171              		@ frame_needed = 0, uses_anonymous_args = 0
 172              		.loc 1 161 1 is_stmt 0 view .LVU38
 173 0000 10B5     		push	{r4, lr}
 174              		.cfi_def_cfa_offset 8
 175              		.cfi_offset 4, -8
 176              		.cfi_offset 14, -4
 177 0002 0446     		mov	r4, r0
 162:MCSDK_v6.1.0-Full/MotorControl/MCSDK/MCLib/Any/Src/ntc_temperature_sensor.c ****   uint16_t returnValue;
 178              		.loc 1 162 3 is_stmt 1 view .LVU39
 163:MCSDK_v6.1.0-Full/MotorControl/MCSDK/MCLib/Any/Src/ntc_temperature_sensor.c **** #ifdef NULL_PTR_CHECK_NTC_TEMP_SENS
 164:MCSDK_v6.1.0-Full/MotorControl/MCSDK/MCLib/Any/Src/ntc_temperature_sensor.c ****   if (MC_NULL == pHandle)
 165:MCSDK_v6.1.0-Full/MotorControl/MCSDK/MCLib/Any/Src/ntc_temperature_sensor.c ****   {
 166:MCSDK_v6.1.0-Full/MotorControl/MCSDK/MCLib/Any/Src/ntc_temperature_sensor.c ****     returnValue = 0U;
 167:MCSDK_v6.1.0-Full/MotorControl/MCSDK/MCLib/Any/Src/ntc_temperature_sensor.c ****   }
 168:MCSDK_v6.1.0-Full/MotorControl/MCSDK/MCLib/Any/Src/ntc_temperature_sensor.c ****   else
 169:MCSDK_v6.1.0-Full/MotorControl/MCSDK/MCLib/Any/Src/ntc_temperature_sensor.c ****   {
 170:MCSDK_v6.1.0-Full/MotorControl/MCSDK/MCLib/Any/Src/ntc_temperature_sensor.c **** #endif
 171:MCSDK_v6.1.0-Full/MotorControl/MCSDK/MCLib/Any/Src/ntc_temperature_sensor.c ****     if (REAL_SENSOR == pHandle->bSensorType)
 179              		.loc 1 171 5 view .LVU40
 180              		.loc 1 171 31 is_stmt 0 view .LVU41
 181 0004 0378     		ldrb	r3, [r0]	@ zero_extendqisi2
 182              		.loc 1 171 8 view .LVU42
 183 0006 1BB1     		cbz	r3, .L16
 172:MCSDK_v6.1.0-Full/MotorControl/MCSDK/MCLib/Any/Src/ntc_temperature_sensor.c ****     {
 173:MCSDK_v6.1.0-Full/MotorControl/MCSDK/MCLib/Any/Src/ntc_temperature_sensor.c ****       uint16_t hAux;
 174:MCSDK_v6.1.0-Full/MotorControl/MCSDK/MCLib/Any/Src/ntc_temperature_sensor.c ****       hAux = RCM_ExecRegularConv(pHandle->convHandle);
 175:MCSDK_v6.1.0-Full/MotorControl/MCSDK/MCLib/Any/Src/ntc_temperature_sensor.c **** 
 176:MCSDK_v6.1.0-Full/MotorControl/MCSDK/MCLib/Any/Src/ntc_temperature_sensor.c ****       if (0xFFFFU == hAux)
 177:MCSDK_v6.1.0-Full/MotorControl/MCSDK/MCLib/Any/Src/ntc_temperature_sensor.c ****       {
 178:MCSDK_v6.1.0-Full/MotorControl/MCSDK/MCLib/Any/Src/ntc_temperature_sensor.c ****         /* Nothing to do */
 179:MCSDK_v6.1.0-Full/MotorControl/MCSDK/MCLib/Any/Src/ntc_temperature_sensor.c ****       }
 180:MCSDK_v6.1.0-Full/MotorControl/MCSDK/MCLib/Any/Src/ntc_temperature_sensor.c ****       else
 181:MCSDK_v6.1.0-Full/MotorControl/MCSDK/MCLib/Any/Src/ntc_temperature_sensor.c ****       {
 182:MCSDK_v6.1.0-Full/MotorControl/MCSDK/MCLib/Any/Src/ntc_temperature_sensor.c ****         uint32_t wtemp;
 183:MCSDK_v6.1.0-Full/MotorControl/MCSDK/MCLib/Any/Src/ntc_temperature_sensor.c ****         wtemp = (uint32_t)(pHandle->hLowPassFilterBW) - 1U;
 184:MCSDK_v6.1.0-Full/MotorControl/MCSDK/MCLib/Any/Src/ntc_temperature_sensor.c ****         wtemp *= ((uint32_t)pHandle->hAvTemp_d);
 185:MCSDK_v6.1.0-Full/MotorControl/MCSDK/MCLib/Any/Src/ntc_temperature_sensor.c ****         wtemp += hAux;
 186:MCSDK_v6.1.0-Full/MotorControl/MCSDK/MCLib/Any/Src/ntc_temperature_sensor.c ****         wtemp /= ((uint32_t)pHandle->hLowPassFilterBW);
 187:MCSDK_v6.1.0-Full/MotorControl/MCSDK/MCLib/Any/Src/ntc_temperature_sensor.c **** 
 188:MCSDK_v6.1.0-Full/MotorControl/MCSDK/MCLib/Any/Src/ntc_temperature_sensor.c ****         pHandle->hAvTemp_d = (uint16_t)wtemp;
 189:MCSDK_v6.1.0-Full/MotorControl/MCSDK/MCLib/Any/Src/ntc_temperature_sensor.c ****       }
 190:MCSDK_v6.1.0-Full/MotorControl/MCSDK/MCLib/Any/Src/ntc_temperature_sensor.c **** 
 191:MCSDK_v6.1.0-Full/MotorControl/MCSDK/MCLib/Any/Src/ntc_temperature_sensor.c ****       pHandle->hFaultState = NTC_SetFaultState(pHandle);
 192:MCSDK_v6.1.0-Full/MotorControl/MCSDK/MCLib/Any/Src/ntc_temperature_sensor.c ****     }
 193:MCSDK_v6.1.0-Full/MotorControl/MCSDK/MCLib/Any/Src/ntc_temperature_sensor.c ****     else  /* case VIRTUAL_SENSOR */
 194:MCSDK_v6.1.0-Full/MotorControl/MCSDK/MCLib/Any/Src/ntc_temperature_sensor.c ****     {
 195:MCSDK_v6.1.0-Full/MotorControl/MCSDK/MCLib/Any/Src/ntc_temperature_sensor.c ****       pHandle->hFaultState = MC_NO_ERROR;
 184              		.loc 1 195 7 is_stmt 1 view .LVU43
 185              		.loc 1 195 28 is_stmt 0 view .LVU44
 186 0008 0023     		movs	r3, #0
 187 000a C382     		strh	r3, [r0, #22]	@ movhi
 188              	.LVL14:
 189              	.L14:
 196:MCSDK_v6.1.0-Full/MotorControl/MCSDK/MCLib/Any/Src/ntc_temperature_sensor.c ****     }
 197:MCSDK_v6.1.0-Full/MotorControl/MCSDK/MCLib/Any/Src/ntc_temperature_sensor.c ****     returnValue = pHandle->hFaultState;
 190              		.loc 1 197 5 is_stmt 1 view .LVU45
ARM GAS  /tmp/ccF9PGRx.s 			page 8


 198:MCSDK_v6.1.0-Full/MotorControl/MCSDK/MCLib/Any/Src/ntc_temperature_sensor.c **** #ifdef NULL_PTR_CHECK_NTC_TEMP_SENS
 199:MCSDK_v6.1.0-Full/MotorControl/MCSDK/MCLib/Any/Src/ntc_temperature_sensor.c ****   }
 200:MCSDK_v6.1.0-Full/MotorControl/MCSDK/MCLib/Any/Src/ntc_temperature_sensor.c **** #endif
 201:MCSDK_v6.1.0-Full/MotorControl/MCSDK/MCLib/Any/Src/ntc_temperature_sensor.c ****   return (returnValue);
 191              		.loc 1 201 3 view .LVU46
 202:MCSDK_v6.1.0-Full/MotorControl/MCSDK/MCLib/Any/Src/ntc_temperature_sensor.c **** }
 192              		.loc 1 202 1 is_stmt 0 view .LVU47
 193 000c E08A     		ldrh	r0, [r4, #22]
 194 000e 10BD     		pop	{r4, pc}
 195              	.LVL15:
 196              	.L16:
 197              	.LBB2:
 173:MCSDK_v6.1.0-Full/MotorControl/MCSDK/MCLib/Any/Src/ntc_temperature_sensor.c ****       hAux = RCM_ExecRegularConv(pHandle->convHandle);
 198              		.loc 1 173 7 is_stmt 1 view .LVU48
 174:MCSDK_v6.1.0-Full/MotorControl/MCSDK/MCLib/Any/Src/ntc_temperature_sensor.c **** 
 199              		.loc 1 174 7 view .LVU49
 174:MCSDK_v6.1.0-Full/MotorControl/MCSDK/MCLib/Any/Src/ntc_temperature_sensor.c **** 
 200              		.loc 1 174 14 is_stmt 0 view .LVU50
 201 0010 90F82600 		ldrb	r0, [r0, #38]	@ zero_extendqisi2
 202              	.LVL16:
 174:MCSDK_v6.1.0-Full/MotorControl/MCSDK/MCLib/Any/Src/ntc_temperature_sensor.c **** 
 203              		.loc 1 174 14 view .LVU51
 204 0014 FFF7FEFF 		bl	RCM_ExecRegularConv
 205              	.LVL17:
 176:MCSDK_v6.1.0-Full/MotorControl/MCSDK/MCLib/Any/Src/ntc_temperature_sensor.c ****       {
 206              		.loc 1 176 7 is_stmt 1 view .LVU52
 176:MCSDK_v6.1.0-Full/MotorControl/MCSDK/MCLib/Any/Src/ntc_temperature_sensor.c ****       {
 207              		.loc 1 176 10 is_stmt 0 view .LVU53
 208 0018 4FF6FF73 		movw	r3, #65535
 209 001c 9842     		cmp	r0, r3
 210 001e 07D0     		beq	.L13
 211              	.LBB3:
 182:MCSDK_v6.1.0-Full/MotorControl/MCSDK/MCLib/Any/Src/ntc_temperature_sensor.c ****         wtemp = (uint32_t)(pHandle->hLowPassFilterBW) - 1U;
 212              		.loc 1 182 9 is_stmt 1 view .LVU54
 183:MCSDK_v6.1.0-Full/MotorControl/MCSDK/MCLib/Any/Src/ntc_temperature_sensor.c ****         wtemp *= ((uint32_t)pHandle->hAvTemp_d);
 213              		.loc 1 183 9 view .LVU55
 183:MCSDK_v6.1.0-Full/MotorControl/MCSDK/MCLib/Any/Src/ntc_temperature_sensor.c ****         wtemp *= ((uint32_t)pHandle->hAvTemp_d);
 214              		.loc 1 183 35 is_stmt 0 view .LVU56
 215 0020 228B     		ldrh	r2, [r4, #24]
 183:MCSDK_v6.1.0-Full/MotorControl/MCSDK/MCLib/Any/Src/ntc_temperature_sensor.c ****         wtemp *= ((uint32_t)pHandle->hAvTemp_d);
 216              		.loc 1 183 15 view .LVU57
 217 0022 511E     		subs	r1, r2, #1
 218              	.LVL18:
 184:MCSDK_v6.1.0-Full/MotorControl/MCSDK/MCLib/Any/Src/ntc_temperature_sensor.c ****         wtemp += hAux;
 219              		.loc 1 184 9 is_stmt 1 view .LVU58
 184:MCSDK_v6.1.0-Full/MotorControl/MCSDK/MCLib/Any/Src/ntc_temperature_sensor.c ****         wtemp += hAux;
 220              		.loc 1 184 36 is_stmt 0 view .LVU59
 221 0024 238A     		ldrh	r3, [r4, #16]
 222              	.LVL19:
 185:MCSDK_v6.1.0-Full/MotorControl/MCSDK/MCLib/Any/Src/ntc_temperature_sensor.c ****         wtemp /= ((uint32_t)pHandle->hLowPassFilterBW);
 223              		.loc 1 185 9 is_stmt 1 view .LVU60
 185:MCSDK_v6.1.0-Full/MotorControl/MCSDK/MCLib/Any/Src/ntc_temperature_sensor.c ****         wtemp /= ((uint32_t)pHandle->hLowPassFilterBW);
 224              		.loc 1 185 15 is_stmt 0 view .LVU61
 225 0026 01FB0300 		mla	r0, r1, r3, r0
 226              	.LVL20:
 186:MCSDK_v6.1.0-Full/MotorControl/MCSDK/MCLib/Any/Src/ntc_temperature_sensor.c **** 
 227              		.loc 1 186 9 is_stmt 1 view .LVU62
ARM GAS  /tmp/ccF9PGRx.s 			page 9


 186:MCSDK_v6.1.0-Full/MotorControl/MCSDK/MCLib/Any/Src/ntc_temperature_sensor.c **** 
 228              		.loc 1 186 15 is_stmt 0 view .LVU63
 229 002a B0FBF2F0 		udiv	r0, r0, r2
 230              	.LVL21:
 188:MCSDK_v6.1.0-Full/MotorControl/MCSDK/MCLib/Any/Src/ntc_temperature_sensor.c ****       }
 231              		.loc 1 188 9 is_stmt 1 view .LVU64
 188:MCSDK_v6.1.0-Full/MotorControl/MCSDK/MCLib/Any/Src/ntc_temperature_sensor.c ****       }
 232              		.loc 1 188 28 is_stmt 0 view .LVU65
 233 002e 2082     		strh	r0, [r4, #16]	@ movhi
 234              	.LVL22:
 235              	.L13:
 188:MCSDK_v6.1.0-Full/MotorControl/MCSDK/MCLib/Any/Src/ntc_temperature_sensor.c ****       }
 236              		.loc 1 188 28 view .LVU66
 237              	.LBE3:
 191:MCSDK_v6.1.0-Full/MotorControl/MCSDK/MCLib/Any/Src/ntc_temperature_sensor.c ****     }
 238              		.loc 1 191 7 is_stmt 1 view .LVU67
 191:MCSDK_v6.1.0-Full/MotorControl/MCSDK/MCLib/Any/Src/ntc_temperature_sensor.c ****     }
 239              		.loc 1 191 30 is_stmt 0 view .LVU68
 240 0030 2046     		mov	r0, r4
 241 0032 FFF7FEFF 		bl	NTC_SetFaultState
 242              	.LVL23:
 191:MCSDK_v6.1.0-Full/MotorControl/MCSDK/MCLib/Any/Src/ntc_temperature_sensor.c ****     }
 243              		.loc 1 191 28 view .LVU69
 244 0036 E082     		strh	r0, [r4, #22]	@ movhi
 245              	.LBE2:
 246 0038 E8E7     		b	.L14
 247              		.cfi_endproc
 248              	.LFE1438:
 250              		.section	.text.NTC_GetAvTemp_d,"ax",%progbits
 251              		.align	1
 252              		.weak	NTC_GetAvTemp_d
 253              		.syntax unified
 254              		.thumb
 255              		.thumb_func
 256              		.fpu fpv4-sp-d16
 258              	NTC_GetAvTemp_d:
 259              	.LVL24:
 260              	.LFB1439:
 203:MCSDK_v6.1.0-Full/MotorControl/MCSDK/MCLib/Any/Src/ntc_temperature_sensor.c **** 
 204:MCSDK_v6.1.0-Full/MotorControl/MCSDK/MCLib/Any/Src/ntc_temperature_sensor.c **** /**
 205:MCSDK_v6.1.0-Full/MotorControl/MCSDK/MCLib/Any/Src/ntc_temperature_sensor.c ****   * @brief  Returns latest averaged temperature measured expressed in u16Celsius
 206:MCSDK_v6.1.0-Full/MotorControl/MCSDK/MCLib/Any/Src/ntc_temperature_sensor.c ****   *
 207:MCSDK_v6.1.0-Full/MotorControl/MCSDK/MCLib/Any/Src/ntc_temperature_sensor.c ****   * @param pHandle : Pointer on Handle structure of TemperatureSensor component
 208:MCSDK_v6.1.0-Full/MotorControl/MCSDK/MCLib/Any/Src/ntc_temperature_sensor.c ****   *
 209:MCSDK_v6.1.0-Full/MotorControl/MCSDK/MCLib/Any/Src/ntc_temperature_sensor.c ****   * @retval AverageTemperature : Current averaged temperature measured (in u16Celsius)
 210:MCSDK_v6.1.0-Full/MotorControl/MCSDK/MCLib/Any/Src/ntc_temperature_sensor.c ****   */
 211:MCSDK_v6.1.0-Full/MotorControl/MCSDK/MCLib/Any/Src/ntc_temperature_sensor.c **** __weak uint16_t NTC_GetAvTemp_d(const NTC_Handle_t *pHandle)
 212:MCSDK_v6.1.0-Full/MotorControl/MCSDK/MCLib/Any/Src/ntc_temperature_sensor.c **** {
 261              		.loc 1 212 1 is_stmt 1 view -0
 262              		.cfi_startproc
 263              		@ args = 0, pretend = 0, frame = 0
 264              		@ frame_needed = 0, uses_anonymous_args = 0
 265              		@ link register save eliminated.
 213:MCSDK_v6.1.0-Full/MotorControl/MCSDK/MCLib/Any/Src/ntc_temperature_sensor.c **** #ifdef NULL_PTR_CHECK_NTC_TEMP_SENS
 214:MCSDK_v6.1.0-Full/MotorControl/MCSDK/MCLib/Any/Src/ntc_temperature_sensor.c ****   return ((MC_NULL == pHandle) ? 0U : pHandle->hAvTemp_d);
 215:MCSDK_v6.1.0-Full/MotorControl/MCSDK/MCLib/Any/Src/ntc_temperature_sensor.c **** #else
 216:MCSDK_v6.1.0-Full/MotorControl/MCSDK/MCLib/Any/Src/ntc_temperature_sensor.c ****   return (pHandle->hAvTemp_d);
ARM GAS  /tmp/ccF9PGRx.s 			page 10


 266              		.loc 1 216 3 view .LVU71
 217:MCSDK_v6.1.0-Full/MotorControl/MCSDK/MCLib/Any/Src/ntc_temperature_sensor.c **** #endif
 218:MCSDK_v6.1.0-Full/MotorControl/MCSDK/MCLib/Any/Src/ntc_temperature_sensor.c **** }
 267              		.loc 1 218 1 is_stmt 0 view .LVU72
 268 0000 008A     		ldrh	r0, [r0, #16]
 269              	.LVL25:
 270              		.loc 1 218 1 view .LVU73
 271 0002 7047     		bx	lr
 272              		.cfi_endproc
 273              	.LFE1439:
 275              		.section	.text.NTC_GetAvTemp_C,"ax",%progbits
 276              		.align	1
 277              		.weak	NTC_GetAvTemp_C
 278              		.syntax unified
 279              		.thumb
 280              		.thumb_func
 281              		.fpu fpv4-sp-d16
 283              	NTC_GetAvTemp_C:
 284              	.LVL26:
 285              	.LFB1440:
 219:MCSDK_v6.1.0-Full/MotorControl/MCSDK/MCLib/Any/Src/ntc_temperature_sensor.c **** 
 220:MCSDK_v6.1.0-Full/MotorControl/MCSDK/MCLib/Any/Src/ntc_temperature_sensor.c **** /**
 221:MCSDK_v6.1.0-Full/MotorControl/MCSDK/MCLib/Any/Src/ntc_temperature_sensor.c ****   * @brief  Returns latest averaged temperature expressed in Celsius degrees
 222:MCSDK_v6.1.0-Full/MotorControl/MCSDK/MCLib/Any/Src/ntc_temperature_sensor.c ****   *
 223:MCSDK_v6.1.0-Full/MotorControl/MCSDK/MCLib/Any/Src/ntc_temperature_sensor.c ****   * @param pHandle : Pointer on Handle structure of TemperatureSensor component
 224:MCSDK_v6.1.0-Full/MotorControl/MCSDK/MCLib/Any/Src/ntc_temperature_sensor.c ****   *
 225:MCSDK_v6.1.0-Full/MotorControl/MCSDK/MCLib/Any/Src/ntc_temperature_sensor.c ****   * @retval AverageTemperature : Latest averaged temperature measured (in Celsius degrees)
 226:MCSDK_v6.1.0-Full/MotorControl/MCSDK/MCLib/Any/Src/ntc_temperature_sensor.c ****   */
 227:MCSDK_v6.1.0-Full/MotorControl/MCSDK/MCLib/Any/Src/ntc_temperature_sensor.c **** __weak int16_t NTC_GetAvTemp_C(NTC_Handle_t *pHandle)
 228:MCSDK_v6.1.0-Full/MotorControl/MCSDK/MCLib/Any/Src/ntc_temperature_sensor.c **** {
 286              		.loc 1 228 1 is_stmt 1 view -0
 287              		.cfi_startproc
 288              		@ args = 0, pretend = 0, frame = 0
 289              		@ frame_needed = 0, uses_anonymous_args = 0
 290              		@ link register save eliminated.
 229:MCSDK_v6.1.0-Full/MotorControl/MCSDK/MCLib/Any/Src/ntc_temperature_sensor.c ****   int16_t returnValue;
 291              		.loc 1 229 3 view .LVU75
 230:MCSDK_v6.1.0-Full/MotorControl/MCSDK/MCLib/Any/Src/ntc_temperature_sensor.c **** #ifdef NULL_PTR_CHECK_NTC_TEMP_SENS
 231:MCSDK_v6.1.0-Full/MotorControl/MCSDK/MCLib/Any/Src/ntc_temperature_sensor.c ****   if (MC_NULL == pHandle)
 232:MCSDK_v6.1.0-Full/MotorControl/MCSDK/MCLib/Any/Src/ntc_temperature_sensor.c ****   {
 233:MCSDK_v6.1.0-Full/MotorControl/MCSDK/MCLib/Any/Src/ntc_temperature_sensor.c ****     returnValue = 0;
 234:MCSDK_v6.1.0-Full/MotorControl/MCSDK/MCLib/Any/Src/ntc_temperature_sensor.c ****   }
 235:MCSDK_v6.1.0-Full/MotorControl/MCSDK/MCLib/Any/Src/ntc_temperature_sensor.c ****   else
 236:MCSDK_v6.1.0-Full/MotorControl/MCSDK/MCLib/Any/Src/ntc_temperature_sensor.c ****   {
 237:MCSDK_v6.1.0-Full/MotorControl/MCSDK/MCLib/Any/Src/ntc_temperature_sensor.c **** #endif
 238:MCSDK_v6.1.0-Full/MotorControl/MCSDK/MCLib/Any/Src/ntc_temperature_sensor.c ****     int32_t wTemp;
 292              		.loc 1 238 5 view .LVU76
 239:MCSDK_v6.1.0-Full/MotorControl/MCSDK/MCLib/Any/Src/ntc_temperature_sensor.c **** 
 240:MCSDK_v6.1.0-Full/MotorControl/MCSDK/MCLib/Any/Src/ntc_temperature_sensor.c ****     if (REAL_SENSOR == pHandle->bSensorType)
 293              		.loc 1 240 5 view .LVU77
 294              		.loc 1 240 31 is_stmt 0 view .LVU78
 295 0000 0378     		ldrb	r3, [r0]	@ zero_extendqisi2
 296              		.loc 1 240 8 view .LVU79
 297 0002 5BB9     		cbnz	r3, .L19
 241:MCSDK_v6.1.0-Full/MotorControl/MCSDK/MCLib/Any/Src/ntc_temperature_sensor.c ****     {
 242:MCSDK_v6.1.0-Full/MotorControl/MCSDK/MCLib/Any/Src/ntc_temperature_sensor.c ****       wTemp = (int32_t)pHandle->hAvTemp_d;
 298              		.loc 1 242 7 is_stmt 1 view .LVU80
ARM GAS  /tmp/ccF9PGRx.s 			page 11


 299              		.loc 1 242 31 is_stmt 0 view .LVU81
 300 0004 038A     		ldrh	r3, [r0, #16]
 301              	.LVL27:
 243:MCSDK_v6.1.0-Full/MotorControl/MCSDK/MCLib/Any/Src/ntc_temperature_sensor.c ****       wTemp -= ((int32_t)pHandle->wV0);
 302              		.loc 1 243 7 is_stmt 1 view .LVU82
 303              		.loc 1 243 33 is_stmt 0 view .LVU83
 304 0006 026A     		ldr	r2, [r0, #32]
 305              		.loc 1 243 13 view .LVU84
 306 0008 9B1A     		subs	r3, r3, r2
 307              	.LVL28:
 244:MCSDK_v6.1.0-Full/MotorControl/MCSDK/MCLib/Any/Src/ntc_temperature_sensor.c ****       wTemp *= pHandle->hSensitivity;
 308              		.loc 1 244 7 is_stmt 1 view .LVU85
 309              		.loc 1 244 23 is_stmt 0 view .LVU86
 310 000a B0F91E20 		ldrsh	r2, [r0, #30]
 311              		.loc 1 244 13 view .LVU87
 312 000e 03FB02F3 		mul	r3, r3, r2
 313              	.LVL29:
 245:MCSDK_v6.1.0-Full/MotorControl/MCSDK/MCLib/Any/Src/ntc_temperature_sensor.c **** #ifndef FULL_MISRA_C_COMPLIANCY_NTC_TEMP
 246:MCSDK_v6.1.0-Full/MotorControl/MCSDK/MCLib/Any/Src/ntc_temperature_sensor.c ****       //cstat !MISRAC2012-Rule-1.3_n !ATH-shift-neg !MISRAC2012-Rule-10.1_R6
 247:MCSDK_v6.1.0-Full/MotorControl/MCSDK/MCLib/Any/Src/ntc_temperature_sensor.c ****       wTemp = (wTemp >> 16) + (int32_t)pHandle->hT0;
 314              		.loc 1 247 7 is_stmt 1 view .LVU88
 315              		.loc 1 247 47 is_stmt 0 view .LVU89
 316 0012 808C     		ldrh	r0, [r0, #36]
 317              	.LVL30:
 318              		.loc 1 247 13 view .LVU90
 319 0014 00EB2340 		add	r0, r0, r3, asr #16
 320              	.LVL31:
 321              	.L20:
 248:MCSDK_v6.1.0-Full/MotorControl/MCSDK/MCLib/Any/Src/ntc_temperature_sensor.c **** #else
 249:MCSDK_v6.1.0-Full/MotorControl/MCSDK/MCLib/Any/Src/ntc_temperature_sensor.c ****       wTemp = (wTemp / 65536) + (int32_t)pHandle->hT0;
 250:MCSDK_v6.1.0-Full/MotorControl/MCSDK/MCLib/Any/Src/ntc_temperature_sensor.c **** #endif
 251:MCSDK_v6.1.0-Full/MotorControl/MCSDK/MCLib/Any/Src/ntc_temperature_sensor.c ****     }
 252:MCSDK_v6.1.0-Full/MotorControl/MCSDK/MCLib/Any/Src/ntc_temperature_sensor.c ****     else
 253:MCSDK_v6.1.0-Full/MotorControl/MCSDK/MCLib/Any/Src/ntc_temperature_sensor.c ****     {
 254:MCSDK_v6.1.0-Full/MotorControl/MCSDK/MCLib/Any/Src/ntc_temperature_sensor.c ****       wTemp = (int32_t)pHandle->hExpectedTemp_C;
 255:MCSDK_v6.1.0-Full/MotorControl/MCSDK/MCLib/Any/Src/ntc_temperature_sensor.c ****     }
 256:MCSDK_v6.1.0-Full/MotorControl/MCSDK/MCLib/Any/Src/ntc_temperature_sensor.c ****     returnValue = (int16_t)wTemp;
 322              		.loc 1 256 5 is_stmt 1 view .LVU91
 257:MCSDK_v6.1.0-Full/MotorControl/MCSDK/MCLib/Any/Src/ntc_temperature_sensor.c **** #ifdef NULL_PTR_CHECK_NTC_TEMP_SENS
 258:MCSDK_v6.1.0-Full/MotorControl/MCSDK/MCLib/Any/Src/ntc_temperature_sensor.c ****   }
 259:MCSDK_v6.1.0-Full/MotorControl/MCSDK/MCLib/Any/Src/ntc_temperature_sensor.c **** #endif
 260:MCSDK_v6.1.0-Full/MotorControl/MCSDK/MCLib/Any/Src/ntc_temperature_sensor.c ****   return (returnValue);
 323              		.loc 1 260 3 view .LVU92
 261:MCSDK_v6.1.0-Full/MotorControl/MCSDK/MCLib/Any/Src/ntc_temperature_sensor.c **** }
 324              		.loc 1 261 1 is_stmt 0 view .LVU93
 325 0018 00B2     		sxth	r0, r0
 326              	.LVL32:
 327              		.loc 1 261 1 view .LVU94
 328 001a 7047     		bx	lr
 329              	.LVL33:
 330              	.L19:
 254:MCSDK_v6.1.0-Full/MotorControl/MCSDK/MCLib/Any/Src/ntc_temperature_sensor.c ****     }
 331              		.loc 1 254 7 is_stmt 1 view .LVU95
 254:MCSDK_v6.1.0-Full/MotorControl/MCSDK/MCLib/Any/Src/ntc_temperature_sensor.c ****     }
 332              		.loc 1 254 31 is_stmt 0 view .LVU96
 333 001c 808A     		ldrh	r0, [r0, #20]
 334              	.LVL34:
ARM GAS  /tmp/ccF9PGRx.s 			page 12


 254:MCSDK_v6.1.0-Full/MotorControl/MCSDK/MCLib/Any/Src/ntc_temperature_sensor.c ****     }
 335              		.loc 1 254 31 view .LVU97
 336 001e FBE7     		b	.L20
 337              		.cfi_endproc
 338              	.LFE1440:
 340              		.section	.text.NTC_CheckTemp,"ax",%progbits
 341              		.align	1
 342              		.weak	NTC_CheckTemp
 343              		.syntax unified
 344              		.thumb
 345              		.thumb_func
 346              		.fpu fpv4-sp-d16
 348              	NTC_CheckTemp:
 349              	.LVL35:
 350              	.LFB1441:
 262:MCSDK_v6.1.0-Full/MotorControl/MCSDK/MCLib/Any/Src/ntc_temperature_sensor.c **** 
 263:MCSDK_v6.1.0-Full/MotorControl/MCSDK/MCLib/Any/Src/ntc_temperature_sensor.c **** /**
 264:MCSDK_v6.1.0-Full/MotorControl/MCSDK/MCLib/Any/Src/ntc_temperature_sensor.c ****   * @brief  Returns Temperature measurement fault status
 265:MCSDK_v6.1.0-Full/MotorControl/MCSDK/MCLib/Any/Src/ntc_temperature_sensor.c ****   *
 266:MCSDK_v6.1.0-Full/MotorControl/MCSDK/MCLib/Any/Src/ntc_temperature_sensor.c ****   * Fault status can be either MC_OVER_TEMP when measure exceeds the protection threshold values or
 267:MCSDK_v6.1.0-Full/MotorControl/MCSDK/MCLib/Any/Src/ntc_temperature_sensor.c ****   * MC_NO_ERROR if it is inside authorized range.
 268:MCSDK_v6.1.0-Full/MotorControl/MCSDK/MCLib/Any/Src/ntc_temperature_sensor.c ****   *
 269:MCSDK_v6.1.0-Full/MotorControl/MCSDK/MCLib/Any/Src/ntc_temperature_sensor.c ****   * @param pHandle: Pointer on Handle structure of TemperatureSensor component.
 270:MCSDK_v6.1.0-Full/MotorControl/MCSDK/MCLib/Any/Src/ntc_temperature_sensor.c ****   *
 271:MCSDK_v6.1.0-Full/MotorControl/MCSDK/MCLib/Any/Src/ntc_temperature_sensor.c ****   * @retval Fault status : read internal fault state
 272:MCSDK_v6.1.0-Full/MotorControl/MCSDK/MCLib/Any/Src/ntc_temperature_sensor.c ****   */
 273:MCSDK_v6.1.0-Full/MotorControl/MCSDK/MCLib/Any/Src/ntc_temperature_sensor.c **** __weak uint16_t NTC_CheckTemp(const NTC_Handle_t *pHandle)
 274:MCSDK_v6.1.0-Full/MotorControl/MCSDK/MCLib/Any/Src/ntc_temperature_sensor.c **** {
 351              		.loc 1 274 1 is_stmt 1 view -0
 352              		.cfi_startproc
 353              		@ args = 0, pretend = 0, frame = 0
 354              		@ frame_needed = 0, uses_anonymous_args = 0
 355              		@ link register save eliminated.
 275:MCSDK_v6.1.0-Full/MotorControl/MCSDK/MCLib/Any/Src/ntc_temperature_sensor.c **** #ifdef NULL_PTR_CHECK_NTC_TEMP_SENS
 276:MCSDK_v6.1.0-Full/MotorControl/MCSDK/MCLib/Any/Src/ntc_temperature_sensor.c ****   return ((MC_NULL == pHandle) ? 0U : pHandle->hFaultState);
 277:MCSDK_v6.1.0-Full/MotorControl/MCSDK/MCLib/Any/Src/ntc_temperature_sensor.c **** #else
 278:MCSDK_v6.1.0-Full/MotorControl/MCSDK/MCLib/Any/Src/ntc_temperature_sensor.c ****   return (pHandle->hFaultState);
 356              		.loc 1 278 3 view .LVU99
 279:MCSDK_v6.1.0-Full/MotorControl/MCSDK/MCLib/Any/Src/ntc_temperature_sensor.c **** #endif
 280:MCSDK_v6.1.0-Full/MotorControl/MCSDK/MCLib/Any/Src/ntc_temperature_sensor.c **** 
 281:MCSDK_v6.1.0-Full/MotorControl/MCSDK/MCLib/Any/Src/ntc_temperature_sensor.c **** }
 357              		.loc 1 281 1 is_stmt 0 view .LVU100
 358 0000 C08A     		ldrh	r0, [r0, #22]
 359              	.LVL36:
 360              		.loc 1 281 1 view .LVU101
 361 0002 7047     		bx	lr
 362              		.cfi_endproc
 363              	.LFE1441:
 365              		.text
 366              	.Letext0:
 367              		.file 2 "/usr/lib/gcc/arm-none-eabi/9.2.1/include/stdint.h"
 368              		.file 3 "Drivers/CMSIS/Include/core_cm4.h"
 369              		.file 4 "Drivers/CMSIS/Device/ST/STM32G4xx/Include/system_stm32g4xx.h"
 370              		.file 5 "Drivers/CMSIS/Device/ST/STM32G4xx/Include/stm32g431xx.h"
 371              		.file 6 "Drivers/STM32G4xx_HAL_Driver/Inc/stm32g4xx_hal_def.h"
 372              		.file 7 "Drivers/STM32G4xx_HAL_Driver/Inc/stm32g4xx_hal_flash.h"
 373              		.file 8 "Drivers/STM32G4xx_HAL_Driver/Inc/stm32g4xx_hal.h"
ARM GAS  /tmp/ccF9PGRx.s 			page 13


 374              		.file 9 "Drivers/STM32G4xx_HAL_Driver/Inc/stm32g4xx_ll_tim.h"
 375              		.file 10 "Drivers/STM32G4xx_HAL_Driver/Inc/stm32g4xx_ll_usart.h"
 376              		.file 11 "Drivers/STM32G4xx_HAL_Driver/Inc/stm32g4xx_ll_dma.h"
 377              		.file 12 "MCSDK_v6.1.0-Full/MotorControl/MCSDK/MCLib/Any/Inc/mc_type.h"
 378              		.file 13 "Inc/regular_conversion_manager.h"
 379              		.file 14 "MCSDK_v6.1.0-Full/MotorControl/MCSDK/MCLib/Any/Inc/ntc_temperature_sensor.h"
ARM GAS  /tmp/ccF9PGRx.s 			page 14

