ARM GAS  /tmp/ccKoViEi.s 			page 1


   1              		.cpu cortex-m4
   2              		.eabi_attribute 27, 1
   3              		.eabi_attribute 28, 1
   4              		.eabi_attribute 20, 1
   5              		.eabi_attribute 21, 1
   6              		.eabi_attribute 23, 3
   7              		.eabi_attribute 24, 1
   8              		.eabi_attribute 25, 1
   9              		.eabi_attribute 26, 1
  10              		.eabi_attribute 30, 1
  11              		.eabi_attribute 34, 1
  12              		.eabi_attribute 18, 4
  13              		.file	"r_divider_bus_voltage_sensor.c"
  14              		.text
  15              	.Ltext0:
  16              		.cfi_sections	.debug_frame
  17              		.section	.text.RVBS_ConvertVbusFiltrered,"ax",%progbits
  18              		.align	1
  19              		.arch armv7e-m
  20              		.syntax unified
  21              		.thumb
  22              		.thumb_func
  23              		.fpu fpv4-sp-d16
  25              	RVBS_ConvertVbusFiltrered:
  26              	.LVL0:
  27              	.LFB1437:
  28              		.file 1 "MCSDK_v6.0.0-Full/MotorControl/MCSDK/MCLib/Any/Src/r_divider_bus_voltage_sensor.c"
   1:MCSDK_v6.0.0-Full/MotorControl/MCSDK/MCLib/Any/Src/r_divider_bus_voltage_sensor.c **** /**
   2:MCSDK_v6.0.0-Full/MotorControl/MCSDK/MCLib/Any/Src/r_divider_bus_voltage_sensor.c ****   ******************************************************************************
   3:MCSDK_v6.0.0-Full/MotorControl/MCSDK/MCLib/Any/Src/r_divider_bus_voltage_sensor.c ****   * @file    r_divider_bus_voltage_sensor.c
   4:MCSDK_v6.0.0-Full/MotorControl/MCSDK/MCLib/Any/Src/r_divider_bus_voltage_sensor.c ****   * @author  Motor Control SDK Team, ST Microelectronics
   5:MCSDK_v6.0.0-Full/MotorControl/MCSDK/MCLib/Any/Src/r_divider_bus_voltage_sensor.c ****   * @brief   This file provides firmware functions that implement the  features
   6:MCSDK_v6.0.0-Full/MotorControl/MCSDK/MCLib/Any/Src/r_divider_bus_voltage_sensor.c ****   *          of the Resistor Divider Bus Voltage Sensor component of the Motor
   7:MCSDK_v6.0.0-Full/MotorControl/MCSDK/MCLib/Any/Src/r_divider_bus_voltage_sensor.c ****   *          Control SDK:
   8:MCSDK_v6.0.0-Full/MotorControl/MCSDK/MCLib/Any/Src/r_divider_bus_voltage_sensor.c ****   *
   9:MCSDK_v6.0.0-Full/MotorControl/MCSDK/MCLib/Any/Src/r_divider_bus_voltage_sensor.c ****   ******************************************************************************
  10:MCSDK_v6.0.0-Full/MotorControl/MCSDK/MCLib/Any/Src/r_divider_bus_voltage_sensor.c ****   * @attention
  11:MCSDK_v6.0.0-Full/MotorControl/MCSDK/MCLib/Any/Src/r_divider_bus_voltage_sensor.c ****   *
  12:MCSDK_v6.0.0-Full/MotorControl/MCSDK/MCLib/Any/Src/r_divider_bus_voltage_sensor.c ****   * <h2><center>&copy; Copyright (c) 2022 STMicroelectronics.
  13:MCSDK_v6.0.0-Full/MotorControl/MCSDK/MCLib/Any/Src/r_divider_bus_voltage_sensor.c ****   * All rights reserved.</center></h2>
  14:MCSDK_v6.0.0-Full/MotorControl/MCSDK/MCLib/Any/Src/r_divider_bus_voltage_sensor.c ****   *
  15:MCSDK_v6.0.0-Full/MotorControl/MCSDK/MCLib/Any/Src/r_divider_bus_voltage_sensor.c ****   * This software component is licensed by ST under Ultimate Liberty license
  16:MCSDK_v6.0.0-Full/MotorControl/MCSDK/MCLib/Any/Src/r_divider_bus_voltage_sensor.c ****   * SLA0044, the "License"; You may not use this file except in compliance with
  17:MCSDK_v6.0.0-Full/MotorControl/MCSDK/MCLib/Any/Src/r_divider_bus_voltage_sensor.c ****   * the License. You may obtain a copy of the License at:
  18:MCSDK_v6.0.0-Full/MotorControl/MCSDK/MCLib/Any/Src/r_divider_bus_voltage_sensor.c ****   *                             www.st.com/SLA0044
  19:MCSDK_v6.0.0-Full/MotorControl/MCSDK/MCLib/Any/Src/r_divider_bus_voltage_sensor.c ****   *
  20:MCSDK_v6.0.0-Full/MotorControl/MCSDK/MCLib/Any/Src/r_divider_bus_voltage_sensor.c ****   ******************************************************************************
  21:MCSDK_v6.0.0-Full/MotorControl/MCSDK/MCLib/Any/Src/r_divider_bus_voltage_sensor.c ****   */
  22:MCSDK_v6.0.0-Full/MotorControl/MCSDK/MCLib/Any/Src/r_divider_bus_voltage_sensor.c **** 
  23:MCSDK_v6.0.0-Full/MotorControl/MCSDK/MCLib/Any/Src/r_divider_bus_voltage_sensor.c **** /* Includes ------------------------------------------------------------------*/
  24:MCSDK_v6.0.0-Full/MotorControl/MCSDK/MCLib/Any/Src/r_divider_bus_voltage_sensor.c **** #include "mc_type.h"
  25:MCSDK_v6.0.0-Full/MotorControl/MCSDK/MCLib/Any/Src/r_divider_bus_voltage_sensor.c **** #include "r_divider_bus_voltage_sensor.h"
  26:MCSDK_v6.0.0-Full/MotorControl/MCSDK/MCLib/Any/Src/r_divider_bus_voltage_sensor.c **** #include "regular_conversion_manager.h"
  27:MCSDK_v6.0.0-Full/MotorControl/MCSDK/MCLib/Any/Src/r_divider_bus_voltage_sensor.c **** 
  28:MCSDK_v6.0.0-Full/MotorControl/MCSDK/MCLib/Any/Src/r_divider_bus_voltage_sensor.c **** 
  29:MCSDK_v6.0.0-Full/MotorControl/MCSDK/MCLib/Any/Src/r_divider_bus_voltage_sensor.c **** /** @addtogroup MCSDK
  30:MCSDK_v6.0.0-Full/MotorControl/MCSDK/MCLib/Any/Src/r_divider_bus_voltage_sensor.c ****   * @{
ARM GAS  /tmp/ccKoViEi.s 			page 2


  31:MCSDK_v6.0.0-Full/MotorControl/MCSDK/MCLib/Any/Src/r_divider_bus_voltage_sensor.c ****   */
  32:MCSDK_v6.0.0-Full/MotorControl/MCSDK/MCLib/Any/Src/r_divider_bus_voltage_sensor.c **** 
  33:MCSDK_v6.0.0-Full/MotorControl/MCSDK/MCLib/Any/Src/r_divider_bus_voltage_sensor.c **** /** @addtogroup BusVoltageSensor
  34:MCSDK_v6.0.0-Full/MotorControl/MCSDK/MCLib/Any/Src/r_divider_bus_voltage_sensor.c ****   * @{
  35:MCSDK_v6.0.0-Full/MotorControl/MCSDK/MCLib/Any/Src/r_divider_bus_voltage_sensor.c ****   */
  36:MCSDK_v6.0.0-Full/MotorControl/MCSDK/MCLib/Any/Src/r_divider_bus_voltage_sensor.c **** 
  37:MCSDK_v6.0.0-Full/MotorControl/MCSDK/MCLib/Any/Src/r_divider_bus_voltage_sensor.c **** /** @defgroup RDividerBusVoltageSensor Resistor Divider Bus Voltage Sensor
  38:MCSDK_v6.0.0-Full/MotorControl/MCSDK/MCLib/Any/Src/r_divider_bus_voltage_sensor.c ****   * @brief Resistor Divider Bus Voltage Sensor implementation
  39:MCSDK_v6.0.0-Full/MotorControl/MCSDK/MCLib/Any/Src/r_divider_bus_voltage_sensor.c ****   *
  40:MCSDK_v6.0.0-Full/MotorControl/MCSDK/MCLib/Any/Src/r_divider_bus_voltage_sensor.c ****   * @todo Document the Resistor Divider Bus Voltage Sensor "module".
  41:MCSDK_v6.0.0-Full/MotorControl/MCSDK/MCLib/Any/Src/r_divider_bus_voltage_sensor.c ****   *
  42:MCSDK_v6.0.0-Full/MotorControl/MCSDK/MCLib/Any/Src/r_divider_bus_voltage_sensor.c ****   * @{
  43:MCSDK_v6.0.0-Full/MotorControl/MCSDK/MCLib/Any/Src/r_divider_bus_voltage_sensor.c ****   */
  44:MCSDK_v6.0.0-Full/MotorControl/MCSDK/MCLib/Any/Src/r_divider_bus_voltage_sensor.c **** 
  45:MCSDK_v6.0.0-Full/MotorControl/MCSDK/MCLib/Any/Src/r_divider_bus_voltage_sensor.c **** /**
  46:MCSDK_v6.0.0-Full/MotorControl/MCSDK/MCLib/Any/Src/r_divider_bus_voltage_sensor.c ****   * @brief  It initializes bus voltage conversion (ADC, ADC channel, conversion time.
  47:MCSDK_v6.0.0-Full/MotorControl/MCSDK/MCLib/Any/Src/r_divider_bus_voltage_sensor.c ****     It must be called only after PWMC_Init.
  48:MCSDK_v6.0.0-Full/MotorControl/MCSDK/MCLib/Any/Src/r_divider_bus_voltage_sensor.c ****   * @param  pHandle related RDivider_Handle_t
  49:MCSDK_v6.0.0-Full/MotorControl/MCSDK/MCLib/Any/Src/r_divider_bus_voltage_sensor.c ****   * @retval none
  50:MCSDK_v6.0.0-Full/MotorControl/MCSDK/MCLib/Any/Src/r_divider_bus_voltage_sensor.c ****   */
  51:MCSDK_v6.0.0-Full/MotorControl/MCSDK/MCLib/Any/Src/r_divider_bus_voltage_sensor.c **** __weak void RVBS_Init(RDivider_Handle_t *pHandle)
  52:MCSDK_v6.0.0-Full/MotorControl/MCSDK/MCLib/Any/Src/r_divider_bus_voltage_sensor.c **** {
  53:MCSDK_v6.0.0-Full/MotorControl/MCSDK/MCLib/Any/Src/r_divider_bus_voltage_sensor.c **** #ifdef NULL_PTR_RDIV_BUS_VLT_SNS
  54:MCSDK_v6.0.0-Full/MotorControl/MCSDK/MCLib/Any/Src/r_divider_bus_voltage_sensor.c ****   if (MC_NULL == pHandle)
  55:MCSDK_v6.0.0-Full/MotorControl/MCSDK/MCLib/Any/Src/r_divider_bus_voltage_sensor.c ****   {
  56:MCSDK_v6.0.0-Full/MotorControl/MCSDK/MCLib/Any/Src/r_divider_bus_voltage_sensor.c ****     /* Nothing to do */
  57:MCSDK_v6.0.0-Full/MotorControl/MCSDK/MCLib/Any/Src/r_divider_bus_voltage_sensor.c ****   }
  58:MCSDK_v6.0.0-Full/MotorControl/MCSDK/MCLib/Any/Src/r_divider_bus_voltage_sensor.c ****   else
  59:MCSDK_v6.0.0-Full/MotorControl/MCSDK/MCLib/Any/Src/r_divider_bus_voltage_sensor.c ****   {
  60:MCSDK_v6.0.0-Full/MotorControl/MCSDK/MCLib/Any/Src/r_divider_bus_voltage_sensor.c **** #endif
  61:MCSDK_v6.0.0-Full/MotorControl/MCSDK/MCLib/Any/Src/r_divider_bus_voltage_sensor.c ****     /* Need to be register with RegularConvManager */
  62:MCSDK_v6.0.0-Full/MotorControl/MCSDK/MCLib/Any/Src/r_divider_bus_voltage_sensor.c ****     pHandle->convHandle = RCM_RegisterRegConv(&pHandle->VbusRegConv);
  63:MCSDK_v6.0.0-Full/MotorControl/MCSDK/MCLib/Any/Src/r_divider_bus_voltage_sensor.c ****     /* Check */
  64:MCSDK_v6.0.0-Full/MotorControl/MCSDK/MCLib/Any/Src/r_divider_bus_voltage_sensor.c ****     RVBS_Clear(pHandle);
  65:MCSDK_v6.0.0-Full/MotorControl/MCSDK/MCLib/Any/Src/r_divider_bus_voltage_sensor.c **** #ifdef NULL_PTR_RDIV_BUS_VLT_SNS
  66:MCSDK_v6.0.0-Full/MotorControl/MCSDK/MCLib/Any/Src/r_divider_bus_voltage_sensor.c ****   }
  67:MCSDK_v6.0.0-Full/MotorControl/MCSDK/MCLib/Any/Src/r_divider_bus_voltage_sensor.c **** #endif
  68:MCSDK_v6.0.0-Full/MotorControl/MCSDK/MCLib/Any/Src/r_divider_bus_voltage_sensor.c **** }
  69:MCSDK_v6.0.0-Full/MotorControl/MCSDK/MCLib/Any/Src/r_divider_bus_voltage_sensor.c **** 
  70:MCSDK_v6.0.0-Full/MotorControl/MCSDK/MCLib/Any/Src/r_divider_bus_voltage_sensor.c **** 
  71:MCSDK_v6.0.0-Full/MotorControl/MCSDK/MCLib/Any/Src/r_divider_bus_voltage_sensor.c **** /**
  72:MCSDK_v6.0.0-Full/MotorControl/MCSDK/MCLib/Any/Src/r_divider_bus_voltage_sensor.c ****   * @brief  It clears bus voltage FW variable containing average bus voltage
  73:MCSDK_v6.0.0-Full/MotorControl/MCSDK/MCLib/Any/Src/r_divider_bus_voltage_sensor.c ****   *         value
  74:MCSDK_v6.0.0-Full/MotorControl/MCSDK/MCLib/Any/Src/r_divider_bus_voltage_sensor.c ****   * @param  pHandle related RDivider_Handle_t
  75:MCSDK_v6.0.0-Full/MotorControl/MCSDK/MCLib/Any/Src/r_divider_bus_voltage_sensor.c ****   * @retval none
  76:MCSDK_v6.0.0-Full/MotorControl/MCSDK/MCLib/Any/Src/r_divider_bus_voltage_sensor.c ****   */
  77:MCSDK_v6.0.0-Full/MotorControl/MCSDK/MCLib/Any/Src/r_divider_bus_voltage_sensor.c **** __weak void RVBS_Clear(RDivider_Handle_t *pHandle)
  78:MCSDK_v6.0.0-Full/MotorControl/MCSDK/MCLib/Any/Src/r_divider_bus_voltage_sensor.c **** {
  79:MCSDK_v6.0.0-Full/MotorControl/MCSDK/MCLib/Any/Src/r_divider_bus_voltage_sensor.c **** #ifdef NULL_PTR_RDIV_BUS_VLT_SNS
  80:MCSDK_v6.0.0-Full/MotorControl/MCSDK/MCLib/Any/Src/r_divider_bus_voltage_sensor.c ****   if (MC_NULL == pHandle)
  81:MCSDK_v6.0.0-Full/MotorControl/MCSDK/MCLib/Any/Src/r_divider_bus_voltage_sensor.c ****   {
  82:MCSDK_v6.0.0-Full/MotorControl/MCSDK/MCLib/Any/Src/r_divider_bus_voltage_sensor.c ****     /* Nothing to do */
  83:MCSDK_v6.0.0-Full/MotorControl/MCSDK/MCLib/Any/Src/r_divider_bus_voltage_sensor.c ****   }
  84:MCSDK_v6.0.0-Full/MotorControl/MCSDK/MCLib/Any/Src/r_divider_bus_voltage_sensor.c ****   else
  85:MCSDK_v6.0.0-Full/MotorControl/MCSDK/MCLib/Any/Src/r_divider_bus_voltage_sensor.c ****   {
  86:MCSDK_v6.0.0-Full/MotorControl/MCSDK/MCLib/Any/Src/r_divider_bus_voltage_sensor.c **** #endif
  87:MCSDK_v6.0.0-Full/MotorControl/MCSDK/MCLib/Any/Src/r_divider_bus_voltage_sensor.c ****     uint16_t aux;
ARM GAS  /tmp/ccKoViEi.s 			page 3


  88:MCSDK_v6.0.0-Full/MotorControl/MCSDK/MCLib/Any/Src/r_divider_bus_voltage_sensor.c ****     uint16_t index;
  89:MCSDK_v6.0.0-Full/MotorControl/MCSDK/MCLib/Any/Src/r_divider_bus_voltage_sensor.c **** 
  90:MCSDK_v6.0.0-Full/MotorControl/MCSDK/MCLib/Any/Src/r_divider_bus_voltage_sensor.c ****     aux = (pHandle->OverVoltageThreshold + pHandle->UnderVoltageThreshold) / 2U;
  91:MCSDK_v6.0.0-Full/MotorControl/MCSDK/MCLib/Any/Src/r_divider_bus_voltage_sensor.c ****     for (index = 0U; index < pHandle->LowPassFilterBW; index++)
  92:MCSDK_v6.0.0-Full/MotorControl/MCSDK/MCLib/Any/Src/r_divider_bus_voltage_sensor.c ****     {
  93:MCSDK_v6.0.0-Full/MotorControl/MCSDK/MCLib/Any/Src/r_divider_bus_voltage_sensor.c ****       pHandle->aBuffer[index] = aux;
  94:MCSDK_v6.0.0-Full/MotorControl/MCSDK/MCLib/Any/Src/r_divider_bus_voltage_sensor.c ****     }
  95:MCSDK_v6.0.0-Full/MotorControl/MCSDK/MCLib/Any/Src/r_divider_bus_voltage_sensor.c ****     pHandle->_Super.LatestConv = aux;
  96:MCSDK_v6.0.0-Full/MotorControl/MCSDK/MCLib/Any/Src/r_divider_bus_voltage_sensor.c ****     pHandle->_Super.AvBusVoltage_d = aux;
  97:MCSDK_v6.0.0-Full/MotorControl/MCSDK/MCLib/Any/Src/r_divider_bus_voltage_sensor.c ****     pHandle->index = 0U;
  98:MCSDK_v6.0.0-Full/MotorControl/MCSDK/MCLib/Any/Src/r_divider_bus_voltage_sensor.c **** #ifdef NULL_PTR_RDIV_BUS_VLT_SNS
  99:MCSDK_v6.0.0-Full/MotorControl/MCSDK/MCLib/Any/Src/r_divider_bus_voltage_sensor.c ****   }
 100:MCSDK_v6.0.0-Full/MotorControl/MCSDK/MCLib/Any/Src/r_divider_bus_voltage_sensor.c **** #endif
 101:MCSDK_v6.0.0-Full/MotorControl/MCSDK/MCLib/Any/Src/r_divider_bus_voltage_sensor.c **** }
 102:MCSDK_v6.0.0-Full/MotorControl/MCSDK/MCLib/Any/Src/r_divider_bus_voltage_sensor.c **** 
 103:MCSDK_v6.0.0-Full/MotorControl/MCSDK/MCLib/Any/Src/r_divider_bus_voltage_sensor.c **** static uint16_t RVBS_ConvertVbusFiltrered(RDivider_Handle_t *pHandle)
 104:MCSDK_v6.0.0-Full/MotorControl/MCSDK/MCLib/Any/Src/r_divider_bus_voltage_sensor.c **** {
  29              		.loc 1 104 1 view -0
  30              		.cfi_startproc
  31              		@ args = 0, pretend = 0, frame = 0
  32              		@ frame_needed = 0, uses_anonymous_args = 0
  33              		.loc 1 104 1 is_stmt 0 view .LVU1
  34 0000 2DE9F041 		push	{r4, r5, r6, r7, r8, lr}
  35              		.cfi_def_cfa_offset 24
  36              		.cfi_offset 4, -24
  37              		.cfi_offset 5, -20
  38              		.cfi_offset 6, -16
  39              		.cfi_offset 7, -12
  40              		.cfi_offset 8, -8
  41              		.cfi_offset 14, -4
  42 0004 0446     		mov	r4, r0
 105:MCSDK_v6.0.0-Full/MotorControl/MCSDK/MCLib/Any/Src/r_divider_bus_voltage_sensor.c **** 
 106:MCSDK_v6.0.0-Full/MotorControl/MCSDK/MCLib/Any/Src/r_divider_bus_voltage_sensor.c **** 
 107:MCSDK_v6.0.0-Full/MotorControl/MCSDK/MCLib/Any/Src/r_divider_bus_voltage_sensor.c ****   uint32_t tot = 0U;
  43              		.loc 1 107 3 is_stmt 1 view .LVU2
  44              	.LVL1:
 108:MCSDK_v6.0.0-Full/MotorControl/MCSDK/MCLib/Any/Src/r_divider_bus_voltage_sensor.c ****   uint16_t hAux;
  45              		.loc 1 108 3 view .LVU3
 109:MCSDK_v6.0.0-Full/MotorControl/MCSDK/MCLib/Any/Src/r_divider_bus_voltage_sensor.c ****   uint16_t max = 0U;
  46              		.loc 1 109 3 view .LVU4
 110:MCSDK_v6.0.0-Full/MotorControl/MCSDK/MCLib/Any/Src/r_divider_bus_voltage_sensor.c ****   uint16_t min = 0U;
  47              		.loc 1 110 3 view .LVU5
 111:MCSDK_v6.0.0-Full/MotorControl/MCSDK/MCLib/Any/Src/r_divider_bus_voltage_sensor.c ****   uint16_t tempValue;
  48              		.loc 1 111 3 view .LVU6
 112:MCSDK_v6.0.0-Full/MotorControl/MCSDK/MCLib/Any/Src/r_divider_bus_voltage_sensor.c ****   uint8_t vindex;
  49              		.loc 1 112 3 view .LVU7
 113:MCSDK_v6.0.0-Full/MotorControl/MCSDK/MCLib/Any/Src/r_divider_bus_voltage_sensor.c **** 
 114:MCSDK_v6.0.0-Full/MotorControl/MCSDK/MCLib/Any/Src/r_divider_bus_voltage_sensor.c ****   for (vindex = 0U; vindex < pHandle->LowPassFilterBW; vindex++)
  50              		.loc 1 114 3 view .LVU8
  51              		.loc 1 114 15 is_stmt 0 view .LVU9
  52 0006 0025     		movs	r5, #0
 110:MCSDK_v6.0.0-Full/MotorControl/MCSDK/MCLib/Any/Src/r_divider_bus_voltage_sensor.c ****   uint16_t tempValue;
  53              		.loc 1 110 12 view .LVU10
  54 0008 2F46     		mov	r7, r5
 109:MCSDK_v6.0.0-Full/MotorControl/MCSDK/MCLib/Any/Src/r_divider_bus_voltage_sensor.c ****   uint16_t min = 0U;
  55              		.loc 1 109 12 view .LVU11
  56 000a A846     		mov	r8, r5
ARM GAS  /tmp/ccKoViEi.s 			page 4


 107:MCSDK_v6.0.0-Full/MotorControl/MCSDK/MCLib/Any/Src/r_divider_bus_voltage_sensor.c ****   uint16_t hAux;
  57              		.loc 1 107 12 view .LVU12
  58 000c 2E46     		mov	r6, r5
  59              		.loc 1 114 3 view .LVU13
  60 000e 14E0     		b	.L2
  61              	.LVL2:
  62              	.L4:
 115:MCSDK_v6.0.0-Full/MotorControl/MCSDK/MCLib/Any/Src/r_divider_bus_voltage_sensor.c ****   {
 116:MCSDK_v6.0.0-Full/MotorControl/MCSDK/MCLib/Any/Src/r_divider_bus_voltage_sensor.c ****     hAux = RCM_ExecRegularConv(pHandle->convHandle);
 117:MCSDK_v6.0.0-Full/MotorControl/MCSDK/MCLib/Any/Src/r_divider_bus_voltage_sensor.c ****     while (0xFFFFU == hAux)
 118:MCSDK_v6.0.0-Full/MotorControl/MCSDK/MCLib/Any/Src/r_divider_bus_voltage_sensor.c ****     {
 119:MCSDK_v6.0.0-Full/MotorControl/MCSDK/MCLib/Any/Src/r_divider_bus_voltage_sensor.c ****       hAux = RCM_ExecRegularConv(pHandle->convHandle);
  63              		.loc 1 119 7 is_stmt 1 view .LVU14
  64              		.loc 1 119 14 is_stmt 0 view .LVU15
  65 0010 94F82600 		ldrb	r0, [r4, #38]	@ zero_extendqisi2
  66              	.LVL3:
  67              		.loc 1 119 14 view .LVU16
  68 0014 FFF7FEFF 		bl	RCM_ExecRegularConv
  69              	.LVL4:
  70              	.L3:
 117:MCSDK_v6.0.0-Full/MotorControl/MCSDK/MCLib/Any/Src/r_divider_bus_voltage_sensor.c ****     {
  71              		.loc 1 117 11 is_stmt 1 view .LVU17
  72 0018 4FF6FF73 		movw	r3, #65535
  73 001c 9842     		cmp	r0, r3
  74 001e F7D0     		beq	.L4
 120:MCSDK_v6.0.0-Full/MotorControl/MCSDK/MCLib/Any/Src/r_divider_bus_voltage_sensor.c ****     }
 121:MCSDK_v6.0.0-Full/MotorControl/MCSDK/MCLib/Any/Src/r_divider_bus_voltage_sensor.c **** 
 122:MCSDK_v6.0.0-Full/MotorControl/MCSDK/MCLib/Any/Src/r_divider_bus_voltage_sensor.c ****     if (0U == vindex)
  75              		.loc 1 122 5 view .LVU18
  76              		.loc 1 122 8 is_stmt 0 view .LVU19
  77 0020 35B1     		cbz	r5, .L8
 123:MCSDK_v6.0.0-Full/MotorControl/MCSDK/MCLib/Any/Src/r_divider_bus_voltage_sensor.c ****     {
 124:MCSDK_v6.0.0-Full/MotorControl/MCSDK/MCLib/Any/Src/r_divider_bus_voltage_sensor.c ****       min = hAux;
 125:MCSDK_v6.0.0-Full/MotorControl/MCSDK/MCLib/Any/Src/r_divider_bus_voltage_sensor.c ****       max = hAux;
 126:MCSDK_v6.0.0-Full/MotorControl/MCSDK/MCLib/Any/Src/r_divider_bus_voltage_sensor.c ****     }
 127:MCSDK_v6.0.0-Full/MotorControl/MCSDK/MCLib/Any/Src/r_divider_bus_voltage_sensor.c ****     else
 128:MCSDK_v6.0.0-Full/MotorControl/MCSDK/MCLib/Any/Src/r_divider_bus_voltage_sensor.c ****     {
 129:MCSDK_v6.0.0-Full/MotorControl/MCSDK/MCLib/Any/Src/r_divider_bus_voltage_sensor.c ****       if (hAux < min)
  78              		.loc 1 129 7 is_stmt 1 view .LVU20
  79              		.loc 1 129 10 is_stmt 0 view .LVU21
  80 0022 B842     		cmp	r0, r7
  81 0024 00D2     		bcs	.L6
 130:MCSDK_v6.0.0-Full/MotorControl/MCSDK/MCLib/Any/Src/r_divider_bus_voltage_sensor.c ****       {
 131:MCSDK_v6.0.0-Full/MotorControl/MCSDK/MCLib/Any/Src/r_divider_bus_voltage_sensor.c ****         min = hAux;
  82              		.loc 1 131 13 view .LVU22
  83 0026 0746     		mov	r7, r0
  84              	.LVL5:
  85              	.L6:
 132:MCSDK_v6.0.0-Full/MotorControl/MCSDK/MCLib/Any/Src/r_divider_bus_voltage_sensor.c ****       }
 133:MCSDK_v6.0.0-Full/MotorControl/MCSDK/MCLib/Any/Src/r_divider_bus_voltage_sensor.c ****       else
 134:MCSDK_v6.0.0-Full/MotorControl/MCSDK/MCLib/Any/Src/r_divider_bus_voltage_sensor.c ****       {
 135:MCSDK_v6.0.0-Full/MotorControl/MCSDK/MCLib/Any/Src/r_divider_bus_voltage_sensor.c ****         /* Nothing to do */
 136:MCSDK_v6.0.0-Full/MotorControl/MCSDK/MCLib/Any/Src/r_divider_bus_voltage_sensor.c ****       }
  86              		.loc 1 136 7 is_stmt 1 view .LVU23
 137:MCSDK_v6.0.0-Full/MotorControl/MCSDK/MCLib/Any/Src/r_divider_bus_voltage_sensor.c ****       if (hAux > max)
  87              		.loc 1 137 7 view .LVU24
  88              		.loc 1 137 10 is_stmt 0 view .LVU25
ARM GAS  /tmp/ccKoViEi.s 			page 5


  89 0028 4045     		cmp	r0, r8
  90 002a 03D9     		bls	.L5
 138:MCSDK_v6.0.0-Full/MotorControl/MCSDK/MCLib/Any/Src/r_divider_bus_voltage_sensor.c ****       {
 139:MCSDK_v6.0.0-Full/MotorControl/MCSDK/MCLib/Any/Src/r_divider_bus_voltage_sensor.c ****         max = hAux;
  91              		.loc 1 139 13 view .LVU26
  92 002c 8046     		mov	r8, r0
  93              	.LVL6:
  94              		.loc 1 139 13 view .LVU27
  95 002e 01E0     		b	.L5
  96              	.LVL7:
  97              	.L8:
 124:MCSDK_v6.0.0-Full/MotorControl/MCSDK/MCLib/Any/Src/r_divider_bus_voltage_sensor.c ****       max = hAux;
  98              		.loc 1 124 11 view .LVU28
  99 0030 0746     		mov	r7, r0
 100              	.LVL8:
 125:MCSDK_v6.0.0-Full/MotorControl/MCSDK/MCLib/Any/Src/r_divider_bus_voltage_sensor.c ****     }
 101              		.loc 1 125 11 view .LVU29
 102 0032 8046     		mov	r8, r0
 103              	.LVL9:
 104              	.L5:
 140:MCSDK_v6.0.0-Full/MotorControl/MCSDK/MCLib/Any/Src/r_divider_bus_voltage_sensor.c ****       }
 141:MCSDK_v6.0.0-Full/MotorControl/MCSDK/MCLib/Any/Src/r_divider_bus_voltage_sensor.c ****       else
 142:MCSDK_v6.0.0-Full/MotorControl/MCSDK/MCLib/Any/Src/r_divider_bus_voltage_sensor.c ****       {
 143:MCSDK_v6.0.0-Full/MotorControl/MCSDK/MCLib/Any/Src/r_divider_bus_voltage_sensor.c ****         /* Nothing to do */
 144:MCSDK_v6.0.0-Full/MotorControl/MCSDK/MCLib/Any/Src/r_divider_bus_voltage_sensor.c ****       }
 105              		.loc 1 144 7 is_stmt 1 discriminator 2 view .LVU30
 145:MCSDK_v6.0.0-Full/MotorControl/MCSDK/MCLib/Any/Src/r_divider_bus_voltage_sensor.c ****     }
 146:MCSDK_v6.0.0-Full/MotorControl/MCSDK/MCLib/Any/Src/r_divider_bus_voltage_sensor.c **** 
 147:MCSDK_v6.0.0-Full/MotorControl/MCSDK/MCLib/Any/Src/r_divider_bus_voltage_sensor.c ****     tot += hAux;
 106              		.loc 1 147 5 discriminator 2 view .LVU31
 107              		.loc 1 147 9 is_stmt 0 discriminator 2 view .LVU32
 108 0034 0644     		add	r6, r6, r0
 109              	.LVL10:
 114:MCSDK_v6.0.0-Full/MotorControl/MCSDK/MCLib/Any/Src/r_divider_bus_voltage_sensor.c ****   {
 110              		.loc 1 114 56 is_stmt 1 discriminator 2 view .LVU33
 114:MCSDK_v6.0.0-Full/MotorControl/MCSDK/MCLib/Any/Src/r_divider_bus_voltage_sensor.c ****   {
 111              		.loc 1 114 62 is_stmt 0 discriminator 2 view .LVU34
 112 0036 0135     		adds	r5, r5, #1
 113              	.LVL11:
 114:MCSDK_v6.0.0-Full/MotorControl/MCSDK/MCLib/Any/Src/r_divider_bus_voltage_sensor.c ****   {
 114              		.loc 1 114 62 discriminator 2 view .LVU35
 115 0038 EDB2     		uxtb	r5, r5
 116              	.LVL12:
 117              	.L2:
 114:MCSDK_v6.0.0-Full/MotorControl/MCSDK/MCLib/Any/Src/r_divider_bus_voltage_sensor.c ****   {
 118              		.loc 1 114 21 is_stmt 1 discriminator 1 view .LVU36
 114:MCSDK_v6.0.0-Full/MotorControl/MCSDK/MCLib/Any/Src/r_divider_bus_voltage_sensor.c ****   {
 119              		.loc 1 114 28 is_stmt 0 discriminator 1 view .LVU37
 120 003a ABB2     		uxth	r3, r5
 114:MCSDK_v6.0.0-Full/MotorControl/MCSDK/MCLib/Any/Src/r_divider_bus_voltage_sensor.c ****   {
 121              		.loc 1 114 37 discriminator 1 view .LVU38
 122 003c 228B     		ldrh	r2, [r4, #24]
 114:MCSDK_v6.0.0-Full/MotorControl/MCSDK/MCLib/Any/Src/r_divider_bus_voltage_sensor.c ****   {
 123              		.loc 1 114 3 discriminator 1 view .LVU39
 124 003e 9342     		cmp	r3, r2
 125 0040 04D2     		bcs	.L12
 116:MCSDK_v6.0.0-Full/MotorControl/MCSDK/MCLib/Any/Src/r_divider_bus_voltage_sensor.c ****     while (0xFFFFU == hAux)
ARM GAS  /tmp/ccKoViEi.s 			page 6


 126              		.loc 1 116 5 is_stmt 1 view .LVU40
 116:MCSDK_v6.0.0-Full/MotorControl/MCSDK/MCLib/Any/Src/r_divider_bus_voltage_sensor.c ****     while (0xFFFFU == hAux)
 127              		.loc 1 116 12 is_stmt 0 view .LVU41
 128 0042 94F82600 		ldrb	r0, [r4, #38]	@ zero_extendqisi2
 129 0046 FFF7FEFF 		bl	RCM_ExecRegularConv
 130              	.LVL13:
 117:MCSDK_v6.0.0-Full/MotorControl/MCSDK/MCLib/Any/Src/r_divider_bus_voltage_sensor.c ****     {
 131              		.loc 1 117 5 is_stmt 1 view .LVU42
 117:MCSDK_v6.0.0-Full/MotorControl/MCSDK/MCLib/Any/Src/r_divider_bus_voltage_sensor.c ****     {
 132              		.loc 1 117 11 is_stmt 0 view .LVU43
 133 004a E5E7     		b	.L3
 134              	.LVL14:
 135              	.L12:
 148:MCSDK_v6.0.0-Full/MotorControl/MCSDK/MCLib/Any/Src/r_divider_bus_voltage_sensor.c ****   }
 149:MCSDK_v6.0.0-Full/MotorControl/MCSDK/MCLib/Any/Src/r_divider_bus_voltage_sensor.c **** 
 150:MCSDK_v6.0.0-Full/MotorControl/MCSDK/MCLib/Any/Src/r_divider_bus_voltage_sensor.c ****   tot -= max;
 136              		.loc 1 150 3 is_stmt 1 view .LVU44
 137              		.loc 1 150 7 is_stmt 0 view .LVU45
 138 004c A6EB0800 		sub	r0, r6, r8
 139              	.LVL15:
 151:MCSDK_v6.0.0-Full/MotorControl/MCSDK/MCLib/Any/Src/r_divider_bus_voltage_sensor.c ****   tot -= min;
 140              		.loc 1 151 3 is_stmt 1 view .LVU46
 141              		.loc 1 151 7 is_stmt 0 view .LVU47
 142 0050 C01B     		subs	r0, r0, r7
 143              	.LVL16:
 152:MCSDK_v6.0.0-Full/MotorControl/MCSDK/MCLib/Any/Src/r_divider_bus_voltage_sensor.c ****   tempValue = (uint16_t)(tot / (uint16_t)(pHandle->LowPassFilterBW - 2U));
 144              		.loc 1 152 3 is_stmt 1 view .LVU48
 145              		.loc 1 152 32 is_stmt 0 view .LVU49
 146 0052 931E     		subs	r3, r2, #2
 147 0054 9BB2     		uxth	r3, r3
 148              		.loc 1 152 30 view .LVU50
 149 0056 B0FBF3F0 		udiv	r0, r0, r3
 150              	.LVL17:
 153:MCSDK_v6.0.0-Full/MotorControl/MCSDK/MCLib/Any/Src/r_divider_bus_voltage_sensor.c ****   return (tempValue);
 151              		.loc 1 153 3 is_stmt 1 view .LVU51
 154:MCSDK_v6.0.0-Full/MotorControl/MCSDK/MCLib/Any/Src/r_divider_bus_voltage_sensor.c **** }
 152              		.loc 1 154 1 is_stmt 0 view .LVU52
 153 005a 80B2     		uxth	r0, r0
 154              		.loc 1 154 1 view .LVU53
 155 005c BDE8F081 		pop	{r4, r5, r6, r7, r8, pc}
 156              		.loc 1 154 1 view .LVU54
 157              		.cfi_endproc
 158              	.LFE1437:
 160              		.section	.text.RVBS_Clear,"ax",%progbits
 161              		.align	1
 162              		.weak	RVBS_Clear
 163              		.syntax unified
 164              		.thumb
 165              		.thumb_func
 166              		.fpu fpv4-sp-d16
 168              	RVBS_Clear:
 169              	.LVL18:
 170              	.LFB1436:
  78:MCSDK_v6.0.0-Full/MotorControl/MCSDK/MCLib/Any/Src/r_divider_bus_voltage_sensor.c **** #ifdef NULL_PTR_RDIV_BUS_VLT_SNS
 171              		.loc 1 78 1 is_stmt 1 view -0
 172              		.cfi_startproc
 173              		@ args = 0, pretend = 0, frame = 0
ARM GAS  /tmp/ccKoViEi.s 			page 7


 174              		@ frame_needed = 0, uses_anonymous_args = 0
 175              		@ link register save eliminated.
  87:MCSDK_v6.0.0-Full/MotorControl/MCSDK/MCLib/Any/Src/r_divider_bus_voltage_sensor.c ****     uint16_t index;
 176              		.loc 1 87 5 view .LVU56
  88:MCSDK_v6.0.0-Full/MotorControl/MCSDK/MCLib/Any/Src/r_divider_bus_voltage_sensor.c **** 
 177              		.loc 1 88 5 view .LVU57
  90:MCSDK_v6.0.0-Full/MotorControl/MCSDK/MCLib/Any/Src/r_divider_bus_voltage_sensor.c ****     for (index = 0U; index < pHandle->LowPassFilterBW; index++)
 178              		.loc 1 90 5 view .LVU58
  90:MCSDK_v6.0.0-Full/MotorControl/MCSDK/MCLib/Any/Src/r_divider_bus_voltage_sensor.c ****     for (index = 0U; index < pHandle->LowPassFilterBW; index++)
 179              		.loc 1 90 19 is_stmt 0 view .LVU59
 180 0000 418B     		ldrh	r1, [r0, #26]
  90:MCSDK_v6.0.0-Full/MotorControl/MCSDK/MCLib/Any/Src/r_divider_bus_voltage_sensor.c ****     for (index = 0U; index < pHandle->LowPassFilterBW; index++)
 181              		.loc 1 90 51 view .LVU60
 182 0002 838B     		ldrh	r3, [r0, #28]
  90:MCSDK_v6.0.0-Full/MotorControl/MCSDK/MCLib/Any/Src/r_divider_bus_voltage_sensor.c ****     for (index = 0U; index < pHandle->LowPassFilterBW; index++)
 183              		.loc 1 90 42 view .LVU61
 184 0004 1944     		add	r1, r1, r3
  90:MCSDK_v6.0.0-Full/MotorControl/MCSDK/MCLib/Any/Src/r_divider_bus_voltage_sensor.c ****     for (index = 0U; index < pHandle->LowPassFilterBW; index++)
 185              		.loc 1 90 9 view .LVU62
 186 0006 4908     		lsrs	r1, r1, #1
 187              	.LVL19:
  91:MCSDK_v6.0.0-Full/MotorControl/MCSDK/MCLib/Any/Src/r_divider_bus_voltage_sensor.c ****     {
 188              		.loc 1 91 5 is_stmt 1 view .LVU63
  91:MCSDK_v6.0.0-Full/MotorControl/MCSDK/MCLib/Any/Src/r_divider_bus_voltage_sensor.c ****     {
 189              		.loc 1 91 16 is_stmt 0 view .LVU64
 190 0008 0023     		movs	r3, #0
 191              	.LVL20:
 192              	.L14:
  91:MCSDK_v6.0.0-Full/MotorControl/MCSDK/MCLib/Any/Src/r_divider_bus_voltage_sensor.c ****     {
 193              		.loc 1 91 22 is_stmt 1 discriminator 1 view .LVU65
  91:MCSDK_v6.0.0-Full/MotorControl/MCSDK/MCLib/Any/Src/r_divider_bus_voltage_sensor.c ****     {
 194              		.loc 1 91 37 is_stmt 0 discriminator 1 view .LVU66
 195 000a 028B     		ldrh	r2, [r0, #24]
  91:MCSDK_v6.0.0-Full/MotorControl/MCSDK/MCLib/Any/Src/r_divider_bus_voltage_sensor.c ****     {
 196              		.loc 1 91 5 discriminator 1 view .LVU67
 197 000c 9A42     		cmp	r2, r3
 198 000e 05D9     		bls	.L16
  93:MCSDK_v6.0.0-Full/MotorControl/MCSDK/MCLib/Any/Src/r_divider_bus_voltage_sensor.c ****     }
 199              		.loc 1 93 7 is_stmt 1 discriminator 3 view .LVU68
  93:MCSDK_v6.0.0-Full/MotorControl/MCSDK/MCLib/Any/Src/r_divider_bus_voltage_sensor.c ****     }
 200              		.loc 1 93 14 is_stmt 0 discriminator 3 view .LVU69
 201 0010 026A     		ldr	r2, [r0, #32]
  93:MCSDK_v6.0.0-Full/MotorControl/MCSDK/MCLib/Any/Src/r_divider_bus_voltage_sensor.c ****     }
 202              		.loc 1 93 31 discriminator 3 view .LVU70
 203 0012 22F81310 		strh	r1, [r2, r3, lsl #1]	@ movhi
  91:MCSDK_v6.0.0-Full/MotorControl/MCSDK/MCLib/Any/Src/r_divider_bus_voltage_sensor.c ****     {
 204              		.loc 1 91 56 is_stmt 1 discriminator 3 view .LVU71
  91:MCSDK_v6.0.0-Full/MotorControl/MCSDK/MCLib/Any/Src/r_divider_bus_voltage_sensor.c ****     {
 205              		.loc 1 91 61 is_stmt 0 discriminator 3 view .LVU72
 206 0016 0133     		adds	r3, r3, #1
 207              	.LVL21:
  91:MCSDK_v6.0.0-Full/MotorControl/MCSDK/MCLib/Any/Src/r_divider_bus_voltage_sensor.c ****     {
 208              		.loc 1 91 61 discriminator 3 view .LVU73
 209 0018 9BB2     		uxth	r3, r3
 210              	.LVL22:
  91:MCSDK_v6.0.0-Full/MotorControl/MCSDK/MCLib/Any/Src/r_divider_bus_voltage_sensor.c ****     {
 211              		.loc 1 91 61 discriminator 3 view .LVU74
ARM GAS  /tmp/ccKoViEi.s 			page 8


 212 001a F6E7     		b	.L14
 213              	.L16:
  95:MCSDK_v6.0.0-Full/MotorControl/MCSDK/MCLib/Any/Src/r_divider_bus_voltage_sensor.c ****     pHandle->_Super.AvBusVoltage_d = aux;
 214              		.loc 1 95 5 is_stmt 1 view .LVU75
  95:MCSDK_v6.0.0-Full/MotorControl/MCSDK/MCLib/Any/Src/r_divider_bus_voltage_sensor.c ****     pHandle->_Super.AvBusVoltage_d = aux;
 215              		.loc 1 95 32 is_stmt 0 view .LVU76
 216 001c 8180     		strh	r1, [r0, #4]	@ movhi
  96:MCSDK_v6.0.0-Full/MotorControl/MCSDK/MCLib/Any/Src/r_divider_bus_voltage_sensor.c ****     pHandle->index = 0U;
 217              		.loc 1 96 5 is_stmt 1 view .LVU77
  96:MCSDK_v6.0.0-Full/MotorControl/MCSDK/MCLib/Any/Src/r_divider_bus_voltage_sensor.c ****     pHandle->index = 0U;
 218              		.loc 1 96 36 is_stmt 0 view .LVU78
 219 001e C180     		strh	r1, [r0, #6]	@ movhi
  97:MCSDK_v6.0.0-Full/MotorControl/MCSDK/MCLib/Any/Src/r_divider_bus_voltage_sensor.c **** #ifdef NULL_PTR_RDIV_BUS_VLT_SNS
 220              		.loc 1 97 5 is_stmt 1 view .LVU79
  97:MCSDK_v6.0.0-Full/MotorControl/MCSDK/MCLib/Any/Src/r_divider_bus_voltage_sensor.c **** #ifdef NULL_PTR_RDIV_BUS_VLT_SNS
 221              		.loc 1 97 20 is_stmt 0 view .LVU80
 222 0020 0023     		movs	r3, #0
 223              	.LVL23:
  97:MCSDK_v6.0.0-Full/MotorControl/MCSDK/MCLib/Any/Src/r_divider_bus_voltage_sensor.c **** #ifdef NULL_PTR_RDIV_BUS_VLT_SNS
 224              		.loc 1 97 20 view .LVU81
 225 0022 80F82530 		strb	r3, [r0, #37]
 101:MCSDK_v6.0.0-Full/MotorControl/MCSDK/MCLib/Any/Src/r_divider_bus_voltage_sensor.c **** 
 226              		.loc 1 101 1 view .LVU82
 227 0026 7047     		bx	lr
 228              		.cfi_endproc
 229              	.LFE1436:
 231              		.section	.text.RVBS_Init,"ax",%progbits
 232              		.align	1
 233              		.weak	RVBS_Init
 234              		.syntax unified
 235              		.thumb
 236              		.thumb_func
 237              		.fpu fpv4-sp-d16
 239              	RVBS_Init:
 240              	.LVL24:
 241              	.LFB1435:
  52:MCSDK_v6.0.0-Full/MotorControl/MCSDK/MCLib/Any/Src/r_divider_bus_voltage_sensor.c **** #ifdef NULL_PTR_RDIV_BUS_VLT_SNS
 242              		.loc 1 52 1 is_stmt 1 view -0
 243              		.cfi_startproc
 244              		@ args = 0, pretend = 0, frame = 0
 245              		@ frame_needed = 0, uses_anonymous_args = 0
  52:MCSDK_v6.0.0-Full/MotorControl/MCSDK/MCLib/Any/Src/r_divider_bus_voltage_sensor.c **** #ifdef NULL_PTR_RDIV_BUS_VLT_SNS
 246              		.loc 1 52 1 is_stmt 0 view .LVU84
 247 0000 10B5     		push	{r4, lr}
 248              		.cfi_def_cfa_offset 8
 249              		.cfi_offset 4, -8
 250              		.cfi_offset 14, -4
 251 0002 0446     		mov	r4, r0
  62:MCSDK_v6.0.0-Full/MotorControl/MCSDK/MCLib/Any/Src/r_divider_bus_voltage_sensor.c ****     /* Check */
 252              		.loc 1 62 5 is_stmt 1 view .LVU85
  62:MCSDK_v6.0.0-Full/MotorControl/MCSDK/MCLib/Any/Src/r_divider_bus_voltage_sensor.c ****     /* Check */
 253              		.loc 1 62 27 is_stmt 0 view .LVU86
 254 0004 0C30     		adds	r0, r0, #12
 255              	.LVL25:
  62:MCSDK_v6.0.0-Full/MotorControl/MCSDK/MCLib/Any/Src/r_divider_bus_voltage_sensor.c ****     /* Check */
 256              		.loc 1 62 27 view .LVU87
 257 0006 FFF7FEFF 		bl	RCM_RegisterRegConv
ARM GAS  /tmp/ccKoViEi.s 			page 9


 258              	.LVL26:
  62:MCSDK_v6.0.0-Full/MotorControl/MCSDK/MCLib/Any/Src/r_divider_bus_voltage_sensor.c ****     /* Check */
 259              		.loc 1 62 25 view .LVU88
 260 000a 84F82600 		strb	r0, [r4, #38]
  64:MCSDK_v6.0.0-Full/MotorControl/MCSDK/MCLib/Any/Src/r_divider_bus_voltage_sensor.c **** #ifdef NULL_PTR_RDIV_BUS_VLT_SNS
 261              		.loc 1 64 5 is_stmt 1 view .LVU89
 262 000e 2046     		mov	r0, r4
 263 0010 FFF7FEFF 		bl	RVBS_Clear
 264              	.LVL27:
  68:MCSDK_v6.0.0-Full/MotorControl/MCSDK/MCLib/Any/Src/r_divider_bus_voltage_sensor.c **** 
 265              		.loc 1 68 1 is_stmt 0 view .LVU90
 266 0014 10BD     		pop	{r4, pc}
  68:MCSDK_v6.0.0-Full/MotorControl/MCSDK/MCLib/Any/Src/r_divider_bus_voltage_sensor.c **** 
 267              		.loc 1 68 1 view .LVU91
 268              		.cfi_endproc
 269              	.LFE1435:
 271              		.section	.text.RVBS_CheckFaultState,"ax",%progbits
 272              		.align	1
 273              		.weak	RVBS_CheckFaultState
 274              		.syntax unified
 275              		.thumb
 276              		.thumb_func
 277              		.fpu fpv4-sp-d16
 279              	RVBS_CheckFaultState:
 280              	.LVL28:
 281              	.LFB1440:
 155:MCSDK_v6.0.0-Full/MotorControl/MCSDK/MCLib/Any/Src/r_divider_bus_voltage_sensor.c **** 
 156:MCSDK_v6.0.0-Full/MotorControl/MCSDK/MCLib/Any/Src/r_divider_bus_voltage_sensor.c **** /**
 157:MCSDK_v6.0.0-Full/MotorControl/MCSDK/MCLib/Any/Src/r_divider_bus_voltage_sensor.c ****   * @brief  It actually performes the Vbus ADC conversion and updates average
 158:MCSDK_v6.0.0-Full/MotorControl/MCSDK/MCLib/Any/Src/r_divider_bus_voltage_sensor.c ****   *         value
 159:MCSDK_v6.0.0-Full/MotorControl/MCSDK/MCLib/Any/Src/r_divider_bus_voltage_sensor.c ****   * @param  pHandle related RDivider_Handle_t
 160:MCSDK_v6.0.0-Full/MotorControl/MCSDK/MCLib/Any/Src/r_divider_bus_voltage_sensor.c ****   * @retval uint16_t Fault code error
 161:MCSDK_v6.0.0-Full/MotorControl/MCSDK/MCLib/Any/Src/r_divider_bus_voltage_sensor.c ****   */
 162:MCSDK_v6.0.0-Full/MotorControl/MCSDK/MCLib/Any/Src/r_divider_bus_voltage_sensor.c **** __weak uint16_t RVBS_CalcAvVbusFilt(RDivider_Handle_t *pHandle)
 163:MCSDK_v6.0.0-Full/MotorControl/MCSDK/MCLib/Any/Src/r_divider_bus_voltage_sensor.c **** {
 164:MCSDK_v6.0.0-Full/MotorControl/MCSDK/MCLib/Any/Src/r_divider_bus_voltage_sensor.c ****   uint16_t tempValue;
 165:MCSDK_v6.0.0-Full/MotorControl/MCSDK/MCLib/Any/Src/r_divider_bus_voltage_sensor.c **** #ifdef NULL_PTR_RDIV_BUS_VLT_SNS
 166:MCSDK_v6.0.0-Full/MotorControl/MCSDK/MCLib/Any/Src/r_divider_bus_voltage_sensor.c ****   if (MC_NULL == pHandle)
 167:MCSDK_v6.0.0-Full/MotorControl/MCSDK/MCLib/Any/Src/r_divider_bus_voltage_sensor.c ****   {
 168:MCSDK_v6.0.0-Full/MotorControl/MCSDK/MCLib/Any/Src/r_divider_bus_voltage_sensor.c ****     tempValue = 0U;
 169:MCSDK_v6.0.0-Full/MotorControl/MCSDK/MCLib/Any/Src/r_divider_bus_voltage_sensor.c ****   }
 170:MCSDK_v6.0.0-Full/MotorControl/MCSDK/MCLib/Any/Src/r_divider_bus_voltage_sensor.c ****   else
 171:MCSDK_v6.0.0-Full/MotorControl/MCSDK/MCLib/Any/Src/r_divider_bus_voltage_sensor.c ****   {
 172:MCSDK_v6.0.0-Full/MotorControl/MCSDK/MCLib/Any/Src/r_divider_bus_voltage_sensor.c **** #endif
 173:MCSDK_v6.0.0-Full/MotorControl/MCSDK/MCLib/Any/Src/r_divider_bus_voltage_sensor.c ****     uint32_t wtemp;
 174:MCSDK_v6.0.0-Full/MotorControl/MCSDK/MCLib/Any/Src/r_divider_bus_voltage_sensor.c ****     uint16_t hAux;
 175:MCSDK_v6.0.0-Full/MotorControl/MCSDK/MCLib/Any/Src/r_divider_bus_voltage_sensor.c ****     uint8_t i;
 176:MCSDK_v6.0.0-Full/MotorControl/MCSDK/MCLib/Any/Src/r_divider_bus_voltage_sensor.c **** 
 177:MCSDK_v6.0.0-Full/MotorControl/MCSDK/MCLib/Any/Src/r_divider_bus_voltage_sensor.c ****     hAux = RVBS_ConvertVbusFiltrered(pHandle);
 178:MCSDK_v6.0.0-Full/MotorControl/MCSDK/MCLib/Any/Src/r_divider_bus_voltage_sensor.c **** 
 179:MCSDK_v6.0.0-Full/MotorControl/MCSDK/MCLib/Any/Src/r_divider_bus_voltage_sensor.c ****     if (0xFFFFU == hAux)
 180:MCSDK_v6.0.0-Full/MotorControl/MCSDK/MCLib/Any/Src/r_divider_bus_voltage_sensor.c ****     {
 181:MCSDK_v6.0.0-Full/MotorControl/MCSDK/MCLib/Any/Src/r_divider_bus_voltage_sensor.c ****       /* Nothing to do */
 182:MCSDK_v6.0.0-Full/MotorControl/MCSDK/MCLib/Any/Src/r_divider_bus_voltage_sensor.c ****     }
 183:MCSDK_v6.0.0-Full/MotorControl/MCSDK/MCLib/Any/Src/r_divider_bus_voltage_sensor.c ****     else
 184:MCSDK_v6.0.0-Full/MotorControl/MCSDK/MCLib/Any/Src/r_divider_bus_voltage_sensor.c ****     {
 185:MCSDK_v6.0.0-Full/MotorControl/MCSDK/MCLib/Any/Src/r_divider_bus_voltage_sensor.c ****       pHandle->aBuffer[pHandle->index] = hAux;
ARM GAS  /tmp/ccKoViEi.s 			page 10


 186:MCSDK_v6.0.0-Full/MotorControl/MCSDK/MCLib/Any/Src/r_divider_bus_voltage_sensor.c ****       wtemp = 0u;
 187:MCSDK_v6.0.0-Full/MotorControl/MCSDK/MCLib/Any/Src/r_divider_bus_voltage_sensor.c ****       for (i = 0U; i < pHandle->LowPassFilterBW; i++)
 188:MCSDK_v6.0.0-Full/MotorControl/MCSDK/MCLib/Any/Src/r_divider_bus_voltage_sensor.c ****       {
 189:MCSDK_v6.0.0-Full/MotorControl/MCSDK/MCLib/Any/Src/r_divider_bus_voltage_sensor.c ****         wtemp += pHandle->aBuffer[i];
 190:MCSDK_v6.0.0-Full/MotorControl/MCSDK/MCLib/Any/Src/r_divider_bus_voltage_sensor.c ****       }
 191:MCSDK_v6.0.0-Full/MotorControl/MCSDK/MCLib/Any/Src/r_divider_bus_voltage_sensor.c ****       wtemp /= pHandle->LowPassFilterBW;
 192:MCSDK_v6.0.0-Full/MotorControl/MCSDK/MCLib/Any/Src/r_divider_bus_voltage_sensor.c ****       pHandle->_Super.AvBusVoltage_d = (uint16_t)wtemp;
 193:MCSDK_v6.0.0-Full/MotorControl/MCSDK/MCLib/Any/Src/r_divider_bus_voltage_sensor.c ****       pHandle->_Super.LatestConv = hAux;
 194:MCSDK_v6.0.0-Full/MotorControl/MCSDK/MCLib/Any/Src/r_divider_bus_voltage_sensor.c **** 
 195:MCSDK_v6.0.0-Full/MotorControl/MCSDK/MCLib/Any/Src/r_divider_bus_voltage_sensor.c ****       if (pHandle->index < (pHandle->LowPassFilterBW - 1U))
 196:MCSDK_v6.0.0-Full/MotorControl/MCSDK/MCLib/Any/Src/r_divider_bus_voltage_sensor.c ****       {
 197:MCSDK_v6.0.0-Full/MotorControl/MCSDK/MCLib/Any/Src/r_divider_bus_voltage_sensor.c ****         pHandle->index++;
 198:MCSDK_v6.0.0-Full/MotorControl/MCSDK/MCLib/Any/Src/r_divider_bus_voltage_sensor.c ****       }
 199:MCSDK_v6.0.0-Full/MotorControl/MCSDK/MCLib/Any/Src/r_divider_bus_voltage_sensor.c ****       else
 200:MCSDK_v6.0.0-Full/MotorControl/MCSDK/MCLib/Any/Src/r_divider_bus_voltage_sensor.c ****       {
 201:MCSDK_v6.0.0-Full/MotorControl/MCSDK/MCLib/Any/Src/r_divider_bus_voltage_sensor.c ****         pHandle->index = 0U;
 202:MCSDK_v6.0.0-Full/MotorControl/MCSDK/MCLib/Any/Src/r_divider_bus_voltage_sensor.c ****       }
 203:MCSDK_v6.0.0-Full/MotorControl/MCSDK/MCLib/Any/Src/r_divider_bus_voltage_sensor.c ****     }
 204:MCSDK_v6.0.0-Full/MotorControl/MCSDK/MCLib/Any/Src/r_divider_bus_voltage_sensor.c **** 
 205:MCSDK_v6.0.0-Full/MotorControl/MCSDK/MCLib/Any/Src/r_divider_bus_voltage_sensor.c ****     pHandle->_Super.FaultState = RVBS_CheckFaultState(pHandle);
 206:MCSDK_v6.0.0-Full/MotorControl/MCSDK/MCLib/Any/Src/r_divider_bus_voltage_sensor.c ****     tempValue = pHandle->_Super.FaultState;
 207:MCSDK_v6.0.0-Full/MotorControl/MCSDK/MCLib/Any/Src/r_divider_bus_voltage_sensor.c **** #ifdef NULL_PTR_RDIV_BUS_VLT_SNS
 208:MCSDK_v6.0.0-Full/MotorControl/MCSDK/MCLib/Any/Src/r_divider_bus_voltage_sensor.c ****   }
 209:MCSDK_v6.0.0-Full/MotorControl/MCSDK/MCLib/Any/Src/r_divider_bus_voltage_sensor.c **** #endif
 210:MCSDK_v6.0.0-Full/MotorControl/MCSDK/MCLib/Any/Src/r_divider_bus_voltage_sensor.c ****   return (tempValue);
 211:MCSDK_v6.0.0-Full/MotorControl/MCSDK/MCLib/Any/Src/r_divider_bus_voltage_sensor.c **** }
 212:MCSDK_v6.0.0-Full/MotorControl/MCSDK/MCLib/Any/Src/r_divider_bus_voltage_sensor.c **** 
 213:MCSDK_v6.0.0-Full/MotorControl/MCSDK/MCLib/Any/Src/r_divider_bus_voltage_sensor.c **** /**
 214:MCSDK_v6.0.0-Full/MotorControl/MCSDK/MCLib/Any/Src/r_divider_bus_voltage_sensor.c ****   * @brief  It actually performes the Vbus ADC conversion and updates average
 215:MCSDK_v6.0.0-Full/MotorControl/MCSDK/MCLib/Any/Src/r_divider_bus_voltage_sensor.c ****   *         value
 216:MCSDK_v6.0.0-Full/MotorControl/MCSDK/MCLib/Any/Src/r_divider_bus_voltage_sensor.c ****   * @param  pHandle related RDivider_Handle_t
 217:MCSDK_v6.0.0-Full/MotorControl/MCSDK/MCLib/Any/Src/r_divider_bus_voltage_sensor.c ****   * @retval uint16_t Fault code error
 218:MCSDK_v6.0.0-Full/MotorControl/MCSDK/MCLib/Any/Src/r_divider_bus_voltage_sensor.c ****   */
 219:MCSDK_v6.0.0-Full/MotorControl/MCSDK/MCLib/Any/Src/r_divider_bus_voltage_sensor.c **** __weak uint16_t RVBS_CalcAvVbus(RDivider_Handle_t *pHandle)
 220:MCSDK_v6.0.0-Full/MotorControl/MCSDK/MCLib/Any/Src/r_divider_bus_voltage_sensor.c **** {
 221:MCSDK_v6.0.0-Full/MotorControl/MCSDK/MCLib/Any/Src/r_divider_bus_voltage_sensor.c ****   uint16_t tempValue;
 222:MCSDK_v6.0.0-Full/MotorControl/MCSDK/MCLib/Any/Src/r_divider_bus_voltage_sensor.c **** #ifdef NULL_PTR_RDIV_BUS_VLT_SNS
 223:MCSDK_v6.0.0-Full/MotorControl/MCSDK/MCLib/Any/Src/r_divider_bus_voltage_sensor.c ****   if (MC_NULL == pHandle)
 224:MCSDK_v6.0.0-Full/MotorControl/MCSDK/MCLib/Any/Src/r_divider_bus_voltage_sensor.c ****   {
 225:MCSDK_v6.0.0-Full/MotorControl/MCSDK/MCLib/Any/Src/r_divider_bus_voltage_sensor.c ****     tempValue = 0U;
 226:MCSDK_v6.0.0-Full/MotorControl/MCSDK/MCLib/Any/Src/r_divider_bus_voltage_sensor.c ****   }
 227:MCSDK_v6.0.0-Full/MotorControl/MCSDK/MCLib/Any/Src/r_divider_bus_voltage_sensor.c ****   else
 228:MCSDK_v6.0.0-Full/MotorControl/MCSDK/MCLib/Any/Src/r_divider_bus_voltage_sensor.c ****   {
 229:MCSDK_v6.0.0-Full/MotorControl/MCSDK/MCLib/Any/Src/r_divider_bus_voltage_sensor.c **** #endif
 230:MCSDK_v6.0.0-Full/MotorControl/MCSDK/MCLib/Any/Src/r_divider_bus_voltage_sensor.c ****     uint32_t wtemp;
 231:MCSDK_v6.0.0-Full/MotorControl/MCSDK/MCLib/Any/Src/r_divider_bus_voltage_sensor.c ****     uint16_t hAux;
 232:MCSDK_v6.0.0-Full/MotorControl/MCSDK/MCLib/Any/Src/r_divider_bus_voltage_sensor.c ****     uint8_t i;
 233:MCSDK_v6.0.0-Full/MotorControl/MCSDK/MCLib/Any/Src/r_divider_bus_voltage_sensor.c **** 
 234:MCSDK_v6.0.0-Full/MotorControl/MCSDK/MCLib/Any/Src/r_divider_bus_voltage_sensor.c ****     hAux = RCM_ExecRegularConv(pHandle->convHandle);
 235:MCSDK_v6.0.0-Full/MotorControl/MCSDK/MCLib/Any/Src/r_divider_bus_voltage_sensor.c **** 
 236:MCSDK_v6.0.0-Full/MotorControl/MCSDK/MCLib/Any/Src/r_divider_bus_voltage_sensor.c ****     if (0xFFFFU == hAux)
 237:MCSDK_v6.0.0-Full/MotorControl/MCSDK/MCLib/Any/Src/r_divider_bus_voltage_sensor.c ****     {
 238:MCSDK_v6.0.0-Full/MotorControl/MCSDK/MCLib/Any/Src/r_divider_bus_voltage_sensor.c ****       /* Nothing to do */
 239:MCSDK_v6.0.0-Full/MotorControl/MCSDK/MCLib/Any/Src/r_divider_bus_voltage_sensor.c ****     }
 240:MCSDK_v6.0.0-Full/MotorControl/MCSDK/MCLib/Any/Src/r_divider_bus_voltage_sensor.c ****     else
 241:MCSDK_v6.0.0-Full/MotorControl/MCSDK/MCLib/Any/Src/r_divider_bus_voltage_sensor.c ****     {
 242:MCSDK_v6.0.0-Full/MotorControl/MCSDK/MCLib/Any/Src/r_divider_bus_voltage_sensor.c ****       pHandle->aBuffer[pHandle->index] = hAux;
ARM GAS  /tmp/ccKoViEi.s 			page 11


 243:MCSDK_v6.0.0-Full/MotorControl/MCSDK/MCLib/Any/Src/r_divider_bus_voltage_sensor.c ****       wtemp = 0u;
 244:MCSDK_v6.0.0-Full/MotorControl/MCSDK/MCLib/Any/Src/r_divider_bus_voltage_sensor.c ****       for (i = 0U; i < (uint8_t)pHandle->LowPassFilterBW; i++)
 245:MCSDK_v6.0.0-Full/MotorControl/MCSDK/MCLib/Any/Src/r_divider_bus_voltage_sensor.c ****       {
 246:MCSDK_v6.0.0-Full/MotorControl/MCSDK/MCLib/Any/Src/r_divider_bus_voltage_sensor.c ****         wtemp += pHandle->aBuffer[i];
 247:MCSDK_v6.0.0-Full/MotorControl/MCSDK/MCLib/Any/Src/r_divider_bus_voltage_sensor.c ****       }
 248:MCSDK_v6.0.0-Full/MotorControl/MCSDK/MCLib/Any/Src/r_divider_bus_voltage_sensor.c ****       wtemp /= pHandle->LowPassFilterBW;
 249:MCSDK_v6.0.0-Full/MotorControl/MCSDK/MCLib/Any/Src/r_divider_bus_voltage_sensor.c ****       pHandle->_Super.AvBusVoltage_d = (uint16_t)wtemp;
 250:MCSDK_v6.0.0-Full/MotorControl/MCSDK/MCLib/Any/Src/r_divider_bus_voltage_sensor.c ****       pHandle->_Super.LatestConv = hAux;
 251:MCSDK_v6.0.0-Full/MotorControl/MCSDK/MCLib/Any/Src/r_divider_bus_voltage_sensor.c **** 
 252:MCSDK_v6.0.0-Full/MotorControl/MCSDK/MCLib/Any/Src/r_divider_bus_voltage_sensor.c ****       if ((uint16_t)pHandle->index < (pHandle->LowPassFilterBW - 1U))
 253:MCSDK_v6.0.0-Full/MotorControl/MCSDK/MCLib/Any/Src/r_divider_bus_voltage_sensor.c ****       {
 254:MCSDK_v6.0.0-Full/MotorControl/MCSDK/MCLib/Any/Src/r_divider_bus_voltage_sensor.c ****         pHandle->index++;
 255:MCSDK_v6.0.0-Full/MotorControl/MCSDK/MCLib/Any/Src/r_divider_bus_voltage_sensor.c ****       }
 256:MCSDK_v6.0.0-Full/MotorControl/MCSDK/MCLib/Any/Src/r_divider_bus_voltage_sensor.c ****       else
 257:MCSDK_v6.0.0-Full/MotorControl/MCSDK/MCLib/Any/Src/r_divider_bus_voltage_sensor.c ****       {
 258:MCSDK_v6.0.0-Full/MotorControl/MCSDK/MCLib/Any/Src/r_divider_bus_voltage_sensor.c ****         pHandle->index = 0U;
 259:MCSDK_v6.0.0-Full/MotorControl/MCSDK/MCLib/Any/Src/r_divider_bus_voltage_sensor.c ****       }
 260:MCSDK_v6.0.0-Full/MotorControl/MCSDK/MCLib/Any/Src/r_divider_bus_voltage_sensor.c ****     }
 261:MCSDK_v6.0.0-Full/MotorControl/MCSDK/MCLib/Any/Src/r_divider_bus_voltage_sensor.c **** 
 262:MCSDK_v6.0.0-Full/MotorControl/MCSDK/MCLib/Any/Src/r_divider_bus_voltage_sensor.c ****     pHandle->_Super.FaultState = RVBS_CheckFaultState(pHandle);
 263:MCSDK_v6.0.0-Full/MotorControl/MCSDK/MCLib/Any/Src/r_divider_bus_voltage_sensor.c ****     tempValue = pHandle->_Super.FaultState;
 264:MCSDK_v6.0.0-Full/MotorControl/MCSDK/MCLib/Any/Src/r_divider_bus_voltage_sensor.c **** #ifdef NULL_PTR_RDIV_BUS_VLT_SNS
 265:MCSDK_v6.0.0-Full/MotorControl/MCSDK/MCLib/Any/Src/r_divider_bus_voltage_sensor.c ****   }
 266:MCSDK_v6.0.0-Full/MotorControl/MCSDK/MCLib/Any/Src/r_divider_bus_voltage_sensor.c **** #endif
 267:MCSDK_v6.0.0-Full/MotorControl/MCSDK/MCLib/Any/Src/r_divider_bus_voltage_sensor.c ****   return (tempValue);
 268:MCSDK_v6.0.0-Full/MotorControl/MCSDK/MCLib/Any/Src/r_divider_bus_voltage_sensor.c **** }
 269:MCSDK_v6.0.0-Full/MotorControl/MCSDK/MCLib/Any/Src/r_divider_bus_voltage_sensor.c **** 
 270:MCSDK_v6.0.0-Full/MotorControl/MCSDK/MCLib/Any/Src/r_divider_bus_voltage_sensor.c **** /**
 271:MCSDK_v6.0.0-Full/MotorControl/MCSDK/MCLib/Any/Src/r_divider_bus_voltage_sensor.c ****   * @brief  It returns MC_OVER_VOLT, MC_UNDER_VOLT or MC_NO_ERROR depending on
 272:MCSDK_v6.0.0-Full/MotorControl/MCSDK/MCLib/Any/Src/r_divider_bus_voltage_sensor.c ****   *         bus voltage and protection threshold values
 273:MCSDK_v6.0.0-Full/MotorControl/MCSDK/MCLib/Any/Src/r_divider_bus_voltage_sensor.c ****   * @param  pHandle related RDivider_Handle_t
 274:MCSDK_v6.0.0-Full/MotorControl/MCSDK/MCLib/Any/Src/r_divider_bus_voltage_sensor.c ****   * @retval uint16_t Fault code error
 275:MCSDK_v6.0.0-Full/MotorControl/MCSDK/MCLib/Any/Src/r_divider_bus_voltage_sensor.c ****   */
 276:MCSDK_v6.0.0-Full/MotorControl/MCSDK/MCLib/Any/Src/r_divider_bus_voltage_sensor.c **** __weak uint16_t RVBS_CheckFaultState(RDivider_Handle_t *pHandle)
 277:MCSDK_v6.0.0-Full/MotorControl/MCSDK/MCLib/Any/Src/r_divider_bus_voltage_sensor.c **** {
 282              		.loc 1 277 1 is_stmt 1 view -0
 283              		.cfi_startproc
 284              		@ args = 0, pretend = 0, frame = 0
 285              		@ frame_needed = 0, uses_anonymous_args = 0
 286              		@ link register save eliminated.
 278:MCSDK_v6.0.0-Full/MotorControl/MCSDK/MCLib/Any/Src/r_divider_bus_voltage_sensor.c ****   uint16_t fault;
 287              		.loc 1 278 3 view .LVU93
 279:MCSDK_v6.0.0-Full/MotorControl/MCSDK/MCLib/Any/Src/r_divider_bus_voltage_sensor.c **** #ifdef NULL_PTR_RDIV_BUS_VLT_SNS
 280:MCSDK_v6.0.0-Full/MotorControl/MCSDK/MCLib/Any/Src/r_divider_bus_voltage_sensor.c ****   if (MC_NULL == pHandle)
 281:MCSDK_v6.0.0-Full/MotorControl/MCSDK/MCLib/Any/Src/r_divider_bus_voltage_sensor.c ****   {
 282:MCSDK_v6.0.0-Full/MotorControl/MCSDK/MCLib/Any/Src/r_divider_bus_voltage_sensor.c ****     fault = MC_SW_ERROR;
 283:MCSDK_v6.0.0-Full/MotorControl/MCSDK/MCLib/Any/Src/r_divider_bus_voltage_sensor.c ****   }
 284:MCSDK_v6.0.0-Full/MotorControl/MCSDK/MCLib/Any/Src/r_divider_bus_voltage_sensor.c ****   else
 285:MCSDK_v6.0.0-Full/MotorControl/MCSDK/MCLib/Any/Src/r_divider_bus_voltage_sensor.c ****   {
 286:MCSDK_v6.0.0-Full/MotorControl/MCSDK/MCLib/Any/Src/r_divider_bus_voltage_sensor.c **** #endif
 287:MCSDK_v6.0.0-Full/MotorControl/MCSDK/MCLib/Any/Src/r_divider_bus_voltage_sensor.c ****     if (pHandle->_Super.AvBusVoltage_d > pHandle->OverVoltageThreshold)
 288              		.loc 1 287 5 view .LVU94
 289              		.loc 1 287 24 is_stmt 0 view .LVU95
 290 0000 C388     		ldrh	r3, [r0, #6]
 291              		.loc 1 287 49 view .LVU96
 292 0002 428B     		ldrh	r2, [r0, #26]
 293              		.loc 1 287 8 view .LVU97
ARM GAS  /tmp/ccKoViEi.s 			page 12


 294 0004 9342     		cmp	r3, r2
 295 0006 06D8     		bhi	.L21
 288:MCSDK_v6.0.0-Full/MotorControl/MCSDK/MCLib/Any/Src/r_divider_bus_voltage_sensor.c ****     {
 289:MCSDK_v6.0.0-Full/MotorControl/MCSDK/MCLib/Any/Src/r_divider_bus_voltage_sensor.c ****       fault = MC_OVER_VOLT;
 290:MCSDK_v6.0.0-Full/MotorControl/MCSDK/MCLib/Any/Src/r_divider_bus_voltage_sensor.c ****     }
 291:MCSDK_v6.0.0-Full/MotorControl/MCSDK/MCLib/Any/Src/r_divider_bus_voltage_sensor.c ****     else if (pHandle->_Super.AvBusVoltage_d < pHandle->UnderVoltageThreshold)
 296              		.loc 1 291 10 is_stmt 1 view .LVU98
 297              		.loc 1 291 54 is_stmt 0 view .LVU99
 298 0008 828B     		ldrh	r2, [r0, #28]
 299              		.loc 1 291 13 view .LVU100
 300 000a 9342     		cmp	r3, r2
 301 000c 01D3     		bcc	.L23
 292:MCSDK_v6.0.0-Full/MotorControl/MCSDK/MCLib/Any/Src/r_divider_bus_voltage_sensor.c ****     {
 293:MCSDK_v6.0.0-Full/MotorControl/MCSDK/MCLib/Any/Src/r_divider_bus_voltage_sensor.c ****       fault = MC_UNDER_VOLT;
 294:MCSDK_v6.0.0-Full/MotorControl/MCSDK/MCLib/Any/Src/r_divider_bus_voltage_sensor.c ****     }
 295:MCSDK_v6.0.0-Full/MotorControl/MCSDK/MCLib/Any/Src/r_divider_bus_voltage_sensor.c ****     else
 296:MCSDK_v6.0.0-Full/MotorControl/MCSDK/MCLib/Any/Src/r_divider_bus_voltage_sensor.c ****     {
 297:MCSDK_v6.0.0-Full/MotorControl/MCSDK/MCLib/Any/Src/r_divider_bus_voltage_sensor.c ****       fault = MC_NO_ERROR;
 302              		.loc 1 297 13 view .LVU101
 303 000e 0020     		movs	r0, #0
 304              	.LVL29:
 298:MCSDK_v6.0.0-Full/MotorControl/MCSDK/MCLib/Any/Src/r_divider_bus_voltage_sensor.c ****     }
 299:MCSDK_v6.0.0-Full/MotorControl/MCSDK/MCLib/Any/Src/r_divider_bus_voltage_sensor.c **** #ifdef NULL_PTR_RDIV_BUS_VLT_SNS
 300:MCSDK_v6.0.0-Full/MotorControl/MCSDK/MCLib/Any/Src/r_divider_bus_voltage_sensor.c ****   }
 301:MCSDK_v6.0.0-Full/MotorControl/MCSDK/MCLib/Any/Src/r_divider_bus_voltage_sensor.c **** #endif
 302:MCSDK_v6.0.0-Full/MotorControl/MCSDK/MCLib/Any/Src/r_divider_bus_voltage_sensor.c ****   return (fault);
 305              		.loc 1 302 3 is_stmt 1 view .LVU102
 303:MCSDK_v6.0.0-Full/MotorControl/MCSDK/MCLib/Any/Src/r_divider_bus_voltage_sensor.c **** }
 306              		.loc 1 303 1 is_stmt 0 view .LVU103
 307 0010 7047     		bx	lr
 308              	.LVL30:
 309              	.L23:
 293:MCSDK_v6.0.0-Full/MotorControl/MCSDK/MCLib/Any/Src/r_divider_bus_voltage_sensor.c ****     }
 310              		.loc 1 293 13 view .LVU104
 311 0012 0420     		movs	r0, #4
 312              	.LVL31:
 293:MCSDK_v6.0.0-Full/MotorControl/MCSDK/MCLib/Any/Src/r_divider_bus_voltage_sensor.c ****     }
 313              		.loc 1 293 13 view .LVU105
 314 0014 7047     		bx	lr
 315              	.LVL32:
 316              	.L21:
 289:MCSDK_v6.0.0-Full/MotorControl/MCSDK/MCLib/Any/Src/r_divider_bus_voltage_sensor.c ****     }
 317              		.loc 1 289 13 view .LVU106
 318 0016 0220     		movs	r0, #2
 319              	.LVL33:
 289:MCSDK_v6.0.0-Full/MotorControl/MCSDK/MCLib/Any/Src/r_divider_bus_voltage_sensor.c ****     }
 320              		.loc 1 289 13 view .LVU107
 321 0018 7047     		bx	lr
 322              		.cfi_endproc
 323              	.LFE1440:
 325              		.section	.text.RVBS_CalcAvVbusFilt,"ax",%progbits
 326              		.align	1
 327              		.weak	RVBS_CalcAvVbusFilt
 328              		.syntax unified
 329              		.thumb
 330              		.thumb_func
 331              		.fpu fpv4-sp-d16
ARM GAS  /tmp/ccKoViEi.s 			page 13


 333              	RVBS_CalcAvVbusFilt:
 334              	.LVL34:
 335              	.LFB1438:
 163:MCSDK_v6.0.0-Full/MotorControl/MCSDK/MCLib/Any/Src/r_divider_bus_voltage_sensor.c ****   uint16_t tempValue;
 336              		.loc 1 163 1 is_stmt 1 view -0
 337              		.cfi_startproc
 338              		@ args = 0, pretend = 0, frame = 0
 339              		@ frame_needed = 0, uses_anonymous_args = 0
 163:MCSDK_v6.0.0-Full/MotorControl/MCSDK/MCLib/Any/Src/r_divider_bus_voltage_sensor.c ****   uint16_t tempValue;
 340              		.loc 1 163 1 is_stmt 0 view .LVU109
 341 0000 38B5     		push	{r3, r4, r5, lr}
 342              		.cfi_def_cfa_offset 16
 343              		.cfi_offset 3, -16
 344              		.cfi_offset 4, -12
 345              		.cfi_offset 5, -8
 346              		.cfi_offset 14, -4
 347 0002 0446     		mov	r4, r0
 164:MCSDK_v6.0.0-Full/MotorControl/MCSDK/MCLib/Any/Src/r_divider_bus_voltage_sensor.c **** #ifdef NULL_PTR_RDIV_BUS_VLT_SNS
 348              		.loc 1 164 3 is_stmt 1 view .LVU110
 173:MCSDK_v6.0.0-Full/MotorControl/MCSDK/MCLib/Any/Src/r_divider_bus_voltage_sensor.c ****     uint16_t hAux;
 349              		.loc 1 173 5 view .LVU111
 174:MCSDK_v6.0.0-Full/MotorControl/MCSDK/MCLib/Any/Src/r_divider_bus_voltage_sensor.c ****     uint8_t i;
 350              		.loc 1 174 5 view .LVU112
 175:MCSDK_v6.0.0-Full/MotorControl/MCSDK/MCLib/Any/Src/r_divider_bus_voltage_sensor.c **** 
 351              		.loc 1 175 5 view .LVU113
 177:MCSDK_v6.0.0-Full/MotorControl/MCSDK/MCLib/Any/Src/r_divider_bus_voltage_sensor.c **** 
 352              		.loc 1 177 5 view .LVU114
 177:MCSDK_v6.0.0-Full/MotorControl/MCSDK/MCLib/Any/Src/r_divider_bus_voltage_sensor.c **** 
 353              		.loc 1 177 12 is_stmt 0 view .LVU115
 354 0004 FFF7FEFF 		bl	RVBS_ConvertVbusFiltrered
 355              	.LVL35:
 179:MCSDK_v6.0.0-Full/MotorControl/MCSDK/MCLib/Any/Src/r_divider_bus_voltage_sensor.c ****     {
 356              		.loc 1 179 5 is_stmt 1 view .LVU116
 179:MCSDK_v6.0.0-Full/MotorControl/MCSDK/MCLib/Any/Src/r_divider_bus_voltage_sensor.c ****     {
 357              		.loc 1 179 8 is_stmt 0 view .LVU117
 358 0008 4FF6FF73 		movw	r3, #65535
 359 000c 9842     		cmp	r0, r3
 360 000e 1DD0     		beq	.L25
 185:MCSDK_v6.0.0-Full/MotorControl/MCSDK/MCLib/Any/Src/r_divider_bus_voltage_sensor.c ****       wtemp = 0u;
 361              		.loc 1 185 7 is_stmt 1 view .LVU118
 185:MCSDK_v6.0.0-Full/MotorControl/MCSDK/MCLib/Any/Src/r_divider_bus_voltage_sensor.c ****       wtemp = 0u;
 362              		.loc 1 185 14 is_stmt 0 view .LVU119
 363 0010 236A     		ldr	r3, [r4, #32]
 185:MCSDK_v6.0.0-Full/MotorControl/MCSDK/MCLib/Any/Src/r_divider_bus_voltage_sensor.c ****       wtemp = 0u;
 364              		.loc 1 185 31 view .LVU120
 365 0012 94F82520 		ldrb	r2, [r4, #37]	@ zero_extendqisi2
 185:MCSDK_v6.0.0-Full/MotorControl/MCSDK/MCLib/Any/Src/r_divider_bus_voltage_sensor.c ****       wtemp = 0u;
 366              		.loc 1 185 40 view .LVU121
 367 0016 23F81200 		strh	r0, [r3, r2, lsl #1]	@ movhi
 186:MCSDK_v6.0.0-Full/MotorControl/MCSDK/MCLib/Any/Src/r_divider_bus_voltage_sensor.c ****       for (i = 0U; i < pHandle->LowPassFilterBW; i++)
 368              		.loc 1 186 7 is_stmt 1 view .LVU122
 369              	.LVL36:
 187:MCSDK_v6.0.0-Full/MotorControl/MCSDK/MCLib/Any/Src/r_divider_bus_voltage_sensor.c ****       {
 370              		.loc 1 187 7 view .LVU123
 187:MCSDK_v6.0.0-Full/MotorControl/MCSDK/MCLib/Any/Src/r_divider_bus_voltage_sensor.c ****       {
 371              		.loc 1 187 14 is_stmt 0 view .LVU124
 372 001a 0023     		movs	r3, #0
ARM GAS  /tmp/ccKoViEi.s 			page 14


 186:MCSDK_v6.0.0-Full/MotorControl/MCSDK/MCLib/Any/Src/r_divider_bus_voltage_sensor.c ****       for (i = 0U; i < pHandle->LowPassFilterBW; i++)
 373              		.loc 1 186 13 view .LVU125
 374 001c 1D46     		mov	r5, r3
 375              	.LVL37:
 376              	.L26:
 187:MCSDK_v6.0.0-Full/MotorControl/MCSDK/MCLib/Any/Src/r_divider_bus_voltage_sensor.c ****       {
 377              		.loc 1 187 20 is_stmt 1 discriminator 1 view .LVU126
 187:MCSDK_v6.0.0-Full/MotorControl/MCSDK/MCLib/Any/Src/r_divider_bus_voltage_sensor.c ****       {
 378              		.loc 1 187 22 is_stmt 0 discriminator 1 view .LVU127
 379 001e 9AB2     		uxth	r2, r3
 187:MCSDK_v6.0.0-Full/MotorControl/MCSDK/MCLib/Any/Src/r_divider_bus_voltage_sensor.c ****       {
 380              		.loc 1 187 31 discriminator 1 view .LVU128
 381 0020 218B     		ldrh	r1, [r4, #24]
 187:MCSDK_v6.0.0-Full/MotorControl/MCSDK/MCLib/Any/Src/r_divider_bus_voltage_sensor.c ****       {
 382              		.loc 1 187 7 discriminator 1 view .LVU129
 383 0022 8A42     		cmp	r2, r1
 384 0024 06D2     		bcs	.L30
 189:MCSDK_v6.0.0-Full/MotorControl/MCSDK/MCLib/Any/Src/r_divider_bus_voltage_sensor.c ****       }
 385              		.loc 1 189 9 is_stmt 1 discriminator 3 view .LVU130
 189:MCSDK_v6.0.0-Full/MotorControl/MCSDK/MCLib/Any/Src/r_divider_bus_voltage_sensor.c ****       }
 386              		.loc 1 189 25 is_stmt 0 discriminator 3 view .LVU131
 387 0026 226A     		ldr	r2, [r4, #32]
 189:MCSDK_v6.0.0-Full/MotorControl/MCSDK/MCLib/Any/Src/r_divider_bus_voltage_sensor.c ****       }
 388              		.loc 1 189 34 discriminator 3 view .LVU132
 389 0028 32F81320 		ldrh	r2, [r2, r3, lsl #1]
 189:MCSDK_v6.0.0-Full/MotorControl/MCSDK/MCLib/Any/Src/r_divider_bus_voltage_sensor.c ****       }
 390              		.loc 1 189 15 discriminator 3 view .LVU133
 391 002c 1544     		add	r5, r5, r2
 392              	.LVL38:
 187:MCSDK_v6.0.0-Full/MotorControl/MCSDK/MCLib/Any/Src/r_divider_bus_voltage_sensor.c ****       {
 393              		.loc 1 187 50 is_stmt 1 discriminator 3 view .LVU134
 187:MCSDK_v6.0.0-Full/MotorControl/MCSDK/MCLib/Any/Src/r_divider_bus_voltage_sensor.c ****       {
 394              		.loc 1 187 51 is_stmt 0 discriminator 3 view .LVU135
 395 002e 0133     		adds	r3, r3, #1
 396              	.LVL39:
 187:MCSDK_v6.0.0-Full/MotorControl/MCSDK/MCLib/Any/Src/r_divider_bus_voltage_sensor.c ****       {
 397              		.loc 1 187 51 discriminator 3 view .LVU136
 398 0030 DBB2     		uxtb	r3, r3
 399              	.LVL40:
 187:MCSDK_v6.0.0-Full/MotorControl/MCSDK/MCLib/Any/Src/r_divider_bus_voltage_sensor.c ****       {
 400              		.loc 1 187 51 discriminator 3 view .LVU137
 401 0032 F4E7     		b	.L26
 402              	.L30:
 191:MCSDK_v6.0.0-Full/MotorControl/MCSDK/MCLib/Any/Src/r_divider_bus_voltage_sensor.c ****       pHandle->_Super.AvBusVoltage_d = (uint16_t)wtemp;
 403              		.loc 1 191 7 is_stmt 1 view .LVU138
 191:MCSDK_v6.0.0-Full/MotorControl/MCSDK/MCLib/Any/Src/r_divider_bus_voltage_sensor.c ****       pHandle->_Super.AvBusVoltage_d = (uint16_t)wtemp;
 404              		.loc 1 191 13 is_stmt 0 view .LVU139
 405 0034 B5FBF1F5 		udiv	r5, r5, r1
 406              	.LVL41:
 192:MCSDK_v6.0.0-Full/MotorControl/MCSDK/MCLib/Any/Src/r_divider_bus_voltage_sensor.c ****       pHandle->_Super.LatestConv = hAux;
 407              		.loc 1 192 7 is_stmt 1 view .LVU140
 192:MCSDK_v6.0.0-Full/MotorControl/MCSDK/MCLib/Any/Src/r_divider_bus_voltage_sensor.c ****       pHandle->_Super.LatestConv = hAux;
 408              		.loc 1 192 38 is_stmt 0 view .LVU141
 409 0038 E580     		strh	r5, [r4, #6]	@ movhi
 193:MCSDK_v6.0.0-Full/MotorControl/MCSDK/MCLib/Any/Src/r_divider_bus_voltage_sensor.c **** 
 410              		.loc 1 193 7 is_stmt 1 view .LVU142
 193:MCSDK_v6.0.0-Full/MotorControl/MCSDK/MCLib/Any/Src/r_divider_bus_voltage_sensor.c **** 
ARM GAS  /tmp/ccKoViEi.s 			page 15


 411              		.loc 1 193 34 is_stmt 0 view .LVU143
 412 003a A080     		strh	r0, [r4, #4]	@ movhi
 195:MCSDK_v6.0.0-Full/MotorControl/MCSDK/MCLib/Any/Src/r_divider_bus_voltage_sensor.c ****       {
 413              		.loc 1 195 7 is_stmt 1 view .LVU144
 195:MCSDK_v6.0.0-Full/MotorControl/MCSDK/MCLib/Any/Src/r_divider_bus_voltage_sensor.c ****       {
 414              		.loc 1 195 18 is_stmt 0 view .LVU145
 415 003c 94F82530 		ldrb	r3, [r4, #37]	@ zero_extendqisi2
 416              	.LVL42:
 195:MCSDK_v6.0.0-Full/MotorControl/MCSDK/MCLib/Any/Src/r_divider_bus_voltage_sensor.c ****       {
 417              		.loc 1 195 54 view .LVU146
 418 0040 0139     		subs	r1, r1, #1
 195:MCSDK_v6.0.0-Full/MotorControl/MCSDK/MCLib/Any/Src/r_divider_bus_voltage_sensor.c ****       {
 419              		.loc 1 195 10 view .LVU147
 420 0042 8B42     		cmp	r3, r1
 421 0044 07D2     		bcs	.L28
 197:MCSDK_v6.0.0-Full/MotorControl/MCSDK/MCLib/Any/Src/r_divider_bus_voltage_sensor.c ****       }
 422              		.loc 1 197 9 is_stmt 1 view .LVU148
 197:MCSDK_v6.0.0-Full/MotorControl/MCSDK/MCLib/Any/Src/r_divider_bus_voltage_sensor.c ****       }
 423              		.loc 1 197 23 is_stmt 0 view .LVU149
 424 0046 0133     		adds	r3, r3, #1
 425 0048 84F82530 		strb	r3, [r4, #37]
 426              	.LVL43:
 427              	.L25:
 205:MCSDK_v6.0.0-Full/MotorControl/MCSDK/MCLib/Any/Src/r_divider_bus_voltage_sensor.c ****     tempValue = pHandle->_Super.FaultState;
 428              		.loc 1 205 5 is_stmt 1 view .LVU150
 205:MCSDK_v6.0.0-Full/MotorControl/MCSDK/MCLib/Any/Src/r_divider_bus_voltage_sensor.c ****     tempValue = pHandle->_Super.FaultState;
 429              		.loc 1 205 34 is_stmt 0 view .LVU151
 430 004c 2046     		mov	r0, r4
 431              	.LVL44:
 205:MCSDK_v6.0.0-Full/MotorControl/MCSDK/MCLib/Any/Src/r_divider_bus_voltage_sensor.c ****     tempValue = pHandle->_Super.FaultState;
 432              		.loc 1 205 34 view .LVU152
 433 004e FFF7FEFF 		bl	RVBS_CheckFaultState
 434              	.LVL45:
 205:MCSDK_v6.0.0-Full/MotorControl/MCSDK/MCLib/Any/Src/r_divider_bus_voltage_sensor.c ****     tempValue = pHandle->_Super.FaultState;
 435              		.loc 1 205 32 view .LVU153
 436 0052 2081     		strh	r0, [r4, #8]	@ movhi
 206:MCSDK_v6.0.0-Full/MotorControl/MCSDK/MCLib/Any/Src/r_divider_bus_voltage_sensor.c **** #ifdef NULL_PTR_RDIV_BUS_VLT_SNS
 437              		.loc 1 206 5 is_stmt 1 view .LVU154
 438              	.LVL46:
 210:MCSDK_v6.0.0-Full/MotorControl/MCSDK/MCLib/Any/Src/r_divider_bus_voltage_sensor.c **** }
 439              		.loc 1 210 3 view .LVU155
 211:MCSDK_v6.0.0-Full/MotorControl/MCSDK/MCLib/Any/Src/r_divider_bus_voltage_sensor.c **** 
 440              		.loc 1 211 1 is_stmt 0 view .LVU156
 441 0054 38BD     		pop	{r3, r4, r5, pc}
 442              	.LVL47:
 443              	.L28:
 201:MCSDK_v6.0.0-Full/MotorControl/MCSDK/MCLib/Any/Src/r_divider_bus_voltage_sensor.c ****       }
 444              		.loc 1 201 9 is_stmt 1 view .LVU157
 201:MCSDK_v6.0.0-Full/MotorControl/MCSDK/MCLib/Any/Src/r_divider_bus_voltage_sensor.c ****       }
 445              		.loc 1 201 24 is_stmt 0 view .LVU158
 446 0056 0023     		movs	r3, #0
 447 0058 84F82530 		strb	r3, [r4, #37]
 448 005c F6E7     		b	.L25
 449              		.cfi_endproc
 450              	.LFE1438:
 452              		.section	.text.RVBS_CalcAvVbus,"ax",%progbits
 453              		.align	1
ARM GAS  /tmp/ccKoViEi.s 			page 16


 454              		.weak	RVBS_CalcAvVbus
 455              		.syntax unified
 456              		.thumb
 457              		.thumb_func
 458              		.fpu fpv4-sp-d16
 460              	RVBS_CalcAvVbus:
 461              	.LVL48:
 462              	.LFB1439:
 220:MCSDK_v6.0.0-Full/MotorControl/MCSDK/MCLib/Any/Src/r_divider_bus_voltage_sensor.c ****   uint16_t tempValue;
 463              		.loc 1 220 1 is_stmt 1 view -0
 464              		.cfi_startproc
 465              		@ args = 0, pretend = 0, frame = 0
 466              		@ frame_needed = 0, uses_anonymous_args = 0
 220:MCSDK_v6.0.0-Full/MotorControl/MCSDK/MCLib/Any/Src/r_divider_bus_voltage_sensor.c ****   uint16_t tempValue;
 467              		.loc 1 220 1 is_stmt 0 view .LVU160
 468 0000 38B5     		push	{r3, r4, r5, lr}
 469              		.cfi_def_cfa_offset 16
 470              		.cfi_offset 3, -16
 471              		.cfi_offset 4, -12
 472              		.cfi_offset 5, -8
 473              		.cfi_offset 14, -4
 474 0002 0446     		mov	r4, r0
 221:MCSDK_v6.0.0-Full/MotorControl/MCSDK/MCLib/Any/Src/r_divider_bus_voltage_sensor.c **** #ifdef NULL_PTR_RDIV_BUS_VLT_SNS
 475              		.loc 1 221 3 is_stmt 1 view .LVU161
 230:MCSDK_v6.0.0-Full/MotorControl/MCSDK/MCLib/Any/Src/r_divider_bus_voltage_sensor.c ****     uint16_t hAux;
 476              		.loc 1 230 5 view .LVU162
 231:MCSDK_v6.0.0-Full/MotorControl/MCSDK/MCLib/Any/Src/r_divider_bus_voltage_sensor.c ****     uint8_t i;
 477              		.loc 1 231 5 view .LVU163
 232:MCSDK_v6.0.0-Full/MotorControl/MCSDK/MCLib/Any/Src/r_divider_bus_voltage_sensor.c **** 
 478              		.loc 1 232 5 view .LVU164
 234:MCSDK_v6.0.0-Full/MotorControl/MCSDK/MCLib/Any/Src/r_divider_bus_voltage_sensor.c **** 
 479              		.loc 1 234 5 view .LVU165
 234:MCSDK_v6.0.0-Full/MotorControl/MCSDK/MCLib/Any/Src/r_divider_bus_voltage_sensor.c **** 
 480              		.loc 1 234 12 is_stmt 0 view .LVU166
 481 0004 90F82600 		ldrb	r0, [r0, #38]	@ zero_extendqisi2
 482              	.LVL49:
 234:MCSDK_v6.0.0-Full/MotorControl/MCSDK/MCLib/Any/Src/r_divider_bus_voltage_sensor.c **** 
 483              		.loc 1 234 12 view .LVU167
 484 0008 FFF7FEFF 		bl	RCM_ExecRegularConv
 485              	.LVL50:
 236:MCSDK_v6.0.0-Full/MotorControl/MCSDK/MCLib/Any/Src/r_divider_bus_voltage_sensor.c ****     {
 486              		.loc 1 236 5 is_stmt 1 view .LVU168
 236:MCSDK_v6.0.0-Full/MotorControl/MCSDK/MCLib/Any/Src/r_divider_bus_voltage_sensor.c ****     {
 487              		.loc 1 236 8 is_stmt 0 view .LVU169
 488 000c 4FF6FF73 		movw	r3, #65535
 489 0010 9842     		cmp	r0, r3
 490 0012 1DD0     		beq	.L32
 242:MCSDK_v6.0.0-Full/MotorControl/MCSDK/MCLib/Any/Src/r_divider_bus_voltage_sensor.c ****       wtemp = 0u;
 491              		.loc 1 242 7 is_stmt 1 view .LVU170
 242:MCSDK_v6.0.0-Full/MotorControl/MCSDK/MCLib/Any/Src/r_divider_bus_voltage_sensor.c ****       wtemp = 0u;
 492              		.loc 1 242 14 is_stmt 0 view .LVU171
 493 0014 236A     		ldr	r3, [r4, #32]
 242:MCSDK_v6.0.0-Full/MotorControl/MCSDK/MCLib/Any/Src/r_divider_bus_voltage_sensor.c ****       wtemp = 0u;
 494              		.loc 1 242 31 view .LVU172
 495 0016 94F82520 		ldrb	r2, [r4, #37]	@ zero_extendqisi2
 242:MCSDK_v6.0.0-Full/MotorControl/MCSDK/MCLib/Any/Src/r_divider_bus_voltage_sensor.c ****       wtemp = 0u;
 496              		.loc 1 242 40 view .LVU173
ARM GAS  /tmp/ccKoViEi.s 			page 17


 497 001a 23F81200 		strh	r0, [r3, r2, lsl #1]	@ movhi
 243:MCSDK_v6.0.0-Full/MotorControl/MCSDK/MCLib/Any/Src/r_divider_bus_voltage_sensor.c ****       for (i = 0U; i < (uint8_t)pHandle->LowPassFilterBW; i++)
 498              		.loc 1 243 7 is_stmt 1 view .LVU174
 499              	.LVL51:
 244:MCSDK_v6.0.0-Full/MotorControl/MCSDK/MCLib/Any/Src/r_divider_bus_voltage_sensor.c ****       {
 500              		.loc 1 244 7 view .LVU175
 244:MCSDK_v6.0.0-Full/MotorControl/MCSDK/MCLib/Any/Src/r_divider_bus_voltage_sensor.c ****       {
 501              		.loc 1 244 14 is_stmt 0 view .LVU176
 502 001e 0023     		movs	r3, #0
 243:MCSDK_v6.0.0-Full/MotorControl/MCSDK/MCLib/Any/Src/r_divider_bus_voltage_sensor.c ****       for (i = 0U; i < (uint8_t)pHandle->LowPassFilterBW; i++)
 503              		.loc 1 243 13 view .LVU177
 504 0020 1946     		mov	r1, r3
 505              	.LVL52:
 506              	.L33:
 244:MCSDK_v6.0.0-Full/MotorControl/MCSDK/MCLib/Any/Src/r_divider_bus_voltage_sensor.c ****       {
 507              		.loc 1 244 20 is_stmt 1 discriminator 1 view .LVU178
 244:MCSDK_v6.0.0-Full/MotorControl/MCSDK/MCLib/Any/Src/r_divider_bus_voltage_sensor.c ****       {
 508              		.loc 1 244 40 is_stmt 0 discriminator 1 view .LVU179
 509 0022 228B     		ldrh	r2, [r4, #24]
 244:MCSDK_v6.0.0-Full/MotorControl/MCSDK/MCLib/Any/Src/r_divider_bus_voltage_sensor.c ****       {
 510              		.loc 1 244 24 discriminator 1 view .LVU180
 511 0024 D5B2     		uxtb	r5, r2
 244:MCSDK_v6.0.0-Full/MotorControl/MCSDK/MCLib/Any/Src/r_divider_bus_voltage_sensor.c ****       {
 512              		.loc 1 244 7 discriminator 1 view .LVU181
 513 0026 9D42     		cmp	r5, r3
 514 0028 06D9     		bls	.L37
 246:MCSDK_v6.0.0-Full/MotorControl/MCSDK/MCLib/Any/Src/r_divider_bus_voltage_sensor.c ****       }
 515              		.loc 1 246 9 is_stmt 1 discriminator 3 view .LVU182
 246:MCSDK_v6.0.0-Full/MotorControl/MCSDK/MCLib/Any/Src/r_divider_bus_voltage_sensor.c ****       }
 516              		.loc 1 246 25 is_stmt 0 discriminator 3 view .LVU183
 517 002a 226A     		ldr	r2, [r4, #32]
 246:MCSDK_v6.0.0-Full/MotorControl/MCSDK/MCLib/Any/Src/r_divider_bus_voltage_sensor.c ****       }
 518              		.loc 1 246 34 discriminator 3 view .LVU184
 519 002c 32F81320 		ldrh	r2, [r2, r3, lsl #1]
 246:MCSDK_v6.0.0-Full/MotorControl/MCSDK/MCLib/Any/Src/r_divider_bus_voltage_sensor.c ****       }
 520              		.loc 1 246 15 discriminator 3 view .LVU185
 521 0030 1144     		add	r1, r1, r2
 522              	.LVL53:
 244:MCSDK_v6.0.0-Full/MotorControl/MCSDK/MCLib/Any/Src/r_divider_bus_voltage_sensor.c ****       {
 523              		.loc 1 244 59 is_stmt 1 discriminator 3 view .LVU186
 244:MCSDK_v6.0.0-Full/MotorControl/MCSDK/MCLib/Any/Src/r_divider_bus_voltage_sensor.c ****       {
 524              		.loc 1 244 60 is_stmt 0 discriminator 3 view .LVU187
 525 0032 0133     		adds	r3, r3, #1
 526              	.LVL54:
 244:MCSDK_v6.0.0-Full/MotorControl/MCSDK/MCLib/Any/Src/r_divider_bus_voltage_sensor.c ****       {
 527              		.loc 1 244 60 discriminator 3 view .LVU188
 528 0034 DBB2     		uxtb	r3, r3
 529              	.LVL55:
 244:MCSDK_v6.0.0-Full/MotorControl/MCSDK/MCLib/Any/Src/r_divider_bus_voltage_sensor.c ****       {
 530              		.loc 1 244 60 discriminator 3 view .LVU189
 531 0036 F4E7     		b	.L33
 532              	.L37:
 248:MCSDK_v6.0.0-Full/MotorControl/MCSDK/MCLib/Any/Src/r_divider_bus_voltage_sensor.c ****       pHandle->_Super.AvBusVoltage_d = (uint16_t)wtemp;
 533              		.loc 1 248 7 is_stmt 1 view .LVU190
 248:MCSDK_v6.0.0-Full/MotorControl/MCSDK/MCLib/Any/Src/r_divider_bus_voltage_sensor.c ****       pHandle->_Super.AvBusVoltage_d = (uint16_t)wtemp;
 534              		.loc 1 248 13 is_stmt 0 view .LVU191
 535 0038 B1FBF2F1 		udiv	r1, r1, r2
ARM GAS  /tmp/ccKoViEi.s 			page 18


 536              	.LVL56:
 249:MCSDK_v6.0.0-Full/MotorControl/MCSDK/MCLib/Any/Src/r_divider_bus_voltage_sensor.c ****       pHandle->_Super.LatestConv = hAux;
 537              		.loc 1 249 7 is_stmt 1 view .LVU192
 249:MCSDK_v6.0.0-Full/MotorControl/MCSDK/MCLib/Any/Src/r_divider_bus_voltage_sensor.c ****       pHandle->_Super.LatestConv = hAux;
 538              		.loc 1 249 38 is_stmt 0 view .LVU193
 539 003c E180     		strh	r1, [r4, #6]	@ movhi
 250:MCSDK_v6.0.0-Full/MotorControl/MCSDK/MCLib/Any/Src/r_divider_bus_voltage_sensor.c **** 
 540              		.loc 1 250 7 is_stmt 1 view .LVU194
 250:MCSDK_v6.0.0-Full/MotorControl/MCSDK/MCLib/Any/Src/r_divider_bus_voltage_sensor.c **** 
 541              		.loc 1 250 34 is_stmt 0 view .LVU195
 542 003e A080     		strh	r0, [r4, #4]	@ movhi
 252:MCSDK_v6.0.0-Full/MotorControl/MCSDK/MCLib/Any/Src/r_divider_bus_voltage_sensor.c ****       {
 543              		.loc 1 252 7 is_stmt 1 view .LVU196
 252:MCSDK_v6.0.0-Full/MotorControl/MCSDK/MCLib/Any/Src/r_divider_bus_voltage_sensor.c ****       {
 544              		.loc 1 252 28 is_stmt 0 view .LVU197
 545 0040 94F82530 		ldrb	r3, [r4, #37]	@ zero_extendqisi2
 546              	.LVL57:
 252:MCSDK_v6.0.0-Full/MotorControl/MCSDK/MCLib/Any/Src/r_divider_bus_voltage_sensor.c ****       {
 547              		.loc 1 252 64 view .LVU198
 548 0044 013A     		subs	r2, r2, #1
 252:MCSDK_v6.0.0-Full/MotorControl/MCSDK/MCLib/Any/Src/r_divider_bus_voltage_sensor.c ****       {
 549              		.loc 1 252 10 view .LVU199
 550 0046 9342     		cmp	r3, r2
 551 0048 07D2     		bcs	.L35
 254:MCSDK_v6.0.0-Full/MotorControl/MCSDK/MCLib/Any/Src/r_divider_bus_voltage_sensor.c ****       }
 552              		.loc 1 254 9 is_stmt 1 view .LVU200
 254:MCSDK_v6.0.0-Full/MotorControl/MCSDK/MCLib/Any/Src/r_divider_bus_voltage_sensor.c ****       }
 553              		.loc 1 254 23 is_stmt 0 view .LVU201
 554 004a 0133     		adds	r3, r3, #1
 555 004c 84F82530 		strb	r3, [r4, #37]
 556              	.LVL58:
 557              	.L32:
 262:MCSDK_v6.0.0-Full/MotorControl/MCSDK/MCLib/Any/Src/r_divider_bus_voltage_sensor.c ****     tempValue = pHandle->_Super.FaultState;
 558              		.loc 1 262 5 is_stmt 1 view .LVU202
 262:MCSDK_v6.0.0-Full/MotorControl/MCSDK/MCLib/Any/Src/r_divider_bus_voltage_sensor.c ****     tempValue = pHandle->_Super.FaultState;
 559              		.loc 1 262 34 is_stmt 0 view .LVU203
 560 0050 2046     		mov	r0, r4
 561              	.LVL59:
 262:MCSDK_v6.0.0-Full/MotorControl/MCSDK/MCLib/Any/Src/r_divider_bus_voltage_sensor.c ****     tempValue = pHandle->_Super.FaultState;
 562              		.loc 1 262 34 view .LVU204
 563 0052 FFF7FEFF 		bl	RVBS_CheckFaultState
 564              	.LVL60:
 262:MCSDK_v6.0.0-Full/MotorControl/MCSDK/MCLib/Any/Src/r_divider_bus_voltage_sensor.c ****     tempValue = pHandle->_Super.FaultState;
 565              		.loc 1 262 32 view .LVU205
 566 0056 2081     		strh	r0, [r4, #8]	@ movhi
 263:MCSDK_v6.0.0-Full/MotorControl/MCSDK/MCLib/Any/Src/r_divider_bus_voltage_sensor.c **** #ifdef NULL_PTR_RDIV_BUS_VLT_SNS
 567              		.loc 1 263 5 is_stmt 1 view .LVU206
 568              	.LVL61:
 267:MCSDK_v6.0.0-Full/MotorControl/MCSDK/MCLib/Any/Src/r_divider_bus_voltage_sensor.c **** }
 569              		.loc 1 267 3 view .LVU207
 268:MCSDK_v6.0.0-Full/MotorControl/MCSDK/MCLib/Any/Src/r_divider_bus_voltage_sensor.c **** 
 570              		.loc 1 268 1 is_stmt 0 view .LVU208
 571 0058 38BD     		pop	{r3, r4, r5, pc}
 572              	.LVL62:
 573              	.L35:
 258:MCSDK_v6.0.0-Full/MotorControl/MCSDK/MCLib/Any/Src/r_divider_bus_voltage_sensor.c ****       }
 574              		.loc 1 258 9 is_stmt 1 view .LVU209
ARM GAS  /tmp/ccKoViEi.s 			page 19


 258:MCSDK_v6.0.0-Full/MotorControl/MCSDK/MCLib/Any/Src/r_divider_bus_voltage_sensor.c ****       }
 575              		.loc 1 258 24 is_stmt 0 view .LVU210
 576 005a 0023     		movs	r3, #0
 577 005c 84F82530 		strb	r3, [r4, #37]
 578 0060 F6E7     		b	.L32
 579              		.cfi_endproc
 580              	.LFE1439:
 582              		.text
 583              	.Letext0:
 584              		.file 2 "/usr/lib/gcc/arm-none-eabi/9.2.1/include/stdint.h"
 585              		.file 3 "Drivers/CMSIS/Include/core_cm4.h"
 586              		.file 4 "Drivers/CMSIS/Device/ST/STM32G4xx/Include/system_stm32g4xx.h"
 587              		.file 5 "Drivers/CMSIS/Device/ST/STM32G4xx/Include/stm32g431xx.h"
 588              		.file 6 "Drivers/STM32G4xx_HAL_Driver/Inc/stm32g4xx_hal_def.h"
 589              		.file 7 "Drivers/STM32G4xx_HAL_Driver/Inc/stm32g4xx_hal_flash.h"
 590              		.file 8 "Drivers/STM32G4xx_HAL_Driver/Inc/stm32g4xx_hal.h"
 591              		.file 9 "Drivers/STM32G4xx_HAL_Driver/Inc/stm32g4xx_ll_tim.h"
 592              		.file 10 "Drivers/STM32G4xx_HAL_Driver/Inc/stm32g4xx_ll_usart.h"
 593              		.file 11 "Drivers/STM32G4xx_HAL_Driver/Inc/stm32g4xx_ll_dma.h"
 594              		.file 12 "MCSDK_v6.0.0-Full/MotorControl/MCSDK/MCLib/Any/Inc/mc_type.h"
 595              		.file 13 "Inc/regular_conversion_manager.h"
 596              		.file 14 "MCSDK_v6.0.0-Full/MotorControl/MCSDK/MCLib/Any/Inc/bus_voltage_sensor.h"
 597              		.file 15 "MCSDK_v6.0.0-Full/MotorControl/MCSDK/MCLib/Any/Inc/r_divider_bus_voltage_sensor.h"
ARM GAS  /tmp/ccKoViEi.s 			page 20


DEFINED SYMBOLS
                            *ABS*:0000000000000000 r_divider_bus_voltage_sensor.c
     /tmp/ccKoViEi.s:18     .text.RVBS_ConvertVbusFiltrered:0000000000000000 $t
     /tmp/ccKoViEi.s:25     .text.RVBS_ConvertVbusFiltrered:0000000000000000 RVBS_ConvertVbusFiltrered
     /tmp/ccKoViEi.s:161    .text.RVBS_Clear:0000000000000000 $t
     /tmp/ccKoViEi.s:168    .text.RVBS_Clear:0000000000000000 RVBS_Clear
     /tmp/ccKoViEi.s:232    .text.RVBS_Init:0000000000000000 $t
     /tmp/ccKoViEi.s:239    .text.RVBS_Init:0000000000000000 RVBS_Init
     /tmp/ccKoViEi.s:272    .text.RVBS_CheckFaultState:0000000000000000 $t
     /tmp/ccKoViEi.s:279    .text.RVBS_CheckFaultState:0000000000000000 RVBS_CheckFaultState
     /tmp/ccKoViEi.s:326    .text.RVBS_CalcAvVbusFilt:0000000000000000 $t
     /tmp/ccKoViEi.s:333    .text.RVBS_CalcAvVbusFilt:0000000000000000 RVBS_CalcAvVbusFilt
     /tmp/ccKoViEi.s:453    .text.RVBS_CalcAvVbus:0000000000000000 $t
     /tmp/ccKoViEi.s:460    .text.RVBS_CalcAvVbus:0000000000000000 RVBS_CalcAvVbus

UNDEFINED SYMBOLS
RCM_ExecRegularConv
RCM_RegisterRegConv
