ARM GAS  /tmp/ccDmXnvl.s 			page 1


   1              		.cpu cortex-m4
   2              		.eabi_attribute 27, 1
   3              		.eabi_attribute 28, 1
   4              		.eabi_attribute 20, 1
   5              		.eabi_attribute 21, 1
   6              		.eabi_attribute 23, 3
   7              		.eabi_attribute 24, 1
   8              		.eabi_attribute 25, 1
   9              		.eabi_attribute 26, 1
  10              		.eabi_attribute 30, 1
  11              		.eabi_attribute 34, 1
  12              		.eabi_attribute 18, 4
  13              		.file	"ramp_ext_mngr.c"
  14              		.text
  15              	.Ltext0:
  16              		.cfi_sections	.debug_frame
  17              		.section	.text.REMNG_Init,"ax",%progbits
  18              		.align	1
  19              		.global	REMNG_Init
  20              		.arch armv7e-m
  21              		.syntax unified
  22              		.thumb
  23              		.thumb_func
  24              		.fpu fpv4-sp-d16
  26              	REMNG_Init:
  27              	.LVL0:
  28              	.LFB1435:
  29              		.file 1 "MCSDK_v6.0.0-Full/MotorControl/MCSDK/MCLib/Any/Src/ramp_ext_mngr.c"
   1:MCSDK_v6.0.0-Full/MotorControl/MCSDK/MCLib/Any/Src/ramp_ext_mngr.c **** /**
   2:MCSDK_v6.0.0-Full/MotorControl/MCSDK/MCLib/Any/Src/ramp_ext_mngr.c ****   ******************************************************************************
   3:MCSDK_v6.0.0-Full/MotorControl/MCSDK/MCLib/Any/Src/ramp_ext_mngr.c ****   * @file    ramp_ext_mngr.c
   4:MCSDK_v6.0.0-Full/MotorControl/MCSDK/MCLib/Any/Src/ramp_ext_mngr.c ****   * @author  Motor Control SDK Team, ST Microelectronics
   5:MCSDK_v6.0.0-Full/MotorControl/MCSDK/MCLib/Any/Src/ramp_ext_mngr.c ****   * @brief   This file provides firmware functions that implement the features
   6:MCSDK_v6.0.0-Full/MotorControl/MCSDK/MCLib/Any/Src/ramp_ext_mngr.c ****   *          of the Ramp Extended Manager component of the Motor Control SDK:
   7:MCSDK_v6.0.0-Full/MotorControl/MCSDK/MCLib/Any/Src/ramp_ext_mngr.c ****   *
   8:MCSDK_v6.0.0-Full/MotorControl/MCSDK/MCLib/Any/Src/ramp_ext_mngr.c ****   ******************************************************************************
   9:MCSDK_v6.0.0-Full/MotorControl/MCSDK/MCLib/Any/Src/ramp_ext_mngr.c ****   * @attention
  10:MCSDK_v6.0.0-Full/MotorControl/MCSDK/MCLib/Any/Src/ramp_ext_mngr.c ****   *
  11:MCSDK_v6.0.0-Full/MotorControl/MCSDK/MCLib/Any/Src/ramp_ext_mngr.c ****   * <h2><center>&copy; Copyright (c) 2022 STMicroelectronics.
  12:MCSDK_v6.0.0-Full/MotorControl/MCSDK/MCLib/Any/Src/ramp_ext_mngr.c ****   * All rights reserved.</center></h2>
  13:MCSDK_v6.0.0-Full/MotorControl/MCSDK/MCLib/Any/Src/ramp_ext_mngr.c ****   *
  14:MCSDK_v6.0.0-Full/MotorControl/MCSDK/MCLib/Any/Src/ramp_ext_mngr.c ****   * This software component is licensed by ST under Ultimate Liberty license
  15:MCSDK_v6.0.0-Full/MotorControl/MCSDK/MCLib/Any/Src/ramp_ext_mngr.c ****   * SLA0044, the "License"; You may not use this file except in compliance with
  16:MCSDK_v6.0.0-Full/MotorControl/MCSDK/MCLib/Any/Src/ramp_ext_mngr.c ****   * the License. You may obtain a copy of the License at:
  17:MCSDK_v6.0.0-Full/MotorControl/MCSDK/MCLib/Any/Src/ramp_ext_mngr.c ****   *                             www.st.com/SLA0044
  18:MCSDK_v6.0.0-Full/MotorControl/MCSDK/MCLib/Any/Src/ramp_ext_mngr.c ****   *
  19:MCSDK_v6.0.0-Full/MotorControl/MCSDK/MCLib/Any/Src/ramp_ext_mngr.c ****   ******************************************************************************
  20:MCSDK_v6.0.0-Full/MotorControl/MCSDK/MCLib/Any/Src/ramp_ext_mngr.c ****   */
  21:MCSDK_v6.0.0-Full/MotorControl/MCSDK/MCLib/Any/Src/ramp_ext_mngr.c **** 
  22:MCSDK_v6.0.0-Full/MotorControl/MCSDK/MCLib/Any/Src/ramp_ext_mngr.c **** /* Includes ------------------------------------------------------------------*/
  23:MCSDK_v6.0.0-Full/MotorControl/MCSDK/MCLib/Any/Src/ramp_ext_mngr.c **** #include "ramp_ext_mngr.h"
  24:MCSDK_v6.0.0-Full/MotorControl/MCSDK/MCLib/Any/Src/ramp_ext_mngr.c **** 
  25:MCSDK_v6.0.0-Full/MotorControl/MCSDK/MCLib/Any/Src/ramp_ext_mngr.c **** /** @addtogroup MCSDK
  26:MCSDK_v6.0.0-Full/MotorControl/MCSDK/MCLib/Any/Src/ramp_ext_mngr.c ****   * @{
  27:MCSDK_v6.0.0-Full/MotorControl/MCSDK/MCLib/Any/Src/ramp_ext_mngr.c ****   */
  28:MCSDK_v6.0.0-Full/MotorControl/MCSDK/MCLib/Any/Src/ramp_ext_mngr.c **** 
  29:MCSDK_v6.0.0-Full/MotorControl/MCSDK/MCLib/Any/Src/ramp_ext_mngr.c **** /** @defgroup RampExtMngr Ramp Manager
ARM GAS  /tmp/ccDmXnvl.s 			page 2


  30:MCSDK_v6.0.0-Full/MotorControl/MCSDK/MCLib/Any/Src/ramp_ext_mngr.c ****   * @brief Ramp Extended Manager component of the Motor Control SDK
  31:MCSDK_v6.0.0-Full/MotorControl/MCSDK/MCLib/Any/Src/ramp_ext_mngr.c ****   *
  32:MCSDK_v6.0.0-Full/MotorControl/MCSDK/MCLib/Any/Src/ramp_ext_mngr.c ****   * @todo Document the Ramp Extended Manager "module".
  33:MCSDK_v6.0.0-Full/MotorControl/MCSDK/MCLib/Any/Src/ramp_ext_mngr.c ****   *
  34:MCSDK_v6.0.0-Full/MotorControl/MCSDK/MCLib/Any/Src/ramp_ext_mngr.c ****   * @{
  35:MCSDK_v6.0.0-Full/MotorControl/MCSDK/MCLib/Any/Src/ramp_ext_mngr.c ****   */
  36:MCSDK_v6.0.0-Full/MotorControl/MCSDK/MCLib/Any/Src/ramp_ext_mngr.c **** /* Private function prototypes -----------------------------------------------*/
  37:MCSDK_v6.0.0-Full/MotorControl/MCSDK/MCLib/Any/Src/ramp_ext_mngr.c **** uint32_t getScalingFactor(int32_t Target);
  38:MCSDK_v6.0.0-Full/MotorControl/MCSDK/MCLib/Any/Src/ramp_ext_mngr.c **** 
  39:MCSDK_v6.0.0-Full/MotorControl/MCSDK/MCLib/Any/Src/ramp_ext_mngr.c **** /**
  40:MCSDK_v6.0.0-Full/MotorControl/MCSDK/MCLib/Any/Src/ramp_ext_mngr.c ****   * @brief  It reset the state variable to zero.
  41:MCSDK_v6.0.0-Full/MotorControl/MCSDK/MCLib/Any/Src/ramp_ext_mngr.c ****   * @param  pHandle related Handle of struct RampMngr_Handle_t
  42:MCSDK_v6.0.0-Full/MotorControl/MCSDK/MCLib/Any/Src/ramp_ext_mngr.c ****   * @retval none.
  43:MCSDK_v6.0.0-Full/MotorControl/MCSDK/MCLib/Any/Src/ramp_ext_mngr.c ****   */
  44:MCSDK_v6.0.0-Full/MotorControl/MCSDK/MCLib/Any/Src/ramp_ext_mngr.c **** void REMNG_Init(RampExtMngr_Handle_t *pHandle)
  45:MCSDK_v6.0.0-Full/MotorControl/MCSDK/MCLib/Any/Src/ramp_ext_mngr.c **** {
  30              		.loc 1 45 1 view -0
  31              		.cfi_startproc
  32              		@ args = 0, pretend = 0, frame = 0
  33              		@ frame_needed = 0, uses_anonymous_args = 0
  34              		@ link register save eliminated.
  46:MCSDK_v6.0.0-Full/MotorControl/MCSDK/MCLib/Any/Src/ramp_ext_mngr.c **** #ifdef NULL_RMP_EXT_MNG
  47:MCSDK_v6.0.0-Full/MotorControl/MCSDK/MCLib/Any/Src/ramp_ext_mngr.c ****   if (MC_NULL == pHandle)
  48:MCSDK_v6.0.0-Full/MotorControl/MCSDK/MCLib/Any/Src/ramp_ext_mngr.c ****   {
  49:MCSDK_v6.0.0-Full/MotorControl/MCSDK/MCLib/Any/Src/ramp_ext_mngr.c ****     /* Nothing to do */
  50:MCSDK_v6.0.0-Full/MotorControl/MCSDK/MCLib/Any/Src/ramp_ext_mngr.c ****   }
  51:MCSDK_v6.0.0-Full/MotorControl/MCSDK/MCLib/Any/Src/ramp_ext_mngr.c ****   else
  52:MCSDK_v6.0.0-Full/MotorControl/MCSDK/MCLib/Any/Src/ramp_ext_mngr.c ****   {
  53:MCSDK_v6.0.0-Full/MotorControl/MCSDK/MCLib/Any/Src/ramp_ext_mngr.c **** #endif
  54:MCSDK_v6.0.0-Full/MotorControl/MCSDK/MCLib/Any/Src/ramp_ext_mngr.c ****     pHandle->Ext = 0;
  35              		.loc 1 54 5 view .LVU1
  36              		.loc 1 54 18 is_stmt 0 view .LVU2
  37 0000 0023     		movs	r3, #0
  38 0002 8360     		str	r3, [r0, #8]
  55:MCSDK_v6.0.0-Full/MotorControl/MCSDK/MCLib/Any/Src/ramp_ext_mngr.c ****     pHandle->TargetFinal = 0;
  39              		.loc 1 55 5 is_stmt 1 view .LVU3
  40              		.loc 1 55 26 is_stmt 0 view .LVU4
  41 0004 4360     		str	r3, [r0, #4]
  56:MCSDK_v6.0.0-Full/MotorControl/MCSDK/MCLib/Any/Src/ramp_ext_mngr.c ****     pHandle->RampRemainingStep = 0U;
  42              		.loc 1 56 5 is_stmt 1 view .LVU5
  43              		.loc 1 56 32 is_stmt 0 view .LVU6
  44 0006 C360     		str	r3, [r0, #12]
  57:MCSDK_v6.0.0-Full/MotorControl/MCSDK/MCLib/Any/Src/ramp_ext_mngr.c ****     pHandle->IncDecAmount = 0;
  45              		.loc 1 57 5 is_stmt 1 view .LVU7
  46              		.loc 1 57 27 is_stmt 0 view .LVU8
  47 0008 0361     		str	r3, [r0, #16]
  58:MCSDK_v6.0.0-Full/MotorControl/MCSDK/MCLib/Any/Src/ramp_ext_mngr.c ****     pHandle->ScalingFactor = 1U;
  48              		.loc 1 58 5 is_stmt 1 view .LVU9
  49              		.loc 1 58 28 is_stmt 0 view .LVU10
  50 000a 0123     		movs	r3, #1
  51 000c 4361     		str	r3, [r0, #20]
  59:MCSDK_v6.0.0-Full/MotorControl/MCSDK/MCLib/Any/Src/ramp_ext_mngr.c **** 
  60:MCSDK_v6.0.0-Full/MotorControl/MCSDK/MCLib/Any/Src/ramp_ext_mngr.c **** #ifdef FASTDIV
  61:MCSDK_v6.0.0-Full/MotorControl/MCSDK/MCLib/Any/Src/ramp_ext_mngr.c ****     FD_Init(& (pHandle->fd));
  62:MCSDK_v6.0.0-Full/MotorControl/MCSDK/MCLib/Any/Src/ramp_ext_mngr.c **** #endif
  63:MCSDK_v6.0.0-Full/MotorControl/MCSDK/MCLib/Any/Src/ramp_ext_mngr.c **** #ifdef NULL_RMP_EXT_MNG
  64:MCSDK_v6.0.0-Full/MotorControl/MCSDK/MCLib/Any/Src/ramp_ext_mngr.c ****   }
ARM GAS  /tmp/ccDmXnvl.s 			page 3


  65:MCSDK_v6.0.0-Full/MotorControl/MCSDK/MCLib/Any/Src/ramp_ext_mngr.c **** #endif
  66:MCSDK_v6.0.0-Full/MotorControl/MCSDK/MCLib/Any/Src/ramp_ext_mngr.c **** }
  52              		.loc 1 66 1 view .LVU11
  53 000e 7047     		bx	lr
  54              		.cfi_endproc
  55              	.LFE1435:
  57              		.section	.text.REMNG_Calc,"ax",%progbits
  58              		.align	1
  59              		.weak	REMNG_Calc
  60              		.syntax unified
  61              		.thumb
  62              		.thumb_func
  63              		.fpu fpv4-sp-d16
  65              	REMNG_Calc:
  66              	.LVL1:
  67              	.LFB1436:
  67:MCSDK_v6.0.0-Full/MotorControl/MCSDK/MCLib/Any/Src/ramp_ext_mngr.c **** 
  68:MCSDK_v6.0.0-Full/MotorControl/MCSDK/MCLib/Any/Src/ramp_ext_mngr.c **** #if defined (CCMRAM)
  69:MCSDK_v6.0.0-Full/MotorControl/MCSDK/MCLib/Any/Src/ramp_ext_mngr.c **** #if defined (__ICCARM__)
  70:MCSDK_v6.0.0-Full/MotorControl/MCSDK/MCLib/Any/Src/ramp_ext_mngr.c **** #pragma location = ".ccmram"
  71:MCSDK_v6.0.0-Full/MotorControl/MCSDK/MCLib/Any/Src/ramp_ext_mngr.c **** #elif defined (__CC_ARM) || defined(__GNUC__)
  72:MCSDK_v6.0.0-Full/MotorControl/MCSDK/MCLib/Any/Src/ramp_ext_mngr.c **** __attribute__((section(".ccmram")))
  73:MCSDK_v6.0.0-Full/MotorControl/MCSDK/MCLib/Any/Src/ramp_ext_mngr.c **** #endif
  74:MCSDK_v6.0.0-Full/MotorControl/MCSDK/MCLib/Any/Src/ramp_ext_mngr.c **** #endif
  75:MCSDK_v6.0.0-Full/MotorControl/MCSDK/MCLib/Any/Src/ramp_ext_mngr.c **** /**
  76:MCSDK_v6.0.0-Full/MotorControl/MCSDK/MCLib/Any/Src/ramp_ext_mngr.c ****   * @brief  Exec the ramp calculations and returns the current value of the
  77:MCSDK_v6.0.0-Full/MotorControl/MCSDK/MCLib/Any/Src/ramp_ext_mngr.c ****             state variable.
  78:MCSDK_v6.0.0-Full/MotorControl/MCSDK/MCLib/Any/Src/ramp_ext_mngr.c ****             It must be called at fixed interval defined in the hExecFreq.
  79:MCSDK_v6.0.0-Full/MotorControl/MCSDK/MCLib/Any/Src/ramp_ext_mngr.c ****   * @param  pHandle related Handle of struct RampMngr_Handle_t
  80:MCSDK_v6.0.0-Full/MotorControl/MCSDK/MCLib/Any/Src/ramp_ext_mngr.c ****   * @retval int32_t value of the state variable
  81:MCSDK_v6.0.0-Full/MotorControl/MCSDK/MCLib/Any/Src/ramp_ext_mngr.c ****   */
  82:MCSDK_v6.0.0-Full/MotorControl/MCSDK/MCLib/Any/Src/ramp_ext_mngr.c **** __weak int32_t REMNG_Calc(RampExtMngr_Handle_t *pHandle)
  83:MCSDK_v6.0.0-Full/MotorControl/MCSDK/MCLib/Any/Src/ramp_ext_mngr.c **** {
  68              		.loc 1 83 1 is_stmt 1 view -0
  69              		.cfi_startproc
  70              		@ args = 0, pretend = 0, frame = 0
  71              		@ frame_needed = 0, uses_anonymous_args = 0
  72              		@ link register save eliminated.
  84:MCSDK_v6.0.0-Full/MotorControl/MCSDK/MCLib/Any/Src/ramp_ext_mngr.c ****   int32_t ret_val;
  73              		.loc 1 84 3 view .LVU13
  85:MCSDK_v6.0.0-Full/MotorControl/MCSDK/MCLib/Any/Src/ramp_ext_mngr.c **** #ifdef NULL_RMP_EXT_MNG
  86:MCSDK_v6.0.0-Full/MotorControl/MCSDK/MCLib/Any/Src/ramp_ext_mngr.c ****   if (MC_NULL == pHandle)
  87:MCSDK_v6.0.0-Full/MotorControl/MCSDK/MCLib/Any/Src/ramp_ext_mngr.c ****   {
  88:MCSDK_v6.0.0-Full/MotorControl/MCSDK/MCLib/Any/Src/ramp_ext_mngr.c ****     ret_val = 0;
  89:MCSDK_v6.0.0-Full/MotorControl/MCSDK/MCLib/Any/Src/ramp_ext_mngr.c ****   }
  90:MCSDK_v6.0.0-Full/MotorControl/MCSDK/MCLib/Any/Src/ramp_ext_mngr.c ****   else
  91:MCSDK_v6.0.0-Full/MotorControl/MCSDK/MCLib/Any/Src/ramp_ext_mngr.c ****   {
  92:MCSDK_v6.0.0-Full/MotorControl/MCSDK/MCLib/Any/Src/ramp_ext_mngr.c **** #endif
  93:MCSDK_v6.0.0-Full/MotorControl/MCSDK/MCLib/Any/Src/ramp_ext_mngr.c ****     int32_t current_ref;
  74              		.loc 1 93 5 view .LVU14
  94:MCSDK_v6.0.0-Full/MotorControl/MCSDK/MCLib/Any/Src/ramp_ext_mngr.c **** 
  95:MCSDK_v6.0.0-Full/MotorControl/MCSDK/MCLib/Any/Src/ramp_ext_mngr.c ****     current_ref = pHandle->Ext;
  75              		.loc 1 95 5 view .LVU15
  76              		.loc 1 95 17 is_stmt 0 view .LVU16
  77 0000 8368     		ldr	r3, [r0, #8]
  78              	.LVL2:
  96:MCSDK_v6.0.0-Full/MotorControl/MCSDK/MCLib/Any/Src/ramp_ext_mngr.c **** 
ARM GAS  /tmp/ccDmXnvl.s 			page 4


  97:MCSDK_v6.0.0-Full/MotorControl/MCSDK/MCLib/Any/Src/ramp_ext_mngr.c ****     /* Update the variable and terminates the ramp if needed. */
  98:MCSDK_v6.0.0-Full/MotorControl/MCSDK/MCLib/Any/Src/ramp_ext_mngr.c ****     if (pHandle->RampRemainingStep > 1U)
  79              		.loc 1 98 5 is_stmt 1 view .LVU17
  80              		.loc 1 98 16 is_stmt 0 view .LVU18
  81 0002 C268     		ldr	r2, [r0, #12]
  82              		.loc 1 98 8 view .LVU19
  83 0004 012A     		cmp	r2, #1
  84 0006 08D9     		bls	.L3
  99:MCSDK_v6.0.0-Full/MotorControl/MCSDK/MCLib/Any/Src/ramp_ext_mngr.c ****     {
 100:MCSDK_v6.0.0-Full/MotorControl/MCSDK/MCLib/Any/Src/ramp_ext_mngr.c ****       /* Increment/decrement the reference value. */
 101:MCSDK_v6.0.0-Full/MotorControl/MCSDK/MCLib/Any/Src/ramp_ext_mngr.c ****       current_ref += pHandle->IncDecAmount;
  85              		.loc 1 101 7 is_stmt 1 view .LVU20
  86              		.loc 1 101 29 is_stmt 0 view .LVU21
  87 0008 0169     		ldr	r1, [r0, #16]
  88              		.loc 1 101 19 view .LVU22
  89 000a 0B44     		add	r3, r3, r1
  90              	.LVL3:
 102:MCSDK_v6.0.0-Full/MotorControl/MCSDK/MCLib/Any/Src/ramp_ext_mngr.c **** 
 103:MCSDK_v6.0.0-Full/MotorControl/MCSDK/MCLib/Any/Src/ramp_ext_mngr.c ****       /* Decrement the number of remaining steps */
 104:MCSDK_v6.0.0-Full/MotorControl/MCSDK/MCLib/Any/Src/ramp_ext_mngr.c ****       pHandle->RampRemainingStep --;
  91              		.loc 1 104 7 is_stmt 1 view .LVU23
  92              		.loc 1 104 34 is_stmt 0 view .LVU24
  93 000c 013A     		subs	r2, r2, #1
  94 000e C260     		str	r2, [r0, #12]
  95              	.L4:
 105:MCSDK_v6.0.0-Full/MotorControl/MCSDK/MCLib/Any/Src/ramp_ext_mngr.c ****     }
 106:MCSDK_v6.0.0-Full/MotorControl/MCSDK/MCLib/Any/Src/ramp_ext_mngr.c ****     else if (1U == pHandle->RampRemainingStep)
 107:MCSDK_v6.0.0-Full/MotorControl/MCSDK/MCLib/Any/Src/ramp_ext_mngr.c ****     {
 108:MCSDK_v6.0.0-Full/MotorControl/MCSDK/MCLib/Any/Src/ramp_ext_mngr.c ****       /* Set the backup value of TargetFinal. */
 109:MCSDK_v6.0.0-Full/MotorControl/MCSDK/MCLib/Any/Src/ramp_ext_mngr.c ****       current_ref = pHandle->TargetFinal * ((int32_t)pHandle->ScalingFactor);
 110:MCSDK_v6.0.0-Full/MotorControl/MCSDK/MCLib/Any/Src/ramp_ext_mngr.c ****       pHandle->RampRemainingStep = 0U;
 111:MCSDK_v6.0.0-Full/MotorControl/MCSDK/MCLib/Any/Src/ramp_ext_mngr.c ****     }
 112:MCSDK_v6.0.0-Full/MotorControl/MCSDK/MCLib/Any/Src/ramp_ext_mngr.c ****     else
 113:MCSDK_v6.0.0-Full/MotorControl/MCSDK/MCLib/Any/Src/ramp_ext_mngr.c ****     {
 114:MCSDK_v6.0.0-Full/MotorControl/MCSDK/MCLib/Any/Src/ramp_ext_mngr.c ****       /* Do nothing. */
 115:MCSDK_v6.0.0-Full/MotorControl/MCSDK/MCLib/Any/Src/ramp_ext_mngr.c ****     }
  96              		.loc 1 115 5 is_stmt 1 view .LVU25
 116:MCSDK_v6.0.0-Full/MotorControl/MCSDK/MCLib/Any/Src/ramp_ext_mngr.c **** 
 117:MCSDK_v6.0.0-Full/MotorControl/MCSDK/MCLib/Any/Src/ramp_ext_mngr.c ****     pHandle->Ext = current_ref;
  97              		.loc 1 117 5 view .LVU26
  98              		.loc 1 117 18 is_stmt 0 view .LVU27
  99 0010 8360     		str	r3, [r0, #8]
 118:MCSDK_v6.0.0-Full/MotorControl/MCSDK/MCLib/Any/Src/ramp_ext_mngr.c **** 
 119:MCSDK_v6.0.0-Full/MotorControl/MCSDK/MCLib/Any/Src/ramp_ext_mngr.c **** #ifdef FASTDIV
 120:MCSDK_v6.0.0-Full/MotorControl/MCSDK/MCLib/Any/Src/ramp_ext_mngr.c ****     ret_val = FD_FastDiv(&(pHandle->fd), pHandle->Ext, ((int32_t)pHandle->ScalingFactor));
 121:MCSDK_v6.0.0-Full/MotorControl/MCSDK/MCLib/Any/Src/ramp_ext_mngr.c **** #else
 122:MCSDK_v6.0.0-Full/MotorControl/MCSDK/MCLib/Any/Src/ramp_ext_mngr.c ****     ret_val = pHandle->Ext / ((int32_t)pHandle->ScalingFactor);
 100              		.loc 1 122 5 is_stmt 1 view .LVU28
 101              		.loc 1 122 47 is_stmt 0 view .LVU29
 102 0012 4069     		ldr	r0, [r0, #20]
 103              	.LVL4:
 123:MCSDK_v6.0.0-Full/MotorControl/MCSDK/MCLib/Any/Src/ramp_ext_mngr.c **** #endif
 124:MCSDK_v6.0.0-Full/MotorControl/MCSDK/MCLib/Any/Src/ramp_ext_mngr.c **** #ifdef NULL_RMP_EXT_MNG
 125:MCSDK_v6.0.0-Full/MotorControl/MCSDK/MCLib/Any/Src/ramp_ext_mngr.c ****   }
 126:MCSDK_v6.0.0-Full/MotorControl/MCSDK/MCLib/Any/Src/ramp_ext_mngr.c **** #endif
 127:MCSDK_v6.0.0-Full/MotorControl/MCSDK/MCLib/Any/Src/ramp_ext_mngr.c ****   return (ret_val);
 104              		.loc 1 127 3 is_stmt 1 view .LVU30
ARM GAS  /tmp/ccDmXnvl.s 			page 5


 128:MCSDK_v6.0.0-Full/MotorControl/MCSDK/MCLib/Any/Src/ramp_ext_mngr.c **** }
 105              		.loc 1 128 1 is_stmt 0 view .LVU31
 106 0014 93FBF0F0 		sdiv	r0, r3, r0
 107              	.LVL5:
 108              		.loc 1 128 1 view .LVU32
 109 0018 7047     		bx	lr
 110              	.LVL6:
 111              	.L3:
 106:MCSDK_v6.0.0-Full/MotorControl/MCSDK/MCLib/Any/Src/ramp_ext_mngr.c ****     {
 112              		.loc 1 106 10 is_stmt 1 view .LVU33
 106:MCSDK_v6.0.0-Full/MotorControl/MCSDK/MCLib/Any/Src/ramp_ext_mngr.c ****     {
 113              		.loc 1 106 13 is_stmt 0 view .LVU34
 114 001a 012A     		cmp	r2, #1
 115 001c F8D1     		bne	.L4
 109:MCSDK_v6.0.0-Full/MotorControl/MCSDK/MCLib/Any/Src/ramp_ext_mngr.c ****       pHandle->RampRemainingStep = 0U;
 116              		.loc 1 109 7 is_stmt 1 view .LVU35
 109:MCSDK_v6.0.0-Full/MotorControl/MCSDK/MCLib/Any/Src/ramp_ext_mngr.c ****       pHandle->RampRemainingStep = 0U;
 117              		.loc 1 109 28 is_stmt 0 view .LVU36
 118 001e 4268     		ldr	r2, [r0, #4]
 109:MCSDK_v6.0.0-Full/MotorControl/MCSDK/MCLib/Any/Src/ramp_ext_mngr.c ****       pHandle->RampRemainingStep = 0U;
 119              		.loc 1 109 61 view .LVU37
 120 0020 4369     		ldr	r3, [r0, #20]
 121              	.LVL7:
 109:MCSDK_v6.0.0-Full/MotorControl/MCSDK/MCLib/Any/Src/ramp_ext_mngr.c ****       pHandle->RampRemainingStep = 0U;
 122              		.loc 1 109 19 view .LVU38
 123 0022 03FB02F3 		mul	r3, r3, r2
 124              	.LVL8:
 110:MCSDK_v6.0.0-Full/MotorControl/MCSDK/MCLib/Any/Src/ramp_ext_mngr.c ****     }
 125              		.loc 1 110 7 is_stmt 1 view .LVU39
 110:MCSDK_v6.0.0-Full/MotorControl/MCSDK/MCLib/Any/Src/ramp_ext_mngr.c ****     }
 126              		.loc 1 110 34 is_stmt 0 view .LVU40
 127 0026 0022     		movs	r2, #0
 128 0028 C260     		str	r2, [r0, #12]
 129 002a F1E7     		b	.L4
 130              		.cfi_endproc
 131              	.LFE1436:
 133              		.section	.text.REMNG_GetValue,"ax",%progbits
 134              		.align	1
 135              		.weak	REMNG_GetValue
 136              		.syntax unified
 137              		.thumb
 138              		.thumb_func
 139              		.fpu fpv4-sp-d16
 141              	REMNG_GetValue:
 142              	.LVL9:
 143              	.LFB1438:
 129:MCSDK_v6.0.0-Full/MotorControl/MCSDK/MCLib/Any/Src/ramp_ext_mngr.c **** 
 130:MCSDK_v6.0.0-Full/MotorControl/MCSDK/MCLib/Any/Src/ramp_ext_mngr.c **** /**
 131:MCSDK_v6.0.0-Full/MotorControl/MCSDK/MCLib/Any/Src/ramp_ext_mngr.c ****   * @brief  Setup the ramp to be executed
 132:MCSDK_v6.0.0-Full/MotorControl/MCSDK/MCLib/Any/Src/ramp_ext_mngr.c ****   * @param  pHandle related Handle of struct RampMngr_Handle_t
 133:MCSDK_v6.0.0-Full/MotorControl/MCSDK/MCLib/Any/Src/ramp_ext_mngr.c ****   * @param  hTargetFinal (signed 32bit) final value of state variable at the end
 134:MCSDK_v6.0.0-Full/MotorControl/MCSDK/MCLib/Any/Src/ramp_ext_mngr.c ****   *         of the ramp.
 135:MCSDK_v6.0.0-Full/MotorControl/MCSDK/MCLib/Any/Src/ramp_ext_mngr.c ****   * @param  hDurationms (unsigned 32bit) the duration of the ramp expressed in
 136:MCSDK_v6.0.0-Full/MotorControl/MCSDK/MCLib/Any/Src/ramp_ext_mngr.c ****   *         milliseconds. It is possible to set 0 to perform an instantaneous
 137:MCSDK_v6.0.0-Full/MotorControl/MCSDK/MCLib/Any/Src/ramp_ext_mngr.c ****   *         change in the value.
 138:MCSDK_v6.0.0-Full/MotorControl/MCSDK/MCLib/Any/Src/ramp_ext_mngr.c ****   * @retval bool It returns true is command is valid, false otherwise
 139:MCSDK_v6.0.0-Full/MotorControl/MCSDK/MCLib/Any/Src/ramp_ext_mngr.c ****   */
ARM GAS  /tmp/ccDmXnvl.s 			page 6


 140:MCSDK_v6.0.0-Full/MotorControl/MCSDK/MCLib/Any/Src/ramp_ext_mngr.c **** __weak bool REMNG_ExecRamp(RampExtMngr_Handle_t *pHandle, int32_t TargetFinal, uint32_t Durationms)
 141:MCSDK_v6.0.0-Full/MotorControl/MCSDK/MCLib/Any/Src/ramp_ext_mngr.c **** {
 142:MCSDK_v6.0.0-Full/MotorControl/MCSDK/MCLib/Any/Src/ramp_ext_mngr.c ****   bool retVal = true;
 143:MCSDK_v6.0.0-Full/MotorControl/MCSDK/MCLib/Any/Src/ramp_ext_mngr.c **** #ifdef NULL_RMP_EXT_MNG
 144:MCSDK_v6.0.0-Full/MotorControl/MCSDK/MCLib/Any/Src/ramp_ext_mngr.c ****   if (MC_NULL == pHandle)
 145:MCSDK_v6.0.0-Full/MotorControl/MCSDK/MCLib/Any/Src/ramp_ext_mngr.c ****   {
 146:MCSDK_v6.0.0-Full/MotorControl/MCSDK/MCLib/Any/Src/ramp_ext_mngr.c ****     retVal = false;
 147:MCSDK_v6.0.0-Full/MotorControl/MCSDK/MCLib/Any/Src/ramp_ext_mngr.c ****   }
 148:MCSDK_v6.0.0-Full/MotorControl/MCSDK/MCLib/Any/Src/ramp_ext_mngr.c ****   else
 149:MCSDK_v6.0.0-Full/MotorControl/MCSDK/MCLib/Any/Src/ramp_ext_mngr.c ****   {
 150:MCSDK_v6.0.0-Full/MotorControl/MCSDK/MCLib/Any/Src/ramp_ext_mngr.c **** #endif
 151:MCSDK_v6.0.0-Full/MotorControl/MCSDK/MCLib/Any/Src/ramp_ext_mngr.c ****     uint32_t aux;
 152:MCSDK_v6.0.0-Full/MotorControl/MCSDK/MCLib/Any/Src/ramp_ext_mngr.c ****     int32_t aux1;
 153:MCSDK_v6.0.0-Full/MotorControl/MCSDK/MCLib/Any/Src/ramp_ext_mngr.c ****     int32_t current_ref;
 154:MCSDK_v6.0.0-Full/MotorControl/MCSDK/MCLib/Any/Src/ramp_ext_mngr.c **** 
 155:MCSDK_v6.0.0-Full/MotorControl/MCSDK/MCLib/Any/Src/ramp_ext_mngr.c **** 
 156:MCSDK_v6.0.0-Full/MotorControl/MCSDK/MCLib/Any/Src/ramp_ext_mngr.c ****     /* Get current state */
 157:MCSDK_v6.0.0-Full/MotorControl/MCSDK/MCLib/Any/Src/ramp_ext_mngr.c **** #ifdef FASTDIV
 158:MCSDK_v6.0.0-Full/MotorControl/MCSDK/MCLib/Any/Src/ramp_ext_mngr.c ****     current_ref = FD_FastDiv(&(pHandle->fd), pHandle->Ext, ((int32_t)pHandle->ScalingFactor));
 159:MCSDK_v6.0.0-Full/MotorControl/MCSDK/MCLib/Any/Src/ramp_ext_mngr.c **** #else
 160:MCSDK_v6.0.0-Full/MotorControl/MCSDK/MCLib/Any/Src/ramp_ext_mngr.c ****     current_ref = pHandle->Ext / ((int32_t)pHandle->ScalingFactor);
 161:MCSDK_v6.0.0-Full/MotorControl/MCSDK/MCLib/Any/Src/ramp_ext_mngr.c **** #endif
 162:MCSDK_v6.0.0-Full/MotorControl/MCSDK/MCLib/Any/Src/ramp_ext_mngr.c **** 
 163:MCSDK_v6.0.0-Full/MotorControl/MCSDK/MCLib/Any/Src/ramp_ext_mngr.c ****     if (0U == Durationms)
 164:MCSDK_v6.0.0-Full/MotorControl/MCSDK/MCLib/Any/Src/ramp_ext_mngr.c ****     {
 165:MCSDK_v6.0.0-Full/MotorControl/MCSDK/MCLib/Any/Src/ramp_ext_mngr.c ****       pHandle->ScalingFactor = getScalingFactor(TargetFinal);
 166:MCSDK_v6.0.0-Full/MotorControl/MCSDK/MCLib/Any/Src/ramp_ext_mngr.c ****       pHandle->Ext = TargetFinal * ((int32_t)pHandle->ScalingFactor);
 167:MCSDK_v6.0.0-Full/MotorControl/MCSDK/MCLib/Any/Src/ramp_ext_mngr.c ****       pHandle->RampRemainingStep = 0U;
 168:MCSDK_v6.0.0-Full/MotorControl/MCSDK/MCLib/Any/Src/ramp_ext_mngr.c ****       pHandle->IncDecAmount = 0;
 169:MCSDK_v6.0.0-Full/MotorControl/MCSDK/MCLib/Any/Src/ramp_ext_mngr.c ****     }
 170:MCSDK_v6.0.0-Full/MotorControl/MCSDK/MCLib/Any/Src/ramp_ext_mngr.c ****     else
 171:MCSDK_v6.0.0-Full/MotorControl/MCSDK/MCLib/Any/Src/ramp_ext_mngr.c ****     {
 172:MCSDK_v6.0.0-Full/MotorControl/MCSDK/MCLib/Any/Src/ramp_ext_mngr.c ****       uint32_t wScalingFactor = getScalingFactor(TargetFinal - current_ref);
 173:MCSDK_v6.0.0-Full/MotorControl/MCSDK/MCLib/Any/Src/ramp_ext_mngr.c ****       uint32_t wScalingFactor2 = getScalingFactor(current_ref);
 174:MCSDK_v6.0.0-Full/MotorControl/MCSDK/MCLib/Any/Src/ramp_ext_mngr.c ****       uint32_t wScalingFactor3 = getScalingFactor(TargetFinal);
 175:MCSDK_v6.0.0-Full/MotorControl/MCSDK/MCLib/Any/Src/ramp_ext_mngr.c ****       uint32_t wScalingFactorMin;
 176:MCSDK_v6.0.0-Full/MotorControl/MCSDK/MCLib/Any/Src/ramp_ext_mngr.c **** 
 177:MCSDK_v6.0.0-Full/MotorControl/MCSDK/MCLib/Any/Src/ramp_ext_mngr.c ****       if (wScalingFactor <  wScalingFactor2)
 178:MCSDK_v6.0.0-Full/MotorControl/MCSDK/MCLib/Any/Src/ramp_ext_mngr.c ****       {
 179:MCSDK_v6.0.0-Full/MotorControl/MCSDK/MCLib/Any/Src/ramp_ext_mngr.c ****         if (wScalingFactor < wScalingFactor3)
 180:MCSDK_v6.0.0-Full/MotorControl/MCSDK/MCLib/Any/Src/ramp_ext_mngr.c ****         {
 181:MCSDK_v6.0.0-Full/MotorControl/MCSDK/MCLib/Any/Src/ramp_ext_mngr.c ****           wScalingFactorMin = wScalingFactor;
 182:MCSDK_v6.0.0-Full/MotorControl/MCSDK/MCLib/Any/Src/ramp_ext_mngr.c ****         }
 183:MCSDK_v6.0.0-Full/MotorControl/MCSDK/MCLib/Any/Src/ramp_ext_mngr.c ****         else
 184:MCSDK_v6.0.0-Full/MotorControl/MCSDK/MCLib/Any/Src/ramp_ext_mngr.c ****         {
 185:MCSDK_v6.0.0-Full/MotorControl/MCSDK/MCLib/Any/Src/ramp_ext_mngr.c ****           wScalingFactorMin = wScalingFactor3;
 186:MCSDK_v6.0.0-Full/MotorControl/MCSDK/MCLib/Any/Src/ramp_ext_mngr.c ****         }
 187:MCSDK_v6.0.0-Full/MotorControl/MCSDK/MCLib/Any/Src/ramp_ext_mngr.c ****       }
 188:MCSDK_v6.0.0-Full/MotorControl/MCSDK/MCLib/Any/Src/ramp_ext_mngr.c ****       else
 189:MCSDK_v6.0.0-Full/MotorControl/MCSDK/MCLib/Any/Src/ramp_ext_mngr.c ****       {
 190:MCSDK_v6.0.0-Full/MotorControl/MCSDK/MCLib/Any/Src/ramp_ext_mngr.c ****         if (wScalingFactor2 < wScalingFactor3)
 191:MCSDK_v6.0.0-Full/MotorControl/MCSDK/MCLib/Any/Src/ramp_ext_mngr.c ****         {
 192:MCSDK_v6.0.0-Full/MotorControl/MCSDK/MCLib/Any/Src/ramp_ext_mngr.c ****           wScalingFactorMin = wScalingFactor2;
 193:MCSDK_v6.0.0-Full/MotorControl/MCSDK/MCLib/Any/Src/ramp_ext_mngr.c ****         }
 194:MCSDK_v6.0.0-Full/MotorControl/MCSDK/MCLib/Any/Src/ramp_ext_mngr.c ****         else
 195:MCSDK_v6.0.0-Full/MotorControl/MCSDK/MCLib/Any/Src/ramp_ext_mngr.c ****         {
 196:MCSDK_v6.0.0-Full/MotorControl/MCSDK/MCLib/Any/Src/ramp_ext_mngr.c ****           wScalingFactorMin = wScalingFactor3;
ARM GAS  /tmp/ccDmXnvl.s 			page 7


 197:MCSDK_v6.0.0-Full/MotorControl/MCSDK/MCLib/Any/Src/ramp_ext_mngr.c ****         }
 198:MCSDK_v6.0.0-Full/MotorControl/MCSDK/MCLib/Any/Src/ramp_ext_mngr.c ****       }
 199:MCSDK_v6.0.0-Full/MotorControl/MCSDK/MCLib/Any/Src/ramp_ext_mngr.c **** 
 200:MCSDK_v6.0.0-Full/MotorControl/MCSDK/MCLib/Any/Src/ramp_ext_mngr.c ****       pHandle->ScalingFactor = wScalingFactorMin;
 201:MCSDK_v6.0.0-Full/MotorControl/MCSDK/MCLib/Any/Src/ramp_ext_mngr.c ****       pHandle->Ext = current_ref * ((int32_t)pHandle->ScalingFactor);
 202:MCSDK_v6.0.0-Full/MotorControl/MCSDK/MCLib/Any/Src/ramp_ext_mngr.c **** 
 203:MCSDK_v6.0.0-Full/MotorControl/MCSDK/MCLib/Any/Src/ramp_ext_mngr.c ****       /* Store the TargetFinal to be applied in the last step */
 204:MCSDK_v6.0.0-Full/MotorControl/MCSDK/MCLib/Any/Src/ramp_ext_mngr.c ****       pHandle->TargetFinal = TargetFinal;
 205:MCSDK_v6.0.0-Full/MotorControl/MCSDK/MCLib/Any/Src/ramp_ext_mngr.c **** 
 206:MCSDK_v6.0.0-Full/MotorControl/MCSDK/MCLib/Any/Src/ramp_ext_mngr.c ****       /* Compute the (wRampRemainingStep) number of steps remaining to complete
 207:MCSDK_v6.0.0-Full/MotorControl/MCSDK/MCLib/Any/Src/ramp_ext_mngr.c ****       the ramp. */
 208:MCSDK_v6.0.0-Full/MotorControl/MCSDK/MCLib/Any/Src/ramp_ext_mngr.c ****       aux = Durationms * ((uint32_t)pHandle->FrequencyHz); /* Check for overflow and use prescaler 
 209:MCSDK_v6.0.0-Full/MotorControl/MCSDK/MCLib/Any/Src/ramp_ext_mngr.c ****       aux /= 1000U;
 210:MCSDK_v6.0.0-Full/MotorControl/MCSDK/MCLib/Any/Src/ramp_ext_mngr.c ****       pHandle->RampRemainingStep = aux;
 211:MCSDK_v6.0.0-Full/MotorControl/MCSDK/MCLib/Any/Src/ramp_ext_mngr.c ****       pHandle->RampRemainingStep++;
 212:MCSDK_v6.0.0-Full/MotorControl/MCSDK/MCLib/Any/Src/ramp_ext_mngr.c **** 
 213:MCSDK_v6.0.0-Full/MotorControl/MCSDK/MCLib/Any/Src/ramp_ext_mngr.c ****       /* Compute the increment/decrement amount (wIncDecAmount) to be applied to
 214:MCSDK_v6.0.0-Full/MotorControl/MCSDK/MCLib/Any/Src/ramp_ext_mngr.c ****       the reference value at each CalcTorqueReference. */
 215:MCSDK_v6.0.0-Full/MotorControl/MCSDK/MCLib/Any/Src/ramp_ext_mngr.c ****       aux1 = (TargetFinal - current_ref) * ((int32_t)pHandle->ScalingFactor);
 216:MCSDK_v6.0.0-Full/MotorControl/MCSDK/MCLib/Any/Src/ramp_ext_mngr.c ****       aux1 /= ((int32_t)pHandle->RampRemainingStep);
 217:MCSDK_v6.0.0-Full/MotorControl/MCSDK/MCLib/Any/Src/ramp_ext_mngr.c ****       pHandle->IncDecAmount = aux1;
 218:MCSDK_v6.0.0-Full/MotorControl/MCSDK/MCLib/Any/Src/ramp_ext_mngr.c ****     }
 219:MCSDK_v6.0.0-Full/MotorControl/MCSDK/MCLib/Any/Src/ramp_ext_mngr.c **** #ifdef NULL_RMP_EXT_MNG
 220:MCSDK_v6.0.0-Full/MotorControl/MCSDK/MCLib/Any/Src/ramp_ext_mngr.c ****   }
 221:MCSDK_v6.0.0-Full/MotorControl/MCSDK/MCLib/Any/Src/ramp_ext_mngr.c **** #endif
 222:MCSDK_v6.0.0-Full/MotorControl/MCSDK/MCLib/Any/Src/ramp_ext_mngr.c ****   return retVal;
 223:MCSDK_v6.0.0-Full/MotorControl/MCSDK/MCLib/Any/Src/ramp_ext_mngr.c **** }
 224:MCSDK_v6.0.0-Full/MotorControl/MCSDK/MCLib/Any/Src/ramp_ext_mngr.c **** 
 225:MCSDK_v6.0.0-Full/MotorControl/MCSDK/MCLib/Any/Src/ramp_ext_mngr.c **** /**
 226:MCSDK_v6.0.0-Full/MotorControl/MCSDK/MCLib/Any/Src/ramp_ext_mngr.c ****   * @brief  Returns the current value of the state variable.
 227:MCSDK_v6.0.0-Full/MotorControl/MCSDK/MCLib/Any/Src/ramp_ext_mngr.c ****   * @param  pHandle related Handle of struct RampMngr_Handle_t
 228:MCSDK_v6.0.0-Full/MotorControl/MCSDK/MCLib/Any/Src/ramp_ext_mngr.c ****   * @retval int32_t value of the state variable
 229:MCSDK_v6.0.0-Full/MotorControl/MCSDK/MCLib/Any/Src/ramp_ext_mngr.c ****   */
 230:MCSDK_v6.0.0-Full/MotorControl/MCSDK/MCLib/Any/Src/ramp_ext_mngr.c **** __weak int32_t REMNG_GetValue(const RampExtMngr_Handle_t *pHandle)
 231:MCSDK_v6.0.0-Full/MotorControl/MCSDK/MCLib/Any/Src/ramp_ext_mngr.c **** {
 144              		.loc 1 231 1 is_stmt 1 view -0
 145              		.cfi_startproc
 146              		@ args = 0, pretend = 0, frame = 0
 147              		@ frame_needed = 0, uses_anonymous_args = 0
 148              		@ link register save eliminated.
 232:MCSDK_v6.0.0-Full/MotorControl/MCSDK/MCLib/Any/Src/ramp_ext_mngr.c **** #ifdef NULL_RMP_EXT_MNG
 233:MCSDK_v6.0.0-Full/MotorControl/MCSDK/MCLib/Any/Src/ramp_ext_mngr.c ****   return ((MC_NULL == pHandle) ? 0 : (pHandle->Ext / ((int32_t)pHandle->ScalingFactor)));
 234:MCSDK_v6.0.0-Full/MotorControl/MCSDK/MCLib/Any/Src/ramp_ext_mngr.c **** #else
 235:MCSDK_v6.0.0-Full/MotorControl/MCSDK/MCLib/Any/Src/ramp_ext_mngr.c ****   return (pHandle->Ext / ((int32_t)pHandle->ScalingFactor));
 149              		.loc 1 235 3 view .LVU42
 150              		.loc 1 235 18 is_stmt 0 view .LVU43
 151 0000 8268     		ldr	r2, [r0, #8]
 152              		.loc 1 235 43 view .LVU44
 153 0002 4069     		ldr	r0, [r0, #20]
 154              	.LVL10:
 236:MCSDK_v6.0.0-Full/MotorControl/MCSDK/MCLib/Any/Src/ramp_ext_mngr.c **** #endif
 237:MCSDK_v6.0.0-Full/MotorControl/MCSDK/MCLib/Any/Src/ramp_ext_mngr.c **** }
 155              		.loc 1 237 1 view .LVU45
 156 0004 92FBF0F0 		sdiv	r0, r2, r0
 157 0008 7047     		bx	lr
 158              		.cfi_endproc
 159              	.LFE1438:
ARM GAS  /tmp/ccDmXnvl.s 			page 8


 161              		.section	.text.REMNG_RampCompleted,"ax",%progbits
 162              		.align	1
 163              		.weak	REMNG_RampCompleted
 164              		.syntax unified
 165              		.thumb
 166              		.thumb_func
 167              		.fpu fpv4-sp-d16
 169              	REMNG_RampCompleted:
 170              	.LVL11:
 171              	.LFB1439:
 238:MCSDK_v6.0.0-Full/MotorControl/MCSDK/MCLib/Any/Src/ramp_ext_mngr.c **** 
 239:MCSDK_v6.0.0-Full/MotorControl/MCSDK/MCLib/Any/Src/ramp_ext_mngr.c **** #if defined (CCMRAM)
 240:MCSDK_v6.0.0-Full/MotorControl/MCSDK/MCLib/Any/Src/ramp_ext_mngr.c **** #if defined (__ICCARM__)
 241:MCSDK_v6.0.0-Full/MotorControl/MCSDK/MCLib/Any/Src/ramp_ext_mngr.c **** #pragma location = ".ccmram"
 242:MCSDK_v6.0.0-Full/MotorControl/MCSDK/MCLib/Any/Src/ramp_ext_mngr.c **** #elif defined (__CC_ARM) || defined(__GNUC__)
 243:MCSDK_v6.0.0-Full/MotorControl/MCSDK/MCLib/Any/Src/ramp_ext_mngr.c **** __attribute__((section(".ccmram")))
 244:MCSDK_v6.0.0-Full/MotorControl/MCSDK/MCLib/Any/Src/ramp_ext_mngr.c **** #endif
 245:MCSDK_v6.0.0-Full/MotorControl/MCSDK/MCLib/Any/Src/ramp_ext_mngr.c **** #endif
 246:MCSDK_v6.0.0-Full/MotorControl/MCSDK/MCLib/Any/Src/ramp_ext_mngr.c **** /**
 247:MCSDK_v6.0.0-Full/MotorControl/MCSDK/MCLib/Any/Src/ramp_ext_mngr.c ****   * @brief  Check if the settled ramp has been completed.
 248:MCSDK_v6.0.0-Full/MotorControl/MCSDK/MCLib/Any/Src/ramp_ext_mngr.c ****   * @param  pHandle related Handle of struct RampMngr_Handle_t.
 249:MCSDK_v6.0.0-Full/MotorControl/MCSDK/MCLib/Any/Src/ramp_ext_mngr.c ****   * @retval bool It returns true if the ramp is completed, false otherwise.
 250:MCSDK_v6.0.0-Full/MotorControl/MCSDK/MCLib/Any/Src/ramp_ext_mngr.c ****   */
 251:MCSDK_v6.0.0-Full/MotorControl/MCSDK/MCLib/Any/Src/ramp_ext_mngr.c **** __weak bool REMNG_RampCompleted(const RampExtMngr_Handle_t *pHandle)
 252:MCSDK_v6.0.0-Full/MotorControl/MCSDK/MCLib/Any/Src/ramp_ext_mngr.c **** {
 172              		.loc 1 252 1 is_stmt 1 view -0
 173              		.cfi_startproc
 174              		@ args = 0, pretend = 0, frame = 0
 175              		@ frame_needed = 0, uses_anonymous_args = 0
 176              		@ link register save eliminated.
 253:MCSDK_v6.0.0-Full/MotorControl/MCSDK/MCLib/Any/Src/ramp_ext_mngr.c ****   bool retVal = false;
 177              		.loc 1 253 3 view .LVU47
 254:MCSDK_v6.0.0-Full/MotorControl/MCSDK/MCLib/Any/Src/ramp_ext_mngr.c **** #ifdef NULL_RMP_EXT_MNG
 255:MCSDK_v6.0.0-Full/MotorControl/MCSDK/MCLib/Any/Src/ramp_ext_mngr.c ****   if (MC_NULL == pHandle)
 256:MCSDK_v6.0.0-Full/MotorControl/MCSDK/MCLib/Any/Src/ramp_ext_mngr.c ****   {
 257:MCSDK_v6.0.0-Full/MotorControl/MCSDK/MCLib/Any/Src/ramp_ext_mngr.c ****     /* Nothing to do */
 258:MCSDK_v6.0.0-Full/MotorControl/MCSDK/MCLib/Any/Src/ramp_ext_mngr.c ****   }
 259:MCSDK_v6.0.0-Full/MotorControl/MCSDK/MCLib/Any/Src/ramp_ext_mngr.c ****   else
 260:MCSDK_v6.0.0-Full/MotorControl/MCSDK/MCLib/Any/Src/ramp_ext_mngr.c ****   {
 261:MCSDK_v6.0.0-Full/MotorControl/MCSDK/MCLib/Any/Src/ramp_ext_mngr.c **** #endif
 262:MCSDK_v6.0.0-Full/MotorControl/MCSDK/MCLib/Any/Src/ramp_ext_mngr.c ****     if (0U == pHandle->RampRemainingStep)
 178              		.loc 1 262 5 view .LVU48
 179              		.loc 1 262 22 is_stmt 0 view .LVU49
 180 0000 C368     		ldr	r3, [r0, #12]
 181              		.loc 1 262 8 view .LVU50
 182 0002 0BB1     		cbz	r3, .L8
 253:MCSDK_v6.0.0-Full/MotorControl/MCSDK/MCLib/Any/Src/ramp_ext_mngr.c ****   bool retVal = false;
 183              		.loc 1 253 8 view .LVU51
 184 0004 0020     		movs	r0, #0
 185              	.LVL12:
 253:MCSDK_v6.0.0-Full/MotorControl/MCSDK/MCLib/Any/Src/ramp_ext_mngr.c ****   bool retVal = false;
 186              		.loc 1 253 8 view .LVU52
 187 0006 7047     		bx	lr
 188              	.LVL13:
 189              	.L8:
 263:MCSDK_v6.0.0-Full/MotorControl/MCSDK/MCLib/Any/Src/ramp_ext_mngr.c ****     {
 264:MCSDK_v6.0.0-Full/MotorControl/MCSDK/MCLib/Any/Src/ramp_ext_mngr.c ****       retVal = true;
ARM GAS  /tmp/ccDmXnvl.s 			page 9


 190              		.loc 1 264 14 view .LVU53
 191 0008 0120     		movs	r0, #1
 192              	.LVL14:
 265:MCSDK_v6.0.0-Full/MotorControl/MCSDK/MCLib/Any/Src/ramp_ext_mngr.c ****     }
 266:MCSDK_v6.0.0-Full/MotorControl/MCSDK/MCLib/Any/Src/ramp_ext_mngr.c ****     else
 267:MCSDK_v6.0.0-Full/MotorControl/MCSDK/MCLib/Any/Src/ramp_ext_mngr.c ****     {
 268:MCSDK_v6.0.0-Full/MotorControl/MCSDK/MCLib/Any/Src/ramp_ext_mngr.c ****       /* nothing to do */
 269:MCSDK_v6.0.0-Full/MotorControl/MCSDK/MCLib/Any/Src/ramp_ext_mngr.c ****     }
 193              		.loc 1 269 5 is_stmt 1 view .LVU54
 270:MCSDK_v6.0.0-Full/MotorControl/MCSDK/MCLib/Any/Src/ramp_ext_mngr.c **** #ifdef NULL_RMP_EXT_MNG
 271:MCSDK_v6.0.0-Full/MotorControl/MCSDK/MCLib/Any/Src/ramp_ext_mngr.c ****   }
 272:MCSDK_v6.0.0-Full/MotorControl/MCSDK/MCLib/Any/Src/ramp_ext_mngr.c **** #endif
 273:MCSDK_v6.0.0-Full/MotorControl/MCSDK/MCLib/Any/Src/ramp_ext_mngr.c ****   return (retVal);
 194              		.loc 1 273 3 view .LVU55
 274:MCSDK_v6.0.0-Full/MotorControl/MCSDK/MCLib/Any/Src/ramp_ext_mngr.c **** 
 275:MCSDK_v6.0.0-Full/MotorControl/MCSDK/MCLib/Any/Src/ramp_ext_mngr.c **** }
 195              		.loc 1 275 1 is_stmt 0 view .LVU56
 196 000a 7047     		bx	lr
 197              		.cfi_endproc
 198              	.LFE1439:
 200              		.section	.text.REMNG_StopRamp,"ax",%progbits
 201              		.align	1
 202              		.weak	REMNG_StopRamp
 203              		.syntax unified
 204              		.thumb
 205              		.thumb_func
 206              		.fpu fpv4-sp-d16
 208              	REMNG_StopRamp:
 209              	.LVL15:
 210              	.LFB1440:
 276:MCSDK_v6.0.0-Full/MotorControl/MCSDK/MCLib/Any/Src/ramp_ext_mngr.c **** 
 277:MCSDK_v6.0.0-Full/MotorControl/MCSDK/MCLib/Any/Src/ramp_ext_mngr.c **** /**
 278:MCSDK_v6.0.0-Full/MotorControl/MCSDK/MCLib/Any/Src/ramp_ext_mngr.c ****   * @brief  Stop the execution of the ramp keeping the last reached value.
 279:MCSDK_v6.0.0-Full/MotorControl/MCSDK/MCLib/Any/Src/ramp_ext_mngr.c ****   * @param  pHandle related Handle of struct RampMngr_Handle_t.
 280:MCSDK_v6.0.0-Full/MotorControl/MCSDK/MCLib/Any/Src/ramp_ext_mngr.c ****   * @retval none
 281:MCSDK_v6.0.0-Full/MotorControl/MCSDK/MCLib/Any/Src/ramp_ext_mngr.c ****   */
 282:MCSDK_v6.0.0-Full/MotorControl/MCSDK/MCLib/Any/Src/ramp_ext_mngr.c **** __weak void REMNG_StopRamp(RampExtMngr_Handle_t *pHandle)
 283:MCSDK_v6.0.0-Full/MotorControl/MCSDK/MCLib/Any/Src/ramp_ext_mngr.c **** {
 211              		.loc 1 283 1 is_stmt 1 view -0
 212              		.cfi_startproc
 213              		@ args = 0, pretend = 0, frame = 0
 214              		@ frame_needed = 0, uses_anonymous_args = 0
 215              		@ link register save eliminated.
 284:MCSDK_v6.0.0-Full/MotorControl/MCSDK/MCLib/Any/Src/ramp_ext_mngr.c **** #ifdef NULL_RMP_EXT_MNG
 285:MCSDK_v6.0.0-Full/MotorControl/MCSDK/MCLib/Any/Src/ramp_ext_mngr.c ****   if (MC_NULL == pHandle)
 286:MCSDK_v6.0.0-Full/MotorControl/MCSDK/MCLib/Any/Src/ramp_ext_mngr.c ****   {
 287:MCSDK_v6.0.0-Full/MotorControl/MCSDK/MCLib/Any/Src/ramp_ext_mngr.c ****     /* Nothing to do */
 288:MCSDK_v6.0.0-Full/MotorControl/MCSDK/MCLib/Any/Src/ramp_ext_mngr.c ****   }
 289:MCSDK_v6.0.0-Full/MotorControl/MCSDK/MCLib/Any/Src/ramp_ext_mngr.c ****   else
 290:MCSDK_v6.0.0-Full/MotorControl/MCSDK/MCLib/Any/Src/ramp_ext_mngr.c ****   {
 291:MCSDK_v6.0.0-Full/MotorControl/MCSDK/MCLib/Any/Src/ramp_ext_mngr.c **** #endif
 292:MCSDK_v6.0.0-Full/MotorControl/MCSDK/MCLib/Any/Src/ramp_ext_mngr.c ****     pHandle->RampRemainingStep = 0U;
 216              		.loc 1 292 5 view .LVU58
 217              		.loc 1 292 32 is_stmt 0 view .LVU59
 218 0000 0023     		movs	r3, #0
 219 0002 C360     		str	r3, [r0, #12]
 293:MCSDK_v6.0.0-Full/MotorControl/MCSDK/MCLib/Any/Src/ramp_ext_mngr.c ****     pHandle->IncDecAmount = 0;
ARM GAS  /tmp/ccDmXnvl.s 			page 10


 220              		.loc 1 293 5 is_stmt 1 view .LVU60
 221              		.loc 1 293 27 is_stmt 0 view .LVU61
 222 0004 0361     		str	r3, [r0, #16]
 294:MCSDK_v6.0.0-Full/MotorControl/MCSDK/MCLib/Any/Src/ramp_ext_mngr.c **** #ifdef NULL_RMP_EXT_MNG
 295:MCSDK_v6.0.0-Full/MotorControl/MCSDK/MCLib/Any/Src/ramp_ext_mngr.c ****   }
 296:MCSDK_v6.0.0-Full/MotorControl/MCSDK/MCLib/Any/Src/ramp_ext_mngr.c **** #endif
 297:MCSDK_v6.0.0-Full/MotorControl/MCSDK/MCLib/Any/Src/ramp_ext_mngr.c **** }
 223              		.loc 1 297 1 view .LVU62
 224 0006 7047     		bx	lr
 225              		.cfi_endproc
 226              	.LFE1440:
 228              		.section	.text.getScalingFactor,"ax",%progbits
 229              		.align	1
 230              		.weak	getScalingFactor
 231              		.syntax unified
 232              		.thumb
 233              		.thumb_func
 234              		.fpu fpv4-sp-d16
 236              	getScalingFactor:
 237              	.LVL16:
 238              	.LFB1441:
 298:MCSDK_v6.0.0-Full/MotorControl/MCSDK/MCLib/Any/Src/ramp_ext_mngr.c **** 
 299:MCSDK_v6.0.0-Full/MotorControl/MCSDK/MCLib/Any/Src/ramp_ext_mngr.c **** /**
 300:MCSDK_v6.0.0-Full/MotorControl/MCSDK/MCLib/Any/Src/ramp_ext_mngr.c ****   * @brief  Calculating the scaling factor to maximixe the resolution. It
 301:MCSDK_v6.0.0-Full/MotorControl/MCSDK/MCLib/Any/Src/ramp_ext_mngr.c ****   *         perform the 2^int(31-log2(Target)) with an iterative approach.
 302:MCSDK_v6.0.0-Full/MotorControl/MCSDK/MCLib/Any/Src/ramp_ext_mngr.c ****   *         It allows to keep Target * Scaling factor inside int32_t type.
 303:MCSDK_v6.0.0-Full/MotorControl/MCSDK/MCLib/Any/Src/ramp_ext_mngr.c ****   * @param  Target Input data.
 304:MCSDK_v6.0.0-Full/MotorControl/MCSDK/MCLib/Any/Src/ramp_ext_mngr.c ****   * @retval uint32_t It returns the optimized scaling factor.
 305:MCSDK_v6.0.0-Full/MotorControl/MCSDK/MCLib/Any/Src/ramp_ext_mngr.c ****   */
 306:MCSDK_v6.0.0-Full/MotorControl/MCSDK/MCLib/Any/Src/ramp_ext_mngr.c **** __weak uint32_t getScalingFactor(int32_t Target)
 307:MCSDK_v6.0.0-Full/MotorControl/MCSDK/MCLib/Any/Src/ramp_ext_mngr.c **** {
 239              		.loc 1 307 1 is_stmt 1 view -0
 240              		.cfi_startproc
 241              		@ args = 0, pretend = 0, frame = 0
 242              		@ frame_needed = 0, uses_anonymous_args = 0
 243              		@ link register save eliminated.
 308:MCSDK_v6.0.0-Full/MotorControl/MCSDK/MCLib/Any/Src/ramp_ext_mngr.c ****   uint32_t TargetAbs;
 244              		.loc 1 308 3 view .LVU64
 309:MCSDK_v6.0.0-Full/MotorControl/MCSDK/MCLib/Any/Src/ramp_ext_mngr.c ****   int32_t aux;
 245              		.loc 1 309 3 view .LVU65
 310:MCSDK_v6.0.0-Full/MotorControl/MCSDK/MCLib/Any/Src/ramp_ext_mngr.c ****   uint8_t i;
 246              		.loc 1 310 3 view .LVU66
 311:MCSDK_v6.0.0-Full/MotorControl/MCSDK/MCLib/Any/Src/ramp_ext_mngr.c **** 
 312:MCSDK_v6.0.0-Full/MotorControl/MCSDK/MCLib/Any/Src/ramp_ext_mngr.c ****   if (Target < 0)
 247              		.loc 1 312 3 view .LVU67
 248              		.loc 1 312 6 is_stmt 0 view .LVU68
 249 0000 021E     		subs	r2, r0, #0
 250 0002 0ADB     		blt	.L16
 251              	.L12:
 252              	.LVL17:
 313:MCSDK_v6.0.0-Full/MotorControl/MCSDK/MCLib/Any/Src/ramp_ext_mngr.c ****   {
 314:MCSDK_v6.0.0-Full/MotorControl/MCSDK/MCLib/Any/Src/ramp_ext_mngr.c ****     aux = -Target;
 315:MCSDK_v6.0.0-Full/MotorControl/MCSDK/MCLib/Any/Src/ramp_ext_mngr.c ****     TargetAbs = (uint32_t)aux;
 316:MCSDK_v6.0.0-Full/MotorControl/MCSDK/MCLib/Any/Src/ramp_ext_mngr.c ****   }
 317:MCSDK_v6.0.0-Full/MotorControl/MCSDK/MCLib/Any/Src/ramp_ext_mngr.c ****   else
 318:MCSDK_v6.0.0-Full/MotorControl/MCSDK/MCLib/Any/Src/ramp_ext_mngr.c ****   {
 319:MCSDK_v6.0.0-Full/MotorControl/MCSDK/MCLib/Any/Src/ramp_ext_mngr.c ****     TargetAbs = (uint32_t)Target;
ARM GAS  /tmp/ccDmXnvl.s 			page 11


 320:MCSDK_v6.0.0-Full/MotorControl/MCSDK/MCLib/Any/Src/ramp_ext_mngr.c ****   }
 321:MCSDK_v6.0.0-Full/MotorControl/MCSDK/MCLib/Any/Src/ramp_ext_mngr.c ****   for (i = 1U; i < 32U; i++)
 253              		.loc 1 321 3 is_stmt 1 view .LVU69
 254              		.loc 1 321 10 is_stmt 0 view .LVU70
 255 0004 0120     		movs	r0, #1
 256              	.LVL18:
 257              	.L13:
 258              		.loc 1 321 16 is_stmt 1 discriminator 1 view .LVU71
 259              		.loc 1 321 3 is_stmt 0 discriminator 1 view .LVU72
 260 0006 1F28     		cmp	r0, #31
 261 0008 09D8     		bhi	.L14
 262              	.LBB2:
 322:MCSDK_v6.0.0-Full/MotorControl/MCSDK/MCLib/Any/Src/ramp_ext_mngr.c ****   {
 323:MCSDK_v6.0.0-Full/MotorControl/MCSDK/MCLib/Any/Src/ramp_ext_mngr.c ****     uint32_t limit = (((uint32_t)1) << (31U - i));
 263              		.loc 1 323 5 is_stmt 1 view .LVU73
 264              		.loc 1 323 14 is_stmt 0 view .LVU74
 265 000a 4FF00043 		mov	r3, #-2147483648
 266 000e C340     		lsrs	r3, r3, r0
 267              	.LVL19:
 324:MCSDK_v6.0.0-Full/MotorControl/MCSDK/MCLib/Any/Src/ramp_ext_mngr.c ****     if (TargetAbs >= limit)
 268              		.loc 1 324 5 is_stmt 1 view .LVU75
 269              		.loc 1 324 8 is_stmt 0 view .LVU76
 270 0010 9A42     		cmp	r2, r3
 271 0012 04D2     		bcs	.L14
 325:MCSDK_v6.0.0-Full/MotorControl/MCSDK/MCLib/Any/Src/ramp_ext_mngr.c ****     {
 326:MCSDK_v6.0.0-Full/MotorControl/MCSDK/MCLib/Any/Src/ramp_ext_mngr.c ****       break;
 327:MCSDK_v6.0.0-Full/MotorControl/MCSDK/MCLib/Any/Src/ramp_ext_mngr.c ****     }
 328:MCSDK_v6.0.0-Full/MotorControl/MCSDK/MCLib/Any/Src/ramp_ext_mngr.c ****     else
 329:MCSDK_v6.0.0-Full/MotorControl/MCSDK/MCLib/Any/Src/ramp_ext_mngr.c ****     {
 330:MCSDK_v6.0.0-Full/MotorControl/MCSDK/MCLib/Any/Src/ramp_ext_mngr.c ****       /* Nothing to do */
 331:MCSDK_v6.0.0-Full/MotorControl/MCSDK/MCLib/Any/Src/ramp_ext_mngr.c ****     }
 272              		.loc 1 331 5 is_stmt 1 discriminator 2 view .LVU77
 273              	.LBE2:
 321:MCSDK_v6.0.0-Full/MotorControl/MCSDK/MCLib/Any/Src/ramp_ext_mngr.c ****   {
 274              		.loc 1 321 25 discriminator 2 view .LVU78
 321:MCSDK_v6.0.0-Full/MotorControl/MCSDK/MCLib/Any/Src/ramp_ext_mngr.c ****   {
 275              		.loc 1 321 26 is_stmt 0 discriminator 2 view .LVU79
 276 0014 0130     		adds	r0, r0, #1
 277              	.LVL20:
 321:MCSDK_v6.0.0-Full/MotorControl/MCSDK/MCLib/Any/Src/ramp_ext_mngr.c ****   {
 278              		.loc 1 321 26 discriminator 2 view .LVU80
 279 0016 C0B2     		uxtb	r0, r0
 280              	.LVL21:
 321:MCSDK_v6.0.0-Full/MotorControl/MCSDK/MCLib/Any/Src/ramp_ext_mngr.c ****   {
 281              		.loc 1 321 26 discriminator 2 view .LVU81
 282 0018 F5E7     		b	.L13
 283              	.LVL22:
 284              	.L16:
 314:MCSDK_v6.0.0-Full/MotorControl/MCSDK/MCLib/Any/Src/ramp_ext_mngr.c ****     TargetAbs = (uint32_t)aux;
 285              		.loc 1 314 5 is_stmt 1 view .LVU82
 314:MCSDK_v6.0.0-Full/MotorControl/MCSDK/MCLib/Any/Src/ramp_ext_mngr.c ****     TargetAbs = (uint32_t)aux;
 286              		.loc 1 314 9 is_stmt 0 view .LVU83
 287 001a 5242     		rsbs	r2, r2, #0
 315:MCSDK_v6.0.0-Full/MotorControl/MCSDK/MCLib/Any/Src/ramp_ext_mngr.c ****   }
 288              		.loc 1 315 5 is_stmt 1 view .LVU84
 289              	.LVL23:
 315:MCSDK_v6.0.0-Full/MotorControl/MCSDK/MCLib/Any/Src/ramp_ext_mngr.c ****   }
ARM GAS  /tmp/ccDmXnvl.s 			page 12


 290              		.loc 1 315 5 is_stmt 0 view .LVU85
 291 001c F2E7     		b	.L12
 292              	.LVL24:
 293              	.L14:
 332:MCSDK_v6.0.0-Full/MotorControl/MCSDK/MCLib/Any/Src/ramp_ext_mngr.c ****   }
 333:MCSDK_v6.0.0-Full/MotorControl/MCSDK/MCLib/Any/Src/ramp_ext_mngr.c ****   return (((uint32_t)1) << (i - 1U));
 294              		.loc 1 333 3 is_stmt 1 view .LVU86
 295              		.loc 1 333 31 is_stmt 0 view .LVU87
 296 001e 0138     		subs	r0, r0, #1
 297              	.LVL25:
 334:MCSDK_v6.0.0-Full/MotorControl/MCSDK/MCLib/Any/Src/ramp_ext_mngr.c **** }
 298              		.loc 1 334 1 view .LVU88
 299 0020 0123     		movs	r3, #1
 300 0022 03FA00F0 		lsl	r0, r3, r0
 301 0026 7047     		bx	lr
 302              		.cfi_endproc
 303              	.LFE1441:
 305              		.section	.text.REMNG_ExecRamp,"ax",%progbits
 306              		.align	1
 307              		.weak	REMNG_ExecRamp
 308              		.syntax unified
 309              		.thumb
 310              		.thumb_func
 311              		.fpu fpv4-sp-d16
 313              	REMNG_ExecRamp:
 314              	.LVL26:
 315              	.LFB1437:
 141:MCSDK_v6.0.0-Full/MotorControl/MCSDK/MCLib/Any/Src/ramp_ext_mngr.c ****   bool retVal = true;
 316              		.loc 1 141 1 is_stmt 1 view -0
 317              		.cfi_startproc
 318              		@ args = 0, pretend = 0, frame = 0
 319              		@ frame_needed = 0, uses_anonymous_args = 0
 141:MCSDK_v6.0.0-Full/MotorControl/MCSDK/MCLib/Any/Src/ramp_ext_mngr.c ****   bool retVal = true;
 320              		.loc 1 141 1 is_stmt 0 view .LVU90
 321 0000 2DE9F047 		push	{r4, r5, r6, r7, r8, r9, r10, lr}
 322              		.cfi_def_cfa_offset 32
 323              		.cfi_offset 4, -32
 324              		.cfi_offset 5, -28
 325              		.cfi_offset 6, -24
 326              		.cfi_offset 7, -20
 327              		.cfi_offset 8, -16
 328              		.cfi_offset 9, -12
 329              		.cfi_offset 10, -8
 330              		.cfi_offset 14, -4
 331 0004 0446     		mov	r4, r0
 332 0006 0F46     		mov	r7, r1
 142:MCSDK_v6.0.0-Full/MotorControl/MCSDK/MCLib/Any/Src/ramp_ext_mngr.c **** #ifdef NULL_RMP_EXT_MNG
 333              		.loc 1 142 3 is_stmt 1 view .LVU91
 334              	.LVL27:
 151:MCSDK_v6.0.0-Full/MotorControl/MCSDK/MCLib/Any/Src/ramp_ext_mngr.c ****     int32_t aux1;
 335              		.loc 1 151 5 view .LVU92
 152:MCSDK_v6.0.0-Full/MotorControl/MCSDK/MCLib/Any/Src/ramp_ext_mngr.c ****     int32_t current_ref;
 336              		.loc 1 152 5 view .LVU93
 153:MCSDK_v6.0.0-Full/MotorControl/MCSDK/MCLib/Any/Src/ramp_ext_mngr.c **** 
 337              		.loc 1 153 5 view .LVU94
 160:MCSDK_v6.0.0-Full/MotorControl/MCSDK/MCLib/Any/Src/ramp_ext_mngr.c **** #endif
 338              		.loc 1 160 5 view .LVU95
ARM GAS  /tmp/ccDmXnvl.s 			page 13


 160:MCSDK_v6.0.0-Full/MotorControl/MCSDK/MCLib/Any/Src/ramp_ext_mngr.c **** #endif
 339              		.loc 1 160 26 is_stmt 0 view .LVU96
 340 0008 8168     		ldr	r1, [r0, #8]
 341              	.LVL28:
 160:MCSDK_v6.0.0-Full/MotorControl/MCSDK/MCLib/Any/Src/ramp_ext_mngr.c **** #endif
 342              		.loc 1 160 51 view .LVU97
 343 000a 4369     		ldr	r3, [r0, #20]
 160:MCSDK_v6.0.0-Full/MotorControl/MCSDK/MCLib/Any/Src/ramp_ext_mngr.c **** #endif
 344              		.loc 1 160 17 view .LVU98
 345 000c 91FBF3F8 		sdiv	r8, r1, r3
 346              	.LVL29:
 163:MCSDK_v6.0.0-Full/MotorControl/MCSDK/MCLib/Any/Src/ramp_ext_mngr.c ****     {
 347              		.loc 1 163 5 is_stmt 1 view .LVU99
 163:MCSDK_v6.0.0-Full/MotorControl/MCSDK/MCLib/Any/Src/ramp_ext_mngr.c ****     {
 348              		.loc 1 163 8 is_stmt 0 view .LVU100
 349 0010 62B9     		cbnz	r2, .L18
 165:MCSDK_v6.0.0-Full/MotorControl/MCSDK/MCLib/Any/Src/ramp_ext_mngr.c ****       pHandle->Ext = TargetFinal * ((int32_t)pHandle->ScalingFactor);
 350              		.loc 1 165 7 is_stmt 1 view .LVU101
 165:MCSDK_v6.0.0-Full/MotorControl/MCSDK/MCLib/Any/Src/ramp_ext_mngr.c ****       pHandle->Ext = TargetFinal * ((int32_t)pHandle->ScalingFactor);
 351              		.loc 1 165 32 is_stmt 0 view .LVU102
 352 0012 3846     		mov	r0, r7
 353              	.LVL30:
 165:MCSDK_v6.0.0-Full/MotorControl/MCSDK/MCLib/Any/Src/ramp_ext_mngr.c ****       pHandle->Ext = TargetFinal * ((int32_t)pHandle->ScalingFactor);
 354              		.loc 1 165 32 view .LVU103
 355 0014 FFF7FEFF 		bl	getScalingFactor
 356              	.LVL31:
 165:MCSDK_v6.0.0-Full/MotorControl/MCSDK/MCLib/Any/Src/ramp_ext_mngr.c ****       pHandle->Ext = TargetFinal * ((int32_t)pHandle->ScalingFactor);
 357              		.loc 1 165 30 view .LVU104
 358 0018 6061     		str	r0, [r4, #20]
 166:MCSDK_v6.0.0-Full/MotorControl/MCSDK/MCLib/Any/Src/ramp_ext_mngr.c ****       pHandle->RampRemainingStep = 0U;
 359              		.loc 1 166 7 is_stmt 1 view .LVU105
 166:MCSDK_v6.0.0-Full/MotorControl/MCSDK/MCLib/Any/Src/ramp_ext_mngr.c ****       pHandle->RampRemainingStep = 0U;
 360              		.loc 1 166 34 is_stmt 0 view .LVU106
 361 001a 07FB00F0 		mul	r0, r7, r0
 166:MCSDK_v6.0.0-Full/MotorControl/MCSDK/MCLib/Any/Src/ramp_ext_mngr.c ****       pHandle->RampRemainingStep = 0U;
 362              		.loc 1 166 20 view .LVU107
 363 001e A060     		str	r0, [r4, #8]
 167:MCSDK_v6.0.0-Full/MotorControl/MCSDK/MCLib/Any/Src/ramp_ext_mngr.c ****       pHandle->IncDecAmount = 0;
 364              		.loc 1 167 7 is_stmt 1 view .LVU108
 167:MCSDK_v6.0.0-Full/MotorControl/MCSDK/MCLib/Any/Src/ramp_ext_mngr.c ****       pHandle->IncDecAmount = 0;
 365              		.loc 1 167 34 is_stmt 0 view .LVU109
 366 0020 0023     		movs	r3, #0
 367 0022 E360     		str	r3, [r4, #12]
 168:MCSDK_v6.0.0-Full/MotorControl/MCSDK/MCLib/Any/Src/ramp_ext_mngr.c ****     }
 368              		.loc 1 168 7 is_stmt 1 view .LVU110
 168:MCSDK_v6.0.0-Full/MotorControl/MCSDK/MCLib/Any/Src/ramp_ext_mngr.c ****     }
 369              		.loc 1 168 29 is_stmt 0 view .LVU111
 370 0024 2361     		str	r3, [r4, #16]
 371              	.L19:
 222:MCSDK_v6.0.0-Full/MotorControl/MCSDK/MCLib/Any/Src/ramp_ext_mngr.c **** }
 372              		.loc 1 222 3 is_stmt 1 view .LVU112
 223:MCSDK_v6.0.0-Full/MotorControl/MCSDK/MCLib/Any/Src/ramp_ext_mngr.c **** 
 373              		.loc 1 223 1 is_stmt 0 view .LVU113
 374 0026 0120     		movs	r0, #1
 375 0028 BDE8F087 		pop	{r4, r5, r6, r7, r8, r9, r10, pc}
 376              	.LVL32:
 377              	.L18:
ARM GAS  /tmp/ccDmXnvl.s 			page 14


 223:MCSDK_v6.0.0-Full/MotorControl/MCSDK/MCLib/Any/Src/ramp_ext_mngr.c **** 
 378              		.loc 1 223 1 view .LVU114
 379 002c 1546     		mov	r5, r2
 380              	.LBB3:
 172:MCSDK_v6.0.0-Full/MotorControl/MCSDK/MCLib/Any/Src/ramp_ext_mngr.c ****       uint32_t wScalingFactor2 = getScalingFactor(current_ref);
 381              		.loc 1 172 7 is_stmt 1 view .LVU115
 172:MCSDK_v6.0.0-Full/MotorControl/MCSDK/MCLib/Any/Src/ramp_ext_mngr.c ****       uint32_t wScalingFactor2 = getScalingFactor(current_ref);
 382              		.loc 1 172 33 is_stmt 0 view .LVU116
 383 002e A7EB0806 		sub	r6, r7, r8
 384 0032 3046     		mov	r0, r6
 385              	.LVL33:
 172:MCSDK_v6.0.0-Full/MotorControl/MCSDK/MCLib/Any/Src/ramp_ext_mngr.c ****       uint32_t wScalingFactor2 = getScalingFactor(current_ref);
 386              		.loc 1 172 33 view .LVU117
 387 0034 FFF7FEFF 		bl	getScalingFactor
 388              	.LVL34:
 172:MCSDK_v6.0.0-Full/MotorControl/MCSDK/MCLib/Any/Src/ramp_ext_mngr.c ****       uint32_t wScalingFactor2 = getScalingFactor(current_ref);
 389              		.loc 1 172 33 view .LVU118
 390 0038 8246     		mov	r10, r0
 391              	.LVL35:
 173:MCSDK_v6.0.0-Full/MotorControl/MCSDK/MCLib/Any/Src/ramp_ext_mngr.c ****       uint32_t wScalingFactor3 = getScalingFactor(TargetFinal);
 392              		.loc 1 173 7 is_stmt 1 view .LVU119
 173:MCSDK_v6.0.0-Full/MotorControl/MCSDK/MCLib/Any/Src/ramp_ext_mngr.c ****       uint32_t wScalingFactor3 = getScalingFactor(TargetFinal);
 393              		.loc 1 173 34 is_stmt 0 view .LVU120
 394 003a 4046     		mov	r0, r8
 395              	.LVL36:
 173:MCSDK_v6.0.0-Full/MotorControl/MCSDK/MCLib/Any/Src/ramp_ext_mngr.c ****       uint32_t wScalingFactor3 = getScalingFactor(TargetFinal);
 396              		.loc 1 173 34 view .LVU121
 397 003c FFF7FEFF 		bl	getScalingFactor
 398              	.LVL37:
 399 0040 8146     		mov	r9, r0
 400              	.LVL38:
 174:MCSDK_v6.0.0-Full/MotorControl/MCSDK/MCLib/Any/Src/ramp_ext_mngr.c ****       uint32_t wScalingFactorMin;
 401              		.loc 1 174 7 is_stmt 1 view .LVU122
 174:MCSDK_v6.0.0-Full/MotorControl/MCSDK/MCLib/Any/Src/ramp_ext_mngr.c ****       uint32_t wScalingFactorMin;
 402              		.loc 1 174 34 is_stmt 0 view .LVU123
 403 0042 3846     		mov	r0, r7
 404              	.LVL39:
 174:MCSDK_v6.0.0-Full/MotorControl/MCSDK/MCLib/Any/Src/ramp_ext_mngr.c ****       uint32_t wScalingFactorMin;
 405              		.loc 1 174 34 view .LVU124
 406 0044 FFF7FEFF 		bl	getScalingFactor
 407              	.LVL40:
 175:MCSDK_v6.0.0-Full/MotorControl/MCSDK/MCLib/Any/Src/ramp_ext_mngr.c **** 
 408              		.loc 1 175 7 is_stmt 1 view .LVU125
 177:MCSDK_v6.0.0-Full/MotorControl/MCSDK/MCLib/Any/Src/ramp_ext_mngr.c ****       {
 409              		.loc 1 177 7 view .LVU126
 177:MCSDK_v6.0.0-Full/MotorControl/MCSDK/MCLib/Any/Src/ramp_ext_mngr.c ****       {
 410              		.loc 1 177 10 is_stmt 0 view .LVU127
 411 0048 CA45     		cmp	r10, r9
 412 004a 16D2     		bcs	.L20
 179:MCSDK_v6.0.0-Full/MotorControl/MCSDK/MCLib/Any/Src/ramp_ext_mngr.c ****         {
 413              		.loc 1 179 9 is_stmt 1 view .LVU128
 179:MCSDK_v6.0.0-Full/MotorControl/MCSDK/MCLib/Any/Src/ramp_ext_mngr.c ****         {
 414              		.loc 1 179 12 is_stmt 0 view .LVU129
 415 004c 8245     		cmp	r10, r0
 416 004e 00D2     		bcs	.L21
 181:MCSDK_v6.0.0-Full/MotorControl/MCSDK/MCLib/Any/Src/ramp_ext_mngr.c ****         }
 417              		.loc 1 181 29 view .LVU130
ARM GAS  /tmp/ccDmXnvl.s 			page 15


 418 0050 5046     		mov	r0, r10
 419              	.LVL41:
 420              	.L21:
 200:MCSDK_v6.0.0-Full/MotorControl/MCSDK/MCLib/Any/Src/ramp_ext_mngr.c ****       pHandle->Ext = current_ref * ((int32_t)pHandle->ScalingFactor);
 421              		.loc 1 200 7 is_stmt 1 view .LVU131
 200:MCSDK_v6.0.0-Full/MotorControl/MCSDK/MCLib/Any/Src/ramp_ext_mngr.c ****       pHandle->Ext = current_ref * ((int32_t)pHandle->ScalingFactor);
 422              		.loc 1 200 30 is_stmt 0 view .LVU132
 423 0052 6061     		str	r0, [r4, #20]
 201:MCSDK_v6.0.0-Full/MotorControl/MCSDK/MCLib/Any/Src/ramp_ext_mngr.c **** 
 424              		.loc 1 201 7 is_stmt 1 view .LVU133
 201:MCSDK_v6.0.0-Full/MotorControl/MCSDK/MCLib/Any/Src/ramp_ext_mngr.c **** 
 425              		.loc 1 201 34 is_stmt 0 view .LVU134
 426 0054 08FB00F2 		mul	r2, r8, r0
 201:MCSDK_v6.0.0-Full/MotorControl/MCSDK/MCLib/Any/Src/ramp_ext_mngr.c **** 
 427              		.loc 1 201 20 view .LVU135
 428 0058 A260     		str	r2, [r4, #8]
 204:MCSDK_v6.0.0-Full/MotorControl/MCSDK/MCLib/Any/Src/ramp_ext_mngr.c **** 
 429              		.loc 1 204 7 is_stmt 1 view .LVU136
 204:MCSDK_v6.0.0-Full/MotorControl/MCSDK/MCLib/Any/Src/ramp_ext_mngr.c **** 
 430              		.loc 1 204 28 is_stmt 0 view .LVU137
 431 005a 6760     		str	r7, [r4, #4]
 208:MCSDK_v6.0.0-Full/MotorControl/MCSDK/MCLib/Any/Src/ramp_ext_mngr.c ****       aux /= 1000U;
 432              		.loc 1 208 7 is_stmt 1 view .LVU138
 208:MCSDK_v6.0.0-Full/MotorControl/MCSDK/MCLib/Any/Src/ramp_ext_mngr.c ****       aux /= 1000U;
 433              		.loc 1 208 44 is_stmt 0 view .LVU139
 434 005c 2268     		ldr	r2, [r4]
 208:MCSDK_v6.0.0-Full/MotorControl/MCSDK/MCLib/Any/Src/ramp_ext_mngr.c ****       aux /= 1000U;
 435              		.loc 1 208 11 view .LVU140
 436 005e 05FB02F5 		mul	r5, r5, r2
 437              	.LVL42:
 209:MCSDK_v6.0.0-Full/MotorControl/MCSDK/MCLib/Any/Src/ramp_ext_mngr.c ****       pHandle->RampRemainingStep = aux;
 438              		.loc 1 209 7 is_stmt 1 view .LVU141
 209:MCSDK_v6.0.0-Full/MotorControl/MCSDK/MCLib/Any/Src/ramp_ext_mngr.c ****       pHandle->RampRemainingStep = aux;
 439              		.loc 1 209 11 is_stmt 0 view .LVU142
 440 0062 084A     		ldr	r2, .L23
 441 0064 A2FB0535 		umull	r3, r5, r2, r5
 442              	.LVL43:
 209:MCSDK_v6.0.0-Full/MotorControl/MCSDK/MCLib/Any/Src/ramp_ext_mngr.c ****       pHandle->RampRemainingStep = aux;
 443              		.loc 1 209 11 view .LVU143
 444 0068 AD09     		lsrs	r5, r5, #6
 445              	.LVL44:
 210:MCSDK_v6.0.0-Full/MotorControl/MCSDK/MCLib/Any/Src/ramp_ext_mngr.c ****       pHandle->RampRemainingStep++;
 446              		.loc 1 210 7 is_stmt 1 view .LVU144
 211:MCSDK_v6.0.0-Full/MotorControl/MCSDK/MCLib/Any/Src/ramp_ext_mngr.c **** 
 447              		.loc 1 211 7 view .LVU145
 211:MCSDK_v6.0.0-Full/MotorControl/MCSDK/MCLib/Any/Src/ramp_ext_mngr.c **** 
 448              		.loc 1 211 33 is_stmt 0 view .LVU146
 449 006a 0135     		adds	r5, r5, #1
 450              	.LVL45:
 211:MCSDK_v6.0.0-Full/MotorControl/MCSDK/MCLib/Any/Src/ramp_ext_mngr.c **** 
 451              		.loc 1 211 33 view .LVU147
 452 006c E560     		str	r5, [r4, #12]
 215:MCSDK_v6.0.0-Full/MotorControl/MCSDK/MCLib/Any/Src/ramp_ext_mngr.c ****       aux1 /= ((int32_t)pHandle->RampRemainingStep);
 453              		.loc 1 215 7 is_stmt 1 view .LVU148
 215:MCSDK_v6.0.0-Full/MotorControl/MCSDK/MCLib/Any/Src/ramp_ext_mngr.c ****       aux1 /= ((int32_t)pHandle->RampRemainingStep);
 454              		.loc 1 215 12 is_stmt 0 view .LVU149
 455 006e 00FB06F3 		mul	r3, r0, r6
ARM GAS  /tmp/ccDmXnvl.s 			page 16


 456              	.LVL46:
 216:MCSDK_v6.0.0-Full/MotorControl/MCSDK/MCLib/Any/Src/ramp_ext_mngr.c ****       pHandle->IncDecAmount = aux1;
 457              		.loc 1 216 7 is_stmt 1 view .LVU150
 216:MCSDK_v6.0.0-Full/MotorControl/MCSDK/MCLib/Any/Src/ramp_ext_mngr.c ****       pHandle->IncDecAmount = aux1;
 458              		.loc 1 216 12 is_stmt 0 view .LVU151
 459 0072 93FBF5F5 		sdiv	r5, r3, r5
 460              	.LVL47:
 217:MCSDK_v6.0.0-Full/MotorControl/MCSDK/MCLib/Any/Src/ramp_ext_mngr.c ****     }
 461              		.loc 1 217 7 is_stmt 1 view .LVU152
 217:MCSDK_v6.0.0-Full/MotorControl/MCSDK/MCLib/Any/Src/ramp_ext_mngr.c ****     }
 462              		.loc 1 217 29 is_stmt 0 view .LVU153
 463 0076 2561     		str	r5, [r4, #16]
 464 0078 D5E7     		b	.L19
 465              	.LVL48:
 466              	.L20:
 190:MCSDK_v6.0.0-Full/MotorControl/MCSDK/MCLib/Any/Src/ramp_ext_mngr.c ****         {
 467              		.loc 1 190 9 is_stmt 1 view .LVU154
 190:MCSDK_v6.0.0-Full/MotorControl/MCSDK/MCLib/Any/Src/ramp_ext_mngr.c ****         {
 468              		.loc 1 190 12 is_stmt 0 view .LVU155
 469 007a 8145     		cmp	r9, r0
 470 007c E9D2     		bcs	.L21
 192:MCSDK_v6.0.0-Full/MotorControl/MCSDK/MCLib/Any/Src/ramp_ext_mngr.c ****         }
 471              		.loc 1 192 29 view .LVU156
 472 007e 4846     		mov	r0, r9
 473              	.LVL49:
 192:MCSDK_v6.0.0-Full/MotorControl/MCSDK/MCLib/Any/Src/ramp_ext_mngr.c ****         }
 474              		.loc 1 192 29 view .LVU157
 475 0080 E7E7     		b	.L21
 476              	.L24:
 477 0082 00BF     		.align	2
 478              	.L23:
 479 0084 D34D6210 		.word	274877907
 480              	.LBE3:
 481              		.cfi_endproc
 482              	.LFE1437:
 484              		.text
 485              	.Letext0:
 486              		.file 2 "/usr/lib/gcc/arm-none-eabi/9.2.1/include/stdint.h"
 487              		.file 3 "Drivers/CMSIS/Include/core_cm4.h"
 488              		.file 4 "Drivers/CMSIS/Device/ST/STM32G4xx/Include/system_stm32g4xx.h"
 489              		.file 5 "Drivers/STM32G4xx_HAL_Driver/Inc/stm32g4xx_hal_def.h"
 490              		.file 6 "Drivers/STM32G4xx_HAL_Driver/Inc/stm32g4xx_hal_flash.h"
 491              		.file 7 "Drivers/STM32G4xx_HAL_Driver/Inc/stm32g4xx_hal.h"
 492              		.file 8 "Drivers/STM32G4xx_HAL_Driver/Inc/stm32g4xx_ll_tim.h"
 493              		.file 9 "Drivers/STM32G4xx_HAL_Driver/Inc/stm32g4xx_ll_usart.h"
 494              		.file 10 "Drivers/STM32G4xx_HAL_Driver/Inc/stm32g4xx_ll_dma.h"
 495              		.file 11 "MCSDK_v6.0.0-Full/MotorControl/MCSDK/MCLib/Any/Inc/ramp_ext_mngr.h"
ARM GAS  /tmp/ccDmXnvl.s 			page 17

