ARM GAS  /tmp/cc47mRH9.s 			page 1


   1              		.cpu cortex-m4
   2              		.eabi_attribute 27, 1
   3              		.eabi_attribute 28, 1
   4              		.eabi_attribute 20, 1
   5              		.eabi_attribute 21, 1
   6              		.eabi_attribute 23, 3
   7              		.eabi_attribute 24, 1
   8              		.eabi_attribute 25, 1
   9              		.eabi_attribute 26, 1
  10              		.eabi_attribute 30, 1
  11              		.eabi_attribute 34, 1
  12              		.eabi_attribute 18, 4
  13              		.file	"revup_ctrl.c"
  14              		.text
  15              	.Ltext0:
  16              		.cfi_sections	.debug_frame
  17              		.section	.text.RUC_Init,"ax",%progbits
  18              		.align	1
  19              		.weak	RUC_Init
  20              		.arch armv7e-m
  21              		.syntax unified
  22              		.thumb
  23              		.thumb_func
  24              		.fpu fpv4-sp-d16
  26              	RUC_Init:
  27              	.LVL0:
  28              	.LFB1435:
  29              		.file 1 "MCSDK_v6.0.0-Full/MotorControl/MCSDK/MCLib/Any/Src/revup_ctrl.c"
   1:MCSDK_v6.0.0-Full/MotorControl/MCSDK/MCLib/Any/Src/revup_ctrl.c **** /**
   2:MCSDK_v6.0.0-Full/MotorControl/MCSDK/MCLib/Any/Src/revup_ctrl.c ****   ******************************************************************************
   3:MCSDK_v6.0.0-Full/MotorControl/MCSDK/MCLib/Any/Src/revup_ctrl.c ****   * @file    revup_ctrl.c
   4:MCSDK_v6.0.0-Full/MotorControl/MCSDK/MCLib/Any/Src/revup_ctrl.c ****   * @author  Motor Control SDK Team, ST Microelectronics
   5:MCSDK_v6.0.0-Full/MotorControl/MCSDK/MCLib/Any/Src/revup_ctrl.c ****   * @brief   This file provides firmware functions that implement the features
   6:MCSDK_v6.0.0-Full/MotorControl/MCSDK/MCLib/Any/Src/revup_ctrl.c ****   *          of the Rev-Up Control component of the Motor Control SDK:
   7:MCSDK_v6.0.0-Full/MotorControl/MCSDK/MCLib/Any/Src/revup_ctrl.c ****   *
   8:MCSDK_v6.0.0-Full/MotorControl/MCSDK/MCLib/Any/Src/revup_ctrl.c ****   *          * Main Rev-Up procedure to execute programmed phases
   9:MCSDK_v6.0.0-Full/MotorControl/MCSDK/MCLib/Any/Src/revup_ctrl.c ****   *          * On the Fly (OTF)
  10:MCSDK_v6.0.0-Full/MotorControl/MCSDK/MCLib/Any/Src/revup_ctrl.c ****   *
  11:MCSDK_v6.0.0-Full/MotorControl/MCSDK/MCLib/Any/Src/revup_ctrl.c ****   ******************************************************************************
  12:MCSDK_v6.0.0-Full/MotorControl/MCSDK/MCLib/Any/Src/revup_ctrl.c ****   * @attention
  13:MCSDK_v6.0.0-Full/MotorControl/MCSDK/MCLib/Any/Src/revup_ctrl.c ****   *
  14:MCSDK_v6.0.0-Full/MotorControl/MCSDK/MCLib/Any/Src/revup_ctrl.c ****   * <h2><center>&copy; Copyright (c) 2022 STMicroelectronics International N.V.
  15:MCSDK_v6.0.0-Full/MotorControl/MCSDK/MCLib/Any/Src/revup_ctrl.c ****   * All rights reserved.</center></h2>
  16:MCSDK_v6.0.0-Full/MotorControl/MCSDK/MCLib/Any/Src/revup_ctrl.c ****   *
  17:MCSDK_v6.0.0-Full/MotorControl/MCSDK/MCLib/Any/Src/revup_ctrl.c ****   * Redistribution and use in source and binary forms, with or without
  18:MCSDK_v6.0.0-Full/MotorControl/MCSDK/MCLib/Any/Src/revup_ctrl.c ****   * modification, are permitted, provided that the following conditions are met:
  19:MCSDK_v6.0.0-Full/MotorControl/MCSDK/MCLib/Any/Src/revup_ctrl.c ****   *
  20:MCSDK_v6.0.0-Full/MotorControl/MCSDK/MCLib/Any/Src/revup_ctrl.c ****   * 1. Redistribution of source code must retain the above copyright notice,
  21:MCSDK_v6.0.0-Full/MotorControl/MCSDK/MCLib/Any/Src/revup_ctrl.c ****   *    this list of conditions and the following disclaimer.
  22:MCSDK_v6.0.0-Full/MotorControl/MCSDK/MCLib/Any/Src/revup_ctrl.c ****   * 2. Redistributions in binary form must reproduce the above copyright notice,
  23:MCSDK_v6.0.0-Full/MotorControl/MCSDK/MCLib/Any/Src/revup_ctrl.c ****   *    this list of conditions and the following disclaimer in the documentation
  24:MCSDK_v6.0.0-Full/MotorControl/MCSDK/MCLib/Any/Src/revup_ctrl.c ****   *    and/or other materials provided with the distribution.
  25:MCSDK_v6.0.0-Full/MotorControl/MCSDK/MCLib/Any/Src/revup_ctrl.c ****   * 3. Neither the name of STMicroelectronics nor the names of other
  26:MCSDK_v6.0.0-Full/MotorControl/MCSDK/MCLib/Any/Src/revup_ctrl.c ****   *    contributors to this software may be used to endorse or promote products
  27:MCSDK_v6.0.0-Full/MotorControl/MCSDK/MCLib/Any/Src/revup_ctrl.c ****   *    derived from this software without specific written permission.
  28:MCSDK_v6.0.0-Full/MotorControl/MCSDK/MCLib/Any/Src/revup_ctrl.c ****   * 4. This software, including modifications and/or derivative works of this
  29:MCSDK_v6.0.0-Full/MotorControl/MCSDK/MCLib/Any/Src/revup_ctrl.c ****   *    software, must execute solely and exclusively on microcontroller or
ARM GAS  /tmp/cc47mRH9.s 			page 2


  30:MCSDK_v6.0.0-Full/MotorControl/MCSDK/MCLib/Any/Src/revup_ctrl.c ****   *    microprocessor devices manufactured by or for STMicroelectronics.
  31:MCSDK_v6.0.0-Full/MotorControl/MCSDK/MCLib/Any/Src/revup_ctrl.c ****   * 5. Redistribution and use of this software other than as permitted under
  32:MCSDK_v6.0.0-Full/MotorControl/MCSDK/MCLib/Any/Src/revup_ctrl.c ****   *    this license is void and will automatically terminate your rights under
  33:MCSDK_v6.0.0-Full/MotorControl/MCSDK/MCLib/Any/Src/revup_ctrl.c ****   *    this license.
  34:MCSDK_v6.0.0-Full/MotorControl/MCSDK/MCLib/Any/Src/revup_ctrl.c ****   *
  35:MCSDK_v6.0.0-Full/MotorControl/MCSDK/MCLib/Any/Src/revup_ctrl.c ****   * THIS SOFTWARE IS PROVIDED BY STMICROELECTRONICS AND CONTRIBUTORS "AS IS"
  36:MCSDK_v6.0.0-Full/MotorControl/MCSDK/MCLib/Any/Src/revup_ctrl.c ****   * AND ANY EXPRESS, IMPLIED OR STATUTORY WARRANTIES, INCLUDING, BUT NOT
  37:MCSDK_v6.0.0-Full/MotorControl/MCSDK/MCLib/Any/Src/revup_ctrl.c ****   * LIMITED TO, THE IMPLIED WARRANTIES OF MERCHANTABILITY, FITNESS FOR A
  38:MCSDK_v6.0.0-Full/MotorControl/MCSDK/MCLib/Any/Src/revup_ctrl.c ****   * PARTICULAR PURPOSE AND NON-INFRINGEMENT OF THIRD PARTY INTELLECTUAL PROPERTY
  39:MCSDK_v6.0.0-Full/MotorControl/MCSDK/MCLib/Any/Src/revup_ctrl.c ****   * RIGHTS ARE DISCLAIMED TO THE FULLEST EXTENT PERMITTED BY LAW. IN NO EVENT
  40:MCSDK_v6.0.0-Full/MotorControl/MCSDK/MCLib/Any/Src/revup_ctrl.c ****   * SHALL STMICROELECTRONICS OR CONTRIBUTORS BE LIABLE FOR ANY DIRECT, INDIRECT,
  41:MCSDK_v6.0.0-Full/MotorControl/MCSDK/MCLib/Any/Src/revup_ctrl.c ****   * INCIDENTAL, SPECIAL, EXEMPLARY, OR CONSEQUENTIAL DAMAGES (INCLUDING, BUT NOT
  42:MCSDK_v6.0.0-Full/MotorControl/MCSDK/MCLib/Any/Src/revup_ctrl.c ****   * LIMITED TO, PROCUREMENT OF SUBSTITUTE GOODS OR SERVICES; LOSS OF USE, DATA,
  43:MCSDK_v6.0.0-Full/MotorControl/MCSDK/MCLib/Any/Src/revup_ctrl.c ****   * OR PROFITS; OR BUSINESS INTERRUPTION) HOWEVER CAUSED AND ON ANY THEORY OF
  44:MCSDK_v6.0.0-Full/MotorControl/MCSDK/MCLib/Any/Src/revup_ctrl.c ****   * LIABILITY, WHETHER IN CONTRACT, STRICT LIABILITY, OR TORT (INCLUDING
  45:MCSDK_v6.0.0-Full/MotorControl/MCSDK/MCLib/Any/Src/revup_ctrl.c ****   * NEGLIGENCE OR OTHERWISE) ARISING IN ANY WAY OUT OF THE USE OF THIS SOFTWARE,
  46:MCSDK_v6.0.0-Full/MotorControl/MCSDK/MCLib/Any/Src/revup_ctrl.c ****   * EVEN IF ADVISED OF THE POSSIBILITY OF SUCH DAMAGE.
  47:MCSDK_v6.0.0-Full/MotorControl/MCSDK/MCLib/Any/Src/revup_ctrl.c ****   *
  48:MCSDK_v6.0.0-Full/MotorControl/MCSDK/MCLib/Any/Src/revup_ctrl.c ****   ******************************************************************************
  49:MCSDK_v6.0.0-Full/MotorControl/MCSDK/MCLib/Any/Src/revup_ctrl.c ****   * @ingroup RevUpCtrlFOC
  50:MCSDK_v6.0.0-Full/MotorControl/MCSDK/MCLib/Any/Src/revup_ctrl.c ****   */
  51:MCSDK_v6.0.0-Full/MotorControl/MCSDK/MCLib/Any/Src/revup_ctrl.c **** 
  52:MCSDK_v6.0.0-Full/MotorControl/MCSDK/MCLib/Any/Src/revup_ctrl.c **** /* Includes ------------------------------------------------------------------*/
  53:MCSDK_v6.0.0-Full/MotorControl/MCSDK/MCLib/Any/Src/revup_ctrl.c **** #include "revup_ctrl.h"
  54:MCSDK_v6.0.0-Full/MotorControl/MCSDK/MCLib/Any/Src/revup_ctrl.c **** 
  55:MCSDK_v6.0.0-Full/MotorControl/MCSDK/MCLib/Any/Src/revup_ctrl.c **** /** @addtogroup MCSDK
  56:MCSDK_v6.0.0-Full/MotorControl/MCSDK/MCLib/Any/Src/revup_ctrl.c ****   * @{
  57:MCSDK_v6.0.0-Full/MotorControl/MCSDK/MCLib/Any/Src/revup_ctrl.c ****   */
  58:MCSDK_v6.0.0-Full/MotorControl/MCSDK/MCLib/Any/Src/revup_ctrl.c **** 
  59:MCSDK_v6.0.0-Full/MotorControl/MCSDK/MCLib/Any/Src/revup_ctrl.c **** /** @defgroup RevUpCtrl Rev-Up Control
  60:MCSDK_v6.0.0-Full/MotorControl/MCSDK/MCLib/Any/Src/revup_ctrl.c ****   * @brief Rev-Up Control component of the Motor Control SDK
  61:MCSDK_v6.0.0-Full/MotorControl/MCSDK/MCLib/Any/Src/revup_ctrl.c ****   *
  62:MCSDK_v6.0.0-Full/MotorControl/MCSDK/MCLib/Any/Src/revup_ctrl.c ****   * Used to start up the motor with a set of pre-programmed phases.
  63:MCSDK_v6.0.0-Full/MotorControl/MCSDK/MCLib/Any/Src/revup_ctrl.c ****   *
  64:MCSDK_v6.0.0-Full/MotorControl/MCSDK/MCLib/Any/Src/revup_ctrl.c ****   * The number of phases of the Rev up procdure can range from 0 to 5.
  65:MCSDK_v6.0.0-Full/MotorControl/MCSDK/MCLib/Any/Src/revup_ctrl.c ****   * The Rev-Up controller must be called at speed loop frequency.
  66:MCSDK_v6.0.0-Full/MotorControl/MCSDK/MCLib/Any/Src/revup_ctrl.c ****   *
  67:MCSDK_v6.0.0-Full/MotorControl/MCSDK/MCLib/Any/Src/revup_ctrl.c ****   * @{
  68:MCSDK_v6.0.0-Full/MotorControl/MCSDK/MCLib/Any/Src/revup_ctrl.c ****   */
  69:MCSDK_v6.0.0-Full/MotorControl/MCSDK/MCLib/Any/Src/revup_ctrl.c **** 
  70:MCSDK_v6.0.0-Full/MotorControl/MCSDK/MCLib/Any/Src/revup_ctrl.c **** /** @defgroup RevUpCtrlFOC FOC Rev-Up Control component
  71:MCSDK_v6.0.0-Full/MotorControl/MCSDK/MCLib/Any/Src/revup_ctrl.c ****   * @brief Rev-Up control component used to start motor driven with 
  72:MCSDK_v6.0.0-Full/MotorControl/MCSDK/MCLib/Any/Src/revup_ctrl.c ****   *        the Field Oriented Control technique
  73:MCSDK_v6.0.0-Full/MotorControl/MCSDK/MCLib/Any/Src/revup_ctrl.c ****   *
  74:MCSDK_v6.0.0-Full/MotorControl/MCSDK/MCLib/Any/Src/revup_ctrl.c ****   * @{
  75:MCSDK_v6.0.0-Full/MotorControl/MCSDK/MCLib/Any/Src/revup_ctrl.c ****   */
  76:MCSDK_v6.0.0-Full/MotorControl/MCSDK/MCLib/Any/Src/revup_ctrl.c **** 
  77:MCSDK_v6.0.0-Full/MotorControl/MCSDK/MCLib/Any/Src/revup_ctrl.c **** /* Private defines -----------------------------------------------------------*/
  78:MCSDK_v6.0.0-Full/MotorControl/MCSDK/MCLib/Any/Src/revup_ctrl.c **** 
  79:MCSDK_v6.0.0-Full/MotorControl/MCSDK/MCLib/Any/Src/revup_ctrl.c **** /**
  80:MCSDK_v6.0.0-Full/MotorControl/MCSDK/MCLib/Any/Src/revup_ctrl.c ****   * @brief Timeout used to reset integral term of PLL.
  81:MCSDK_v6.0.0-Full/MotorControl/MCSDK/MCLib/Any/Src/revup_ctrl.c ****   *  It is expressed in ms.
  82:MCSDK_v6.0.0-Full/MotorControl/MCSDK/MCLib/Any/Src/revup_ctrl.c ****   *
  83:MCSDK_v6.0.0-Full/MotorControl/MCSDK/MCLib/Any/Src/revup_ctrl.c ****   */
  84:MCSDK_v6.0.0-Full/MotorControl/MCSDK/MCLib/Any/Src/revup_ctrl.c **** #define RUC_OTF_PLL_RESET_TIMEOUT 100u
  85:MCSDK_v6.0.0-Full/MotorControl/MCSDK/MCLib/Any/Src/revup_ctrl.c **** 
  86:MCSDK_v6.0.0-Full/MotorControl/MCSDK/MCLib/Any/Src/revup_ctrl.c **** /* Private functions ----------------------------------------------------------*/
ARM GAS  /tmp/cc47mRH9.s 			page 3


  87:MCSDK_v6.0.0-Full/MotorControl/MCSDK/MCLib/Any/Src/revup_ctrl.c **** int16_t RUC_GetPhaseFinalMecSpeed01Hz(RevUpCtrl_Handle_t *pHandle, uint8_t bPhase);
  88:MCSDK_v6.0.0-Full/MotorControl/MCSDK/MCLib/Any/Src/revup_ctrl.c **** 
  89:MCSDK_v6.0.0-Full/MotorControl/MCSDK/MCLib/Any/Src/revup_ctrl.c **** /**
  90:MCSDK_v6.0.0-Full/MotorControl/MCSDK/MCLib/Any/Src/revup_ctrl.c ****   * @brief  Initialize and configure the RevUpCtrl Component
  91:MCSDK_v6.0.0-Full/MotorControl/MCSDK/MCLib/Any/Src/revup_ctrl.c ****   * @param  pHandle: Pointer on Handle structure of RevUp controller.
  92:MCSDK_v6.0.0-Full/MotorControl/MCSDK/MCLib/Any/Src/revup_ctrl.c ****   * @param  pSTC: Pointer on speed and torque controller structure.
  93:MCSDK_v6.0.0-Full/MotorControl/MCSDK/MCLib/Any/Src/revup_ctrl.c ****   * @param  pVSS: Pointer on virtual speed sensor structure.
  94:MCSDK_v6.0.0-Full/MotorControl/MCSDK/MCLib/Any/Src/revup_ctrl.c ****   * @param  pSNSL: Pointer on sensorles state observer structure.
  95:MCSDK_v6.0.0-Full/MotorControl/MCSDK/MCLib/Any/Src/revup_ctrl.c ****   * @param  pPWM: Pointer on the PWM structure.
  96:MCSDK_v6.0.0-Full/MotorControl/MCSDK/MCLib/Any/Src/revup_ctrl.c ****   *  @retval none
  97:MCSDK_v6.0.0-Full/MotorControl/MCSDK/MCLib/Any/Src/revup_ctrl.c ****   */
  98:MCSDK_v6.0.0-Full/MotorControl/MCSDK/MCLib/Any/Src/revup_ctrl.c **** __weak void RUC_Init(RevUpCtrl_Handle_t *pHandle, SpeednTorqCtrl_Handle_t *pSTC, VirtualSpeedSensor
  99:MCSDK_v6.0.0-Full/MotorControl/MCSDK/MCLib/Any/Src/revup_ctrl.c ****                      STO_Handle_t *pSNSL, PWMC_Handle_t *pPWM)
 100:MCSDK_v6.0.0-Full/MotorControl/MCSDK/MCLib/Any/Src/revup_ctrl.c **** {
  30              		.loc 1 100 1 view -0
  31              		.cfi_startproc
  32              		@ args = 4, pretend = 0, frame = 0
  33              		@ frame_needed = 0, uses_anonymous_args = 0
  34              		@ link register save eliminated.
  35              		.loc 1 100 1 is_stmt 0 view .LVU1
  36 0000 10B4     		push	{r4}
  37              		.cfi_def_cfa_offset 4
  38              		.cfi_offset 4, -4
 101:MCSDK_v6.0.0-Full/MotorControl/MCSDK/MCLib/Any/Src/revup_ctrl.c **** #ifdef NULL_PTR_REV_UP_CTL
 102:MCSDK_v6.0.0-Full/MotorControl/MCSDK/MCLib/Any/Src/revup_ctrl.c ****   if (MC_NULL == pHandle)
 103:MCSDK_v6.0.0-Full/MotorControl/MCSDK/MCLib/Any/Src/revup_ctrl.c ****   {
 104:MCSDK_v6.0.0-Full/MotorControl/MCSDK/MCLib/Any/Src/revup_ctrl.c ****     /* Nothing to do */
 105:MCSDK_v6.0.0-Full/MotorControl/MCSDK/MCLib/Any/Src/revup_ctrl.c ****   }
 106:MCSDK_v6.0.0-Full/MotorControl/MCSDK/MCLib/Any/Src/revup_ctrl.c ****   else
 107:MCSDK_v6.0.0-Full/MotorControl/MCSDK/MCLib/Any/Src/revup_ctrl.c ****   {
 108:MCSDK_v6.0.0-Full/MotorControl/MCSDK/MCLib/Any/Src/revup_ctrl.c **** #endif
 109:MCSDK_v6.0.0-Full/MotorControl/MCSDK/MCLib/Any/Src/revup_ctrl.c ****     RevUpCtrl_PhaseParams_t *pRUCPhaseParams = &pHandle->ParamsData[0];
  39              		.loc 1 109 5 is_stmt 1 view .LVU2
  40              		.loc 1 109 30 is_stmt 0 view .LVU3
  41 0002 00F10C04 		add	r4, r0, #12
  42              	.LVL1:
 110:MCSDK_v6.0.0-Full/MotorControl/MCSDK/MCLib/Any/Src/revup_ctrl.c ****     uint8_t bPhase = 0U;
  43              		.loc 1 110 5 is_stmt 1 view .LVU4
 111:MCSDK_v6.0.0-Full/MotorControl/MCSDK/MCLib/Any/Src/revup_ctrl.c **** 
 112:MCSDK_v6.0.0-Full/MotorControl/MCSDK/MCLib/Any/Src/revup_ctrl.c ****     pHandle->pSTC = pSTC;
  44              		.loc 1 112 5 view .LVU5
  45              		.loc 1 112 19 is_stmt 0 view .LVU6
  46 0006 8166     		str	r1, [r0, #104]
 113:MCSDK_v6.0.0-Full/MotorControl/MCSDK/MCLib/Any/Src/revup_ctrl.c ****     pHandle->pVSS = pVSS;
  47              		.loc 1 113 5 is_stmt 1 view .LVU7
  48              		.loc 1 113 19 is_stmt 0 view .LVU8
  49 0008 C266     		str	r2, [r0, #108]
 114:MCSDK_v6.0.0-Full/MotorControl/MCSDK/MCLib/Any/Src/revup_ctrl.c ****     pHandle->pSNSL = pSNSL;
  50              		.loc 1 114 5 is_stmt 1 view .LVU9
  51              		.loc 1 114 20 is_stmt 0 view .LVU10
  52 000a 0367     		str	r3, [r0, #112]
 115:MCSDK_v6.0.0-Full/MotorControl/MCSDK/MCLib/Any/Src/revup_ctrl.c ****     pHandle->pPWM = pPWM;
  53              		.loc 1 115 5 is_stmt 1 view .LVU11
  54              		.loc 1 115 19 is_stmt 0 view .LVU12
  55 000c 019B     		ldr	r3, [sp, #4]
  56              	.LVL2:
  57              		.loc 1 115 19 view .LVU13
ARM GAS  /tmp/cc47mRH9.s 			page 4


  58 000e 4367     		str	r3, [r0, #116]
 116:MCSDK_v6.0.0-Full/MotorControl/MCSDK/MCLib/Any/Src/revup_ctrl.c ****     pHandle->OTFSCLowside = false;
  59              		.loc 1 116 5 is_stmt 1 view .LVU14
  60              		.loc 1 116 27 is_stmt 0 view .LVU15
  61 0010 0023     		movs	r3, #0
  62 0012 80F85430 		strb	r3, [r0, #84]
 117:MCSDK_v6.0.0-Full/MotorControl/MCSDK/MCLib/Any/Src/revup_ctrl.c ****     pHandle->EnteredZone1 = false;
  63              		.loc 1 117 5 is_stmt 1 view .LVU16
  64              		.loc 1 117 27 is_stmt 0 view .LVU17
  65 0016 80F85530 		strb	r3, [r0, #85]
 118:MCSDK_v6.0.0-Full/MotorControl/MCSDK/MCLib/Any/Src/revup_ctrl.c **** 
 119:MCSDK_v6.0.0-Full/MotorControl/MCSDK/MCLib/Any/Src/revup_ctrl.c ****     while ((pRUCPhaseParams != MC_NULL) && (bPhase < RUC_MAX_PHASE_NUMBER))
  66              		.loc 1 119 5 is_stmt 1 view .LVU18
  67              	.LVL3:
  68              	.L2:
  69              		.loc 1 119 11 view .LVU19
  70 001a 2CB1     		cbz	r4, .L3
  71              		.loc 1 119 41 is_stmt 0 discriminator 1 view .LVU20
  72 001c 042B     		cmp	r3, #4
  73 001e 03D8     		bhi	.L3
 120:MCSDK_v6.0.0-Full/MotorControl/MCSDK/MCLib/Any/Src/revup_ctrl.c ****     {
 121:MCSDK_v6.0.0-Full/MotorControl/MCSDK/MCLib/Any/Src/revup_ctrl.c ****       /* Dump HF data for now HF data are forced to 16 bits*/
 122:MCSDK_v6.0.0-Full/MotorControl/MCSDK/MCLib/Any/Src/revup_ctrl.c ****       pRUCPhaseParams = (RevUpCtrl_PhaseParams_t *)pRUCPhaseParams->pNext;  //cstat !MISRAC2012-Rul
  74              		.loc 1 122 7 is_stmt 1 view .LVU21
  75              		.loc 1 122 23 is_stmt 0 view .LVU22
  76 0020 A468     		ldr	r4, [r4, #8]
  77              	.LVL4:
 123:MCSDK_v6.0.0-Full/MotorControl/MCSDK/MCLib/Any/Src/revup_ctrl.c ****       bPhase++;
  78              		.loc 1 123 7 is_stmt 1 view .LVU23
  79              		.loc 1 123 13 is_stmt 0 view .LVU24
  80 0022 0133     		adds	r3, r3, #1
  81              	.LVL5:
  82              		.loc 1 123 13 view .LVU25
  83 0024 DBB2     		uxtb	r3, r3
  84              	.LVL6:
  85              		.loc 1 123 13 view .LVU26
  86 0026 F8E7     		b	.L2
  87              	.L3:
 124:MCSDK_v6.0.0-Full/MotorControl/MCSDK/MCLib/Any/Src/revup_ctrl.c ****     }
 125:MCSDK_v6.0.0-Full/MotorControl/MCSDK/MCLib/Any/Src/revup_ctrl.c **** 
 126:MCSDK_v6.0.0-Full/MotorControl/MCSDK/MCLib/Any/Src/revup_ctrl.c ****     if (0U == bPhase)
  88              		.loc 1 126 5 is_stmt 1 view .LVU27
  89              		.loc 1 126 8 is_stmt 0 view .LVU28
  90 0028 9BB1     		cbz	r3, .L1
 127:MCSDK_v6.0.0-Full/MotorControl/MCSDK/MCLib/Any/Src/revup_ctrl.c ****     {
 128:MCSDK_v6.0.0-Full/MotorControl/MCSDK/MCLib/Any/Src/revup_ctrl.c ****       /* nothing to do error */
 129:MCSDK_v6.0.0-Full/MotorControl/MCSDK/MCLib/Any/Src/revup_ctrl.c ****     }
 130:MCSDK_v6.0.0-Full/MotorControl/MCSDK/MCLib/Any/Src/revup_ctrl.c ****     else
 131:MCSDK_v6.0.0-Full/MotorControl/MCSDK/MCLib/Any/Src/revup_ctrl.c ****     {
 132:MCSDK_v6.0.0-Full/MotorControl/MCSDK/MCLib/Any/Src/revup_ctrl.c ****       pHandle->ParamsData[bPhase - 1u].pNext = MC_NULL;
  91              		.loc 1 132 7 is_stmt 1 view .LVU29
  92              		.loc 1 132 34 is_stmt 0 view .LVU30
  93 002a 5A1E     		subs	r2, r3, #1
  94              	.LVL7:
  95              		.loc 1 132 46 view .LVU31
  96 002c 02EB4202 		add	r2, r2, r2, lsl #1
  97 0030 00EB8202 		add	r2, r0, r2, lsl #2
ARM GAS  /tmp/cc47mRH9.s 			page 5


  98 0034 0021     		movs	r1, #0
  99              	.LVL8:
 100              		.loc 1 132 46 view .LVU32
 101 0036 5161     		str	r1, [r2, #20]
 102              	.LVL9:
 133:MCSDK_v6.0.0-Full/MotorControl/MCSDK/MCLib/Any/Src/revup_ctrl.c **** 
 134:MCSDK_v6.0.0-Full/MotorControl/MCSDK/MCLib/Any/Src/revup_ctrl.c ****       pHandle->bPhaseNbr = bPhase;
 103              		.loc 1 134 7 is_stmt 1 view .LVU33
 104              		.loc 1 134 26 is_stmt 0 view .LVU34
 105 0038 80F84830 		strb	r3, [r0, #72]
 135:MCSDK_v6.0.0-Full/MotorControl/MCSDK/MCLib/Any/Src/revup_ctrl.c **** 
 136:MCSDK_v6.0.0-Full/MotorControl/MCSDK/MCLib/Any/Src/revup_ctrl.c ****       pHandle->bResetPLLTh = (uint8_t)((RUC_OTF_PLL_RESET_TIMEOUT * pHandle->hRUCFrequencyHz) / 100
 106              		.loc 1 136 7 is_stmt 1 view .LVU35
 107              		.loc 1 136 76 is_stmt 0 view .LVU36
 108 003c 0288     		ldrh	r2, [r0]
 109              		.loc 1 136 67 view .LVU37
 110 003e 6423     		movs	r3, #100
 111              	.LVL10:
 112              		.loc 1 136 67 view .LVU38
 113 0040 03FB02F3 		mul	r3, r3, r2
 114              		.loc 1 136 95 view .LVU39
 115 0044 044A     		ldr	r2, .L7
 116 0046 A2FB0323 		umull	r2, r3, r2, r3
 117              		.loc 1 136 30 view .LVU40
 118 004a C3F38713 		ubfx	r3, r3, #6, #8
 119              		.loc 1 136 28 view .LVU41
 120 004e 80F85630 		strb	r3, [r0, #86]
 121              	.LVL11:
 122              	.L1:
 137:MCSDK_v6.0.0-Full/MotorControl/MCSDK/MCLib/Any/Src/revup_ctrl.c ****     }
 138:MCSDK_v6.0.0-Full/MotorControl/MCSDK/MCLib/Any/Src/revup_ctrl.c **** #ifdef NULL_PTR_REV_UP_CTL
 139:MCSDK_v6.0.0-Full/MotorControl/MCSDK/MCLib/Any/Src/revup_ctrl.c ****   }
 140:MCSDK_v6.0.0-Full/MotorControl/MCSDK/MCLib/Any/Src/revup_ctrl.c **** #endif
 141:MCSDK_v6.0.0-Full/MotorControl/MCSDK/MCLib/Any/Src/revup_ctrl.c **** }
 123              		.loc 1 141 1 view .LVU42
 124 0052 5DF8044B 		ldr	r4, [sp], #4
 125              		.cfi_restore 4
 126              		.cfi_def_cfa_offset 0
 127              	.LVL12:
 128              		.loc 1 141 1 view .LVU43
 129 0056 7047     		bx	lr
 130              	.L8:
 131              		.align	2
 132              	.L7:
 133 0058 D34D6210 		.word	274877907
 134              		.cfi_endproc
 135              	.LFE1435:
 137              		.section	.text.RUC_Clear,"ax",%progbits
 138              		.align	1
 139              		.weak	RUC_Clear
 140              		.syntax unified
 141              		.thumb
 142              		.thumb_func
 143              		.fpu fpv4-sp-d16
 145              	RUC_Clear:
 146              	.LVL13:
 147              	.LFB1436:
ARM GAS  /tmp/cc47mRH9.s 			page 6


 142:MCSDK_v6.0.0-Full/MotorControl/MCSDK/MCLib/Any/Src/revup_ctrl.c **** 
 143:MCSDK_v6.0.0-Full/MotorControl/MCSDK/MCLib/Any/Src/revup_ctrl.c **** /**
 144:MCSDK_v6.0.0-Full/MotorControl/MCSDK/MCLib/Any/Src/revup_ctrl.c ****   * @brief  Initialize internal RevUp controller state.
 145:MCSDK_v6.0.0-Full/MotorControl/MCSDK/MCLib/Any/Src/revup_ctrl.c ****   * @param  pHandle: Pointer on Handle structure of RevUp controller.
 146:MCSDK_v6.0.0-Full/MotorControl/MCSDK/MCLib/Any/Src/revup_ctrl.c ****   * @param  hMotorDirection: rotor rotation direction.
 147:MCSDK_v6.0.0-Full/MotorControl/MCSDK/MCLib/Any/Src/revup_ctrl.c ****   *         This parameter must be -1 or +1.
 148:MCSDK_v6.0.0-Full/MotorControl/MCSDK/MCLib/Any/Src/revup_ctrl.c ****   *  @retval none
 149:MCSDK_v6.0.0-Full/MotorControl/MCSDK/MCLib/Any/Src/revup_ctrl.c ****   */
 150:MCSDK_v6.0.0-Full/MotorControl/MCSDK/MCLib/Any/Src/revup_ctrl.c **** __weak void RUC_Clear(RevUpCtrl_Handle_t *pHandle, int16_t hMotorDirection)
 151:MCSDK_v6.0.0-Full/MotorControl/MCSDK/MCLib/Any/Src/revup_ctrl.c **** {
 148              		.loc 1 151 1 is_stmt 1 view -0
 149              		.cfi_startproc
 150              		@ args = 0, pretend = 0, frame = 0
 151              		@ frame_needed = 0, uses_anonymous_args = 0
 152              		.loc 1 151 1 is_stmt 0 view .LVU45
 153 0000 2DE9F041 		push	{r4, r5, r6, r7, r8, lr}
 154              		.cfi_def_cfa_offset 24
 155              		.cfi_offset 4, -24
 156              		.cfi_offset 5, -20
 157              		.cfi_offset 6, -16
 158              		.cfi_offset 7, -12
 159              		.cfi_offset 8, -8
 160              		.cfi_offset 14, -4
 161 0004 0446     		mov	r4, r0
 162 0006 0D46     		mov	r5, r1
 152:MCSDK_v6.0.0-Full/MotorControl/MCSDK/MCLib/Any/Src/revup_ctrl.c **** #ifdef NULL_PTR_REV_UP_CTL
 153:MCSDK_v6.0.0-Full/MotorControl/MCSDK/MCLib/Any/Src/revup_ctrl.c ****   if (MC_NULL == pHandle)
 154:MCSDK_v6.0.0-Full/MotorControl/MCSDK/MCLib/Any/Src/revup_ctrl.c ****   {
 155:MCSDK_v6.0.0-Full/MotorControl/MCSDK/MCLib/Any/Src/revup_ctrl.c ****     /* Nothing to do */
 156:MCSDK_v6.0.0-Full/MotorControl/MCSDK/MCLib/Any/Src/revup_ctrl.c ****   }
 157:MCSDK_v6.0.0-Full/MotorControl/MCSDK/MCLib/Any/Src/revup_ctrl.c ****   else
 158:MCSDK_v6.0.0-Full/MotorControl/MCSDK/MCLib/Any/Src/revup_ctrl.c ****   {
 159:MCSDK_v6.0.0-Full/MotorControl/MCSDK/MCLib/Any/Src/revup_ctrl.c **** #endif
 160:MCSDK_v6.0.0-Full/MotorControl/MCSDK/MCLib/Any/Src/revup_ctrl.c ****     VirtualSpeedSensor_Handle_t *pVSS = pHandle->pVSS;
 163              		.loc 1 160 5 is_stmt 1 view .LVU46
 164              		.loc 1 160 34 is_stmt 0 view .LVU47
 165 0008 C76E     		ldr	r7, [r0, #108]
 166              	.LVL14:
 161:MCSDK_v6.0.0-Full/MotorControl/MCSDK/MCLib/Any/Src/revup_ctrl.c ****     SpeednTorqCtrl_Handle_t *pSTC = pHandle->pSTC;
 167              		.loc 1 161 5 is_stmt 1 view .LVU48
 168              		.loc 1 161 30 is_stmt 0 view .LVU49
 169 000a D0F86880 		ldr	r8, [r0, #104]
 170              	.LVL15:
 162:MCSDK_v6.0.0-Full/MotorControl/MCSDK/MCLib/Any/Src/revup_ctrl.c ****     RevUpCtrl_PhaseParams_t *pPhaseParams = pHandle->ParamsData;
 171              		.loc 1 162 5 is_stmt 1 view .LVU50
 163:MCSDK_v6.0.0-Full/MotorControl/MCSDK/MCLib/Any/Src/revup_ctrl.c **** 
 164:MCSDK_v6.0.0-Full/MotorControl/MCSDK/MCLib/Any/Src/revup_ctrl.c ****     pHandle->hDirection = hMotorDirection;
 172              		.loc 1 164 5 view .LVU51
 173              		.loc 1 164 25 is_stmt 0 view .LVU52
 174 000e C180     		strh	r1, [r0, #6]	@ movhi
 165:MCSDK_v6.0.0-Full/MotorControl/MCSDK/MCLib/Any/Src/revup_ctrl.c ****     pHandle->EnteredZone1 = false;
 175              		.loc 1 165 5 is_stmt 1 view .LVU53
 176              		.loc 1 165 27 is_stmt 0 view .LVU54
 177 0010 0026     		movs	r6, #0
 178 0012 80F85560 		strb	r6, [r0, #85]
 166:MCSDK_v6.0.0-Full/MotorControl/MCSDK/MCLib/Any/Src/revup_ctrl.c **** 
 167:MCSDK_v6.0.0-Full/MotorControl/MCSDK/MCLib/Any/Src/revup_ctrl.c ****     /*Initializes the rev up stages counter.*/
ARM GAS  /tmp/cc47mRH9.s 			page 7


 168:MCSDK_v6.0.0-Full/MotorControl/MCSDK/MCLib/Any/Src/revup_ctrl.c ****     pHandle->bStageCnt = 0U;
 179              		.loc 1 168 5 is_stmt 1 view .LVU55
 180              		.loc 1 168 24 is_stmt 0 view .LVU56
 181 0016 80F85860 		strb	r6, [r0, #88]
 169:MCSDK_v6.0.0-Full/MotorControl/MCSDK/MCLib/Any/Src/revup_ctrl.c ****     pHandle->bOTFRelCounter = 0U;
 182              		.loc 1 169 5 is_stmt 1 view .LVU57
 183              		.loc 1 169 29 is_stmt 0 view .LVU58
 184 001a 80F85360 		strb	r6, [r0, #83]
 170:MCSDK_v6.0.0-Full/MotorControl/MCSDK/MCLib/Any/Src/revup_ctrl.c ****     pHandle->OTFSCLowside = false;
 185              		.loc 1 170 5 is_stmt 1 view .LVU59
 186              		.loc 1 170 27 is_stmt 0 view .LVU60
 187 001e 80F85460 		strb	r6, [r0, #84]
 171:MCSDK_v6.0.0-Full/MotorControl/MCSDK/MCLib/Any/Src/revup_ctrl.c **** 
 172:MCSDK_v6.0.0-Full/MotorControl/MCSDK/MCLib/Any/Src/revup_ctrl.c ****     /* Calls the clear method of VSS.*/
 173:MCSDK_v6.0.0-Full/MotorControl/MCSDK/MCLib/Any/Src/revup_ctrl.c ****     VSS_Clear(pVSS);
 188              		.loc 1 173 5 is_stmt 1 view .LVU61
 189 0022 3846     		mov	r0, r7
 190              	.LVL16:
 191              		.loc 1 173 5 is_stmt 0 view .LVU62
 192 0024 FFF7FEFF 		bl	VSS_Clear
 193              	.LVL17:
 174:MCSDK_v6.0.0-Full/MotorControl/MCSDK/MCLib/Any/Src/revup_ctrl.c **** 
 175:MCSDK_v6.0.0-Full/MotorControl/MCSDK/MCLib/Any/Src/revup_ctrl.c ****     /* Sets the STC in torque mode.*/
 176:MCSDK_v6.0.0-Full/MotorControl/MCSDK/MCLib/Any/Src/revup_ctrl.c ****     STC_SetControlMode(pSTC, MCM_TORQUE_MODE);
 194              		.loc 1 176 5 is_stmt 1 view .LVU63
 195 0028 0421     		movs	r1, #4
 196 002a 4046     		mov	r0, r8
 197 002c FFF7FEFF 		bl	STC_SetControlMode
 198              	.LVL18:
 177:MCSDK_v6.0.0-Full/MotorControl/MCSDK/MCLib/Any/Src/revup_ctrl.c **** 
 178:MCSDK_v6.0.0-Full/MotorControl/MCSDK/MCLib/Any/Src/revup_ctrl.c ****     /* Sets the mechanical starting angle of VSS.*/
 179:MCSDK_v6.0.0-Full/MotorControl/MCSDK/MCLib/Any/Src/revup_ctrl.c ****     VSS_SetMecAngle(pVSS, pHandle->hStartingMecAngle * hMotorDirection);
 199              		.loc 1 179 5 view .LVU64
 200              		.loc 1 179 34 is_stmt 0 view .LVU65
 201 0030 6188     		ldrh	r1, [r4, #2]
 202              		.loc 1 179 54 view .LVU66
 203 0032 ADB2     		uxth	r5, r5
 204 0034 11FB05F1 		smulbb	r1, r1, r5
 205              		.loc 1 179 5 view .LVU67
 206 0038 09B2     		sxth	r1, r1
 207 003a 3846     		mov	r0, r7
 208 003c FFF7FEFF 		bl	VSS_SetMecAngle
 209              	.LVL19:
 180:MCSDK_v6.0.0-Full/MotorControl/MCSDK/MCLib/Any/Src/revup_ctrl.c **** 
 181:MCSDK_v6.0.0-Full/MotorControl/MCSDK/MCLib/Any/Src/revup_ctrl.c ****     /* Sets to zero the starting torque of STC */
 182:MCSDK_v6.0.0-Full/MotorControl/MCSDK/MCLib/Any/Src/revup_ctrl.c ****     (void)STC_ExecRamp(pSTC, 0, 0U);
 210              		.loc 1 182 5 is_stmt 1 view .LVU68
 211              		.loc 1 182 11 is_stmt 0 view .LVU69
 212 0040 3246     		mov	r2, r6
 213 0042 3146     		mov	r1, r6
 214 0044 4046     		mov	r0, r8
 215 0046 FFF7FEFF 		bl	STC_ExecRamp
 216              	.LVL20:
 183:MCSDK_v6.0.0-Full/MotorControl/MCSDK/MCLib/Any/Src/revup_ctrl.c **** 
 184:MCSDK_v6.0.0-Full/MotorControl/MCSDK/MCLib/Any/Src/revup_ctrl.c ****     /* Gives the first command to STC and VSS.*/
 185:MCSDK_v6.0.0-Full/MotorControl/MCSDK/MCLib/Any/Src/revup_ctrl.c ****     (void)STC_ExecRamp(pSTC, pPhaseParams->hFinalTorque * hMotorDirection, (uint32_t)(pPhaseParams-
 217              		.loc 1 185 5 is_stmt 1 view .LVU70
ARM GAS  /tmp/cc47mRH9.s 			page 8


 218              		.loc 1 185 42 is_stmt 0 view .LVU71
 219 004a 218A     		ldrh	r1, [r4, #16]
 220              		.loc 1 185 57 view .LVU72
 221 004c 15FB01F1 		smulbb	r1, r5, r1
 222              		.loc 1 185 11 view .LVU73
 223 0050 A289     		ldrh	r2, [r4, #12]
 224 0052 09B2     		sxth	r1, r1
 225 0054 4046     		mov	r0, r8
 226 0056 FFF7FEFF 		bl	STC_ExecRamp
 227              	.LVL21:
 186:MCSDK_v6.0.0-Full/MotorControl/MCSDK/MCLib/Any/Src/revup_ctrl.c **** 
 187:MCSDK_v6.0.0-Full/MotorControl/MCSDK/MCLib/Any/Src/revup_ctrl.c ****     VSS_SetMecAcceleration(pVSS, pPhaseParams->hFinalMecSpeedUnit * hMotorDirection, pPhaseParams->
 228              		.loc 1 187 5 is_stmt 1 view .LVU74
 229              		.loc 1 187 46 is_stmt 0 view .LVU75
 230 005a E189     		ldrh	r1, [r4, #14]
 231              		.loc 1 187 67 view .LVU76
 232 005c 15FB01F1 		smulbb	r1, r5, r1
 233              		.loc 1 187 5 view .LVU77
 234 0060 A289     		ldrh	r2, [r4, #12]
 235 0062 09B2     		sxth	r1, r1
 236 0064 3846     		mov	r0, r7
 237 0066 FFF7FEFF 		bl	VSS_SetMecAcceleration
 238              	.LVL22:
 188:MCSDK_v6.0.0-Full/MotorControl/MCSDK/MCLib/Any/Src/revup_ctrl.c **** 
 189:MCSDK_v6.0.0-Full/MotorControl/MCSDK/MCLib/Any/Src/revup_ctrl.c ****     /* Compute hPhaseRemainingTicks.*/
 190:MCSDK_v6.0.0-Full/MotorControl/MCSDK/MCLib/Any/Src/revup_ctrl.c ****     pHandle->hPhaseRemainingTicks = (uint16_t)((((uint32_t)pPhaseParams->hDurationms)
 239              		.loc 1 190 5 is_stmt 1 view .LVU78
 240              		.loc 1 190 72 is_stmt 0 view .LVU79
 241 006a A289     		ldrh	r2, [r4, #12]
 191:MCSDK_v6.0.0-Full/MotorControl/MCSDK/MCLib/Any/Src/revup_ctrl.c ****                                               * ((uint32_t)pHandle->hRUCFrequencyHz))
 242              		.loc 1 191 67 view .LVU80
 243 006c 2388     		ldrh	r3, [r4]
 244              		.loc 1 191 47 view .LVU81
 245 006e 03FB02F3 		mul	r3, r3, r2
 192:MCSDK_v6.0.0-Full/MotorControl/MCSDK/MCLib/Any/Src/revup_ctrl.c ****                                               / 1000U );
 246              		.loc 1 192 47 view .LVU82
 247 0072 064A     		ldr	r2, .L11
 248 0074 A2FB0323 		umull	r2, r3, r2, r3
 190:MCSDK_v6.0.0-Full/MotorControl/MCSDK/MCLib/Any/Src/revup_ctrl.c ****                                               * ((uint32_t)pHandle->hRUCFrequencyHz))
 249              		.loc 1 190 37 view .LVU83
 250 0078 C3F38F13 		ubfx	r3, r3, #6, #16
 193:MCSDK_v6.0.0-Full/MotorControl/MCSDK/MCLib/Any/Src/revup_ctrl.c **** 
 194:MCSDK_v6.0.0-Full/MotorControl/MCSDK/MCLib/Any/Src/revup_ctrl.c ****     pHandle->hPhaseRemainingTicks++;
 251              		.loc 1 194 5 is_stmt 1 view .LVU84
 252              		.loc 1 194 34 is_stmt 0 view .LVU85
 253 007c 0133     		adds	r3, r3, #1
 254 007e A380     		strh	r3, [r4, #4]	@ movhi
 195:MCSDK_v6.0.0-Full/MotorControl/MCSDK/MCLib/Any/Src/revup_ctrl.c **** 
 196:MCSDK_v6.0.0-Full/MotorControl/MCSDK/MCLib/Any/Src/revup_ctrl.c ****     /*Set the next phases parameter pointer.*/
 197:MCSDK_v6.0.0-Full/MotorControl/MCSDK/MCLib/Any/Src/revup_ctrl.c ****     pHandle->pCurrentPhaseParams = (RevUpCtrl_PhaseParams_t *)pPhaseParams->pNext;  //cstat !MISRAC
 255              		.loc 1 197 5 is_stmt 1 view .LVU86
 256              		.loc 1 197 75 is_stmt 0 view .LVU87
 257 0080 6369     		ldr	r3, [r4, #20]
 258              		.loc 1 197 34 view .LVU88
 259 0082 A360     		str	r3, [r4, #8]
 198:MCSDK_v6.0.0-Full/MotorControl/MCSDK/MCLib/Any/Src/revup_ctrl.c **** 
 199:MCSDK_v6.0.0-Full/MotorControl/MCSDK/MCLib/Any/Src/revup_ctrl.c ****     /*Timeout counter for PLL reset during OTF.*/
ARM GAS  /tmp/cc47mRH9.s 			page 9


 200:MCSDK_v6.0.0-Full/MotorControl/MCSDK/MCLib/Any/Src/revup_ctrl.c ****     pHandle->bResetPLLCnt = 0U;
 260              		.loc 1 200 5 is_stmt 1 view .LVU89
 261              		.loc 1 200 27 is_stmt 0 view .LVU90
 262 0084 84F85760 		strb	r6, [r4, #87]
 201:MCSDK_v6.0.0-Full/MotorControl/MCSDK/MCLib/Any/Src/revup_ctrl.c **** #ifdef NULL_PTR_REV_UP_CTL
 202:MCSDK_v6.0.0-Full/MotorControl/MCSDK/MCLib/Any/Src/revup_ctrl.c ****   }
 203:MCSDK_v6.0.0-Full/MotorControl/MCSDK/MCLib/Any/Src/revup_ctrl.c **** #endif
 204:MCSDK_v6.0.0-Full/MotorControl/MCSDK/MCLib/Any/Src/revup_ctrl.c **** }
 263              		.loc 1 204 1 view .LVU91
 264 0088 BDE8F081 		pop	{r4, r5, r6, r7, r8, pc}
 265              	.LVL23:
 266              	.L12:
 267              		.loc 1 204 1 view .LVU92
 268              		.align	2
 269              	.L11:
 270 008c D34D6210 		.word	274877907
 271              		.cfi_endproc
 272              	.LFE1436:
 274              		.section	.text.RUC_OTF_Exec,"ax",%progbits
 275              		.align	1
 276              		.weak	RUC_OTF_Exec
 277              		.syntax unified
 278              		.thumb
 279              		.thumb_func
 280              		.fpu fpv4-sp-d16
 282              	RUC_OTF_Exec:
 283              	.LVL24:
 284              	.LFB1437:
 205:MCSDK_v6.0.0-Full/MotorControl/MCSDK/MCLib/Any/Src/revup_ctrl.c **** 
 206:MCSDK_v6.0.0-Full/MotorControl/MCSDK/MCLib/Any/Src/revup_ctrl.c **** /**
 207:MCSDK_v6.0.0-Full/MotorControl/MCSDK/MCLib/Any/Src/revup_ctrl.c ****   * @brief  Main revup controller procedure executing overall programmed phases and
 208:MCSDK_v6.0.0-Full/MotorControl/MCSDK/MCLib/Any/Src/revup_ctrl.c ****   *         on-the-fly startup handling.
 209:MCSDK_v6.0.0-Full/MotorControl/MCSDK/MCLib/Any/Src/revup_ctrl.c ****   * @param  pHandle: Pointer on Handle structure of RevUp controller.
 210:MCSDK_v6.0.0-Full/MotorControl/MCSDK/MCLib/Any/Src/revup_ctrl.c ****   *  @retval Boolean set to false when entire revup phases have been completed.
 211:MCSDK_v6.0.0-Full/MotorControl/MCSDK/MCLib/Any/Src/revup_ctrl.c ****   */
 212:MCSDK_v6.0.0-Full/MotorControl/MCSDK/MCLib/Any/Src/revup_ctrl.c **** __weak bool RUC_OTF_Exec(RevUpCtrl_Handle_t *pHandle)
 213:MCSDK_v6.0.0-Full/MotorControl/MCSDK/MCLib/Any/Src/revup_ctrl.c **** {
 285              		.loc 1 213 1 is_stmt 1 view -0
 286              		.cfi_startproc
 287              		@ args = 0, pretend = 0, frame = 0
 288              		@ frame_needed = 0, uses_anonymous_args = 0
 289              		.loc 1 213 1 is_stmt 0 view .LVU94
 290 0000 F8B5     		push	{r3, r4, r5, r6, r7, lr}
 291              		.cfi_def_cfa_offset 24
 292              		.cfi_offset 3, -24
 293              		.cfi_offset 4, -20
 294              		.cfi_offset 5, -16
 295              		.cfi_offset 6, -12
 296              		.cfi_offset 7, -8
 297              		.cfi_offset 14, -4
 298 0002 0446     		mov	r4, r0
 214:MCSDK_v6.0.0-Full/MotorControl/MCSDK/MCLib/Any/Src/revup_ctrl.c ****   bool retVal = true;
 299              		.loc 1 214 3 is_stmt 1 view .LVU95
 300              	.LVL25:
 215:MCSDK_v6.0.0-Full/MotorControl/MCSDK/MCLib/Any/Src/revup_ctrl.c **** #ifdef NULL_PTR_REV_UP_CTL
 216:MCSDK_v6.0.0-Full/MotorControl/MCSDK/MCLib/Any/Src/revup_ctrl.c ****   if (MC_NULL == pHandle)
 217:MCSDK_v6.0.0-Full/MotorControl/MCSDK/MCLib/Any/Src/revup_ctrl.c ****   {
ARM GAS  /tmp/cc47mRH9.s 			page 10


 218:MCSDK_v6.0.0-Full/MotorControl/MCSDK/MCLib/Any/Src/revup_ctrl.c ****     /* Nothing to do */
 219:MCSDK_v6.0.0-Full/MotorControl/MCSDK/MCLib/Any/Src/revup_ctrl.c ****   }
 220:MCSDK_v6.0.0-Full/MotorControl/MCSDK/MCLib/Any/Src/revup_ctrl.c ****   else
 221:MCSDK_v6.0.0-Full/MotorControl/MCSDK/MCLib/Any/Src/revup_ctrl.c ****   {
 222:MCSDK_v6.0.0-Full/MotorControl/MCSDK/MCLib/Any/Src/revup_ctrl.c **** #endif
 223:MCSDK_v6.0.0-Full/MotorControl/MCSDK/MCLib/Any/Src/revup_ctrl.c ****     bool IsSpeedReliable;
 301              		.loc 1 223 5 view .LVU96
 224:MCSDK_v6.0.0-Full/MotorControl/MCSDK/MCLib/Any/Src/revup_ctrl.c ****     bool condition = false;
 302              		.loc 1 224 5 view .LVU97
 225:MCSDK_v6.0.0-Full/MotorControl/MCSDK/MCLib/Any/Src/revup_ctrl.c **** 
 226:MCSDK_v6.0.0-Full/MotorControl/MCSDK/MCLib/Any/Src/revup_ctrl.c ****     if (pHandle->hPhaseRemainingTicks > 0u)
 303              		.loc 1 226 5 view .LVU98
 304              		.loc 1 226 16 is_stmt 0 view .LVU99
 305 0004 8388     		ldrh	r3, [r0, #4]
 306              		.loc 1 226 8 view .LVU100
 307 0006 002B     		cmp	r3, #0
 308 0008 00F0AC80 		beq	.L14
 227:MCSDK_v6.0.0-Full/MotorControl/MCSDK/MCLib/Any/Src/revup_ctrl.c ****     {
 228:MCSDK_v6.0.0-Full/MotorControl/MCSDK/MCLib/Any/Src/revup_ctrl.c ****       /* Decrease the hPhaseRemainingTicks.*/
 229:MCSDK_v6.0.0-Full/MotorControl/MCSDK/MCLib/Any/Src/revup_ctrl.c ****       pHandle->hPhaseRemainingTicks--;
 309              		.loc 1 229 7 is_stmt 1 view .LVU101
 310              		.loc 1 229 36 is_stmt 0 view .LVU102
 311 000c 013B     		subs	r3, r3, #1
 312 000e 8380     		strh	r3, [r0, #4]	@ movhi
 230:MCSDK_v6.0.0-Full/MotorControl/MCSDK/MCLib/Any/Src/revup_ctrl.c **** 
 231:MCSDK_v6.0.0-Full/MotorControl/MCSDK/MCLib/Any/Src/revup_ctrl.c ****       /* OTF start-up */
 232:MCSDK_v6.0.0-Full/MotorControl/MCSDK/MCLib/Any/Src/revup_ctrl.c ****       if (0U == pHandle->bStageCnt)
 313              		.loc 1 232 7 is_stmt 1 view .LVU103
 314              		.loc 1 232 24 is_stmt 0 view .LVU104
 315 0010 90F85830 		ldrb	r3, [r0, #88]	@ zero_extendqisi2
 316              		.loc 1 232 10 view .LVU105
 317 0014 002B     		cmp	r3, #0
 318 0016 40F0A580 		bne	.L14
 233:MCSDK_v6.0.0-Full/MotorControl/MCSDK/MCLib/Any/Src/revup_ctrl.c ****       {
 234:MCSDK_v6.0.0-Full/MotorControl/MCSDK/MCLib/Any/Src/revup_ctrl.c ****         if (false ==  pHandle->EnteredZone1)
 319              		.loc 1 234 9 is_stmt 1 view .LVU106
 320              		.loc 1 234 30 is_stmt 0 view .LVU107
 321 001a 90F85550 		ldrb	r5, [r0, #85]	@ zero_extendqisi2
 322              		.loc 1 234 12 view .LVU108
 323 001e 002D     		cmp	r5, #0
 324 0020 40F09D80 		bne	.L15
 235:MCSDK_v6.0.0-Full/MotorControl/MCSDK/MCLib/Any/Src/revup_ctrl.c ****         {
 236:MCSDK_v6.0.0-Full/MotorControl/MCSDK/MCLib/Any/Src/revup_ctrl.c ****           if (pHandle->pSNSL->pFctStoOtfResetPLL != MC_NULL)
 325              		.loc 1 236 11 is_stmt 1 view .LVU109
 326              		.loc 1 236 22 is_stmt 0 view .LVU110
 327 0024 006F     		ldr	r0, [r0, #112]
 328              	.LVL26:
 329              		.loc 1 236 29 view .LVU111
 330 0026 C368     		ldr	r3, [r0, #12]
 331              		.loc 1 236 14 view .LVU112
 332 0028 83B1     		cbz	r3, .L16
 237:MCSDK_v6.0.0-Full/MotorControl/MCSDK/MCLib/Any/Src/revup_ctrl.c ****           {
 238:MCSDK_v6.0.0-Full/MotorControl/MCSDK/MCLib/Any/Src/revup_ctrl.c ****             pHandle->bResetPLLCnt++;
 333              		.loc 1 238 13 is_stmt 1 view .LVU113
 334              		.loc 1 238 20 is_stmt 0 view .LVU114
 335 002a 94F85730 		ldrb	r3, [r4, #87]	@ zero_extendqisi2
 336              		.loc 1 238 34 view .LVU115
ARM GAS  /tmp/cc47mRH9.s 			page 11


 337 002e 0133     		adds	r3, r3, #1
 338 0030 DBB2     		uxtb	r3, r3
 339 0032 84F85730 		strb	r3, [r4, #87]
 239:MCSDK_v6.0.0-Full/MotorControl/MCSDK/MCLib/Any/Src/revup_ctrl.c ****             if (pHandle->bResetPLLCnt > pHandle->bResetPLLTh)
 340              		.loc 1 239 13 is_stmt 1 view .LVU116
 341              		.loc 1 239 48 is_stmt 0 view .LVU117
 342 0036 94F85620 		ldrb	r2, [r4, #86]	@ zero_extendqisi2
 343              		.loc 1 239 16 view .LVU118
 344 003a 9342     		cmp	r3, r2
 345 003c 06D9     		bls	.L16
 240:MCSDK_v6.0.0-Full/MotorControl/MCSDK/MCLib/Any/Src/revup_ctrl.c ****             {
 241:MCSDK_v6.0.0-Full/MotorControl/MCSDK/MCLib/Any/Src/revup_ctrl.c ****               pHandle->pSNSL->pFctStoOtfResetPLL(pHandle->pSNSL);
 346              		.loc 1 241 15 is_stmt 1 view .LVU119
 347              		.loc 1 241 29 is_stmt 0 view .LVU120
 348 003e C368     		ldr	r3, [r0, #12]
 349              		.loc 1 241 15 view .LVU121
 350 0040 9847     		blx	r3
 351              	.LVL27:
 242:MCSDK_v6.0.0-Full/MotorControl/MCSDK/MCLib/Any/Src/revup_ctrl.c ****               pHandle->bOTFRelCounter = 0U;
 352              		.loc 1 242 15 is_stmt 1 view .LVU122
 353              		.loc 1 242 39 is_stmt 0 view .LVU123
 354 0042 0023     		movs	r3, #0
 355 0044 84F85330 		strb	r3, [r4, #83]
 243:MCSDK_v6.0.0-Full/MotorControl/MCSDK/MCLib/Any/Src/revup_ctrl.c ****               pHandle->bResetPLLCnt = 0U;
 356              		.loc 1 243 15 is_stmt 1 view .LVU124
 357              		.loc 1 243 37 is_stmt 0 view .LVU125
 358 0048 84F85730 		strb	r3, [r4, #87]
 359              	.L16:
 244:MCSDK_v6.0.0-Full/MotorControl/MCSDK/MCLib/Any/Src/revup_ctrl.c ****             }
 245:MCSDK_v6.0.0-Full/MotorControl/MCSDK/MCLib/Any/Src/revup_ctrl.c ****           }
 246:MCSDK_v6.0.0-Full/MotorControl/MCSDK/MCLib/Any/Src/revup_ctrl.c **** 
 247:MCSDK_v6.0.0-Full/MotorControl/MCSDK/MCLib/Any/Src/revup_ctrl.c ****           IsSpeedReliable = pHandle->pSNSL->pFctSTO_SpeedReliabilityCheck(pHandle->pSNSL);
 360              		.loc 1 247 11 is_stmt 1 view .LVU126
 361              		.loc 1 247 36 is_stmt 0 view .LVU127
 362 004c 206F     		ldr	r0, [r4, #112]
 363              		.loc 1 247 43 view .LVU128
 364 004e 0369     		ldr	r3, [r0, #16]
 365              		.loc 1 247 29 view .LVU129
 366 0050 9847     		blx	r3
 367              	.LVL28:
 248:MCSDK_v6.0.0-Full/MotorControl/MCSDK/MCLib/Any/Src/revup_ctrl.c **** 
 249:MCSDK_v6.0.0-Full/MotorControl/MCSDK/MCLib/Any/Src/revup_ctrl.c ****           if (IsSpeedReliable)
 368              		.loc 1 249 11 is_stmt 1 view .LVU130
 369              		.loc 1 249 14 is_stmt 0 view .LVU131
 370 0052 38B1     		cbz	r0, .L17
 250:MCSDK_v6.0.0-Full/MotorControl/MCSDK/MCLib/Any/Src/revup_ctrl.c ****           {
 251:MCSDK_v6.0.0-Full/MotorControl/MCSDK/MCLib/Any/Src/revup_ctrl.c ****             if (pHandle->bOTFRelCounter < 127U)
 371              		.loc 1 251 13 is_stmt 1 view .LVU132
 372              		.loc 1 251 24 is_stmt 0 view .LVU133
 373 0054 94F85330 		ldrb	r3, [r4, #83]	@ zero_extendqisi2
 374              		.loc 1 251 16 view .LVU134
 375 0058 7E2B     		cmp	r3, #126
 376 005a 06D8     		bhi	.L18
 252:MCSDK_v6.0.0-Full/MotorControl/MCSDK/MCLib/Any/Src/revup_ctrl.c ****             {
 253:MCSDK_v6.0.0-Full/MotorControl/MCSDK/MCLib/Any/Src/revup_ctrl.c ****               pHandle->bOTFRelCounter++;
 377              		.loc 1 253 15 is_stmt 1 view .LVU135
 378              		.loc 1 253 38 is_stmt 0 view .LVU136
ARM GAS  /tmp/cc47mRH9.s 			page 12


 379 005c 0133     		adds	r3, r3, #1
 380 005e 84F85330 		strb	r3, [r4, #83]
 381 0062 02E0     		b	.L18
 382              	.L17:
 254:MCSDK_v6.0.0-Full/MotorControl/MCSDK/MCLib/Any/Src/revup_ctrl.c ****             }
 255:MCSDK_v6.0.0-Full/MotorControl/MCSDK/MCLib/Any/Src/revup_ctrl.c ****           }
 256:MCSDK_v6.0.0-Full/MotorControl/MCSDK/MCLib/Any/Src/revup_ctrl.c ****           else
 257:MCSDK_v6.0.0-Full/MotorControl/MCSDK/MCLib/Any/Src/revup_ctrl.c ****           {
 258:MCSDK_v6.0.0-Full/MotorControl/MCSDK/MCLib/Any/Src/revup_ctrl.c ****             pHandle->bOTFRelCounter = 0U;
 383              		.loc 1 258 13 is_stmt 1 view .LVU137
 384              		.loc 1 258 37 is_stmt 0 view .LVU138
 385 0064 0023     		movs	r3, #0
 386 0066 84F85330 		strb	r3, [r4, #83]
 387              	.L18:
 259:MCSDK_v6.0.0-Full/MotorControl/MCSDK/MCLib/Any/Src/revup_ctrl.c ****           }
 260:MCSDK_v6.0.0-Full/MotorControl/MCSDK/MCLib/Any/Src/revup_ctrl.c **** 
 261:MCSDK_v6.0.0-Full/MotorControl/MCSDK/MCLib/Any/Src/revup_ctrl.c ****           if (pHandle->pSNSL->pFctStoOtfResetPLL != MC_NULL)
 388              		.loc 1 261 11 is_stmt 1 view .LVU139
 389              		.loc 1 261 22 is_stmt 0 view .LVU140
 390 006a 236F     		ldr	r3, [r4, #112]
 391              		.loc 1 261 29 view .LVU141
 392 006c DA68     		ldr	r2, [r3, #12]
 393              		.loc 1 261 14 view .LVU142
 394 006e 0AB3     		cbz	r2, .L19
 262:MCSDK_v6.0.0-Full/MotorControl/MCSDK/MCLib/Any/Src/revup_ctrl.c ****           {
 263:MCSDK_v6.0.0-Full/MotorControl/MCSDK/MCLib/Any/Src/revup_ctrl.c ****             if (pHandle->bOTFRelCounter == (pHandle->bResetPLLTh >> 1))
 395              		.loc 1 263 13 is_stmt 1 view .LVU143
 396              		.loc 1 263 24 is_stmt 0 view .LVU144
 397 0070 94F85320 		ldrb	r2, [r4, #83]	@ zero_extendqisi2
 398              		.loc 1 263 52 view .LVU145
 399 0074 94F85610 		ldrb	r1, [r4, #86]	@ zero_extendqisi2
 400              		.loc 1 263 16 view .LVU146
 401 0078 B2EB510F 		cmp	r2, r1, lsr #1
 402 007c 72D1     		bne	.L14
 403              	.L20:
 404              	.LVL29:
 405              	.LBB2:
 264:MCSDK_v6.0.0-Full/MotorControl/MCSDK/MCLib/Any/Src/revup_ctrl.c ****             {
 265:MCSDK_v6.0.0-Full/MotorControl/MCSDK/MCLib/Any/Src/revup_ctrl.c ****               condition = true;
 266:MCSDK_v6.0.0-Full/MotorControl/MCSDK/MCLib/Any/Src/revup_ctrl.c ****             }
 267:MCSDK_v6.0.0-Full/MotorControl/MCSDK/MCLib/Any/Src/revup_ctrl.c ****           }
 268:MCSDK_v6.0.0-Full/MotorControl/MCSDK/MCLib/Any/Src/revup_ctrl.c ****           else
 269:MCSDK_v6.0.0-Full/MotorControl/MCSDK/MCLib/Any/Src/revup_ctrl.c ****           {
 270:MCSDK_v6.0.0-Full/MotorControl/MCSDK/MCLib/Any/Src/revup_ctrl.c ****             if (127U == pHandle->bOTFRelCounter)
 271:MCSDK_v6.0.0-Full/MotorControl/MCSDK/MCLib/Any/Src/revup_ctrl.c ****             {
 272:MCSDK_v6.0.0-Full/MotorControl/MCSDK/MCLib/Any/Src/revup_ctrl.c ****               condition = true;
 273:MCSDK_v6.0.0-Full/MotorControl/MCSDK/MCLib/Any/Src/revup_ctrl.c ****             }
 274:MCSDK_v6.0.0-Full/MotorControl/MCSDK/MCLib/Any/Src/revup_ctrl.c ****           }
 275:MCSDK_v6.0.0-Full/MotorControl/MCSDK/MCLib/Any/Src/revup_ctrl.c **** 
 276:MCSDK_v6.0.0-Full/MotorControl/MCSDK/MCLib/Any/Src/revup_ctrl.c ****           if (true == condition)
 277:MCSDK_v6.0.0-Full/MotorControl/MCSDK/MCLib/Any/Src/revup_ctrl.c ****           {
 278:MCSDK_v6.0.0-Full/MotorControl/MCSDK/MCLib/Any/Src/revup_ctrl.c ****             bool bCollinearSpeed = false;
 406              		.loc 1 278 13 is_stmt 1 view .LVU147
 279:MCSDK_v6.0.0-Full/MotorControl/MCSDK/MCLib/Any/Src/revup_ctrl.c ****             int16_t hObsSpeedUnit = SPD_GetAvrgMecSpeedUnit(pHandle->pSNSL->_Super);
 407              		.loc 1 279 13 view .LVU148
 408              		.loc 1 279 37 is_stmt 0 view .LVU149
 409 007e 1868     		ldr	r0, [r3]
ARM GAS  /tmp/cc47mRH9.s 			page 13


 410              	.LVL30:
 411              		.loc 1 279 37 view .LVU150
 412 0080 FFF7FEFF 		bl	SPD_GetAvrgMecSpeedUnit
 413              	.LVL31:
 414 0084 0646     		mov	r6, r0
 415              	.LVL32:
 280:MCSDK_v6.0.0-Full/MotorControl/MCSDK/MCLib/Any/Src/revup_ctrl.c ****             int16_t hObsSpeedUnitAbsValue =
 416              		.loc 1 280 13 is_stmt 1 view .LVU151
 281:MCSDK_v6.0.0-Full/MotorControl/MCSDK/MCLib/Any/Src/revup_ctrl.c ****                     ((hObsSpeedUnit < 0) ? (-hObsSpeedUnit) : (hObsSpeedUnit)); /* hObsSpeedUnit ab
 417              		.loc 1 281 61 is_stmt 0 view .LVU152
 418 0086 80EAE073 		eor	r3, r0, r0, asr #31
 419 008a A3EBE073 		sub	r3, r3, r0, asr #31
 420 008e 9AB2     		uxth	r2, r3
 280:MCSDK_v6.0.0-Full/MotorControl/MCSDK/MCLib/Any/Src/revup_ctrl.c ****             int16_t hObsSpeedUnitAbsValue =
 421              		.loc 1 280 21 view .LVU153
 422 0090 1FB2     		sxth	r7, r3
 423              	.LVL33:
 282:MCSDK_v6.0.0-Full/MotorControl/MCSDK/MCLib/Any/Src/revup_ctrl.c **** 
 283:MCSDK_v6.0.0-Full/MotorControl/MCSDK/MCLib/Any/Src/revup_ctrl.c ****             if (pHandle->hDirection > 0)
 424              		.loc 1 283 13 is_stmt 1 view .LVU154
 425              		.loc 1 283 24 is_stmt 0 view .LVU155
 426 0092 B4F90630 		ldrsh	r3, [r4, #6]
 427              		.loc 1 283 16 view .LVU156
 428 0096 002B     		cmp	r3, #0
 429 0098 11DD     		ble	.L21
 284:MCSDK_v6.0.0-Full/MotorControl/MCSDK/MCLib/Any/Src/revup_ctrl.c ****             {
 285:MCSDK_v6.0.0-Full/MotorControl/MCSDK/MCLib/Any/Src/revup_ctrl.c ****               if (hObsSpeedUnit > 0)
 430              		.loc 1 285 15 is_stmt 1 view .LVU157
 431              		.loc 1 285 18 is_stmt 0 view .LVU158
 432 009a 0028     		cmp	r0, #0
 433 009c 11DD     		ble	.L23
 434              	.L22:
 435              	.LVL34:
 286:MCSDK_v6.0.0-Full/MotorControl/MCSDK/MCLib/Any/Src/revup_ctrl.c ****               {
 287:MCSDK_v6.0.0-Full/MotorControl/MCSDK/MCLib/Any/Src/revup_ctrl.c ****                 bCollinearSpeed = true; /* actual and reference speed are collinear*/
 288:MCSDK_v6.0.0-Full/MotorControl/MCSDK/MCLib/Any/Src/revup_ctrl.c ****               }
 289:MCSDK_v6.0.0-Full/MotorControl/MCSDK/MCLib/Any/Src/revup_ctrl.c ****             }
 290:MCSDK_v6.0.0-Full/MotorControl/MCSDK/MCLib/Any/Src/revup_ctrl.c ****             else
 291:MCSDK_v6.0.0-Full/MotorControl/MCSDK/MCLib/Any/Src/revup_ctrl.c ****             {
 292:MCSDK_v6.0.0-Full/MotorControl/MCSDK/MCLib/Any/Src/revup_ctrl.c ****               if (hObsSpeedUnit < 0)
 293:MCSDK_v6.0.0-Full/MotorControl/MCSDK/MCLib/Any/Src/revup_ctrl.c ****               {
 294:MCSDK_v6.0.0-Full/MotorControl/MCSDK/MCLib/Any/Src/revup_ctrl.c ****                 bCollinearSpeed = true; /* actual and reference speed are collinear*/
 295:MCSDK_v6.0.0-Full/MotorControl/MCSDK/MCLib/Any/Src/revup_ctrl.c ****               }
 296:MCSDK_v6.0.0-Full/MotorControl/MCSDK/MCLib/Any/Src/revup_ctrl.c ****             }
 297:MCSDK_v6.0.0-Full/MotorControl/MCSDK/MCLib/Any/Src/revup_ctrl.c **** 
 298:MCSDK_v6.0.0-Full/MotorControl/MCSDK/MCLib/Any/Src/revup_ctrl.c ****             if (false == bCollinearSpeed)
 299:MCSDK_v6.0.0-Full/MotorControl/MCSDK/MCLib/Any/Src/revup_ctrl.c ****             {
 300:MCSDK_v6.0.0-Full/MotorControl/MCSDK/MCLib/Any/Src/revup_ctrl.c ****               /*reverse speed management*/
 301:MCSDK_v6.0.0-Full/MotorControl/MCSDK/MCLib/Any/Src/revup_ctrl.c ****               pHandle->bOTFRelCounter = 0U;
 302:MCSDK_v6.0.0-Full/MotorControl/MCSDK/MCLib/Any/Src/revup_ctrl.c ****             }
 303:MCSDK_v6.0.0-Full/MotorControl/MCSDK/MCLib/Any/Src/revup_ctrl.c ****             else /*speeds are collinear*/
 304:MCSDK_v6.0.0-Full/MotorControl/MCSDK/MCLib/Any/Src/revup_ctrl.c ****             {
 305:MCSDK_v6.0.0-Full/MotorControl/MCSDK/MCLib/Any/Src/revup_ctrl.c ****               if ((uint16_t)(hObsSpeedUnitAbsValue) > pHandle->hMinStartUpValidSpeed)
 436              		.loc 1 305 15 is_stmt 1 view .LVU159
 437              		.loc 1 305 62 is_stmt 0 view .LVU160
 438 009e B4F84A30 		ldrh	r3, [r4, #74]
 439              		.loc 1 305 18 view .LVU161
ARM GAS  /tmp/cc47mRH9.s 			page 14


 440 00a2 9A42     		cmp	r2, r3
 441 00a4 11D9     		bls	.L24
 306:MCSDK_v6.0.0-Full/MotorControl/MCSDK/MCLib/Any/Src/revup_ctrl.c ****               {
 307:MCSDK_v6.0.0-Full/MotorControl/MCSDK/MCLib/Any/Src/revup_ctrl.c ****                 /* startup end, go to run */
 308:MCSDK_v6.0.0-Full/MotorControl/MCSDK/MCLib/Any/Src/revup_ctrl.c ****                 pHandle->pSNSL->pFctForceConvergency1(pHandle->pSNSL);
 442              		.loc 1 308 17 is_stmt 1 view .LVU162
 443              		.loc 1 308 24 is_stmt 0 view .LVU163
 444 00a6 206F     		ldr	r0, [r4, #112]
 445              	.LVL35:
 446              		.loc 1 308 31 view .LVU164
 447 00a8 4368     		ldr	r3, [r0, #4]
 448              		.loc 1 308 17 view .LVU165
 449 00aa 9847     		blx	r3
 450              	.LVL36:
 309:MCSDK_v6.0.0-Full/MotorControl/MCSDK/MCLib/Any/Src/revup_ctrl.c ****                 pHandle->EnteredZone1 = true;
 451              		.loc 1 309 17 is_stmt 1 view .LVU166
 452              		.loc 1 309 39 is_stmt 0 view .LVU167
 453 00ac 0123     		movs	r3, #1
 454 00ae 84F85530 		strb	r3, [r4, #85]
 455 00b2 57E0     		b	.L14
 456              	.LVL37:
 457              	.L19:
 458              		.loc 1 309 39 view .LVU168
 459              	.LBE2:
 270:MCSDK_v6.0.0-Full/MotorControl/MCSDK/MCLib/Any/Src/revup_ctrl.c ****             {
 460              		.loc 1 270 13 is_stmt 1 view .LVU169
 270:MCSDK_v6.0.0-Full/MotorControl/MCSDK/MCLib/Any/Src/revup_ctrl.c ****             {
 461              		.loc 1 270 32 is_stmt 0 view .LVU170
 462 00b4 94F85320 		ldrb	r2, [r4, #83]	@ zero_extendqisi2
 270:MCSDK_v6.0.0-Full/MotorControl/MCSDK/MCLib/Any/Src/revup_ctrl.c ****             {
 463              		.loc 1 270 16 view .LVU171
 464 00b8 7F2A     		cmp	r2, #127
 465 00ba 53D1     		bne	.L14
 466 00bc DFE7     		b	.L20
 467              	.LVL38:
 468              	.L21:
 469              	.LBB5:
 292:MCSDK_v6.0.0-Full/MotorControl/MCSDK/MCLib/Any/Src/revup_ctrl.c ****               {
 470              		.loc 1 292 15 is_stmt 1 view .LVU172
 292:MCSDK_v6.0.0-Full/MotorControl/MCSDK/MCLib/Any/Src/revup_ctrl.c ****               {
 471              		.loc 1 292 18 is_stmt 0 view .LVU173
 472 00be 0028     		cmp	r0, #0
 473 00c0 EDDB     		blt	.L22
 474              	.L23:
 475              	.LVL39:
 301:MCSDK_v6.0.0-Full/MotorControl/MCSDK/MCLib/Any/Src/revup_ctrl.c ****             }
 476              		.loc 1 301 15 is_stmt 1 view .LVU174
 301:MCSDK_v6.0.0-Full/MotorControl/MCSDK/MCLib/Any/Src/revup_ctrl.c ****             }
 477              		.loc 1 301 39 is_stmt 0 view .LVU175
 478 00c2 0023     		movs	r3, #0
 479 00c4 84F85330 		strb	r3, [r4, #83]
 480 00c8 4CE0     		b	.L14
 481              	.L24:
 310:MCSDK_v6.0.0-Full/MotorControl/MCSDK/MCLib/Any/Src/revup_ctrl.c ****               }
 311:MCSDK_v6.0.0-Full/MotorControl/MCSDK/MCLib/Any/Src/revup_ctrl.c ****               else if ((uint16_t)(hObsSpeedUnitAbsValue) > pHandle->hMinStartUpFlySpeed)
 482              		.loc 1 311 20 is_stmt 1 view .LVU176
 483              		.loc 1 311 67 is_stmt 0 view .LVU177
ARM GAS  /tmp/cc47mRH9.s 			page 15


 484 00ca B4F84C30 		ldrh	r3, [r4, #76]
 485              		.loc 1 311 23 view .LVU178
 486 00ce 9A42     		cmp	r2, r3
 487 00d0 48D9     		bls	.L14
 488              	.LBB3:
 312:MCSDK_v6.0.0-Full/MotorControl/MCSDK/MCLib/Any/Src/revup_ctrl.c ****               {
 313:MCSDK_v6.0.0-Full/MotorControl/MCSDK/MCLib/Any/Src/revup_ctrl.c ****                 /* synch with startup*/
 314:MCSDK_v6.0.0-Full/MotorControl/MCSDK/MCLib/Any/Src/revup_ctrl.c ****                 /* nearest phase search*/
 315:MCSDK_v6.0.0-Full/MotorControl/MCSDK/MCLib/Any/Src/revup_ctrl.c ****                 int16_t hOldFinalMecSpeedUnit = 0;
 489              		.loc 1 315 17 is_stmt 1 view .LVU179
 490              	.LVL40:
 316:MCSDK_v6.0.0-Full/MotorControl/MCSDK/MCLib/Any/Src/revup_ctrl.c ****                 int16_t hOldFinalTorque = 0;
 491              		.loc 1 316 17 view .LVU180
 317:MCSDK_v6.0.0-Full/MotorControl/MCSDK/MCLib/Any/Src/revup_ctrl.c ****                 int32_t wDeltaSpeedRevUp;
 492              		.loc 1 317 17 view .LVU181
 318:MCSDK_v6.0.0-Full/MotorControl/MCSDK/MCLib/Any/Src/revup_ctrl.c ****                 int32_t wDeltaTorqueRevUp;
 493              		.loc 1 318 17 view .LVU182
 319:MCSDK_v6.0.0-Full/MotorControl/MCSDK/MCLib/Any/Src/revup_ctrl.c ****                 bool bError = false;
 494              		.loc 1 319 17 view .LVU183
 320:MCSDK_v6.0.0-Full/MotorControl/MCSDK/MCLib/Any/Src/revup_ctrl.c ****                 VSS_SetCopyObserver(pHandle->pVSS);
 495              		.loc 1 320 17 view .LVU184
 496 00d2 E06E     		ldr	r0, [r4, #108]
 497              	.LVL41:
 498              		.loc 1 320 17 is_stmt 0 view .LVU185
 499 00d4 FFF7FEFF 		bl	VSS_SetCopyObserver
 500              	.LVL42:
 321:MCSDK_v6.0.0-Full/MotorControl/MCSDK/MCLib/Any/Src/revup_ctrl.c ****                 pHandle->pSNSL->pFctForceConvergency2(pHandle->pSNSL);
 501              		.loc 1 321 17 is_stmt 1 view .LVU186
 502              		.loc 1 321 24 is_stmt 0 view .LVU187
 503 00d8 206F     		ldr	r0, [r4, #112]
 504              		.loc 1 321 31 view .LVU188
 505 00da 8368     		ldr	r3, [r0, #8]
 506              		.loc 1 321 17 view .LVU189
 507 00dc 9847     		blx	r3
 508              	.LVL43:
 322:MCSDK_v6.0.0-Full/MotorControl/MCSDK/MCLib/Any/Src/revup_ctrl.c **** 
 323:MCSDK_v6.0.0-Full/MotorControl/MCSDK/MCLib/Any/Src/revup_ctrl.c ****                 if (MC_NULL == pHandle->pCurrentPhaseParams)
 509              		.loc 1 323 17 is_stmt 1 view .LVU190
 510              		.loc 1 323 39 is_stmt 0 view .LVU191
 511 00de A368     		ldr	r3, [r4, #8]
 512              		.loc 1 323 20 view .LVU192
 513 00e0 9BB1     		cbz	r3, .L39
 316:MCSDK_v6.0.0-Full/MotorControl/MCSDK/MCLib/Any/Src/revup_ctrl.c ****                 int32_t wDeltaSpeedRevUp;
 514              		.loc 1 316 25 view .LVU193
 515 00e2 4FF0000C 		mov	ip, #0
 315:MCSDK_v6.0.0-Full/MotorControl/MCSDK/MCLib/Any/Src/revup_ctrl.c ****                 int16_t hOldFinalTorque = 0;
 516              		.loc 1 315 25 view .LVU194
 517 00e6 6046     		mov	r0, ip
 518              	.LVL44:
 519              	.L25:
 324:MCSDK_v6.0.0-Full/MotorControl/MCSDK/MCLib/Any/Src/revup_ctrl.c ****                 {
 325:MCSDK_v6.0.0-Full/MotorControl/MCSDK/MCLib/Any/Src/revup_ctrl.c ****                   bError = true;
 326:MCSDK_v6.0.0-Full/MotorControl/MCSDK/MCLib/Any/Src/revup_ctrl.c ****                   pHandle->hPhaseRemainingTicks = 0U;
 327:MCSDK_v6.0.0-Full/MotorControl/MCSDK/MCLib/Any/Src/revup_ctrl.c ****                 }
 328:MCSDK_v6.0.0-Full/MotorControl/MCSDK/MCLib/Any/Src/revup_ctrl.c ****                 else
 329:MCSDK_v6.0.0-Full/MotorControl/MCSDK/MCLib/Any/Src/revup_ctrl.c ****                 {
 330:MCSDK_v6.0.0-Full/MotorControl/MCSDK/MCLib/Any/Src/revup_ctrl.c ****                   while (pHandle->pCurrentPhaseParams->hFinalMecSpeedUnit < hObsSpeedUnitAbsValue)
ARM GAS  /tmp/cc47mRH9.s 			page 16


 520              		.loc 1 330 25 is_stmt 1 view .LVU195
 521              		.loc 1 330 33 is_stmt 0 view .LVU196
 522 00e8 A368     		ldr	r3, [r4, #8]
 523              		.loc 1 330 54 view .LVU197
 524 00ea B3F90220 		ldrsh	r2, [r3, #2]
 525              		.loc 1 330 25 view .LVU198
 526 00ee BA42     		cmp	r2, r7
 527 00f0 13DA     		bge	.L26
 331:MCSDK_v6.0.0-Full/MotorControl/MCSDK/MCLib/Any/Src/revup_ctrl.c ****                   {
 332:MCSDK_v6.0.0-Full/MotorControl/MCSDK/MCLib/Any/Src/revup_ctrl.c ****                     if (pHandle->pCurrentPhaseParams->pNext == MC_NULL)
 528              		.loc 1 332 21 is_stmt 1 view .LVU199
 529              		.loc 1 332 53 is_stmt 0 view .LVU200
 530 00f2 9968     		ldr	r1, [r3, #8]
 531              		.loc 1 332 24 view .LVU201
 532 00f4 71B1     		cbz	r1, .L40
 333:MCSDK_v6.0.0-Full/MotorControl/MCSDK/MCLib/Any/Src/revup_ctrl.c ****                     {
 334:MCSDK_v6.0.0-Full/MotorControl/MCSDK/MCLib/Any/Src/revup_ctrl.c ****                       /* sets for Revup fail error*/
 335:MCSDK_v6.0.0-Full/MotorControl/MCSDK/MCLib/Any/Src/revup_ctrl.c ****                       bError = true;
 336:MCSDK_v6.0.0-Full/MotorControl/MCSDK/MCLib/Any/Src/revup_ctrl.c ****                       pHandle->hPhaseRemainingTicks = 0U;
 337:MCSDK_v6.0.0-Full/MotorControl/MCSDK/MCLib/Any/Src/revup_ctrl.c ****                       break;
 338:MCSDK_v6.0.0-Full/MotorControl/MCSDK/MCLib/Any/Src/revup_ctrl.c ****                     }
 339:MCSDK_v6.0.0-Full/MotorControl/MCSDK/MCLib/Any/Src/revup_ctrl.c ****                     else
 340:MCSDK_v6.0.0-Full/MotorControl/MCSDK/MCLib/Any/Src/revup_ctrl.c ****                     {
 341:MCSDK_v6.0.0-Full/MotorControl/MCSDK/MCLib/Any/Src/revup_ctrl.c ****                       /* skips this phase*/
 342:MCSDK_v6.0.0-Full/MotorControl/MCSDK/MCLib/Any/Src/revup_ctrl.c ****                       hOldFinalMecSpeedUnit = pHandle->pCurrentPhaseParams->hFinalMecSpeedUnit;
 533              		.loc 1 342 23 is_stmt 1 view .LVU202
 534              	.LVL45:
 343:MCSDK_v6.0.0-Full/MotorControl/MCSDK/MCLib/Any/Src/revup_ctrl.c ****                       hOldFinalTorque = pHandle->pCurrentPhaseParams->hFinalTorque;
 535              		.loc 1 343 23 view .LVU203
 536              		.loc 1 343 39 is_stmt 0 view .LVU204
 537 00f6 B3F904C0 		ldrsh	ip, [r3, #4]
 538              	.LVL46:
 344:MCSDK_v6.0.0-Full/MotorControl/MCSDK/MCLib/Any/Src/revup_ctrl.c ****                       //cstat !MISRAC2012-Rule-11.5
 345:MCSDK_v6.0.0-Full/MotorControl/MCSDK/MCLib/Any/Src/revup_ctrl.c ****                       pHandle->pCurrentPhaseParams = (RevUpCtrl_PhaseParams_t *)pHandle->pCurrentPh
 539              		.loc 1 345 23 is_stmt 1 view .LVU205
 540              		.loc 1 345 52 is_stmt 0 view .LVU206
 541 00fa A160     		str	r1, [r4, #8]
 346:MCSDK_v6.0.0-Full/MotorControl/MCSDK/MCLib/Any/Src/revup_ctrl.c ****                       pHandle->bStageCnt++;
 542              		.loc 1 346 23 is_stmt 1 view .LVU207
 543              		.loc 1 346 30 is_stmt 0 view .LVU208
 544 00fc 94F85830 		ldrb	r3, [r4, #88]	@ zero_extendqisi2
 545              		.loc 1 346 41 view .LVU209
 546 0100 0133     		adds	r3, r3, #1
 547 0102 84F85830 		strb	r3, [r4, #88]
 342:MCSDK_v6.0.0-Full/MotorControl/MCSDK/MCLib/Any/Src/revup_ctrl.c ****                       hOldFinalTorque = pHandle->pCurrentPhaseParams->hFinalTorque;
 548              		.loc 1 342 45 view .LVU210
 549 0106 1046     		mov	r0, r2
 550 0108 EEE7     		b	.L25
 551              	.LVL47:
 552              	.L39:
 325:MCSDK_v6.0.0-Full/MotorControl/MCSDK/MCLib/Any/Src/revup_ctrl.c ****                   pHandle->hPhaseRemainingTicks = 0U;
 553              		.loc 1 325 19 is_stmt 1 view .LVU211
 326:MCSDK_v6.0.0-Full/MotorControl/MCSDK/MCLib/Any/Src/revup_ctrl.c ****                 }
 554              		.loc 1 326 19 view .LVU212
 326:MCSDK_v6.0.0-Full/MotorControl/MCSDK/MCLib/Any/Src/revup_ctrl.c ****                 }
 555              		.loc 1 326 49 is_stmt 0 view .LVU213
 556 010a 0020     		movs	r0, #0
ARM GAS  /tmp/cc47mRH9.s 			page 17


 557 010c A080     		strh	r0, [r4, #4]	@ movhi
 325:MCSDK_v6.0.0-Full/MotorControl/MCSDK/MCLib/Any/Src/revup_ctrl.c ****                   pHandle->hPhaseRemainingTicks = 0U;
 558              		.loc 1 325 26 view .LVU214
 559 010e 0125     		movs	r5, #1
 316:MCSDK_v6.0.0-Full/MotorControl/MCSDK/MCLib/Any/Src/revup_ctrl.c ****                 int32_t wDeltaSpeedRevUp;
 560              		.loc 1 316 25 view .LVU215
 561 0110 8446     		mov	ip, r0
 562 0112 02E0     		b	.L26
 563              	.LVL48:
 564              	.L40:
 335:MCSDK_v6.0.0-Full/MotorControl/MCSDK/MCLib/Any/Src/revup_ctrl.c ****                       pHandle->hPhaseRemainingTicks = 0U;
 565              		.loc 1 335 23 is_stmt 1 view .LVU216
 336:MCSDK_v6.0.0-Full/MotorControl/MCSDK/MCLib/Any/Src/revup_ctrl.c ****                       break;
 566              		.loc 1 336 23 view .LVU217
 336:MCSDK_v6.0.0-Full/MotorControl/MCSDK/MCLib/Any/Src/revup_ctrl.c ****                       break;
 567              		.loc 1 336 53 is_stmt 0 view .LVU218
 568 0114 0023     		movs	r3, #0
 569 0116 A380     		strh	r3, [r4, #4]	@ movhi
 337:MCSDK_v6.0.0-Full/MotorControl/MCSDK/MCLib/Any/Src/revup_ctrl.c ****                     }
 570              		.loc 1 337 23 is_stmt 1 view .LVU219
 335:MCSDK_v6.0.0-Full/MotorControl/MCSDK/MCLib/Any/Src/revup_ctrl.c ****                       pHandle->hPhaseRemainingTicks = 0U;
 571              		.loc 1 335 30 is_stmt 0 view .LVU220
 572 0118 0125     		movs	r5, #1
 573              	.LVL49:
 574              	.L26:
 347:MCSDK_v6.0.0-Full/MotorControl/MCSDK/MCLib/Any/Src/revup_ctrl.c ****                     }
 348:MCSDK_v6.0.0-Full/MotorControl/MCSDK/MCLib/Any/Src/revup_ctrl.c ****                   }
 349:MCSDK_v6.0.0-Full/MotorControl/MCSDK/MCLib/Any/Src/revup_ctrl.c ****                 }
 350:MCSDK_v6.0.0-Full/MotorControl/MCSDK/MCLib/Any/Src/revup_ctrl.c ****                 if (false == bError)
 575              		.loc 1 350 17 is_stmt 1 view .LVU221
 576              		.loc 1 350 20 is_stmt 0 view .LVU222
 577 011a 1DBB     		cbnz	r5, .L14
 578              	.LBB4:
 351:MCSDK_v6.0.0-Full/MotorControl/MCSDK/MCLib/Any/Src/revup_ctrl.c ****                 {
 352:MCSDK_v6.0.0-Full/MotorControl/MCSDK/MCLib/Any/Src/revup_ctrl.c ****                   /* calculation of the transition phase from OTF to standard revup */
 353:MCSDK_v6.0.0-Full/MotorControl/MCSDK/MCLib/Any/Src/revup_ctrl.c ****                   int16_t hTorqueReference;
 579              		.loc 1 353 19 is_stmt 1 view .LVU223
 354:MCSDK_v6.0.0-Full/MotorControl/MCSDK/MCLib/Any/Src/revup_ctrl.c **** 
 355:MCSDK_v6.0.0-Full/MotorControl/MCSDK/MCLib/Any/Src/revup_ctrl.c ****                   wDeltaSpeedRevUp = ((int32_t)(pHandle->pCurrentPhaseParams->hFinalMecSpeedUnit))
 580              		.loc 1 355 19 view .LVU224
 581              		.loc 1 355 56 is_stmt 0 view .LVU225
 582 011c A268     		ldr	r2, [r4, #8]
 583              		.loc 1 355 77 view .LVU226
 584 011e B2F90230 		ldrsh	r3, [r2, #2]
 585              	.LVL50:
 356:MCSDK_v6.0.0-Full/MotorControl/MCSDK/MCLib/Any/Src/revup_ctrl.c ****                                    - ((int32_t)(hOldFinalMecSpeedUnit));
 357:MCSDK_v6.0.0-Full/MotorControl/MCSDK/MCLib/Any/Src/revup_ctrl.c ****                   wDeltaTorqueRevUp = ((int32_t)(pHandle->pCurrentPhaseParams->hFinalTorque))
 586              		.loc 1 357 19 is_stmt 1 view .LVU227
 587              		.loc 1 357 78 is_stmt 0 view .LVU228
 588 0122 B2F90410 		ldrsh	r1, [r2, #4]
 589              		.loc 1 357 37 view .LVU229
 590 0126 A1EB0C01 		sub	r1, r1, ip
 591              	.LVL51:
 358:MCSDK_v6.0.0-Full/MotorControl/MCSDK/MCLib/Any/Src/revup_ctrl.c ****                                     - ((int32_t)(hOldFinalTorque));
 359:MCSDK_v6.0.0-Full/MotorControl/MCSDK/MCLib/Any/Src/revup_ctrl.c **** 
 360:MCSDK_v6.0.0-Full/MotorControl/MCSDK/MCLib/Any/Src/revup_ctrl.c ****                   if ((int32_t)0 == wDeltaSpeedRevUp)
 592              		.loc 1 360 19 is_stmt 1 view .LVU230
ARM GAS  /tmp/cc47mRH9.s 			page 18


 593              		.loc 1 360 22 is_stmt 0 view .LVU231
 594 012a 1B1A     		subs	r3, r3, r0
 595              	.LVL52:
 596              		.loc 1 360 22 view .LVU232
 597 012c 08D1     		bne	.L41
 598              	.LVL53:
 599              	.L29:
 361:MCSDK_v6.0.0-Full/MotorControl/MCSDK/MCLib/Any/Src/revup_ctrl.c ****                   {
 362:MCSDK_v6.0.0-Full/MotorControl/MCSDK/MCLib/Any/Src/revup_ctrl.c ****                     /* Nothinbg to do */
 363:MCSDK_v6.0.0-Full/MotorControl/MCSDK/MCLib/Any/Src/revup_ctrl.c ****                   }
 364:MCSDK_v6.0.0-Full/MotorControl/MCSDK/MCLib/Any/Src/revup_ctrl.c ****                   else
 365:MCSDK_v6.0.0-Full/MotorControl/MCSDK/MCLib/Any/Src/revup_ctrl.c ****                   {
 366:MCSDK_v6.0.0-Full/MotorControl/MCSDK/MCLib/Any/Src/revup_ctrl.c ****                     hTorqueReference = (int16_t)((((int32_t)hObsSpeedUnit) * wDeltaTorqueRevUp) / w
 367:MCSDK_v6.0.0-Full/MotorControl/MCSDK/MCLib/Any/Src/revup_ctrl.c ****                                      + hOldFinalTorque;
 368:MCSDK_v6.0.0-Full/MotorControl/MCSDK/MCLib/Any/Src/revup_ctrl.c **** 
 369:MCSDK_v6.0.0-Full/MotorControl/MCSDK/MCLib/Any/Src/revup_ctrl.c ****                     (void)STC_ExecRamp(pHandle->pSTC, pHandle->hDirection * hTorqueReference, 0U);
 370:MCSDK_v6.0.0-Full/MotorControl/MCSDK/MCLib/Any/Src/revup_ctrl.c ****                   }
 371:MCSDK_v6.0.0-Full/MotorControl/MCSDK/MCLib/Any/Src/revup_ctrl.c **** 
 372:MCSDK_v6.0.0-Full/MotorControl/MCSDK/MCLib/Any/Src/revup_ctrl.c ****                   pHandle->hPhaseRemainingTicks = 1U;
 600              		.loc 1 372 19 is_stmt 1 view .LVU233
 601              		.loc 1 372 49 is_stmt 0 view .LVU234
 602 012e 0123     		movs	r3, #1
 603 0130 A380     		strh	r3, [r4, #4]	@ movhi
 373:MCSDK_v6.0.0-Full/MotorControl/MCSDK/MCLib/Any/Src/revup_ctrl.c **** 
 374:MCSDK_v6.0.0-Full/MotorControl/MCSDK/MCLib/Any/Src/revup_ctrl.c ****                   pHandle->pCurrentPhaseParams = &pHandle->OTFPhaseParams;
 604              		.loc 1 374 19 is_stmt 1 view .LVU235
 605              		.loc 1 374 50 is_stmt 0 view .LVU236
 606 0132 04F15C03 		add	r3, r4, #92
 607              		.loc 1 374 48 view .LVU237
 608 0136 A360     		str	r3, [r4, #8]
 375:MCSDK_v6.0.0-Full/MotorControl/MCSDK/MCLib/Any/Src/revup_ctrl.c **** 
 376:MCSDK_v6.0.0-Full/MotorControl/MCSDK/MCLib/Any/Src/revup_ctrl.c ****                   pHandle->bStageCnt = 6U;
 609              		.loc 1 376 19 is_stmt 1 view .LVU238
 610              		.loc 1 376 38 is_stmt 0 view .LVU239
 611 0138 0623     		movs	r3, #6
 612 013a 84F85830 		strb	r3, [r4, #88]
 613 013e 11E0     		b	.L14
 614              	.LVL54:
 615              	.L41:
 366:MCSDK_v6.0.0-Full/MotorControl/MCSDK/MCLib/Any/Src/revup_ctrl.c ****                                      + hOldFinalTorque;
 616              		.loc 1 366 21 is_stmt 1 view .LVU240
 366:MCSDK_v6.0.0-Full/MotorControl/MCSDK/MCLib/Any/Src/revup_ctrl.c ****                                      + hOldFinalTorque;
 617              		.loc 1 366 76 is_stmt 0 view .LVU241
 618 0140 01FB06F1 		mul	r1, r1, r6
 619              	.LVL55:
 366:MCSDK_v6.0.0-Full/MotorControl/MCSDK/MCLib/Any/Src/revup_ctrl.c ****                                      + hOldFinalTorque;
 620              		.loc 1 366 97 view .LVU242
 621 0144 91FBF3F1 		sdiv	r1, r1, r3
 367:MCSDK_v6.0.0-Full/MotorControl/MCSDK/MCLib/Any/Src/revup_ctrl.c **** 
 622              		.loc 1 367 38 view .LVU243
 623 0148 1CFA81F1 		uxtah	r1, ip, r1
 624              	.LVL56:
 369:MCSDK_v6.0.0-Full/MotorControl/MCSDK/MCLib/Any/Src/revup_ctrl.c ****                   }
 625              		.loc 1 369 21 is_stmt 1 view .LVU244
 369:MCSDK_v6.0.0-Full/MotorControl/MCSDK/MCLib/Any/Src/revup_ctrl.c ****                   }
 626              		.loc 1 369 62 is_stmt 0 view .LVU245
 627 014c E388     		ldrh	r3, [r4, #6]
ARM GAS  /tmp/cc47mRH9.s 			page 19


 628              	.LVL57:
 369:MCSDK_v6.0.0-Full/MotorControl/MCSDK/MCLib/Any/Src/revup_ctrl.c ****                   }
 629              		.loc 1 369 75 view .LVU246
 630 014e 11FB03F1 		smulbb	r1, r1, r3
 631              	.LVL58:
 369:MCSDK_v6.0.0-Full/MotorControl/MCSDK/MCLib/Any/Src/revup_ctrl.c ****                   }
 632              		.loc 1 369 27 view .LVU247
 633 0152 0022     		movs	r2, #0
 634              	.LVL59:
 369:MCSDK_v6.0.0-Full/MotorControl/MCSDK/MCLib/Any/Src/revup_ctrl.c ****                   }
 635              		.loc 1 369 27 view .LVU248
 636 0154 09B2     		sxth	r1, r1
 637 0156 A06E     		ldr	r0, [r4, #104]
 638              	.LVL60:
 369:MCSDK_v6.0.0-Full/MotorControl/MCSDK/MCLib/Any/Src/revup_ctrl.c ****                   }
 639              		.loc 1 369 27 view .LVU249
 640 0158 FFF7FEFF 		bl	STC_ExecRamp
 641              	.LVL61:
 369:MCSDK_v6.0.0-Full/MotorControl/MCSDK/MCLib/Any/Src/revup_ctrl.c ****                   }
 642              		.loc 1 369 27 view .LVU250
 643 015c E7E7     		b	.L29
 644              	.LVL62:
 645              	.L15:
 369:MCSDK_v6.0.0-Full/MotorControl/MCSDK/MCLib/Any/Src/revup_ctrl.c ****                   }
 646              		.loc 1 369 27 view .LVU251
 647              	.LBE4:
 648              	.LBE3:
 649              	.LBE5:
 377:MCSDK_v6.0.0-Full/MotorControl/MCSDK/MCLib/Any/Src/revup_ctrl.c ****                 } /* no MC_NULL error */
 378:MCSDK_v6.0.0-Full/MotorControl/MCSDK/MCLib/Any/Src/revup_ctrl.c ****               } /* speed > MinStartupFly */
 379:MCSDK_v6.0.0-Full/MotorControl/MCSDK/MCLib/Any/Src/revup_ctrl.c ****               else
 380:MCSDK_v6.0.0-Full/MotorControl/MCSDK/MCLib/Any/Src/revup_ctrl.c ****               {
 381:MCSDK_v6.0.0-Full/MotorControl/MCSDK/MCLib/Any/Src/revup_ctrl.c ****               }
 382:MCSDK_v6.0.0-Full/MotorControl/MCSDK/MCLib/Any/Src/revup_ctrl.c ****             } /* speeds are collinear */
 383:MCSDK_v6.0.0-Full/MotorControl/MCSDK/MCLib/Any/Src/revup_ctrl.c ****           } /* speed is reliable */
 384:MCSDK_v6.0.0-Full/MotorControl/MCSDK/MCLib/Any/Src/revup_ctrl.c ****         }/*EnteredZone1 1 is false */
 385:MCSDK_v6.0.0-Full/MotorControl/MCSDK/MCLib/Any/Src/revup_ctrl.c ****         else
 386:MCSDK_v6.0.0-Full/MotorControl/MCSDK/MCLib/Any/Src/revup_ctrl.c ****         {
 387:MCSDK_v6.0.0-Full/MotorControl/MCSDK/MCLib/Any/Src/revup_ctrl.c ****           pHandle->pSNSL->pFctForceConvergency1(pHandle->pSNSL);
 650              		.loc 1 387 11 is_stmt 1 view .LVU252
 651              		.loc 1 387 18 is_stmt 0 view .LVU253
 652 015e 006F     		ldr	r0, [r0, #112]
 653              	.LVL63:
 654              		.loc 1 387 25 view .LVU254
 655 0160 4368     		ldr	r3, [r0, #4]
 656              		.loc 1 387 11 view .LVU255
 657 0162 9847     		blx	r3
 658              	.LVL64:
 659              	.L14:
 388:MCSDK_v6.0.0-Full/MotorControl/MCSDK/MCLib/Any/Src/revup_ctrl.c ****         }
 389:MCSDK_v6.0.0-Full/MotorControl/MCSDK/MCLib/Any/Src/revup_ctrl.c ****       } /*stage 0*/
 390:MCSDK_v6.0.0-Full/MotorControl/MCSDK/MCLib/Any/Src/revup_ctrl.c ****     } /* hPhaseRemainingTicks > 0 */
 391:MCSDK_v6.0.0-Full/MotorControl/MCSDK/MCLib/Any/Src/revup_ctrl.c **** 
 392:MCSDK_v6.0.0-Full/MotorControl/MCSDK/MCLib/Any/Src/revup_ctrl.c ****     if (0U == pHandle->hPhaseRemainingTicks)
 660              		.loc 1 392 5 is_stmt 1 view .LVU256
 661              		.loc 1 392 22 is_stmt 0 view .LVU257
 662 0164 A388     		ldrh	r3, [r4, #4]
ARM GAS  /tmp/cc47mRH9.s 			page 20


 663              		.loc 1 392 8 view .LVU258
 664 0166 002B     		cmp	r3, #0
 665 0168 55D1     		bne	.L35
 393:MCSDK_v6.0.0-Full/MotorControl/MCSDK/MCLib/Any/Src/revup_ctrl.c ****     {
 394:MCSDK_v6.0.0-Full/MotorControl/MCSDK/MCLib/Any/Src/revup_ctrl.c ****       if (pHandle->pCurrentPhaseParams != MC_NULL)
 666              		.loc 1 394 7 is_stmt 1 view .LVU259
 667              		.loc 1 394 18 is_stmt 0 view .LVU260
 668 016a A368     		ldr	r3, [r4, #8]
 669              		.loc 1 394 10 view .LVU261
 670 016c 002B     		cmp	r3, #0
 671 016e 41D0     		beq	.L31
 395:MCSDK_v6.0.0-Full/MotorControl/MCSDK/MCLib/Any/Src/revup_ctrl.c ****       {
 396:MCSDK_v6.0.0-Full/MotorControl/MCSDK/MCLib/Any/Src/revup_ctrl.c ****         if (0U == pHandle->bStageCnt)
 672              		.loc 1 396 9 is_stmt 1 view .LVU262
 673              		.loc 1 396 26 is_stmt 0 view .LVU263
 674 0170 94F85830 		ldrb	r3, [r4, #88]	@ zero_extendqisi2
 675              		.loc 1 396 12 view .LVU264
 676 0174 53B3     		cbz	r3, .L42
 397:MCSDK_v6.0.0-Full/MotorControl/MCSDK/MCLib/Any/Src/revup_ctrl.c ****         {
 398:MCSDK_v6.0.0-Full/MotorControl/MCSDK/MCLib/Any/Src/revup_ctrl.c ****           /*end of OTF*/
 399:MCSDK_v6.0.0-Full/MotorControl/MCSDK/MCLib/Any/Src/revup_ctrl.c ****           PWMC_SwitchOffPWM(pHandle->pPWM);
 400:MCSDK_v6.0.0-Full/MotorControl/MCSDK/MCLib/Any/Src/revup_ctrl.c ****           pHandle->OTFSCLowside = true;
 401:MCSDK_v6.0.0-Full/MotorControl/MCSDK/MCLib/Any/Src/revup_ctrl.c ****           PWMC_TurnOnLowSides(pHandle->pPWM);
 402:MCSDK_v6.0.0-Full/MotorControl/MCSDK/MCLib/Any/Src/revup_ctrl.c ****           pHandle->bOTFRelCounter = 0U;
 403:MCSDK_v6.0.0-Full/MotorControl/MCSDK/MCLib/Any/Src/revup_ctrl.c ****         }
 404:MCSDK_v6.0.0-Full/MotorControl/MCSDK/MCLib/Any/Src/revup_ctrl.c ****         else if (1U == pHandle->bStageCnt)
 677              		.loc 1 404 14 is_stmt 1 view .LVU265
 678              		.loc 1 404 17 is_stmt 0 view .LVU266
 679 0176 012B     		cmp	r3, #1
 680 0178 35D0     		beq	.L43
 681              	.L33:
 405:MCSDK_v6.0.0-Full/MotorControl/MCSDK/MCLib/Any/Src/revup_ctrl.c ****         {
 406:MCSDK_v6.0.0-Full/MotorControl/MCSDK/MCLib/Any/Src/revup_ctrl.c ****           PWMC_SwitchOnPWM(pHandle->pPWM);
 407:MCSDK_v6.0.0-Full/MotorControl/MCSDK/MCLib/Any/Src/revup_ctrl.c ****           pHandle->OTFSCLowside = false;
 408:MCSDK_v6.0.0-Full/MotorControl/MCSDK/MCLib/Any/Src/revup_ctrl.c ****         }
 409:MCSDK_v6.0.0-Full/MotorControl/MCSDK/MCLib/Any/Src/revup_ctrl.c ****         else
 410:MCSDK_v6.0.0-Full/MotorControl/MCSDK/MCLib/Any/Src/revup_ctrl.c ****         {
 411:MCSDK_v6.0.0-Full/MotorControl/MCSDK/MCLib/Any/Src/revup_ctrl.c ****         }
 682              		.loc 1 411 9 is_stmt 1 view .LVU267
 412:MCSDK_v6.0.0-Full/MotorControl/MCSDK/MCLib/Any/Src/revup_ctrl.c **** 
 413:MCSDK_v6.0.0-Full/MotorControl/MCSDK/MCLib/Any/Src/revup_ctrl.c ****         /* If it becomes zero the current phase has been completed.*/
 414:MCSDK_v6.0.0-Full/MotorControl/MCSDK/MCLib/Any/Src/revup_ctrl.c ****         /* Gives the next command to STC and VSS.*/
 415:MCSDK_v6.0.0-Full/MotorControl/MCSDK/MCLib/Any/Src/revup_ctrl.c ****         (void)STC_ExecRamp(pHandle->pSTC, pHandle->pCurrentPhaseParams->hFinalTorque * pHandle->hDi
 683              		.loc 1 415 9 view .LVU268
 684              		.loc 1 415 50 is_stmt 0 view .LVU269
 685 017a A368     		ldr	r3, [r4, #8]
 686              		.loc 1 415 71 view .LVU270
 687 017c 9988     		ldrh	r1, [r3, #4]
 688              		.loc 1 415 95 view .LVU271
 689 017e E288     		ldrh	r2, [r4, #6]
 690              		.loc 1 415 86 view .LVU272
 691 0180 11FB02F1 		smulbb	r1, r1, r2
 692              		.loc 1 415 15 view .LVU273
 693 0184 1A88     		ldrh	r2, [r3]
 694 0186 09B2     		sxth	r1, r1
 695 0188 A06E     		ldr	r0, [r4, #104]
 696 018a FFF7FEFF 		bl	STC_ExecRamp
ARM GAS  /tmp/cc47mRH9.s 			page 21


 697              	.LVL65:
 416:MCSDK_v6.0.0-Full/MotorControl/MCSDK/MCLib/Any/Src/revup_ctrl.c ****                            (uint32_t)(pHandle->pCurrentPhaseParams->hDurationms));
 417:MCSDK_v6.0.0-Full/MotorControl/MCSDK/MCLib/Any/Src/revup_ctrl.c **** 
 418:MCSDK_v6.0.0-Full/MotorControl/MCSDK/MCLib/Any/Src/revup_ctrl.c ****         VSS_SetMecAcceleration(pHandle->pVSS,
 698              		.loc 1 418 9 is_stmt 1 view .LVU274
 419:MCSDK_v6.0.0-Full/MotorControl/MCSDK/MCLib/Any/Src/revup_ctrl.c ****                                pHandle->pCurrentPhaseParams->hFinalMecSpeedUnit * pHandle->hDirecti
 699              		.loc 1 419 39 is_stmt 0 view .LVU275
 700 018e A368     		ldr	r3, [r4, #8]
 701              		.loc 1 419 60 view .LVU276
 702 0190 5988     		ldrh	r1, [r3, #2]
 703              		.loc 1 419 90 view .LVU277
 704 0192 E288     		ldrh	r2, [r4, #6]
 705              		.loc 1 419 81 view .LVU278
 706 0194 11FB02F1 		smulbb	r1, r1, r2
 418:MCSDK_v6.0.0-Full/MotorControl/MCSDK/MCLib/Any/Src/revup_ctrl.c ****                                pHandle->pCurrentPhaseParams->hFinalMecSpeedUnit * pHandle->hDirecti
 707              		.loc 1 418 9 view .LVU279
 708 0198 1A88     		ldrh	r2, [r3]
 709 019a 09B2     		sxth	r1, r1
 710 019c E06E     		ldr	r0, [r4, #108]
 711 019e FFF7FEFF 		bl	VSS_SetMecAcceleration
 712              	.LVL66:
 420:MCSDK_v6.0.0-Full/MotorControl/MCSDK/MCLib/Any/Src/revup_ctrl.c ****                                pHandle->pCurrentPhaseParams->hDurationms);
 421:MCSDK_v6.0.0-Full/MotorControl/MCSDK/MCLib/Any/Src/revup_ctrl.c **** 
 422:MCSDK_v6.0.0-Full/MotorControl/MCSDK/MCLib/Any/Src/revup_ctrl.c ****         /* Compute hPhaseRemainingTicks.*/
 423:MCSDK_v6.0.0-Full/MotorControl/MCSDK/MCLib/Any/Src/revup_ctrl.c ****         pHandle->hPhaseRemainingTicks = (uint16_t)((((uint32_t)pHandle->pCurrentPhaseParams->hDurat
 713              		.loc 1 423 9 is_stmt 1 view .LVU280
 714              		.loc 1 423 71 is_stmt 0 view .LVU281
 715 01a2 A268     		ldr	r2, [r4, #8]
 716              		.loc 1 423 92 view .LVU282
 717 01a4 1188     		ldrh	r1, [r2]
 424:MCSDK_v6.0.0-Full/MotorControl/MCSDK/MCLib/Any/Src/revup_ctrl.c ****                                                  * (uint32_t)pHandle->hRUCFrequencyHz) / 1000U);
 718              		.loc 1 424 69 view .LVU283
 719 01a6 2388     		ldrh	r3, [r4]
 720              		.loc 1 424 50 view .LVU284
 721 01a8 03FB01F3 		mul	r3, r3, r1
 722              		.loc 1 424 88 view .LVU285
 723 01ac 1C49     		ldr	r1, .L45
 724 01ae A1FB0313 		umull	r1, r3, r1, r3
 423:MCSDK_v6.0.0-Full/MotorControl/MCSDK/MCLib/Any/Src/revup_ctrl.c ****                                                  * (uint32_t)pHandle->hRUCFrequencyHz) / 1000U);
 725              		.loc 1 423 41 view .LVU286
 726 01b2 C3F38F13 		ubfx	r3, r3, #6, #16
 425:MCSDK_v6.0.0-Full/MotorControl/MCSDK/MCLib/Any/Src/revup_ctrl.c ****         pHandle->hPhaseRemainingTicks++;
 727              		.loc 1 425 9 is_stmt 1 view .LVU287
 728              		.loc 1 425 38 is_stmt 0 view .LVU288
 729 01b6 0133     		adds	r3, r3, #1
 730 01b8 A380     		strh	r3, [r4, #4]	@ movhi
 426:MCSDK_v6.0.0-Full/MotorControl/MCSDK/MCLib/Any/Src/revup_ctrl.c **** 
 427:MCSDK_v6.0.0-Full/MotorControl/MCSDK/MCLib/Any/Src/revup_ctrl.c ****         /*Set the next phases parameter pointer.*/
 428:MCSDK_v6.0.0-Full/MotorControl/MCSDK/MCLib/Any/Src/revup_ctrl.c ****         pHandle->pCurrentPhaseParams = pHandle->pCurrentPhaseParams->pNext; //cstat !MISRAC2012-Rul
 731              		.loc 1 428 9 is_stmt 1 view .LVU289
 732              		.loc 1 428 68 is_stmt 0 view .LVU290
 733 01ba 9368     		ldr	r3, [r2, #8]
 734              		.loc 1 428 38 view .LVU291
 735 01bc A360     		str	r3, [r4, #8]
 429:MCSDK_v6.0.0-Full/MotorControl/MCSDK/MCLib/Any/Src/revup_ctrl.c **** 
 430:MCSDK_v6.0.0-Full/MotorControl/MCSDK/MCLib/Any/Src/revup_ctrl.c ****         /*Increases the rev up stages counter.*/
 431:MCSDK_v6.0.0-Full/MotorControl/MCSDK/MCLib/Any/Src/revup_ctrl.c ****         pHandle->bStageCnt++;
ARM GAS  /tmp/cc47mRH9.s 			page 22


 736              		.loc 1 431 9 is_stmt 1 view .LVU292
 737              		.loc 1 431 16 is_stmt 0 view .LVU293
 738 01be 94F85830 		ldrb	r3, [r4, #88]	@ zero_extendqisi2
 739              		.loc 1 431 27 view .LVU294
 740 01c2 0133     		adds	r3, r3, #1
 741 01c4 84F85830 		strb	r3, [r4, #88]
 214:MCSDK_v6.0.0-Full/MotorControl/MCSDK/MCLib/Any/Src/revup_ctrl.c **** #ifdef NULL_PTR_REV_UP_CTL
 742              		.loc 1 214 8 view .LVU295
 743 01c8 0120     		movs	r0, #1
 744 01ca 25E0     		b	.L30
 745              	.L42:
 399:MCSDK_v6.0.0-Full/MotorControl/MCSDK/MCLib/Any/Src/revup_ctrl.c ****           pHandle->OTFSCLowside = true;
 746              		.loc 1 399 11 is_stmt 1 view .LVU296
 747 01cc 606F     		ldr	r0, [r4, #116]
 748 01ce FFF7FEFF 		bl	PWMC_SwitchOffPWM
 749              	.LVL67:
 400:MCSDK_v6.0.0-Full/MotorControl/MCSDK/MCLib/Any/Src/revup_ctrl.c ****           PWMC_TurnOnLowSides(pHandle->pPWM);
 750              		.loc 1 400 11 view .LVU297
 400:MCSDK_v6.0.0-Full/MotorControl/MCSDK/MCLib/Any/Src/revup_ctrl.c ****           PWMC_TurnOnLowSides(pHandle->pPWM);
 751              		.loc 1 400 33 is_stmt 0 view .LVU298
 752 01d2 0123     		movs	r3, #1
 753 01d4 84F85430 		strb	r3, [r4, #84]
 401:MCSDK_v6.0.0-Full/MotorControl/MCSDK/MCLib/Any/Src/revup_ctrl.c ****           pHandle->bOTFRelCounter = 0U;
 754              		.loc 1 401 11 is_stmt 1 view .LVU299
 755 01d8 606F     		ldr	r0, [r4, #116]
 756 01da FFF7FEFF 		bl	PWMC_TurnOnLowSides
 757              	.LVL68:
 402:MCSDK_v6.0.0-Full/MotorControl/MCSDK/MCLib/Any/Src/revup_ctrl.c ****         }
 758              		.loc 1 402 11 view .LVU300
 402:MCSDK_v6.0.0-Full/MotorControl/MCSDK/MCLib/Any/Src/revup_ctrl.c ****         }
 759              		.loc 1 402 35 is_stmt 0 view .LVU301
 760 01de 0023     		movs	r3, #0
 761 01e0 84F85330 		strb	r3, [r4, #83]
 762 01e4 C9E7     		b	.L33
 763              	.L43:
 406:MCSDK_v6.0.0-Full/MotorControl/MCSDK/MCLib/Any/Src/revup_ctrl.c ****           pHandle->OTFSCLowside = false;
 764              		.loc 1 406 11 is_stmt 1 view .LVU302
 765 01e6 606F     		ldr	r0, [r4, #116]
 766 01e8 FFF7FEFF 		bl	PWMC_SwitchOnPWM
 767              	.LVL69:
 407:MCSDK_v6.0.0-Full/MotorControl/MCSDK/MCLib/Any/Src/revup_ctrl.c ****         }
 768              		.loc 1 407 11 view .LVU303
 407:MCSDK_v6.0.0-Full/MotorControl/MCSDK/MCLib/Any/Src/revup_ctrl.c ****         }
 769              		.loc 1 407 33 is_stmt 0 view .LVU304
 770 01ec 0023     		movs	r3, #0
 771 01ee 84F85430 		strb	r3, [r4, #84]
 772 01f2 C2E7     		b	.L33
 773              	.L31:
 432:MCSDK_v6.0.0-Full/MotorControl/MCSDK/MCLib/Any/Src/revup_ctrl.c ****       }
 433:MCSDK_v6.0.0-Full/MotorControl/MCSDK/MCLib/Any/Src/revup_ctrl.c ****       else
 434:MCSDK_v6.0.0-Full/MotorControl/MCSDK/MCLib/Any/Src/revup_ctrl.c ****       {
 435:MCSDK_v6.0.0-Full/MotorControl/MCSDK/MCLib/Any/Src/revup_ctrl.c ****         if (pHandle->bStageCnt == (pHandle->bPhaseNbr - (uint8_t)1)) /* End of user programmed revu
 774              		.loc 1 435 9 is_stmt 1 view .LVU305
 775              		.loc 1 435 20 is_stmt 0 view .LVU306
 776 01f4 94F85820 		ldrb	r2, [r4, #88]	@ zero_extendqisi2
 777              		.loc 1 435 43 view .LVU307
 778 01f8 94F84830 		ldrb	r3, [r4, #72]	@ zero_extendqisi2
ARM GAS  /tmp/cc47mRH9.s 			page 23


 779              		.loc 1 435 55 view .LVU308
 780 01fc 013B     		subs	r3, r3, #1
 781              		.loc 1 435 12 view .LVU309
 782 01fe 9A42     		cmp	r2, r3
 783 0200 0BD0     		beq	.L36
 436:MCSDK_v6.0.0-Full/MotorControl/MCSDK/MCLib/Any/Src/revup_ctrl.c ****         {
 437:MCSDK_v6.0.0-Full/MotorControl/MCSDK/MCLib/Any/Src/revup_ctrl.c ****           retVal = false;
 438:MCSDK_v6.0.0-Full/MotorControl/MCSDK/MCLib/Any/Src/revup_ctrl.c ****         }
 439:MCSDK_v6.0.0-Full/MotorControl/MCSDK/MCLib/Any/Src/revup_ctrl.c ****         else if (7U == pHandle->bStageCnt) /* End of first OTF runs */
 784              		.loc 1 439 14 is_stmt 1 view .LVU310
 785              		.loc 1 439 17 is_stmt 0 view .LVU311
 786 0202 072A     		cmp	r2, #7
 787 0204 01D0     		beq	.L44
 214:MCSDK_v6.0.0-Full/MotorControl/MCSDK/MCLib/Any/Src/revup_ctrl.c **** #ifdef NULL_PTR_REV_UP_CTL
 788              		.loc 1 214 8 view .LVU312
 789 0206 0120     		movs	r0, #1
 790 0208 06E0     		b	.L30
 791              	.L44:
 440:MCSDK_v6.0.0-Full/MotorControl/MCSDK/MCLib/Any/Src/revup_ctrl.c ****         {
 441:MCSDK_v6.0.0-Full/MotorControl/MCSDK/MCLib/Any/Src/revup_ctrl.c ****           pHandle->bStageCnt = 0U; /* Breaking state */
 792              		.loc 1 441 11 is_stmt 1 view .LVU313
 793              		.loc 1 441 30 is_stmt 0 view .LVU314
 794 020a 0023     		movs	r3, #0
 795 020c 84F85830 		strb	r3, [r4, #88]
 442:MCSDK_v6.0.0-Full/MotorControl/MCSDK/MCLib/Any/Src/revup_ctrl.c ****           pHandle->hPhaseRemainingTicks = 0U;
 796              		.loc 1 442 11 is_stmt 1 view .LVU315
 797              		.loc 1 442 41 is_stmt 0 view .LVU316
 798 0210 A380     		strh	r3, [r4, #4]	@ movhi
 214:MCSDK_v6.0.0-Full/MotorControl/MCSDK/MCLib/Any/Src/revup_ctrl.c **** #ifdef NULL_PTR_REV_UP_CTL
 799              		.loc 1 214 8 view .LVU317
 800 0212 0120     		movs	r0, #1
 801 0214 00E0     		b	.L30
 802              	.L35:
 214:MCSDK_v6.0.0-Full/MotorControl/MCSDK/MCLib/Any/Src/revup_ctrl.c **** #ifdef NULL_PTR_REV_UP_CTL
 803              		.loc 1 214 8 view .LVU318
 804 0216 0120     		movs	r0, #1
 805              	.L30:
 806              	.LVL70:
 443:MCSDK_v6.0.0-Full/MotorControl/MCSDK/MCLib/Any/Src/revup_ctrl.c ****         }
 444:MCSDK_v6.0.0-Full/MotorControl/MCSDK/MCLib/Any/Src/revup_ctrl.c ****         else
 445:MCSDK_v6.0.0-Full/MotorControl/MCSDK/MCLib/Any/Src/revup_ctrl.c ****         {
 446:MCSDK_v6.0.0-Full/MotorControl/MCSDK/MCLib/Any/Src/revup_ctrl.c ****           /* Nothing to do */
 447:MCSDK_v6.0.0-Full/MotorControl/MCSDK/MCLib/Any/Src/revup_ctrl.c ****         }
 807              		.loc 1 447 9 is_stmt 1 view .LVU319
 448:MCSDK_v6.0.0-Full/MotorControl/MCSDK/MCLib/Any/Src/revup_ctrl.c ****       }
 449:MCSDK_v6.0.0-Full/MotorControl/MCSDK/MCLib/Any/Src/revup_ctrl.c ****     }
 450:MCSDK_v6.0.0-Full/MotorControl/MCSDK/MCLib/Any/Src/revup_ctrl.c **** #ifdef NULL_PTR_REV_UP_CTL
 451:MCSDK_v6.0.0-Full/MotorControl/MCSDK/MCLib/Any/Src/revup_ctrl.c ****   }
 452:MCSDK_v6.0.0-Full/MotorControl/MCSDK/MCLib/Any/Src/revup_ctrl.c **** #endif
 453:MCSDK_v6.0.0-Full/MotorControl/MCSDK/MCLib/Any/Src/revup_ctrl.c ****   return (retVal);
 808              		.loc 1 453 3 view .LVU320
 454:MCSDK_v6.0.0-Full/MotorControl/MCSDK/MCLib/Any/Src/revup_ctrl.c **** }
 809              		.loc 1 454 1 is_stmt 0 view .LVU321
 810 0218 F8BD     		pop	{r3, r4, r5, r6, r7, pc}
 811              	.LVL71:
 812              	.L36:
 437:MCSDK_v6.0.0-Full/MotorControl/MCSDK/MCLib/Any/Src/revup_ctrl.c ****         }
ARM GAS  /tmp/cc47mRH9.s 			page 24


 813              		.loc 1 437 18 view .LVU322
 814 021a 0020     		movs	r0, #0
 815 021c FCE7     		b	.L30
 816              	.L46:
 817 021e 00BF     		.align	2
 818              	.L45:
 819 0220 D34D6210 		.word	274877907
 820              		.cfi_endproc
 821              	.LFE1437:
 823              		.section	.text.RUC_Exec,"ax",%progbits
 824              		.align	1
 825              		.weak	RUC_Exec
 826              		.syntax unified
 827              		.thumb
 828              		.thumb_func
 829              		.fpu fpv4-sp-d16
 831              	RUC_Exec:
 832              	.LVL72:
 833              	.LFB1438:
 455:MCSDK_v6.0.0-Full/MotorControl/MCSDK/MCLib/Any/Src/revup_ctrl.c **** 
 456:MCSDK_v6.0.0-Full/MotorControl/MCSDK/MCLib/Any/Src/revup_ctrl.c **** /**
 457:MCSDK_v6.0.0-Full/MotorControl/MCSDK/MCLib/Any/Src/revup_ctrl.c ****   * @brief  Main revup controller procedure executing overall programmed phases.
 458:MCSDK_v6.0.0-Full/MotorControl/MCSDK/MCLib/Any/Src/revup_ctrl.c ****   * @param  pHandle: Pointer on Handle structure of RevUp controller.
 459:MCSDK_v6.0.0-Full/MotorControl/MCSDK/MCLib/Any/Src/revup_ctrl.c ****   *  @retval Boolean set to false when entire revup phases have been completed.
 460:MCSDK_v6.0.0-Full/MotorControl/MCSDK/MCLib/Any/Src/revup_ctrl.c ****   */
 461:MCSDK_v6.0.0-Full/MotorControl/MCSDK/MCLib/Any/Src/revup_ctrl.c **** __weak bool RUC_Exec(RevUpCtrl_Handle_t *pHandle)
 462:MCSDK_v6.0.0-Full/MotorControl/MCSDK/MCLib/Any/Src/revup_ctrl.c **** {
 834              		.loc 1 462 1 is_stmt 1 view -0
 835              		.cfi_startproc
 836              		@ args = 0, pretend = 0, frame = 0
 837              		@ frame_needed = 0, uses_anonymous_args = 0
 838              		.loc 1 462 1 is_stmt 0 view .LVU324
 839 0000 10B5     		push	{r4, lr}
 840              		.cfi_def_cfa_offset 8
 841              		.cfi_offset 4, -8
 842              		.cfi_offset 14, -4
 843 0002 0446     		mov	r4, r0
 463:MCSDK_v6.0.0-Full/MotorControl/MCSDK/MCLib/Any/Src/revup_ctrl.c ****   bool retVal = true;
 844              		.loc 1 463 3 is_stmt 1 view .LVU325
 845              	.LVL73:
 464:MCSDK_v6.0.0-Full/MotorControl/MCSDK/MCLib/Any/Src/revup_ctrl.c **** #ifdef NULL_PTR_REV_UP_CTL
 465:MCSDK_v6.0.0-Full/MotorControl/MCSDK/MCLib/Any/Src/revup_ctrl.c ****   if (MC_NULL == pHandle)
 466:MCSDK_v6.0.0-Full/MotorControl/MCSDK/MCLib/Any/Src/revup_ctrl.c ****   {
 467:MCSDK_v6.0.0-Full/MotorControl/MCSDK/MCLib/Any/Src/revup_ctrl.c ****     retVal = false;
 468:MCSDK_v6.0.0-Full/MotorControl/MCSDK/MCLib/Any/Src/revup_ctrl.c ****   }
 469:MCSDK_v6.0.0-Full/MotorControl/MCSDK/MCLib/Any/Src/revup_ctrl.c ****   else
 470:MCSDK_v6.0.0-Full/MotorControl/MCSDK/MCLib/Any/Src/revup_ctrl.c ****   {
 471:MCSDK_v6.0.0-Full/MotorControl/MCSDK/MCLib/Any/Src/revup_ctrl.c **** #endif
 472:MCSDK_v6.0.0-Full/MotorControl/MCSDK/MCLib/Any/Src/revup_ctrl.c ****     if (pHandle->hPhaseRemainingTicks > 0U)
 846              		.loc 1 472 5 view .LVU326
 847              		.loc 1 472 16 is_stmt 0 view .LVU327
 848 0004 8388     		ldrh	r3, [r0, #4]
 849              		.loc 1 472 8 view .LVU328
 850 0006 0BB1     		cbz	r3, .L48
 473:MCSDK_v6.0.0-Full/MotorControl/MCSDK/MCLib/Any/Src/revup_ctrl.c ****     {
 474:MCSDK_v6.0.0-Full/MotorControl/MCSDK/MCLib/Any/Src/revup_ctrl.c ****       /* Decrease the hPhaseRemainingTicks.*/
 475:MCSDK_v6.0.0-Full/MotorControl/MCSDK/MCLib/Any/Src/revup_ctrl.c ****       pHandle->hPhaseRemainingTicks--;
ARM GAS  /tmp/cc47mRH9.s 			page 25


 851              		.loc 1 475 7 is_stmt 1 view .LVU329
 852              		.loc 1 475 36 is_stmt 0 view .LVU330
 853 0008 013B     		subs	r3, r3, #1
 854 000a 8380     		strh	r3, [r0, #4]	@ movhi
 855              	.L48:
 476:MCSDK_v6.0.0-Full/MotorControl/MCSDK/MCLib/Any/Src/revup_ctrl.c **** 
 477:MCSDK_v6.0.0-Full/MotorControl/MCSDK/MCLib/Any/Src/revup_ctrl.c ****     } /* hPhaseRemainingTicks > 0 */
 478:MCSDK_v6.0.0-Full/MotorControl/MCSDK/MCLib/Any/Src/revup_ctrl.c **** 
 479:MCSDK_v6.0.0-Full/MotorControl/MCSDK/MCLib/Any/Src/revup_ctrl.c ****     if (0U == pHandle->hPhaseRemainingTicks)
 856              		.loc 1 479 5 is_stmt 1 view .LVU331
 857              		.loc 1 479 22 is_stmt 0 view .LVU332
 858 000c A388     		ldrh	r3, [r4, #4]
 859              		.loc 1 479 8 view .LVU333
 860 000e 4BBB     		cbnz	r3, .L50
 480:MCSDK_v6.0.0-Full/MotorControl/MCSDK/MCLib/Any/Src/revup_ctrl.c ****     {
 481:MCSDK_v6.0.0-Full/MotorControl/MCSDK/MCLib/Any/Src/revup_ctrl.c ****       if (pHandle->pCurrentPhaseParams != MC_NULL)
 861              		.loc 1 481 7 is_stmt 1 view .LVU334
 862              		.loc 1 481 18 is_stmt 0 view .LVU335
 863 0010 A368     		ldr	r3, [r4, #8]
 864              		.loc 1 481 10 view .LVU336
 865 0012 4BB3     		cbz	r3, .L51
 482:MCSDK_v6.0.0-Full/MotorControl/MCSDK/MCLib/Any/Src/revup_ctrl.c ****       {
 483:MCSDK_v6.0.0-Full/MotorControl/MCSDK/MCLib/Any/Src/revup_ctrl.c ****         /* If it becomes zero the current phase has been completed.*/
 484:MCSDK_v6.0.0-Full/MotorControl/MCSDK/MCLib/Any/Src/revup_ctrl.c ****         /* Gives the next command to STC and VSS.*/
 485:MCSDK_v6.0.0-Full/MotorControl/MCSDK/MCLib/Any/Src/revup_ctrl.c ****         (void)STC_ExecRamp(pHandle->pSTC, pHandle->pCurrentPhaseParams->hFinalTorque * pHandle->hDi
 866              		.loc 1 485 9 is_stmt 1 view .LVU337
 867              		.loc 1 485 71 is_stmt 0 view .LVU338
 868 0014 9988     		ldrh	r1, [r3, #4]
 869              		.loc 1 485 95 view .LVU339
 870 0016 E288     		ldrh	r2, [r4, #6]
 871              		.loc 1 485 86 view .LVU340
 872 0018 11FB02F1 		smulbb	r1, r1, r2
 873              		.loc 1 485 15 view .LVU341
 874 001c 1A88     		ldrh	r2, [r3]
 875 001e 09B2     		sxth	r1, r1
 876 0020 A06E     		ldr	r0, [r4, #104]
 877              	.LVL74:
 878              		.loc 1 485 15 view .LVU342
 879 0022 FFF7FEFF 		bl	STC_ExecRamp
 880              	.LVL75:
 486:MCSDK_v6.0.0-Full/MotorControl/MCSDK/MCLib/Any/Src/revup_ctrl.c ****                            (uint32_t)(pHandle->pCurrentPhaseParams->hDurationms));
 487:MCSDK_v6.0.0-Full/MotorControl/MCSDK/MCLib/Any/Src/revup_ctrl.c **** 
 488:MCSDK_v6.0.0-Full/MotorControl/MCSDK/MCLib/Any/Src/revup_ctrl.c ****         VSS_SetMecAcceleration(pHandle->pVSS,
 881              		.loc 1 488 9 is_stmt 1 view .LVU343
 489:MCSDK_v6.0.0-Full/MotorControl/MCSDK/MCLib/Any/Src/revup_ctrl.c ****                                pHandle->pCurrentPhaseParams->hFinalMecSpeedUnit * pHandle->hDirecti
 882              		.loc 1 489 39 is_stmt 0 view .LVU344
 883 0026 A368     		ldr	r3, [r4, #8]
 884              		.loc 1 489 60 view .LVU345
 885 0028 5988     		ldrh	r1, [r3, #2]
 886              		.loc 1 489 90 view .LVU346
 887 002a E288     		ldrh	r2, [r4, #6]
 888              		.loc 1 489 81 view .LVU347
 889 002c 11FB02F1 		smulbb	r1, r1, r2
 488:MCSDK_v6.0.0-Full/MotorControl/MCSDK/MCLib/Any/Src/revup_ctrl.c ****                                pHandle->pCurrentPhaseParams->hFinalMecSpeedUnit * pHandle->hDirecti
 890              		.loc 1 488 9 view .LVU348
 891 0030 1A88     		ldrh	r2, [r3]
 892 0032 09B2     		sxth	r1, r1
ARM GAS  /tmp/cc47mRH9.s 			page 26


 893 0034 E06E     		ldr	r0, [r4, #108]
 894 0036 FFF7FEFF 		bl	VSS_SetMecAcceleration
 895              	.LVL76:
 490:MCSDK_v6.0.0-Full/MotorControl/MCSDK/MCLib/Any/Src/revup_ctrl.c ****                                pHandle->pCurrentPhaseParams->hDurationms);
 491:MCSDK_v6.0.0-Full/MotorControl/MCSDK/MCLib/Any/Src/revup_ctrl.c **** 
 492:MCSDK_v6.0.0-Full/MotorControl/MCSDK/MCLib/Any/Src/revup_ctrl.c ****         /* Compute hPhaseRemainingTicks.*/
 493:MCSDK_v6.0.0-Full/MotorControl/MCSDK/MCLib/Any/Src/revup_ctrl.c ****         pHandle->hPhaseRemainingTicks = (uint16_t)((((uint32_t)pHandle->pCurrentPhaseParams->hDurat
 896              		.loc 1 493 9 is_stmt 1 view .LVU349
 897              		.loc 1 493 71 is_stmt 0 view .LVU350
 898 003a A268     		ldr	r2, [r4, #8]
 899              		.loc 1 493 92 view .LVU351
 900 003c 1188     		ldrh	r1, [r2]
 494:MCSDK_v6.0.0-Full/MotorControl/MCSDK/MCLib/Any/Src/revup_ctrl.c ****                                                   * ((uint32_t)pHandle->hRUCFrequencyHz)) / 1000U )
 901              		.loc 1 494 71 view .LVU352
 902 003e 2388     		ldrh	r3, [r4]
 903              		.loc 1 494 51 view .LVU353
 904 0040 03FB01F3 		mul	r3, r3, r1
 905              		.loc 1 494 91 view .LVU354
 906 0044 0949     		ldr	r1, .L53
 907 0046 A1FB0313 		umull	r1, r3, r1, r3
 493:MCSDK_v6.0.0-Full/MotorControl/MCSDK/MCLib/Any/Src/revup_ctrl.c ****                                                   * ((uint32_t)pHandle->hRUCFrequencyHz)) / 1000U )
 908              		.loc 1 493 41 view .LVU355
 909 004a C3F38F13 		ubfx	r3, r3, #6, #16
 495:MCSDK_v6.0.0-Full/MotorControl/MCSDK/MCLib/Any/Src/revup_ctrl.c ****         pHandle->hPhaseRemainingTicks++;
 910              		.loc 1 495 9 is_stmt 1 view .LVU356
 911              		.loc 1 495 38 is_stmt 0 view .LVU357
 912 004e 0133     		adds	r3, r3, #1
 913 0050 A380     		strh	r3, [r4, #4]	@ movhi
 496:MCSDK_v6.0.0-Full/MotorControl/MCSDK/MCLib/Any/Src/revup_ctrl.c **** 
 497:MCSDK_v6.0.0-Full/MotorControl/MCSDK/MCLib/Any/Src/revup_ctrl.c ****         /*Set the next phases parameter pointer.*/
 498:MCSDK_v6.0.0-Full/MotorControl/MCSDK/MCLib/Any/Src/revup_ctrl.c ****         pHandle->pCurrentPhaseParams = pHandle->pCurrentPhaseParams->pNext; //cstat !MISRAC2012-Rul
 914              		.loc 1 498 9 is_stmt 1 view .LVU358
 915              		.loc 1 498 68 is_stmt 0 view .LVU359
 916 0052 9368     		ldr	r3, [r2, #8]
 917              		.loc 1 498 38 view .LVU360
 918 0054 A360     		str	r3, [r4, #8]
 499:MCSDK_v6.0.0-Full/MotorControl/MCSDK/MCLib/Any/Src/revup_ctrl.c **** 
 500:MCSDK_v6.0.0-Full/MotorControl/MCSDK/MCLib/Any/Src/revup_ctrl.c ****         /*Increases the rev up stages counter.*/
 501:MCSDK_v6.0.0-Full/MotorControl/MCSDK/MCLib/Any/Src/revup_ctrl.c ****         pHandle->bStageCnt++;
 919              		.loc 1 501 9 is_stmt 1 view .LVU361
 920              		.loc 1 501 16 is_stmt 0 view .LVU362
 921 0056 94F85830 		ldrb	r3, [r4, #88]	@ zero_extendqisi2
 922              		.loc 1 501 27 view .LVU363
 923 005a 0133     		adds	r3, r3, #1
 924 005c 84F85830 		strb	r3, [r4, #88]
 463:MCSDK_v6.0.0-Full/MotorControl/MCSDK/MCLib/Any/Src/revup_ctrl.c **** #ifdef NULL_PTR_REV_UP_CTL
 925              		.loc 1 463 8 view .LVU364
 926 0060 0120     		movs	r0, #1
 927 0062 00E0     		b	.L49
 928              	.LVL77:
 929              	.L50:
 463:MCSDK_v6.0.0-Full/MotorControl/MCSDK/MCLib/Any/Src/revup_ctrl.c **** #ifdef NULL_PTR_REV_UP_CTL
 930              		.loc 1 463 8 view .LVU365
 931 0064 0120     		movs	r0, #1
 932              	.LVL78:
 933              	.L49:
 502:MCSDK_v6.0.0-Full/MotorControl/MCSDK/MCLib/Any/Src/revup_ctrl.c ****       }
ARM GAS  /tmp/cc47mRH9.s 			page 27


 503:MCSDK_v6.0.0-Full/MotorControl/MCSDK/MCLib/Any/Src/revup_ctrl.c ****       else
 504:MCSDK_v6.0.0-Full/MotorControl/MCSDK/MCLib/Any/Src/revup_ctrl.c ****       {
 505:MCSDK_v6.0.0-Full/MotorControl/MCSDK/MCLib/Any/Src/revup_ctrl.c ****         retVal = false;
 506:MCSDK_v6.0.0-Full/MotorControl/MCSDK/MCLib/Any/Src/revup_ctrl.c ****       }
 507:MCSDK_v6.0.0-Full/MotorControl/MCSDK/MCLib/Any/Src/revup_ctrl.c ****     }
 508:MCSDK_v6.0.0-Full/MotorControl/MCSDK/MCLib/Any/Src/revup_ctrl.c **** #ifdef NULL_PTR_REV_UP_CTL
 509:MCSDK_v6.0.0-Full/MotorControl/MCSDK/MCLib/Any/Src/revup_ctrl.c ****   }
 510:MCSDK_v6.0.0-Full/MotorControl/MCSDK/MCLib/Any/Src/revup_ctrl.c **** #endif
 511:MCSDK_v6.0.0-Full/MotorControl/MCSDK/MCLib/Any/Src/revup_ctrl.c ****   return (retVal);
 934              		.loc 1 511 3 is_stmt 1 view .LVU366
 512:MCSDK_v6.0.0-Full/MotorControl/MCSDK/MCLib/Any/Src/revup_ctrl.c **** }
 935              		.loc 1 512 1 is_stmt 0 view .LVU367
 936 0066 10BD     		pop	{r4, pc}
 937              	.LVL79:
 938              	.L51:
 505:MCSDK_v6.0.0-Full/MotorControl/MCSDK/MCLib/Any/Src/revup_ctrl.c ****       }
 939              		.loc 1 505 16 view .LVU368
 940 0068 0020     		movs	r0, #0
 941              	.LVL80:
 505:MCSDK_v6.0.0-Full/MotorControl/MCSDK/MCLib/Any/Src/revup_ctrl.c ****       }
 942              		.loc 1 505 16 view .LVU369
 943 006a FCE7     		b	.L49
 944              	.L54:
 945              		.align	2
 946              	.L53:
 947 006c D34D6210 		.word	274877907
 948              		.cfi_endproc
 949              	.LFE1438:
 951              		.section	.text.RUC_GetPhaseFinalMecSpeed01Hz,"ax",%progbits
 952              		.align	1
 953              		.global	RUC_GetPhaseFinalMecSpeed01Hz
 954              		.syntax unified
 955              		.thumb
 956              		.thumb_func
 957              		.fpu fpv4-sp-d16
 959              	RUC_GetPhaseFinalMecSpeed01Hz:
 960              	.LVL81:
 961              	.LFB1439:
 513:MCSDK_v6.0.0-Full/MotorControl/MCSDK/MCLib/Any/Src/revup_ctrl.c **** 
 514:MCSDK_v6.0.0-Full/MotorControl/MCSDK/MCLib/Any/Src/revup_ctrl.c **** int16_t RUC_GetPhaseFinalMecSpeed01Hz(RevUpCtrl_Handle_t *pHandle, uint8_t bPhase)
 515:MCSDK_v6.0.0-Full/MotorControl/MCSDK/MCLib/Any/Src/revup_ctrl.c **** {
 962              		.loc 1 515 1 is_stmt 1 view -0
 963              		.cfi_startproc
 964              		@ args = 0, pretend = 0, frame = 0
 965              		@ frame_needed = 0, uses_anonymous_args = 0
 966              		@ link register save eliminated.
 516:MCSDK_v6.0.0-Full/MotorControl/MCSDK/MCLib/Any/Src/revup_ctrl.c ****   int16_t hRetVal = 0;
 967              		.loc 1 516 3 view .LVU371
 517:MCSDK_v6.0.0-Full/MotorControl/MCSDK/MCLib/Any/Src/revup_ctrl.c **** #ifdef NULL_PTR_REV_UP_CTL
 518:MCSDK_v6.0.0-Full/MotorControl/MCSDK/MCLib/Any/Src/revup_ctrl.c ****   if (MC_NULL == pHandle)
 519:MCSDK_v6.0.0-Full/MotorControl/MCSDK/MCLib/Any/Src/revup_ctrl.c ****   {
 520:MCSDK_v6.0.0-Full/MotorControl/MCSDK/MCLib/Any/Src/revup_ctrl.c ****     /* Nothing to do */
 521:MCSDK_v6.0.0-Full/MotorControl/MCSDK/MCLib/Any/Src/revup_ctrl.c ****   }
 522:MCSDK_v6.0.0-Full/MotorControl/MCSDK/MCLib/Any/Src/revup_ctrl.c ****   else
 523:MCSDK_v6.0.0-Full/MotorControl/MCSDK/MCLib/Any/Src/revup_ctrl.c ****   {
 524:MCSDK_v6.0.0-Full/MotorControl/MCSDK/MCLib/Any/Src/revup_ctrl.c **** #endif
 525:MCSDK_v6.0.0-Full/MotorControl/MCSDK/MCLib/Any/Src/revup_ctrl.c ****     hRetVal = pHandle->ParamsData[bPhase].hFinalMecSpeedUnit;
ARM GAS  /tmp/cc47mRH9.s 			page 28


 968              		.loc 1 525 5 view .LVU372
 969              		.loc 1 525 13 is_stmt 0 view .LVU373
 970 0000 01EB4101 		add	r1, r1, r1, lsl #1
 971              	.LVL82:
 972              		.loc 1 525 13 view .LVU374
 973 0004 00EB8101 		add	r1, r0, r1, lsl #2
 974              	.LVL83:
 526:MCSDK_v6.0.0-Full/MotorControl/MCSDK/MCLib/Any/Src/revup_ctrl.c **** #ifdef NULL_PTR_REV_UP_CTL
 527:MCSDK_v6.0.0-Full/MotorControl/MCSDK/MCLib/Any/Src/revup_ctrl.c ****   }
 528:MCSDK_v6.0.0-Full/MotorControl/MCSDK/MCLib/Any/Src/revup_ctrl.c **** #endif
 529:MCSDK_v6.0.0-Full/MotorControl/MCSDK/MCLib/Any/Src/revup_ctrl.c ****   return (hRetVal);
 975              		.loc 1 529 3 is_stmt 1 view .LVU375
 530:MCSDK_v6.0.0-Full/MotorControl/MCSDK/MCLib/Any/Src/revup_ctrl.c **** }
 976              		.loc 1 530 1 is_stmt 0 view .LVU376
 977 0008 B1F90E00 		ldrsh	r0, [r1, #14]
 978              	.LVL84:
 979              		.loc 1 530 1 view .LVU377
 980 000c 7047     		bx	lr
 981              		.cfi_endproc
 982              	.LFE1439:
 984              		.section	.text.RUC_IsAlignStageNow,"ax",%progbits
 985              		.align	1
 986              		.global	RUC_IsAlignStageNow
 987              		.syntax unified
 988              		.thumb
 989              		.thumb_func
 990              		.fpu fpv4-sp-d16
 992              	RUC_IsAlignStageNow:
 993              	.LVL85:
 994              	.LFB1440:
 531:MCSDK_v6.0.0-Full/MotorControl/MCSDK/MCLib/Any/Src/revup_ctrl.c **** 
 532:MCSDK_v6.0.0-Full/MotorControl/MCSDK/MCLib/Any/Src/revup_ctrl.c **** /**
 533:MCSDK_v6.0.0-Full/MotorControl/MCSDK/MCLib/Any/Src/revup_ctrl.c ****   * @brief  It is used to check if this stage is used for align motor.
 534:MCSDK_v6.0.0-Full/MotorControl/MCSDK/MCLib/Any/Src/revup_ctrl.c ****   * @param  this related object of class CRUC.
 535:MCSDK_v6.0.0-Full/MotorControl/MCSDK/MCLib/Any/Src/revup_ctrl.c ****   * @retval uint8_t.
 536:MCSDK_v6.0.0-Full/MotorControl/MCSDK/MCLib/Any/Src/revup_ctrl.c ****   */
 537:MCSDK_v6.0.0-Full/MotorControl/MCSDK/MCLib/Any/Src/revup_ctrl.c **** uint8_t RUC_IsAlignStageNow(RevUpCtrl_Handle_t *pHandle)
 538:MCSDK_v6.0.0-Full/MotorControl/MCSDK/MCLib/Any/Src/revup_ctrl.c **** {
 995              		.loc 1 538 1 is_stmt 1 view -0
 996              		.cfi_startproc
 997              		@ args = 0, pretend = 0, frame = 0
 998              		@ frame_needed = 0, uses_anonymous_args = 0
 999              		.loc 1 538 1 is_stmt 0 view .LVU379
 1000 0000 08B5     		push	{r3, lr}
 1001              		.cfi_def_cfa_offset 8
 1002              		.cfi_offset 3, -8
 1003              		.cfi_offset 14, -4
 539:MCSDK_v6.0.0-Full/MotorControl/MCSDK/MCLib/Any/Src/revup_ctrl.c ****   uint8_t align_flag = 0;
 1004              		.loc 1 539 3 is_stmt 1 view .LVU380
 1005              	.LVL86:
 540:MCSDK_v6.0.0-Full/MotorControl/MCSDK/MCLib/Any/Src/revup_ctrl.c **** #ifdef NULL_PTR_REV_UP_CTL
 541:MCSDK_v6.0.0-Full/MotorControl/MCSDK/MCLib/Any/Src/revup_ctrl.c ****   if (MC_NULL == pHandle)
 542:MCSDK_v6.0.0-Full/MotorControl/MCSDK/MCLib/Any/Src/revup_ctrl.c ****   {
 543:MCSDK_v6.0.0-Full/MotorControl/MCSDK/MCLib/Any/Src/revup_ctrl.c ****     /* Nothing to do */
 544:MCSDK_v6.0.0-Full/MotorControl/MCSDK/MCLib/Any/Src/revup_ctrl.c ****   }
 545:MCSDK_v6.0.0-Full/MotorControl/MCSDK/MCLib/Any/Src/revup_ctrl.c ****   else
 546:MCSDK_v6.0.0-Full/MotorControl/MCSDK/MCLib/Any/Src/revup_ctrl.c ****   {
ARM GAS  /tmp/cc47mRH9.s 			page 29


 547:MCSDK_v6.0.0-Full/MotorControl/MCSDK/MCLib/Any/Src/revup_ctrl.c **** #endif
 548:MCSDK_v6.0.0-Full/MotorControl/MCSDK/MCLib/Any/Src/revup_ctrl.c ****     int16_t speed;
 1006              		.loc 1 548 5 view .LVU381
 549:MCSDK_v6.0.0-Full/MotorControl/MCSDK/MCLib/Any/Src/revup_ctrl.c ****     speed = RUC_GetPhaseFinalMecSpeed01Hz(pHandle, pHandle->bStageCnt);
 1007              		.loc 1 549 5 view .LVU382
 1008              		.loc 1 549 13 is_stmt 0 view .LVU383
 1009 0002 90F85810 		ldrb	r1, [r0, #88]	@ zero_extendqisi2
 1010 0006 FFF7FEFF 		bl	RUC_GetPhaseFinalMecSpeed01Hz
 1011              	.LVL87:
 550:MCSDK_v6.0.0-Full/MotorControl/MCSDK/MCLib/Any/Src/revup_ctrl.c ****     if (0 == speed)
 1012              		.loc 1 550 5 is_stmt 1 view .LVU384
 1013              		.loc 1 550 8 is_stmt 0 view .LVU385
 1014 000a 08B1     		cbz	r0, .L58
 539:MCSDK_v6.0.0-Full/MotorControl/MCSDK/MCLib/Any/Src/revup_ctrl.c **** #ifdef NULL_PTR_REV_UP_CTL
 1015              		.loc 1 539 11 view .LVU386
 1016 000c 0020     		movs	r0, #0
 1017              	.LVL88:
 1018              	.L57:
 551:MCSDK_v6.0.0-Full/MotorControl/MCSDK/MCLib/Any/Src/revup_ctrl.c ****     {
 552:MCSDK_v6.0.0-Full/MotorControl/MCSDK/MCLib/Any/Src/revup_ctrl.c ****       align_flag = 1;
 553:MCSDK_v6.0.0-Full/MotorControl/MCSDK/MCLib/Any/Src/revup_ctrl.c ****     }
 554:MCSDK_v6.0.0-Full/MotorControl/MCSDK/MCLib/Any/Src/revup_ctrl.c **** #ifdef NULL_PTR_REV_UP_CTL
 555:MCSDK_v6.0.0-Full/MotorControl/MCSDK/MCLib/Any/Src/revup_ctrl.c ****   }
 556:MCSDK_v6.0.0-Full/MotorControl/MCSDK/MCLib/Any/Src/revup_ctrl.c **** #endif
 557:MCSDK_v6.0.0-Full/MotorControl/MCSDK/MCLib/Any/Src/revup_ctrl.c ****   return (align_flag);
 1019              		.loc 1 557 3 is_stmt 1 view .LVU387
 558:MCSDK_v6.0.0-Full/MotorControl/MCSDK/MCLib/Any/Src/revup_ctrl.c **** }
 1020              		.loc 1 558 1 is_stmt 0 view .LVU388
 1021 000e 08BD     		pop	{r3, pc}
 1022              	.LVL89:
 1023              	.L58:
 552:MCSDK_v6.0.0-Full/MotorControl/MCSDK/MCLib/Any/Src/revup_ctrl.c ****     }
 1024              		.loc 1 552 18 view .LVU389
 1025 0010 0120     		movs	r0, #1
 1026              	.LVL90:
 552:MCSDK_v6.0.0-Full/MotorControl/MCSDK/MCLib/Any/Src/revup_ctrl.c ****     }
 1027              		.loc 1 552 18 view .LVU390
 1028 0012 FCE7     		b	.L57
 1029              		.cfi_endproc
 1030              	.LFE1440:
 1032              		.section	.text.RUC_Completed,"ax",%progbits
 1033              		.align	1
 1034              		.weak	RUC_Completed
 1035              		.syntax unified
 1036              		.thumb
 1037              		.thumb_func
 1038              		.fpu fpv4-sp-d16
 1040              	RUC_Completed:
 1041              	.LVL91:
 1042              	.LFB1441:
 559:MCSDK_v6.0.0-Full/MotorControl/MCSDK/MCLib/Any/Src/revup_ctrl.c **** 
 560:MCSDK_v6.0.0-Full/MotorControl/MCSDK/MCLib/Any/Src/revup_ctrl.c **** /**
 561:MCSDK_v6.0.0-Full/MotorControl/MCSDK/MCLib/Any/Src/revup_ctrl.c ****   * @brief  Provide current state of revup controller procedure.
 562:MCSDK_v6.0.0-Full/MotorControl/MCSDK/MCLib/Any/Src/revup_ctrl.c ****   * @param  pHandle: Pointer on Handle structure of RevUp controller.
 563:MCSDK_v6.0.0-Full/MotorControl/MCSDK/MCLib/Any/Src/revup_ctrl.c ****   *  @retval Boolean set to true when entire revup phases have been completed.
 564:MCSDK_v6.0.0-Full/MotorControl/MCSDK/MCLib/Any/Src/revup_ctrl.c ****   */
 565:MCSDK_v6.0.0-Full/MotorControl/MCSDK/MCLib/Any/Src/revup_ctrl.c **** __weak bool RUC_Completed(RevUpCtrl_Handle_t *pHandle)
ARM GAS  /tmp/cc47mRH9.s 			page 30


 566:MCSDK_v6.0.0-Full/MotorControl/MCSDK/MCLib/Any/Src/revup_ctrl.c **** {
 1043              		.loc 1 566 1 is_stmt 1 view -0
 1044              		.cfi_startproc
 1045              		@ args = 0, pretend = 0, frame = 0
 1046              		@ frame_needed = 0, uses_anonymous_args = 0
 1047              		@ link register save eliminated.
 567:MCSDK_v6.0.0-Full/MotorControl/MCSDK/MCLib/Any/Src/revup_ctrl.c ****   bool retVal = false;
 1048              		.loc 1 567 3 view .LVU392
 568:MCSDK_v6.0.0-Full/MotorControl/MCSDK/MCLib/Any/Src/revup_ctrl.c **** #ifdef NULL_PTR_REV_UP_CTL
 569:MCSDK_v6.0.0-Full/MotorControl/MCSDK/MCLib/Any/Src/revup_ctrl.c ****   if (MC_NULL == pHandle)
 570:MCSDK_v6.0.0-Full/MotorControl/MCSDK/MCLib/Any/Src/revup_ctrl.c ****   {
 571:MCSDK_v6.0.0-Full/MotorControl/MCSDK/MCLib/Any/Src/revup_ctrl.c ****     /* Nothing to do */
 572:MCSDK_v6.0.0-Full/MotorControl/MCSDK/MCLib/Any/Src/revup_ctrl.c ****   }
 573:MCSDK_v6.0.0-Full/MotorControl/MCSDK/MCLib/Any/Src/revup_ctrl.c ****   else
 574:MCSDK_v6.0.0-Full/MotorControl/MCSDK/MCLib/Any/Src/revup_ctrl.c ****   {
 575:MCSDK_v6.0.0-Full/MotorControl/MCSDK/MCLib/Any/Src/revup_ctrl.c **** #endif
 576:MCSDK_v6.0.0-Full/MotorControl/MCSDK/MCLib/Any/Src/revup_ctrl.c ****     if (MC_NULL == pHandle->pCurrentPhaseParams)
 1049              		.loc 1 576 5 view .LVU393
 1050              		.loc 1 576 27 is_stmt 0 view .LVU394
 1051 0000 8368     		ldr	r3, [r0, #8]
 1052              		.loc 1 576 8 view .LVU395
 1053 0002 0BB1     		cbz	r3, .L62
 567:MCSDK_v6.0.0-Full/MotorControl/MCSDK/MCLib/Any/Src/revup_ctrl.c ****   bool retVal = false;
 1054              		.loc 1 567 8 view .LVU396
 1055 0004 0020     		movs	r0, #0
 1056              	.LVL92:
 567:MCSDK_v6.0.0-Full/MotorControl/MCSDK/MCLib/Any/Src/revup_ctrl.c ****   bool retVal = false;
 1057              		.loc 1 567 8 view .LVU397
 1058 0006 7047     		bx	lr
 1059              	.LVL93:
 1060              	.L62:
 577:MCSDK_v6.0.0-Full/MotorControl/MCSDK/MCLib/Any/Src/revup_ctrl.c ****     {
 578:MCSDK_v6.0.0-Full/MotorControl/MCSDK/MCLib/Any/Src/revup_ctrl.c ****       retVal = true;
 1061              		.loc 1 578 14 view .LVU398
 1062 0008 0120     		movs	r0, #1
 1063              	.LVL94:
 579:MCSDK_v6.0.0-Full/MotorControl/MCSDK/MCLib/Any/Src/revup_ctrl.c ****     }
 580:MCSDK_v6.0.0-Full/MotorControl/MCSDK/MCLib/Any/Src/revup_ctrl.c **** #ifdef NULL_PTR_REV_UP_CTL
 581:MCSDK_v6.0.0-Full/MotorControl/MCSDK/MCLib/Any/Src/revup_ctrl.c ****   }
 582:MCSDK_v6.0.0-Full/MotorControl/MCSDK/MCLib/Any/Src/revup_ctrl.c **** #endif
 583:MCSDK_v6.0.0-Full/MotorControl/MCSDK/MCLib/Any/Src/revup_ctrl.c ****   return (retVal);
 1064              		.loc 1 583 3 is_stmt 1 view .LVU399
 584:MCSDK_v6.0.0-Full/MotorControl/MCSDK/MCLib/Any/Src/revup_ctrl.c **** }
 1065              		.loc 1 584 1 is_stmt 0 view .LVU400
 1066 000a 7047     		bx	lr
 1067              		.cfi_endproc
 1068              	.LFE1441:
 1070              		.section	.text.RUC_Stop,"ax",%progbits
 1071              		.align	1
 1072              		.weak	RUC_Stop
 1073              		.syntax unified
 1074              		.thumb
 1075              		.thumb_func
 1076              		.fpu fpv4-sp-d16
 1078              	RUC_Stop:
 1079              	.LVL95:
 1080              	.LFB1442:
ARM GAS  /tmp/cc47mRH9.s 			page 31


 585:MCSDK_v6.0.0-Full/MotorControl/MCSDK/MCLib/Any/Src/revup_ctrl.c **** 
 586:MCSDK_v6.0.0-Full/MotorControl/MCSDK/MCLib/Any/Src/revup_ctrl.c **** /**
 587:MCSDK_v6.0.0-Full/MotorControl/MCSDK/MCLib/Any/Src/revup_ctrl.c ****   * @brief  Allow to exit from RevUp process at the current rotor speed.
 588:MCSDK_v6.0.0-Full/MotorControl/MCSDK/MCLib/Any/Src/revup_ctrl.c ****   * @param  pHandle: Pointer on Handle structure of RevUp controller.
 589:MCSDK_v6.0.0-Full/MotorControl/MCSDK/MCLib/Any/Src/revup_ctrl.c ****   *  @retval none
 590:MCSDK_v6.0.0-Full/MotorControl/MCSDK/MCLib/Any/Src/revup_ctrl.c ****   */
 591:MCSDK_v6.0.0-Full/MotorControl/MCSDK/MCLib/Any/Src/revup_ctrl.c **** __weak void RUC_Stop(RevUpCtrl_Handle_t *pHandle)
 592:MCSDK_v6.0.0-Full/MotorControl/MCSDK/MCLib/Any/Src/revup_ctrl.c **** {
 1081              		.loc 1 592 1 is_stmt 1 view -0
 1082              		.cfi_startproc
 1083              		@ args = 0, pretend = 0, frame = 0
 1084              		@ frame_needed = 0, uses_anonymous_args = 0
 1085              		.loc 1 592 1 is_stmt 0 view .LVU402
 1086 0000 38B5     		push	{r3, r4, r5, lr}
 1087              		.cfi_def_cfa_offset 16
 1088              		.cfi_offset 3, -16
 1089              		.cfi_offset 4, -12
 1090              		.cfi_offset 5, -8
 1091              		.cfi_offset 14, -4
 593:MCSDK_v6.0.0-Full/MotorControl/MCSDK/MCLib/Any/Src/revup_ctrl.c **** #ifdef NULL_PTR_REV_UP_CTL
 594:MCSDK_v6.0.0-Full/MotorControl/MCSDK/MCLib/Any/Src/revup_ctrl.c ****   if (MC_NULL == pHandle)
 595:MCSDK_v6.0.0-Full/MotorControl/MCSDK/MCLib/Any/Src/revup_ctrl.c ****   {
 596:MCSDK_v6.0.0-Full/MotorControl/MCSDK/MCLib/Any/Src/revup_ctrl.c ****     /* Nothing to do */
 597:MCSDK_v6.0.0-Full/MotorControl/MCSDK/MCLib/Any/Src/revup_ctrl.c ****   }
 598:MCSDK_v6.0.0-Full/MotorControl/MCSDK/MCLib/Any/Src/revup_ctrl.c ****   else
 599:MCSDK_v6.0.0-Full/MotorControl/MCSDK/MCLib/Any/Src/revup_ctrl.c ****   {
 600:MCSDK_v6.0.0-Full/MotorControl/MCSDK/MCLib/Any/Src/revup_ctrl.c **** #endif
 601:MCSDK_v6.0.0-Full/MotorControl/MCSDK/MCLib/Any/Src/revup_ctrl.c ****     VirtualSpeedSensor_Handle_t *pVSS = pHandle->pVSS;
 1092              		.loc 1 601 5 is_stmt 1 view .LVU403
 1093              		.loc 1 601 34 is_stmt 0 view .LVU404
 1094 0002 C56E     		ldr	r5, [r0, #108]
 1095              	.LVL96:
 602:MCSDK_v6.0.0-Full/MotorControl/MCSDK/MCLib/Any/Src/revup_ctrl.c ****     pHandle->pCurrentPhaseParams = MC_NULL;
 1096              		.loc 1 602 5 is_stmt 1 view .LVU405
 1097              		.loc 1 602 34 is_stmt 0 view .LVU406
 1098 0004 0024     		movs	r4, #0
 1099 0006 8460     		str	r4, [r0, #8]
 603:MCSDK_v6.0.0-Full/MotorControl/MCSDK/MCLib/Any/Src/revup_ctrl.c ****     pHandle->hPhaseRemainingTicks = 0U;
 1100              		.loc 1 603 5 is_stmt 1 view .LVU407
 1101              		.loc 1 603 35 is_stmt 0 view .LVU408
 1102 0008 8480     		strh	r4, [r0, #4]	@ movhi
 604:MCSDK_v6.0.0-Full/MotorControl/MCSDK/MCLib/Any/Src/revup_ctrl.c ****     VSS_SetMecAcceleration(pVSS, SPD_GetAvrgMecSpeedUnit(&pVSS->_Super), 0U);
 1103              		.loc 1 604 5 is_stmt 1 view .LVU409
 1104 000a 2846     		mov	r0, r5
 1105              	.LVL97:
 1106              		.loc 1 604 5 is_stmt 0 view .LVU410
 1107 000c FFF7FEFF 		bl	SPD_GetAvrgMecSpeedUnit
 1108              	.LVL98:
 1109 0010 0146     		mov	r1, r0
 1110 0012 2246     		mov	r2, r4
 1111 0014 2846     		mov	r0, r5
 1112 0016 FFF7FEFF 		bl	VSS_SetMecAcceleration
 1113              	.LVL99:
 605:MCSDK_v6.0.0-Full/MotorControl/MCSDK/MCLib/Any/Src/revup_ctrl.c **** #ifdef NULL_PTR_REV_UP_CTL
 606:MCSDK_v6.0.0-Full/MotorControl/MCSDK/MCLib/Any/Src/revup_ctrl.c ****   }
 607:MCSDK_v6.0.0-Full/MotorControl/MCSDK/MCLib/Any/Src/revup_ctrl.c **** #endif
 608:MCSDK_v6.0.0-Full/MotorControl/MCSDK/MCLib/Any/Src/revup_ctrl.c **** }
ARM GAS  /tmp/cc47mRH9.s 			page 32


 1114              		.loc 1 608 1 view .LVU411
 1115 001a 38BD     		pop	{r3, r4, r5, pc}
 1116              		.loc 1 608 1 view .LVU412
 1117              		.cfi_endproc
 1118              	.LFE1442:
 1120              		.section	.text.RUC_FirstAccelerationStageReached,"ax",%progbits
 1121              		.align	1
 1122              		.weak	RUC_FirstAccelerationStageReached
 1123              		.syntax unified
 1124              		.thumb
 1125              		.thumb_func
 1126              		.fpu fpv4-sp-d16
 1128              	RUC_FirstAccelerationStageReached:
 1129              	.LVL100:
 1130              	.LFB1443:
 609:MCSDK_v6.0.0-Full/MotorControl/MCSDK/MCLib/Any/Src/revup_ctrl.c **** 
 610:MCSDK_v6.0.0-Full/MotorControl/MCSDK/MCLib/Any/Src/revup_ctrl.c **** #if defined (CCMRAM)
 611:MCSDK_v6.0.0-Full/MotorControl/MCSDK/MCLib/Any/Src/revup_ctrl.c **** #if defined (__ICCARM__)
 612:MCSDK_v6.0.0-Full/MotorControl/MCSDK/MCLib/Any/Src/revup_ctrl.c **** #pragma location = ".ccmram"
 613:MCSDK_v6.0.0-Full/MotorControl/MCSDK/MCLib/Any/Src/revup_ctrl.c **** #elif defined (__CC_ARM) || defined(__GNUC__)
 614:MCSDK_v6.0.0-Full/MotorControl/MCSDK/MCLib/Any/Src/revup_ctrl.c **** __attribute__((section(".ccmram")))
 615:MCSDK_v6.0.0-Full/MotorControl/MCSDK/MCLib/Any/Src/revup_ctrl.c **** #endif
 616:MCSDK_v6.0.0-Full/MotorControl/MCSDK/MCLib/Any/Src/revup_ctrl.c **** #endif
 617:MCSDK_v6.0.0-Full/MotorControl/MCSDK/MCLib/Any/Src/revup_ctrl.c **** 
 618:MCSDK_v6.0.0-Full/MotorControl/MCSDK/MCLib/Any/Src/revup_ctrl.c **** /**
 619:MCSDK_v6.0.0-Full/MotorControl/MCSDK/MCLib/Any/Src/revup_ctrl.c ****   * @brief  Check that alignement and first acceleration stage are completed.
 620:MCSDK_v6.0.0-Full/MotorControl/MCSDK/MCLib/Any/Src/revup_ctrl.c ****   * @param  pHandle: Pointer on Handle structure of RevUp controller.
 621:MCSDK_v6.0.0-Full/MotorControl/MCSDK/MCLib/Any/Src/revup_ctrl.c ****   *  @retval Boolean set to true when first acceleration stage has been reached.
 622:MCSDK_v6.0.0-Full/MotorControl/MCSDK/MCLib/Any/Src/revup_ctrl.c ****   */
 623:MCSDK_v6.0.0-Full/MotorControl/MCSDK/MCLib/Any/Src/revup_ctrl.c **** __weak bool RUC_FirstAccelerationStageReached(RevUpCtrl_Handle_t *pHandle)
 624:MCSDK_v6.0.0-Full/MotorControl/MCSDK/MCLib/Any/Src/revup_ctrl.c **** {
 1131              		.loc 1 624 1 is_stmt 1 view -0
 1132              		.cfi_startproc
 1133              		@ args = 0, pretend = 0, frame = 0
 1134              		@ frame_needed = 0, uses_anonymous_args = 0
 1135              		@ link register save eliminated.
 625:MCSDK_v6.0.0-Full/MotorControl/MCSDK/MCLib/Any/Src/revup_ctrl.c ****   bool retVal = false;
 1136              		.loc 1 625 3 view .LVU414
 626:MCSDK_v6.0.0-Full/MotorControl/MCSDK/MCLib/Any/Src/revup_ctrl.c **** #ifdef NULL_PTR_REV_UP_CTL
 627:MCSDK_v6.0.0-Full/MotorControl/MCSDK/MCLib/Any/Src/revup_ctrl.c ****   if (MC_NULL == pHandle)
 628:MCSDK_v6.0.0-Full/MotorControl/MCSDK/MCLib/Any/Src/revup_ctrl.c ****   {
 629:MCSDK_v6.0.0-Full/MotorControl/MCSDK/MCLib/Any/Src/revup_ctrl.c ****     /* Nothing to do */
 630:MCSDK_v6.0.0-Full/MotorControl/MCSDK/MCLib/Any/Src/revup_ctrl.c ****   }
 631:MCSDK_v6.0.0-Full/MotorControl/MCSDK/MCLib/Any/Src/revup_ctrl.c ****   else
 632:MCSDK_v6.0.0-Full/MotorControl/MCSDK/MCLib/Any/Src/revup_ctrl.c ****   {
 633:MCSDK_v6.0.0-Full/MotorControl/MCSDK/MCLib/Any/Src/revup_ctrl.c **** #endif
 634:MCSDK_v6.0.0-Full/MotorControl/MCSDK/MCLib/Any/Src/revup_ctrl.c ****     if (pHandle->bStageCnt >= pHandle->bFirstAccelerationStage)
 1137              		.loc 1 634 5 view .LVU415
 1138              		.loc 1 634 16 is_stmt 0 view .LVU416
 1139 0000 90F85820 		ldrb	r2, [r0, #88]	@ zero_extendqisi2
 1140              		.loc 1 634 38 view .LVU417
 1141 0004 90F84930 		ldrb	r3, [r0, #73]	@ zero_extendqisi2
 1142              		.loc 1 634 8 view .LVU418
 1143 0008 9A42     		cmp	r2, r3
 1144 000a 01D2     		bcs	.L67
 625:MCSDK_v6.0.0-Full/MotorControl/MCSDK/MCLib/Any/Src/revup_ctrl.c ****   bool retVal = false;
 1145              		.loc 1 625 8 view .LVU419
ARM GAS  /tmp/cc47mRH9.s 			page 33


 1146 000c 0020     		movs	r0, #0
 1147              	.LVL101:
 625:MCSDK_v6.0.0-Full/MotorControl/MCSDK/MCLib/Any/Src/revup_ctrl.c ****   bool retVal = false;
 1148              		.loc 1 625 8 view .LVU420
 1149 000e 7047     		bx	lr
 1150              	.LVL102:
 1151              	.L67:
 635:MCSDK_v6.0.0-Full/MotorControl/MCSDK/MCLib/Any/Src/revup_ctrl.c ****     {
 636:MCSDK_v6.0.0-Full/MotorControl/MCSDK/MCLib/Any/Src/revup_ctrl.c ****       retVal = true;
 1152              		.loc 1 636 14 view .LVU421
 1153 0010 0120     		movs	r0, #1
 1154              	.LVL103:
 637:MCSDK_v6.0.0-Full/MotorControl/MCSDK/MCLib/Any/Src/revup_ctrl.c ****     }
 638:MCSDK_v6.0.0-Full/MotorControl/MCSDK/MCLib/Any/Src/revup_ctrl.c **** #ifdef NULL_PTR_REV_UP_CTL
 639:MCSDK_v6.0.0-Full/MotorControl/MCSDK/MCLib/Any/Src/revup_ctrl.c ****   }
 640:MCSDK_v6.0.0-Full/MotorControl/MCSDK/MCLib/Any/Src/revup_ctrl.c **** #endif
 641:MCSDK_v6.0.0-Full/MotorControl/MCSDK/MCLib/Any/Src/revup_ctrl.c ****   return (retVal);
 1155              		.loc 1 641 3 is_stmt 1 view .LVU422
 642:MCSDK_v6.0.0-Full/MotorControl/MCSDK/MCLib/Any/Src/revup_ctrl.c **** }
 1156              		.loc 1 642 1 is_stmt 0 view .LVU423
 1157 0012 7047     		bx	lr
 1158              		.cfi_endproc
 1159              	.LFE1443:
 1161              		.section	.text.RUC_SetPhaseDurationms,"ax",%progbits
 1162              		.align	1
 1163              		.weak	RUC_SetPhaseDurationms
 1164              		.syntax unified
 1165              		.thumb
 1166              		.thumb_func
 1167              		.fpu fpv4-sp-d16
 1169              	RUC_SetPhaseDurationms:
 1170              	.LVL104:
 1171              	.LFB1444:
 643:MCSDK_v6.0.0-Full/MotorControl/MCSDK/MCLib/Any/Src/revup_ctrl.c **** 
 644:MCSDK_v6.0.0-Full/MotorControl/MCSDK/MCLib/Any/Src/revup_ctrl.c **** /**
 645:MCSDK_v6.0.0-Full/MotorControl/MCSDK/MCLib/Any/Src/revup_ctrl.c ****   * @brief  Allow to modify duration of a selected phase.
 646:MCSDK_v6.0.0-Full/MotorControl/MCSDK/MCLib/Any/Src/revup_ctrl.c ****   * @param  pHandle: Pointer on Handle structure of RevUp controller.
 647:MCSDK_v6.0.0-Full/MotorControl/MCSDK/MCLib/Any/Src/revup_ctrl.c ****   * @param  bPhase: RevUp phase where new duration shall be modified.
 648:MCSDK_v6.0.0-Full/MotorControl/MCSDK/MCLib/Any/Src/revup_ctrl.c ****   *         This parameter must be a number between 0 and 6.
 649:MCSDK_v6.0.0-Full/MotorControl/MCSDK/MCLib/Any/Src/revup_ctrl.c ****   * @param  hDurationms: new duration value required for associated phase.
 650:MCSDK_v6.0.0-Full/MotorControl/MCSDK/MCLib/Any/Src/revup_ctrl.c ****   *         This parameter must be set in millisecond.
 651:MCSDK_v6.0.0-Full/MotorControl/MCSDK/MCLib/Any/Src/revup_ctrl.c ****   *  @retval none
 652:MCSDK_v6.0.0-Full/MotorControl/MCSDK/MCLib/Any/Src/revup_ctrl.c ****   */
 653:MCSDK_v6.0.0-Full/MotorControl/MCSDK/MCLib/Any/Src/revup_ctrl.c **** __weak void RUC_SetPhaseDurationms(RevUpCtrl_Handle_t *pHandle, uint8_t bPhase, uint16_t hDurationm
 654:MCSDK_v6.0.0-Full/MotorControl/MCSDK/MCLib/Any/Src/revup_ctrl.c **** {
 1172              		.loc 1 654 1 is_stmt 1 view -0
 1173              		.cfi_startproc
 1174              		@ args = 0, pretend = 0, frame = 0
 1175              		@ frame_needed = 0, uses_anonymous_args = 0
 1176              		@ link register save eliminated.
 655:MCSDK_v6.0.0-Full/MotorControl/MCSDK/MCLib/Any/Src/revup_ctrl.c **** #ifdef NULL_PTR_REV_UP_CTL
 656:MCSDK_v6.0.0-Full/MotorControl/MCSDK/MCLib/Any/Src/revup_ctrl.c ****   if (MC_NULL == pHandle)
 657:MCSDK_v6.0.0-Full/MotorControl/MCSDK/MCLib/Any/Src/revup_ctrl.c ****   {
 658:MCSDK_v6.0.0-Full/MotorControl/MCSDK/MCLib/Any/Src/revup_ctrl.c ****     /* Nothing to do */
 659:MCSDK_v6.0.0-Full/MotorControl/MCSDK/MCLib/Any/Src/revup_ctrl.c ****   }
 660:MCSDK_v6.0.0-Full/MotorControl/MCSDK/MCLib/Any/Src/revup_ctrl.c ****   else
 661:MCSDK_v6.0.0-Full/MotorControl/MCSDK/MCLib/Any/Src/revup_ctrl.c ****   {
ARM GAS  /tmp/cc47mRH9.s 			page 34


 662:MCSDK_v6.0.0-Full/MotorControl/MCSDK/MCLib/Any/Src/revup_ctrl.c **** #endif
 663:MCSDK_v6.0.0-Full/MotorControl/MCSDK/MCLib/Any/Src/revup_ctrl.c ****     pHandle->ParamsData[bPhase].hDurationms = hDurationms;
 1177              		.loc 1 663 5 view .LVU425
 1178              		.loc 1 663 45 is_stmt 0 view .LVU426
 1179 0000 01EB4101 		add	r1, r1, r1, lsl #1
 1180              	.LVL105:
 1181              		.loc 1 663 45 view .LVU427
 1182 0004 00EB8101 		add	r1, r0, r1, lsl #2
 1183 0008 8A81     		strh	r2, [r1, #12]	@ movhi
 664:MCSDK_v6.0.0-Full/MotorControl/MCSDK/MCLib/Any/Src/revup_ctrl.c **** #ifdef NULL_PTR_REV_UP_CTL
 665:MCSDK_v6.0.0-Full/MotorControl/MCSDK/MCLib/Any/Src/revup_ctrl.c ****   }
 666:MCSDK_v6.0.0-Full/MotorControl/MCSDK/MCLib/Any/Src/revup_ctrl.c **** #endif
 667:MCSDK_v6.0.0-Full/MotorControl/MCSDK/MCLib/Any/Src/revup_ctrl.c **** }
 1184              		.loc 1 667 1 view .LVU428
 1185 000a 7047     		bx	lr
 1186              		.cfi_endproc
 1187              	.LFE1444:
 1189              		.section	.text.RUC_SetPhaseFinalMecSpeedUnit,"ax",%progbits
 1190              		.align	1
 1191              		.weak	RUC_SetPhaseFinalMecSpeedUnit
 1192              		.syntax unified
 1193              		.thumb
 1194              		.thumb_func
 1195              		.fpu fpv4-sp-d16
 1197              	RUC_SetPhaseFinalMecSpeedUnit:
 1198              	.LVL106:
 1199              	.LFB1445:
 668:MCSDK_v6.0.0-Full/MotorControl/MCSDK/MCLib/Any/Src/revup_ctrl.c **** 
 669:MCSDK_v6.0.0-Full/MotorControl/MCSDK/MCLib/Any/Src/revup_ctrl.c **** /**
 670:MCSDK_v6.0.0-Full/MotorControl/MCSDK/MCLib/Any/Src/revup_ctrl.c ****   * @brief  Allow to modify targeted mechanical speed of a selected phase.
 671:MCSDK_v6.0.0-Full/MotorControl/MCSDK/MCLib/Any/Src/revup_ctrl.c ****   * @param  pHandle: Pointer on Handle structure of RevUp controller.
 672:MCSDK_v6.0.0-Full/MotorControl/MCSDK/MCLib/Any/Src/revup_ctrl.c ****   * @param  bPhase: RevUp phase where new mechanical speed shall be modified.
 673:MCSDK_v6.0.0-Full/MotorControl/MCSDK/MCLib/Any/Src/revup_ctrl.c ****   *         This parameter must be a number between 0 and 6.
 674:MCSDK_v6.0.0-Full/MotorControl/MCSDK/MCLib/Any/Src/revup_ctrl.c ****   * @param  hFinalMecSpeedUnit: new targeted mechanical speed.
 675:MCSDK_v6.0.0-Full/MotorControl/MCSDK/MCLib/Any/Src/revup_ctrl.c ****   *         This parameter must be expressed in 0.1Hz.
 676:MCSDK_v6.0.0-Full/MotorControl/MCSDK/MCLib/Any/Src/revup_ctrl.c ****   *  @retval none
 677:MCSDK_v6.0.0-Full/MotorControl/MCSDK/MCLib/Any/Src/revup_ctrl.c ****   */
 678:MCSDK_v6.0.0-Full/MotorControl/MCSDK/MCLib/Any/Src/revup_ctrl.c **** __weak void RUC_SetPhaseFinalMecSpeedUnit(RevUpCtrl_Handle_t *pHandle, uint8_t bPhase, int16_t hFin
 679:MCSDK_v6.0.0-Full/MotorControl/MCSDK/MCLib/Any/Src/revup_ctrl.c **** {
 1200              		.loc 1 679 1 is_stmt 1 view -0
 1201              		.cfi_startproc
 1202              		@ args = 0, pretend = 0, frame = 0
 1203              		@ frame_needed = 0, uses_anonymous_args = 0
 1204              		@ link register save eliminated.
 680:MCSDK_v6.0.0-Full/MotorControl/MCSDK/MCLib/Any/Src/revup_ctrl.c **** #ifdef NULL_PTR_REV_UP_CTL
 681:MCSDK_v6.0.0-Full/MotorControl/MCSDK/MCLib/Any/Src/revup_ctrl.c ****   if (MC_NULL == pHandle)
 682:MCSDK_v6.0.0-Full/MotorControl/MCSDK/MCLib/Any/Src/revup_ctrl.c ****   {
 683:MCSDK_v6.0.0-Full/MotorControl/MCSDK/MCLib/Any/Src/revup_ctrl.c ****     /* Nothing to do */
 684:MCSDK_v6.0.0-Full/MotorControl/MCSDK/MCLib/Any/Src/revup_ctrl.c ****   }
 685:MCSDK_v6.0.0-Full/MotorControl/MCSDK/MCLib/Any/Src/revup_ctrl.c ****   else
 686:MCSDK_v6.0.0-Full/MotorControl/MCSDK/MCLib/Any/Src/revup_ctrl.c ****   {
 687:MCSDK_v6.0.0-Full/MotorControl/MCSDK/MCLib/Any/Src/revup_ctrl.c **** #endif
 688:MCSDK_v6.0.0-Full/MotorControl/MCSDK/MCLib/Any/Src/revup_ctrl.c ****     pHandle->ParamsData[bPhase].hFinalMecSpeedUnit = hFinalMecSpeedUnit;
 1205              		.loc 1 688 5 view .LVU430
 1206              		.loc 1 688 52 is_stmt 0 view .LVU431
 1207 0000 01EB4101 		add	r1, r1, r1, lsl #1
 1208              	.LVL107:
ARM GAS  /tmp/cc47mRH9.s 			page 35


 1209              		.loc 1 688 52 view .LVU432
 1210 0004 00EB8101 		add	r1, r0, r1, lsl #2
 1211 0008 CA81     		strh	r2, [r1, #14]	@ movhi
 689:MCSDK_v6.0.0-Full/MotorControl/MCSDK/MCLib/Any/Src/revup_ctrl.c **** #ifdef NULL_PTR_REV_UP_CTL
 690:MCSDK_v6.0.0-Full/MotorControl/MCSDK/MCLib/Any/Src/revup_ctrl.c ****   }
 691:MCSDK_v6.0.0-Full/MotorControl/MCSDK/MCLib/Any/Src/revup_ctrl.c **** #endif
 692:MCSDK_v6.0.0-Full/MotorControl/MCSDK/MCLib/Any/Src/revup_ctrl.c **** }
 1212              		.loc 1 692 1 view .LVU433
 1213 000a 7047     		bx	lr
 1214              		.cfi_endproc
 1215              	.LFE1445:
 1217              		.section	.text.RUC_SetPhaseFinalTorque,"ax",%progbits
 1218              		.align	1
 1219              		.weak	RUC_SetPhaseFinalTorque
 1220              		.syntax unified
 1221              		.thumb
 1222              		.thumb_func
 1223              		.fpu fpv4-sp-d16
 1225              	RUC_SetPhaseFinalTorque:
 1226              	.LVL108:
 1227              	.LFB1446:
 693:MCSDK_v6.0.0-Full/MotorControl/MCSDK/MCLib/Any/Src/revup_ctrl.c **** 
 694:MCSDK_v6.0.0-Full/MotorControl/MCSDK/MCLib/Any/Src/revup_ctrl.c **** /**
 695:MCSDK_v6.0.0-Full/MotorControl/MCSDK/MCLib/Any/Src/revup_ctrl.c ****   * @brief  Allow to modify targeted the motor torque of a selected phase.
 696:MCSDK_v6.0.0-Full/MotorControl/MCSDK/MCLib/Any/Src/revup_ctrl.c ****   * @param  pHandle: Pointer on Handle structure of RevUp controller.
 697:MCSDK_v6.0.0-Full/MotorControl/MCSDK/MCLib/Any/Src/revup_ctrl.c ****   * @param  bPhase: RevUp phase where new the motor torque shall be modified.
 698:MCSDK_v6.0.0-Full/MotorControl/MCSDK/MCLib/Any/Src/revup_ctrl.c ****   *         This parameter must be a number between 0 and 6.
 699:MCSDK_v6.0.0-Full/MotorControl/MCSDK/MCLib/Any/Src/revup_ctrl.c ****   * @param  hFinalTorque: new targeted motor torque.
 700:MCSDK_v6.0.0-Full/MotorControl/MCSDK/MCLib/Any/Src/revup_ctrl.c ****   *  @retval none
 701:MCSDK_v6.0.0-Full/MotorControl/MCSDK/MCLib/Any/Src/revup_ctrl.c ****   */
 702:MCSDK_v6.0.0-Full/MotorControl/MCSDK/MCLib/Any/Src/revup_ctrl.c **** __weak void RUC_SetPhaseFinalTorque(RevUpCtrl_Handle_t *pHandle, uint8_t bPhase, int16_t hFinalTorq
 703:MCSDK_v6.0.0-Full/MotorControl/MCSDK/MCLib/Any/Src/revup_ctrl.c **** {
 1228              		.loc 1 703 1 is_stmt 1 view -0
 1229              		.cfi_startproc
 1230              		@ args = 0, pretend = 0, frame = 0
 1231              		@ frame_needed = 0, uses_anonymous_args = 0
 1232              		@ link register save eliminated.
 704:MCSDK_v6.0.0-Full/MotorControl/MCSDK/MCLib/Any/Src/revup_ctrl.c **** #ifdef NULL_PTR_REV_UP_CTL
 705:MCSDK_v6.0.0-Full/MotorControl/MCSDK/MCLib/Any/Src/revup_ctrl.c ****   if (MC_NULL == pHandle)
 706:MCSDK_v6.0.0-Full/MotorControl/MCSDK/MCLib/Any/Src/revup_ctrl.c ****   {
 707:MCSDK_v6.0.0-Full/MotorControl/MCSDK/MCLib/Any/Src/revup_ctrl.c ****     /* Nothing to do */
 708:MCSDK_v6.0.0-Full/MotorControl/MCSDK/MCLib/Any/Src/revup_ctrl.c ****   }
 709:MCSDK_v6.0.0-Full/MotorControl/MCSDK/MCLib/Any/Src/revup_ctrl.c ****   else
 710:MCSDK_v6.0.0-Full/MotorControl/MCSDK/MCLib/Any/Src/revup_ctrl.c ****   {
 711:MCSDK_v6.0.0-Full/MotorControl/MCSDK/MCLib/Any/Src/revup_ctrl.c **** #endif
 712:MCSDK_v6.0.0-Full/MotorControl/MCSDK/MCLib/Any/Src/revup_ctrl.c ****     pHandle->ParamsData[bPhase].hFinalTorque = hFinalTorque;
 1233              		.loc 1 712 5 view .LVU435
 1234              		.loc 1 712 46 is_stmt 0 view .LVU436
 1235 0000 01EB4101 		add	r1, r1, r1, lsl #1
 1236              	.LVL109:
 1237              		.loc 1 712 46 view .LVU437
 1238 0004 00EB8101 		add	r1, r0, r1, lsl #2
 1239 0008 0A82     		strh	r2, [r1, #16]	@ movhi
 713:MCSDK_v6.0.0-Full/MotorControl/MCSDK/MCLib/Any/Src/revup_ctrl.c **** #ifdef NULL_PTR_REV_UP_CTL
 714:MCSDK_v6.0.0-Full/MotorControl/MCSDK/MCLib/Any/Src/revup_ctrl.c ****   }
 715:MCSDK_v6.0.0-Full/MotorControl/MCSDK/MCLib/Any/Src/revup_ctrl.c **** #endif
 716:MCSDK_v6.0.0-Full/MotorControl/MCSDK/MCLib/Any/Src/revup_ctrl.c **** }
ARM GAS  /tmp/cc47mRH9.s 			page 36


 1240              		.loc 1 716 1 view .LVU438
 1241 000a 7047     		bx	lr
 1242              		.cfi_endproc
 1243              	.LFE1446:
 1245              		.section	.text.RUC_SetPhase,"ax",%progbits
 1246              		.align	1
 1247              		.weak	RUC_SetPhase
 1248              		.syntax unified
 1249              		.thumb
 1250              		.thumb_func
 1251              		.fpu fpv4-sp-d16
 1253              	RUC_SetPhase:
 1254              	.LVL110:
 1255              	.LFB1447:
 717:MCSDK_v6.0.0-Full/MotorControl/MCSDK/MCLib/Any/Src/revup_ctrl.c **** 
 718:MCSDK_v6.0.0-Full/MotorControl/MCSDK/MCLib/Any/Src/revup_ctrl.c **** /**
 719:MCSDK_v6.0.0-Full/MotorControl/MCSDK/MCLib/Any/Src/revup_ctrl.c ****   * @brief  Allow to configure a revUp phase.
 720:MCSDK_v6.0.0-Full/MotorControl/MCSDK/MCLib/Any/Src/revup_ctrl.c ****   * @param  pHandle: Pointer on Handle structure of RevUp controller.
 721:MCSDK_v6.0.0-Full/MotorControl/MCSDK/MCLib/Any/Src/revup_ctrl.c ****   *  @retval Returns true
 722:MCSDK_v6.0.0-Full/MotorControl/MCSDK/MCLib/Any/Src/revup_ctrl.c ****   */
 723:MCSDK_v6.0.0-Full/MotorControl/MCSDK/MCLib/Any/Src/revup_ctrl.c **** __weak bool RUC_SetPhase(RevUpCtrl_Handle_t *pHandle, uint8_t phaseNumber, RevUpCtrl_PhaseParams_t 
 724:MCSDK_v6.0.0-Full/MotorControl/MCSDK/MCLib/Any/Src/revup_ctrl.c **** {
 1256              		.loc 1 724 1 is_stmt 1 view -0
 1257              		.cfi_startproc
 1258              		@ args = 0, pretend = 0, frame = 0
 1259              		@ frame_needed = 0, uses_anonymous_args = 0
 1260              		@ link register save eliminated.
 1261              		.loc 1 724 1 is_stmt 0 view .LVU440
 1262 0000 10B4     		push	{r4}
 1263              		.cfi_def_cfa_offset 4
 1264              		.cfi_offset 4, -4
 725:MCSDK_v6.0.0-Full/MotorControl/MCSDK/MCLib/Any/Src/revup_ctrl.c ****   bool retValue = true;
 1265              		.loc 1 725 3 is_stmt 1 view .LVU441
 1266              	.LVL111:
 726:MCSDK_v6.0.0-Full/MotorControl/MCSDK/MCLib/Any/Src/revup_ctrl.c **** #ifdef NULL_PTR_REV_UP_CTL
 727:MCSDK_v6.0.0-Full/MotorControl/MCSDK/MCLib/Any/Src/revup_ctrl.c ****   if ((MC_NULL == pHandle) || (MC_NULL == phaseData))
 728:MCSDK_v6.0.0-Full/MotorControl/MCSDK/MCLib/Any/Src/revup_ctrl.c ****   {
 729:MCSDK_v6.0.0-Full/MotorControl/MCSDK/MCLib/Any/Src/revup_ctrl.c ****     retValue = false;
 730:MCSDK_v6.0.0-Full/MotorControl/MCSDK/MCLib/Any/Src/revup_ctrl.c ****   }
 731:MCSDK_v6.0.0-Full/MotorControl/MCSDK/MCLib/Any/Src/revup_ctrl.c ****   else
 732:MCSDK_v6.0.0-Full/MotorControl/MCSDK/MCLib/Any/Src/revup_ctrl.c ****   {
 733:MCSDK_v6.0.0-Full/MotorControl/MCSDK/MCLib/Any/Src/revup_ctrl.c **** #endif
 734:MCSDK_v6.0.0-Full/MotorControl/MCSDK/MCLib/Any/Src/revup_ctrl.c ****     pHandle->ParamsData[phaseNumber].hFinalTorque = phaseData->hFinalTorque;
 1267              		.loc 1 734 5 view .LVU442
 1268              		.loc 1 734 62 is_stmt 0 view .LVU443
 1269 0002 B2F90440 		ldrsh	r4, [r2, #4]
 1270              		.loc 1 734 51 view .LVU444
 1271 0006 01EB4103 		add	r3, r1, r1, lsl #1
 1272 000a 00EB8303 		add	r3, r0, r3, lsl #2
 1273 000e 1C82     		strh	r4, [r3, #16]	@ movhi
 735:MCSDK_v6.0.0-Full/MotorControl/MCSDK/MCLib/Any/Src/revup_ctrl.c ****     pHandle->ParamsData[phaseNumber].hFinalMecSpeedUnit = phaseData->hFinalMecSpeedUnit;
 1274              		.loc 1 735 5 is_stmt 1 view .LVU445
 1275              		.loc 1 735 68 is_stmt 0 view .LVU446
 1276 0010 B2F90240 		ldrsh	r4, [r2, #2]
 1277              		.loc 1 735 57 view .LVU447
 1278 0014 DC81     		strh	r4, [r3, #14]	@ movhi
 736:MCSDK_v6.0.0-Full/MotorControl/MCSDK/MCLib/Any/Src/revup_ctrl.c ****     pHandle->ParamsData[phaseNumber].hDurationms = phaseData->hDurationms;
ARM GAS  /tmp/cc47mRH9.s 			page 37


 1279              		.loc 1 736 5 is_stmt 1 view .LVU448
 1280              		.loc 1 736 61 is_stmt 0 view .LVU449
 1281 0016 1388     		ldrh	r3, [r2]
 1282              		.loc 1 736 50 view .LVU450
 1283 0018 01EB4101 		add	r1, r1, r1, lsl #1
 1284              	.LVL112:
 1285              		.loc 1 736 50 view .LVU451
 1286 001c 00EB8101 		add	r1, r0, r1, lsl #2
 1287 0020 8B81     		strh	r3, [r1, #12]	@ movhi
 737:MCSDK_v6.0.0-Full/MotorControl/MCSDK/MCLib/Any/Src/revup_ctrl.c **** #ifdef NULL_PTR_REV_UP_CTL
 738:MCSDK_v6.0.0-Full/MotorControl/MCSDK/MCLib/Any/Src/revup_ctrl.c ****   }
 739:MCSDK_v6.0.0-Full/MotorControl/MCSDK/MCLib/Any/Src/revup_ctrl.c **** #endif
 740:MCSDK_v6.0.0-Full/MotorControl/MCSDK/MCLib/Any/Src/revup_ctrl.c ****   return (retValue);
 1288              		.loc 1 740 3 is_stmt 1 view .LVU452
 741:MCSDK_v6.0.0-Full/MotorControl/MCSDK/MCLib/Any/Src/revup_ctrl.c **** }
 1289              		.loc 1 741 1 is_stmt 0 view .LVU453
 1290 0022 0120     		movs	r0, #1
 1291              	.LVL113:
 1292              		.loc 1 741 1 view .LVU454
 1293 0024 5DF8044B 		ldr	r4, [sp], #4
 1294              		.cfi_restore 4
 1295              		.cfi_def_cfa_offset 0
 1296 0028 7047     		bx	lr
 1297              		.cfi_endproc
 1298              	.LFE1447:
 1300              		.section	.text.RUC_GetPhaseDurationms,"ax",%progbits
 1301              		.align	1
 1302              		.weak	RUC_GetPhaseDurationms
 1303              		.syntax unified
 1304              		.thumb
 1305              		.thumb_func
 1306              		.fpu fpv4-sp-d16
 1308              	RUC_GetPhaseDurationms:
 1309              	.LVL114:
 1310              	.LFB1448:
 742:MCSDK_v6.0.0-Full/MotorControl/MCSDK/MCLib/Any/Src/revup_ctrl.c **** 
 743:MCSDK_v6.0.0-Full/MotorControl/MCSDK/MCLib/Any/Src/revup_ctrl.c **** /**
 744:MCSDK_v6.0.0-Full/MotorControl/MCSDK/MCLib/Any/Src/revup_ctrl.c ****   * @brief  Allow to read duration set in selected phase.
 745:MCSDK_v6.0.0-Full/MotorControl/MCSDK/MCLib/Any/Src/revup_ctrl.c ****   * @param  pHandle: Pointer on Handle structure of RevUp controller.
 746:MCSDK_v6.0.0-Full/MotorControl/MCSDK/MCLib/Any/Src/revup_ctrl.c ****   * @param  bPhase: RevUp phase from where duration is read.
 747:MCSDK_v6.0.0-Full/MotorControl/MCSDK/MCLib/Any/Src/revup_ctrl.c ****   *         This parameter must be a number between 0 and 6.
 748:MCSDK_v6.0.0-Full/MotorControl/MCSDK/MCLib/Any/Src/revup_ctrl.c ****   *  @retval Returns duration used in selected phase.
 749:MCSDK_v6.0.0-Full/MotorControl/MCSDK/MCLib/Any/Src/revup_ctrl.c ****   */
 750:MCSDK_v6.0.0-Full/MotorControl/MCSDK/MCLib/Any/Src/revup_ctrl.c **** __weak uint16_t RUC_GetPhaseDurationms(RevUpCtrl_Handle_t *pHandle, uint8_t bPhase)
 751:MCSDK_v6.0.0-Full/MotorControl/MCSDK/MCLib/Any/Src/revup_ctrl.c **** {
 1311              		.loc 1 751 1 is_stmt 1 view -0
 1312              		.cfi_startproc
 1313              		@ args = 0, pretend = 0, frame = 0
 1314              		@ frame_needed = 0, uses_anonymous_args = 0
 1315              		@ link register save eliminated.
 752:MCSDK_v6.0.0-Full/MotorControl/MCSDK/MCLib/Any/Src/revup_ctrl.c **** #ifdef NULL_PTR_REV_UP_CTL
 753:MCSDK_v6.0.0-Full/MotorControl/MCSDK/MCLib/Any/Src/revup_ctrl.c ****   return ((MC_NULL == pHandle) ? 0U : (uint16_t)pHandle->ParamsData[bPhase].hDurationms);
 754:MCSDK_v6.0.0-Full/MotorControl/MCSDK/MCLib/Any/Src/revup_ctrl.c **** #else
 755:MCSDK_v6.0.0-Full/MotorControl/MCSDK/MCLib/Any/Src/revup_ctrl.c ****   return ((uint16_t)pHandle->ParamsData[bPhase].hDurationms);
 1316              		.loc 1 755 3 view .LVU456
 1317              		.loc 1 755 11 is_stmt 0 view .LVU457
 1318 0000 01EB4101 		add	r1, r1, r1, lsl #1
ARM GAS  /tmp/cc47mRH9.s 			page 38


 1319              	.LVL115:
 1320              		.loc 1 755 11 view .LVU458
 1321 0004 00EB8101 		add	r1, r0, r1, lsl #2
 756:MCSDK_v6.0.0-Full/MotorControl/MCSDK/MCLib/Any/Src/revup_ctrl.c **** #endif
 757:MCSDK_v6.0.0-Full/MotorControl/MCSDK/MCLib/Any/Src/revup_ctrl.c **** }
 1322              		.loc 1 757 1 view .LVU459
 1323 0008 8889     		ldrh	r0, [r1, #12]
 1324              	.LVL116:
 1325              		.loc 1 757 1 view .LVU460
 1326 000a 7047     		bx	lr
 1327              		.cfi_endproc
 1328              	.LFE1448:
 1330              		.section	.text.RUC_GetPhaseFinalMecSpeedUnit,"ax",%progbits
 1331              		.align	1
 1332              		.weak	RUC_GetPhaseFinalMecSpeedUnit
 1333              		.syntax unified
 1334              		.thumb
 1335              		.thumb_func
 1336              		.fpu fpv4-sp-d16
 1338              	RUC_GetPhaseFinalMecSpeedUnit:
 1339              	.LVL117:
 1340              	.LFB1449:
 758:MCSDK_v6.0.0-Full/MotorControl/MCSDK/MCLib/Any/Src/revup_ctrl.c **** 
 759:MCSDK_v6.0.0-Full/MotorControl/MCSDK/MCLib/Any/Src/revup_ctrl.c **** /**
 760:MCSDK_v6.0.0-Full/MotorControl/MCSDK/MCLib/Any/Src/revup_ctrl.c ****   * @brief  Allow to read targeted rotor speed set in selected phase.
 761:MCSDK_v6.0.0-Full/MotorControl/MCSDK/MCLib/Any/Src/revup_ctrl.c ****   * @param  pHandle: Pointer on Handle structure of RevUp controller.
 762:MCSDK_v6.0.0-Full/MotorControl/MCSDK/MCLib/Any/Src/revup_ctrl.c ****   * @param  bPhase: RevUp phase from where targeted rotor speed is read.
 763:MCSDK_v6.0.0-Full/MotorControl/MCSDK/MCLib/Any/Src/revup_ctrl.c ****   *         This parameter must be a number between 0 and 6.
 764:MCSDK_v6.0.0-Full/MotorControl/MCSDK/MCLib/Any/Src/revup_ctrl.c ****   *  @retval Returns targeted rotor speed set in selected phase.
 765:MCSDK_v6.0.0-Full/MotorControl/MCSDK/MCLib/Any/Src/revup_ctrl.c ****   */
 766:MCSDK_v6.0.0-Full/MotorControl/MCSDK/MCLib/Any/Src/revup_ctrl.c **** __weak int16_t RUC_GetPhaseFinalMecSpeedUnit(RevUpCtrl_Handle_t *pHandle, uint8_t bPhase)
 767:MCSDK_v6.0.0-Full/MotorControl/MCSDK/MCLib/Any/Src/revup_ctrl.c **** {
 1341              		.loc 1 767 1 is_stmt 1 view -0
 1342              		.cfi_startproc
 1343              		@ args = 0, pretend = 0, frame = 0
 1344              		@ frame_needed = 0, uses_anonymous_args = 0
 1345              		@ link register save eliminated.
 768:MCSDK_v6.0.0-Full/MotorControl/MCSDK/MCLib/Any/Src/revup_ctrl.c **** #ifdef NULL_PTR_REV_UP_CTL
 769:MCSDK_v6.0.0-Full/MotorControl/MCSDK/MCLib/Any/Src/revup_ctrl.c ****   return ((MC_NULL == pHandle) ? 0 : (int16_t)pHandle->ParamsData[bPhase].hFinalMecSpeedUnit);
 770:MCSDK_v6.0.0-Full/MotorControl/MCSDK/MCLib/Any/Src/revup_ctrl.c **** #else
 771:MCSDK_v6.0.0-Full/MotorControl/MCSDK/MCLib/Any/Src/revup_ctrl.c ****   return ((int16_t)pHandle->ParamsData[bPhase].hFinalMecSpeedUnit);
 1346              		.loc 1 771 3 view .LVU462
 1347              		.loc 1 771 11 is_stmt 0 view .LVU463
 1348 0000 01EB4101 		add	r1, r1, r1, lsl #1
 1349              	.LVL118:
 1350              		.loc 1 771 11 view .LVU464
 1351 0004 00EB8101 		add	r1, r0, r1, lsl #2
 772:MCSDK_v6.0.0-Full/MotorControl/MCSDK/MCLib/Any/Src/revup_ctrl.c **** #endif
 773:MCSDK_v6.0.0-Full/MotorControl/MCSDK/MCLib/Any/Src/revup_ctrl.c **** }
 1352              		.loc 1 773 1 view .LVU465
 1353 0008 B1F90E00 		ldrsh	r0, [r1, #14]
 1354              	.LVL119:
 1355              		.loc 1 773 1 view .LVU466
 1356 000c 7047     		bx	lr
 1357              		.cfi_endproc
 1358              	.LFE1449:
 1360              		.section	.text.RUC_GetPhaseFinalTorque,"ax",%progbits
ARM GAS  /tmp/cc47mRH9.s 			page 39


 1361              		.align	1
 1362              		.weak	RUC_GetPhaseFinalTorque
 1363              		.syntax unified
 1364              		.thumb
 1365              		.thumb_func
 1366              		.fpu fpv4-sp-d16
 1368              	RUC_GetPhaseFinalTorque:
 1369              	.LVL120:
 1370              	.LFB1450:
 774:MCSDK_v6.0.0-Full/MotorControl/MCSDK/MCLib/Any/Src/revup_ctrl.c **** 
 775:MCSDK_v6.0.0-Full/MotorControl/MCSDK/MCLib/Any/Src/revup_ctrl.c **** /**
 776:MCSDK_v6.0.0-Full/MotorControl/MCSDK/MCLib/Any/Src/revup_ctrl.c ****   * @brief  Allow to read targeted motor torque set in selected phase.
 777:MCSDK_v6.0.0-Full/MotorControl/MCSDK/MCLib/Any/Src/revup_ctrl.c ****   * @param  pHandle: Pointer on Handle structure of RevUp controller.
 778:MCSDK_v6.0.0-Full/MotorControl/MCSDK/MCLib/Any/Src/revup_ctrl.c ****   * @param  bPhase: RevUp phase from where targeted motor torque is read.
 779:MCSDK_v6.0.0-Full/MotorControl/MCSDK/MCLib/Any/Src/revup_ctrl.c ****   *         This parameter must be a number between 0 and 6.
 780:MCSDK_v6.0.0-Full/MotorControl/MCSDK/MCLib/Any/Src/revup_ctrl.c ****   *  @retval Returns targeted motor torque set in selected phase.
 781:MCSDK_v6.0.0-Full/MotorControl/MCSDK/MCLib/Any/Src/revup_ctrl.c ****   */
 782:MCSDK_v6.0.0-Full/MotorControl/MCSDK/MCLib/Any/Src/revup_ctrl.c **** __weak int16_t RUC_GetPhaseFinalTorque(RevUpCtrl_Handle_t *pHandle, uint8_t bPhase)
 783:MCSDK_v6.0.0-Full/MotorControl/MCSDK/MCLib/Any/Src/revup_ctrl.c **** {
 1371              		.loc 1 783 1 is_stmt 1 view -0
 1372              		.cfi_startproc
 1373              		@ args = 0, pretend = 0, frame = 0
 1374              		@ frame_needed = 0, uses_anonymous_args = 0
 1375              		@ link register save eliminated.
 784:MCSDK_v6.0.0-Full/MotorControl/MCSDK/MCLib/Any/Src/revup_ctrl.c **** #ifdef NULL_PTR_REV_UP_CTL
 785:MCSDK_v6.0.0-Full/MotorControl/MCSDK/MCLib/Any/Src/revup_ctrl.c ****   return ((MC_NULL == pHandle) ? 0 : (int16_t)pHandle->ParamsData[bPhase].hFinalTorque);
 786:MCSDK_v6.0.0-Full/MotorControl/MCSDK/MCLib/Any/Src/revup_ctrl.c **** #else
 787:MCSDK_v6.0.0-Full/MotorControl/MCSDK/MCLib/Any/Src/revup_ctrl.c ****   return ((int16_t)pHandle->ParamsData[bPhase].hFinalTorque);
 1376              		.loc 1 787 3 view .LVU468
 1377              		.loc 1 787 11 is_stmt 0 view .LVU469
 1378 0000 01EB4101 		add	r1, r1, r1, lsl #1
 1379              	.LVL121:
 1380              		.loc 1 787 11 view .LVU470
 1381 0004 00EB8101 		add	r1, r0, r1, lsl #2
 788:MCSDK_v6.0.0-Full/MotorControl/MCSDK/MCLib/Any/Src/revup_ctrl.c **** #endif
 789:MCSDK_v6.0.0-Full/MotorControl/MCSDK/MCLib/Any/Src/revup_ctrl.c **** }
 1382              		.loc 1 789 1 view .LVU471
 1383 0008 B1F91000 		ldrsh	r0, [r1, #16]
 1384              	.LVL122:
 1385              		.loc 1 789 1 view .LVU472
 1386 000c 7047     		bx	lr
 1387              		.cfi_endproc
 1388              	.LFE1450:
 1390              		.section	.text.RUC_GetNumberOfPhases,"ax",%progbits
 1391              		.align	1
 1392              		.weak	RUC_GetNumberOfPhases
 1393              		.syntax unified
 1394              		.thumb
 1395              		.thumb_func
 1396              		.fpu fpv4-sp-d16
 1398              	RUC_GetNumberOfPhases:
 1399              	.LVL123:
 1400              	.LFB1451:
 790:MCSDK_v6.0.0-Full/MotorControl/MCSDK/MCLib/Any/Src/revup_ctrl.c **** 
 791:MCSDK_v6.0.0-Full/MotorControl/MCSDK/MCLib/Any/Src/revup_ctrl.c **** /**
 792:MCSDK_v6.0.0-Full/MotorControl/MCSDK/MCLib/Any/Src/revup_ctrl.c ****   * @brief  Allow to read total number of programmed phases.
 793:MCSDK_v6.0.0-Full/MotorControl/MCSDK/MCLib/Any/Src/revup_ctrl.c ****   * @param  pHandle: Pointer on Handle structure of RevUp controller.
ARM GAS  /tmp/cc47mRH9.s 			page 40


 794:MCSDK_v6.0.0-Full/MotorControl/MCSDK/MCLib/Any/Src/revup_ctrl.c ****   *  @retval Returns number of phases relative to the programmed revup.
 795:MCSDK_v6.0.0-Full/MotorControl/MCSDK/MCLib/Any/Src/revup_ctrl.c ****   */
 796:MCSDK_v6.0.0-Full/MotorControl/MCSDK/MCLib/Any/Src/revup_ctrl.c **** __weak uint8_t RUC_GetNumberOfPhases(RevUpCtrl_Handle_t *pHandle)
 797:MCSDK_v6.0.0-Full/MotorControl/MCSDK/MCLib/Any/Src/revup_ctrl.c **** {
 1401              		.loc 1 797 1 is_stmt 1 view -0
 1402              		.cfi_startproc
 1403              		@ args = 0, pretend = 0, frame = 0
 1404              		@ frame_needed = 0, uses_anonymous_args = 0
 1405              		@ link register save eliminated.
 798:MCSDK_v6.0.0-Full/MotorControl/MCSDK/MCLib/Any/Src/revup_ctrl.c **** #ifdef NULL_PTR_REV_UP_CTL
 799:MCSDK_v6.0.0-Full/MotorControl/MCSDK/MCLib/Any/Src/revup_ctrl.c ****   return ((MC_NULL == pHandle) ? 0U : (uint8_t)pHandle->bPhaseNbr);
 800:MCSDK_v6.0.0-Full/MotorControl/MCSDK/MCLib/Any/Src/revup_ctrl.c **** #else
 801:MCSDK_v6.0.0-Full/MotorControl/MCSDK/MCLib/Any/Src/revup_ctrl.c ****   return ((uint8_t)pHandle->bPhaseNbr);
 1406              		.loc 1 801 3 view .LVU474
 802:MCSDK_v6.0.0-Full/MotorControl/MCSDK/MCLib/Any/Src/revup_ctrl.c **** #endif
 803:MCSDK_v6.0.0-Full/MotorControl/MCSDK/MCLib/Any/Src/revup_ctrl.c **** }
 1407              		.loc 1 803 1 is_stmt 0 view .LVU475
 1408 0000 90F84800 		ldrb	r0, [r0, #72]	@ zero_extendqisi2
 1409              	.LVL124:
 1410              		.loc 1 803 1 view .LVU476
 1411 0004 7047     		bx	lr
 1412              		.cfi_endproc
 1413              	.LFE1451:
 1415              		.section	.text.RUC_GetPhase,"ax",%progbits
 1416              		.align	1
 1417              		.weak	RUC_GetPhase
 1418              		.syntax unified
 1419              		.thumb
 1420              		.thumb_func
 1421              		.fpu fpv4-sp-d16
 1423              	RUC_GetPhase:
 1424              	.LVL125:
 1425              	.LFB1452:
 804:MCSDK_v6.0.0-Full/MotorControl/MCSDK/MCLib/Any/Src/revup_ctrl.c **** 
 805:MCSDK_v6.0.0-Full/MotorControl/MCSDK/MCLib/Any/Src/revup_ctrl.c **** /**
 806:MCSDK_v6.0.0-Full/MotorControl/MCSDK/MCLib/Any/Src/revup_ctrl.c ****   * @brief  Allow to read a programmed phase.
 807:MCSDK_v6.0.0-Full/MotorControl/MCSDK/MCLib/Any/Src/revup_ctrl.c ****   * @param  pHandle: Pointer on Handle structure of RevUp controller.
 808:MCSDK_v6.0.0-Full/MotorControl/MCSDK/MCLib/Any/Src/revup_ctrl.c ****   *  @retval Returns number of phases relative to the programmed revup.
 809:MCSDK_v6.0.0-Full/MotorControl/MCSDK/MCLib/Any/Src/revup_ctrl.c ****   */
 810:MCSDK_v6.0.0-Full/MotorControl/MCSDK/MCLib/Any/Src/revup_ctrl.c **** __weak bool RUC_GetPhase(RevUpCtrl_Handle_t *pHandle, uint8_t phaseNumber, RevUpCtrl_PhaseParams_t 
 811:MCSDK_v6.0.0-Full/MotorControl/MCSDK/MCLib/Any/Src/revup_ctrl.c **** {
 1426              		.loc 1 811 1 is_stmt 1 view -0
 1427              		.cfi_startproc
 1428              		@ args = 0, pretend = 0, frame = 0
 1429              		@ frame_needed = 0, uses_anonymous_args = 0
 1430              		@ link register save eliminated.
 1431              		.loc 1 811 1 is_stmt 0 view .LVU478
 1432 0000 10B4     		push	{r4}
 1433              		.cfi_def_cfa_offset 4
 1434              		.cfi_offset 4, -4
 812:MCSDK_v6.0.0-Full/MotorControl/MCSDK/MCLib/Any/Src/revup_ctrl.c ****   bool retValue = true;
 1435              		.loc 1 812 3 is_stmt 1 view .LVU479
 1436              	.LVL126:
 813:MCSDK_v6.0.0-Full/MotorControl/MCSDK/MCLib/Any/Src/revup_ctrl.c **** #ifdef NULL_PTR_REV_UP_CTL
 814:MCSDK_v6.0.0-Full/MotorControl/MCSDK/MCLib/Any/Src/revup_ctrl.c ****   if ((MC_NULL == pHandle) || (MC_NULL == phaseData))
 815:MCSDK_v6.0.0-Full/MotorControl/MCSDK/MCLib/Any/Src/revup_ctrl.c ****   {
 816:MCSDK_v6.0.0-Full/MotorControl/MCSDK/MCLib/Any/Src/revup_ctrl.c ****     retValue = false;
ARM GAS  /tmp/cc47mRH9.s 			page 41


 817:MCSDK_v6.0.0-Full/MotorControl/MCSDK/MCLib/Any/Src/revup_ctrl.c ****   }
 818:MCSDK_v6.0.0-Full/MotorControl/MCSDK/MCLib/Any/Src/revup_ctrl.c ****   else
 819:MCSDK_v6.0.0-Full/MotorControl/MCSDK/MCLib/Any/Src/revup_ctrl.c ****   {
 820:MCSDK_v6.0.0-Full/MotorControl/MCSDK/MCLib/Any/Src/revup_ctrl.c **** #endif
 821:MCSDK_v6.0.0-Full/MotorControl/MCSDK/MCLib/Any/Src/revup_ctrl.c ****     phaseData->hFinalTorque = (int16_t)pHandle->ParamsData[phaseNumber].hFinalTorque;
 1437              		.loc 1 821 5 view .LVU480
 1438              		.loc 1 821 72 is_stmt 0 view .LVU481
 1439 0002 01EB4103 		add	r3, r1, r1, lsl #1
 1440 0006 00EB8303 		add	r3, r0, r3, lsl #2
 1441 000a B3F91040 		ldrsh	r4, [r3, #16]
 1442              		.loc 1 821 29 view .LVU482
 1443 000e 9480     		strh	r4, [r2, #4]	@ movhi
 822:MCSDK_v6.0.0-Full/MotorControl/MCSDK/MCLib/Any/Src/revup_ctrl.c ****     phaseData->hFinalMecSpeedUnit = (int16_t)pHandle->ParamsData[phaseNumber].hFinalMecSpeedUnit;
 1444              		.loc 1 822 5 is_stmt 1 view .LVU483
 1445              		.loc 1 822 78 is_stmt 0 view .LVU484
 1446 0010 B3F90E30 		ldrsh	r3, [r3, #14]
 1447              		.loc 1 822 35 view .LVU485
 1448 0014 5380     		strh	r3, [r2, #2]	@ movhi
 823:MCSDK_v6.0.0-Full/MotorControl/MCSDK/MCLib/Any/Src/revup_ctrl.c ****     phaseData->hDurationms = (uint16_t)pHandle->ParamsData[phaseNumber].hDurationms;
 1449              		.loc 1 823 5 is_stmt 1 view .LVU486
 1450              		.loc 1 823 72 is_stmt 0 view .LVU487
 1451 0016 01EB4101 		add	r1, r1, r1, lsl #1
 1452              	.LVL127:
 1453              		.loc 1 823 72 view .LVU488
 1454 001a 00EB8101 		add	r1, r0, r1, lsl #2
 1455 001e 8B89     		ldrh	r3, [r1, #12]
 1456              		.loc 1 823 28 view .LVU489
 1457 0020 1380     		strh	r3, [r2]	@ movhi
 824:MCSDK_v6.0.0-Full/MotorControl/MCSDK/MCLib/Any/Src/revup_ctrl.c **** #ifdef NULL_PTR_REV_UP_CTL
 825:MCSDK_v6.0.0-Full/MotorControl/MCSDK/MCLib/Any/Src/revup_ctrl.c ****   }
 826:MCSDK_v6.0.0-Full/MotorControl/MCSDK/MCLib/Any/Src/revup_ctrl.c **** #endif
 827:MCSDK_v6.0.0-Full/MotorControl/MCSDK/MCLib/Any/Src/revup_ctrl.c ****   return (retValue);
 1458              		.loc 1 827 3 is_stmt 1 view .LVU490
 828:MCSDK_v6.0.0-Full/MotorControl/MCSDK/MCLib/Any/Src/revup_ctrl.c **** }
 1459              		.loc 1 828 1 is_stmt 0 view .LVU491
 1460 0022 0120     		movs	r0, #1
 1461              	.LVL128:
 1462              		.loc 1 828 1 view .LVU492
 1463 0024 5DF8044B 		ldr	r4, [sp], #4
 1464              		.cfi_restore 4
 1465              		.cfi_def_cfa_offset 0
 1466 0028 7047     		bx	lr
 1467              		.cfi_endproc
 1468              	.LFE1452:
 1470              		.section	.text.RUC_Get_SCLowsideOTF_Status,"ax",%progbits
 1471              		.align	1
 1472              		.weak	RUC_Get_SCLowsideOTF_Status
 1473              		.syntax unified
 1474              		.thumb
 1475              		.thumb_func
 1476              		.fpu fpv4-sp-d16
 1478              	RUC_Get_SCLowsideOTF_Status:
 1479              	.LVL129:
 1480              	.LFB1453:
 829:MCSDK_v6.0.0-Full/MotorControl/MCSDK/MCLib/Any/Src/revup_ctrl.c **** 
 830:MCSDK_v6.0.0-Full/MotorControl/MCSDK/MCLib/Any/Src/revup_ctrl.c **** /**
 831:MCSDK_v6.0.0-Full/MotorControl/MCSDK/MCLib/Any/Src/revup_ctrl.c ****   * @brief  Allow to read status of On The Fly (OTF) feature.
ARM GAS  /tmp/cc47mRH9.s 			page 42


 832:MCSDK_v6.0.0-Full/MotorControl/MCSDK/MCLib/Any/Src/revup_ctrl.c ****   * @param  pHandle: Pointer on Handle structure of RevUp controller.
 833:MCSDK_v6.0.0-Full/MotorControl/MCSDK/MCLib/Any/Src/revup_ctrl.c ****   *  @retval Boolean set to true at the end of OTF precessing.
 834:MCSDK_v6.0.0-Full/MotorControl/MCSDK/MCLib/Any/Src/revup_ctrl.c ****   */
 835:MCSDK_v6.0.0-Full/MotorControl/MCSDK/MCLib/Any/Src/revup_ctrl.c **** __weak bool RUC_Get_SCLowsideOTF_Status(RevUpCtrl_Handle_t *pHandle)
 836:MCSDK_v6.0.0-Full/MotorControl/MCSDK/MCLib/Any/Src/revup_ctrl.c **** {
 1481              		.loc 1 836 1 is_stmt 1 view -0
 1482              		.cfi_startproc
 1483              		@ args = 0, pretend = 0, frame = 0
 1484              		@ frame_needed = 0, uses_anonymous_args = 0
 1485              		@ link register save eliminated.
 837:MCSDK_v6.0.0-Full/MotorControl/MCSDK/MCLib/Any/Src/revup_ctrl.c **** #ifdef NULL_PTR_REV_UP_CTL
 838:MCSDK_v6.0.0-Full/MotorControl/MCSDK/MCLib/Any/Src/revup_ctrl.c ****   return ((MC_NULL == pHandle) ? false : pHandle->OTFSCLowside);
 839:MCSDK_v6.0.0-Full/MotorControl/MCSDK/MCLib/Any/Src/revup_ctrl.c **** #else
 840:MCSDK_v6.0.0-Full/MotorControl/MCSDK/MCLib/Any/Src/revup_ctrl.c ****   return (pHandle->OTFSCLowside);
 1486              		.loc 1 840 3 view .LVU494
 841:MCSDK_v6.0.0-Full/MotorControl/MCSDK/MCLib/Any/Src/revup_ctrl.c **** #endif
 842:MCSDK_v6.0.0-Full/MotorControl/MCSDK/MCLib/Any/Src/revup_ctrl.c **** }
 1487              		.loc 1 842 1 is_stmt 0 view .LVU495
 1488 0000 90F85400 		ldrb	r0, [r0, #84]	@ zero_extendqisi2
 1489              	.LVL130:
 1490              		.loc 1 842 1 view .LVU496
 1491 0004 7047     		bx	lr
 1492              		.cfi_endproc
 1493              	.LFE1453:
 1495              		.text
 1496              	.Letext0:
 1497              		.file 2 "/usr/lib/gcc/arm-none-eabi/9.2.1/include/stdint.h"
 1498              		.file 3 "Drivers/CMSIS/Include/core_cm4.h"
 1499              		.file 4 "Drivers/CMSIS/Device/ST/STM32G4xx/Include/system_stm32g4xx.h"
 1500              		.file 5 "Drivers/STM32G4xx_HAL_Driver/Inc/stm32g4xx_hal_def.h"
 1501              		.file 6 "Drivers/STM32G4xx_HAL_Driver/Inc/stm32g4xx_hal_flash.h"
 1502              		.file 7 "Drivers/STM32G4xx_HAL_Driver/Inc/stm32g4xx_hal.h"
 1503              		.file 8 "Drivers/STM32G4xx_HAL_Driver/Inc/stm32g4xx_ll_tim.h"
 1504              		.file 9 "Drivers/STM32G4xx_HAL_Driver/Inc/stm32g4xx_ll_usart.h"
 1505              		.file 10 "Drivers/STM32G4xx_HAL_Driver/Inc/stm32g4xx_ll_dma.h"
 1506              		.file 11 "MCSDK_v6.0.0-Full/MotorControl/MCSDK/MCLib/Any/Inc/mc_type.h"
 1507              		.file 12 "MCSDK_v6.0.0-Full/MotorControl/MCSDK/MCLib/Any/Inc/pid_regulator.h"
 1508              		.file 13 "MCSDK_v6.0.0-Full/MotorControl/MCSDK/MCLib/Any/Inc/speed_pos_fdbk.h"
 1509              		.file 14 "MCSDK_v6.0.0-Full/MotorControl/MCSDK/MCLib/Any/Inc/speed_torq_ctrl.h"
 1510              		.file 15 "MCSDK_v6.0.0-Full/MotorControl/MCSDK/MCLib/Any/Inc/virtual_speed_sensor.h"
 1511              		.file 16 "MCSDK_v6.0.0-Full/MotorControl/MCSDK/MCLib/Any/Inc/sto_speed_pos_fdbk.h"
 1512              		.file 17 "MCSDK_v6.0.0-Full/MotorControl/MCSDK/MCLib/Any/Inc/pwm_curr_fdbk.h"
 1513              		.file 18 "MCSDK_v6.0.0-Full/MotorControl/MCSDK/MCLib/Any/Inc/revup_ctrl.h"
ARM GAS  /tmp/cc47mRH9.s 			page 43


DEFINED SYMBOLS
                            *ABS*:0000000000000000 revup_ctrl.c
     /tmp/cc47mRH9.s:18     .text.RUC_Init:0000000000000000 $t
     /tmp/cc47mRH9.s:26     .text.RUC_Init:0000000000000000 RUC_Init
     /tmp/cc47mRH9.s:133    .text.RUC_Init:0000000000000058 $d
     /tmp/cc47mRH9.s:138    .text.RUC_Clear:0000000000000000 $t
     /tmp/cc47mRH9.s:145    .text.RUC_Clear:0000000000000000 RUC_Clear
     /tmp/cc47mRH9.s:270    .text.RUC_Clear:000000000000008c $d
     /tmp/cc47mRH9.s:275    .text.RUC_OTF_Exec:0000000000000000 $t
     /tmp/cc47mRH9.s:282    .text.RUC_OTF_Exec:0000000000000000 RUC_OTF_Exec
     /tmp/cc47mRH9.s:819    .text.RUC_OTF_Exec:0000000000000220 $d
     /tmp/cc47mRH9.s:824    .text.RUC_Exec:0000000000000000 $t
     /tmp/cc47mRH9.s:831    .text.RUC_Exec:0000000000000000 RUC_Exec
     /tmp/cc47mRH9.s:947    .text.RUC_Exec:000000000000006c $d
     /tmp/cc47mRH9.s:952    .text.RUC_GetPhaseFinalMecSpeed01Hz:0000000000000000 $t
     /tmp/cc47mRH9.s:959    .text.RUC_GetPhaseFinalMecSpeed01Hz:0000000000000000 RUC_GetPhaseFinalMecSpeed01Hz
     /tmp/cc47mRH9.s:985    .text.RUC_IsAlignStageNow:0000000000000000 $t
     /tmp/cc47mRH9.s:992    .text.RUC_IsAlignStageNow:0000000000000000 RUC_IsAlignStageNow
     /tmp/cc47mRH9.s:1033   .text.RUC_Completed:0000000000000000 $t
     /tmp/cc47mRH9.s:1040   .text.RUC_Completed:0000000000000000 RUC_Completed
     /tmp/cc47mRH9.s:1071   .text.RUC_Stop:0000000000000000 $t
     /tmp/cc47mRH9.s:1078   .text.RUC_Stop:0000000000000000 RUC_Stop
     /tmp/cc47mRH9.s:1121   .text.RUC_FirstAccelerationStageReached:0000000000000000 $t
     /tmp/cc47mRH9.s:1128   .text.RUC_FirstAccelerationStageReached:0000000000000000 RUC_FirstAccelerationStageReached
     /tmp/cc47mRH9.s:1162   .text.RUC_SetPhaseDurationms:0000000000000000 $t
     /tmp/cc47mRH9.s:1169   .text.RUC_SetPhaseDurationms:0000000000000000 RUC_SetPhaseDurationms
     /tmp/cc47mRH9.s:1190   .text.RUC_SetPhaseFinalMecSpeedUnit:0000000000000000 $t
     /tmp/cc47mRH9.s:1197   .text.RUC_SetPhaseFinalMecSpeedUnit:0000000000000000 RUC_SetPhaseFinalMecSpeedUnit
     /tmp/cc47mRH9.s:1218   .text.RUC_SetPhaseFinalTorque:0000000000000000 $t
     /tmp/cc47mRH9.s:1225   .text.RUC_SetPhaseFinalTorque:0000000000000000 RUC_SetPhaseFinalTorque
     /tmp/cc47mRH9.s:1246   .text.RUC_SetPhase:0000000000000000 $t
     /tmp/cc47mRH9.s:1253   .text.RUC_SetPhase:0000000000000000 RUC_SetPhase
     /tmp/cc47mRH9.s:1301   .text.RUC_GetPhaseDurationms:0000000000000000 $t
     /tmp/cc47mRH9.s:1308   .text.RUC_GetPhaseDurationms:0000000000000000 RUC_GetPhaseDurationms
     /tmp/cc47mRH9.s:1331   .text.RUC_GetPhaseFinalMecSpeedUnit:0000000000000000 $t
     /tmp/cc47mRH9.s:1338   .text.RUC_GetPhaseFinalMecSpeedUnit:0000000000000000 RUC_GetPhaseFinalMecSpeedUnit
     /tmp/cc47mRH9.s:1361   .text.RUC_GetPhaseFinalTorque:0000000000000000 $t
     /tmp/cc47mRH9.s:1368   .text.RUC_GetPhaseFinalTorque:0000000000000000 RUC_GetPhaseFinalTorque
     /tmp/cc47mRH9.s:1391   .text.RUC_GetNumberOfPhases:0000000000000000 $t
     /tmp/cc47mRH9.s:1398   .text.RUC_GetNumberOfPhases:0000000000000000 RUC_GetNumberOfPhases
     /tmp/cc47mRH9.s:1416   .text.RUC_GetPhase:0000000000000000 $t
     /tmp/cc47mRH9.s:1423   .text.RUC_GetPhase:0000000000000000 RUC_GetPhase
     /tmp/cc47mRH9.s:1471   .text.RUC_Get_SCLowsideOTF_Status:0000000000000000 $t
     /tmp/cc47mRH9.s:1478   .text.RUC_Get_SCLowsideOTF_Status:0000000000000000 RUC_Get_SCLowsideOTF_Status

UNDEFINED SYMBOLS
VSS_Clear
STC_SetControlMode
VSS_SetMecAngle
STC_ExecRamp
VSS_SetMecAcceleration
SPD_GetAvrgMecSpeedUnit
VSS_SetCopyObserver
PWMC_SwitchOffPWM
PWMC_TurnOnLowSides
PWMC_SwitchOnPWM
