ARM GAS  /tmp/ccCiLUJR.s 			page 1


   1              		.cpu cortex-m4
   2              		.eabi_attribute 27, 1
   3              		.eabi_attribute 28, 1
   4              		.eabi_attribute 20, 1
   5              		.eabi_attribute 21, 1
   6              		.eabi_attribute 23, 3
   7              		.eabi_attribute 24, 1
   8              		.eabi_attribute 25, 1
   9              		.eabi_attribute 26, 1
  10              		.eabi_attribute 30, 1
  11              		.eabi_attribute 34, 1
  12              		.eabi_attribute 18, 4
  13              		.file	"revup_ctrl.c"
  14              		.text
  15              	.Ltext0:
  16              		.cfi_sections	.debug_frame
  17              		.section	.text.RUC_GetPhaseFinalMecSpeed01Hz,"ax",%progbits
  18              		.align	1
  19              		.arch armv7e-m
  20              		.syntax unified
  21              		.thumb
  22              		.thumb_func
  23              		.fpu fpv4-sp-d16
  25              	RUC_GetPhaseFinalMecSpeed01Hz:
  26              	.LVL0:
  27              	.LFB1435:
  28              		.file 1 "MCSDK_v6.1.0-Full/MotorControl/MCSDK/MCLib/Any/Src/revup_ctrl.c"
   1:MCSDK_v6.1.0-Full/MotorControl/MCSDK/MCLib/Any/Src/revup_ctrl.c **** /**
   2:MCSDK_v6.1.0-Full/MotorControl/MCSDK/MCLib/Any/Src/revup_ctrl.c ****   ******************************************************************************
   3:MCSDK_v6.1.0-Full/MotorControl/MCSDK/MCLib/Any/Src/revup_ctrl.c ****   * @file    revup_ctrl.c
   4:MCSDK_v6.1.0-Full/MotorControl/MCSDK/MCLib/Any/Src/revup_ctrl.c ****   * @author  Motor Control SDK Team, ST Microelectronics
   5:MCSDK_v6.1.0-Full/MotorControl/MCSDK/MCLib/Any/Src/revup_ctrl.c ****   * @brief   This file provides firmware functions that implement the features
   6:MCSDK_v6.1.0-Full/MotorControl/MCSDK/MCLib/Any/Src/revup_ctrl.c ****   *          of the Rev-Up Control component of the Motor Control SDK:
   7:MCSDK_v6.1.0-Full/MotorControl/MCSDK/MCLib/Any/Src/revup_ctrl.c ****   *
   8:MCSDK_v6.1.0-Full/MotorControl/MCSDK/MCLib/Any/Src/revup_ctrl.c ****   *          * Main Rev-Up procedure to execute programmed phases
   9:MCSDK_v6.1.0-Full/MotorControl/MCSDK/MCLib/Any/Src/revup_ctrl.c ****   *          * On the Fly (OTF)
  10:MCSDK_v6.1.0-Full/MotorControl/MCSDK/MCLib/Any/Src/revup_ctrl.c ****   *
  11:MCSDK_v6.1.0-Full/MotorControl/MCSDK/MCLib/Any/Src/revup_ctrl.c ****   ******************************************************************************
  12:MCSDK_v6.1.0-Full/MotorControl/MCSDK/MCLib/Any/Src/revup_ctrl.c ****   * @attention
  13:MCSDK_v6.1.0-Full/MotorControl/MCSDK/MCLib/Any/Src/revup_ctrl.c ****   *
  14:MCSDK_v6.1.0-Full/MotorControl/MCSDK/MCLib/Any/Src/revup_ctrl.c ****   * <h2><center>&copy; Copyright (c) 2022 STMicroelectronics International N.V.
  15:MCSDK_v6.1.0-Full/MotorControl/MCSDK/MCLib/Any/Src/revup_ctrl.c ****   * All rights reserved.</center></h2>
  16:MCSDK_v6.1.0-Full/MotorControl/MCSDK/MCLib/Any/Src/revup_ctrl.c ****   *
  17:MCSDK_v6.1.0-Full/MotorControl/MCSDK/MCLib/Any/Src/revup_ctrl.c ****   * Redistribution and use in source and binary forms, with or without
  18:MCSDK_v6.1.0-Full/MotorControl/MCSDK/MCLib/Any/Src/revup_ctrl.c ****   * modification, are permitted, provided that the following conditions are met:
  19:MCSDK_v6.1.0-Full/MotorControl/MCSDK/MCLib/Any/Src/revup_ctrl.c ****   *
  20:MCSDK_v6.1.0-Full/MotorControl/MCSDK/MCLib/Any/Src/revup_ctrl.c ****   * 1. Redistribution of source code must retain the above copyright notice,
  21:MCSDK_v6.1.0-Full/MotorControl/MCSDK/MCLib/Any/Src/revup_ctrl.c ****   *    this list of conditions and the following disclaimer.
  22:MCSDK_v6.1.0-Full/MotorControl/MCSDK/MCLib/Any/Src/revup_ctrl.c ****   * 2. Redistributions in binary form must reproduce the above copyright notice,
  23:MCSDK_v6.1.0-Full/MotorControl/MCSDK/MCLib/Any/Src/revup_ctrl.c ****   *    this list of conditions and the following disclaimer in the documentation
  24:MCSDK_v6.1.0-Full/MotorControl/MCSDK/MCLib/Any/Src/revup_ctrl.c ****   *    and/or other materials provided with the distribution.
  25:MCSDK_v6.1.0-Full/MotorControl/MCSDK/MCLib/Any/Src/revup_ctrl.c ****   * 3. Neither the name of STMicroelectronics nor the names of other
  26:MCSDK_v6.1.0-Full/MotorControl/MCSDK/MCLib/Any/Src/revup_ctrl.c ****   *    contributors to this software may be used to endorse or promote products
  27:MCSDK_v6.1.0-Full/MotorControl/MCSDK/MCLib/Any/Src/revup_ctrl.c ****   *    derived from this software without specific written permission.
  28:MCSDK_v6.1.0-Full/MotorControl/MCSDK/MCLib/Any/Src/revup_ctrl.c ****   * 4. This software, including modifications and/or derivative works of this
  29:MCSDK_v6.1.0-Full/MotorControl/MCSDK/MCLib/Any/Src/revup_ctrl.c ****   *    software, must execute solely and exclusively on microcontroller or
  30:MCSDK_v6.1.0-Full/MotorControl/MCSDK/MCLib/Any/Src/revup_ctrl.c ****   *    microprocessor devices manufactured by or for STMicroelectronics.
ARM GAS  /tmp/ccCiLUJR.s 			page 2


  31:MCSDK_v6.1.0-Full/MotorControl/MCSDK/MCLib/Any/Src/revup_ctrl.c ****   * 5. Redistribution and use of this software other than as permitted under
  32:MCSDK_v6.1.0-Full/MotorControl/MCSDK/MCLib/Any/Src/revup_ctrl.c ****   *    this license is void and will automatically terminate your rights under
  33:MCSDK_v6.1.0-Full/MotorControl/MCSDK/MCLib/Any/Src/revup_ctrl.c ****   *    this license.
  34:MCSDK_v6.1.0-Full/MotorControl/MCSDK/MCLib/Any/Src/revup_ctrl.c ****   *
  35:MCSDK_v6.1.0-Full/MotorControl/MCSDK/MCLib/Any/Src/revup_ctrl.c ****   * THIS SOFTWARE IS PROVIDED BY STMICROELECTRONICS AND CONTRIBUTORS "AS IS"
  36:MCSDK_v6.1.0-Full/MotorControl/MCSDK/MCLib/Any/Src/revup_ctrl.c ****   * AND ANY EXPRESS, IMPLIED OR STATUTORY WARRANTIES, INCLUDING, BUT NOT
  37:MCSDK_v6.1.0-Full/MotorControl/MCSDK/MCLib/Any/Src/revup_ctrl.c ****   * LIMITED TO, THE IMPLIED WARRANTIES OF MERCHANTABILITY, FITNESS FOR A
  38:MCSDK_v6.1.0-Full/MotorControl/MCSDK/MCLib/Any/Src/revup_ctrl.c ****   * PARTICULAR PURPOSE AND NON-INFRINGEMENT OF THIRD PARTY INTELLECTUAL PROPERTY
  39:MCSDK_v6.1.0-Full/MotorControl/MCSDK/MCLib/Any/Src/revup_ctrl.c ****   * RIGHTS ARE DISCLAIMED TO THE FULLEST EXTENT PERMITTED BY LAW. IN NO EVENT
  40:MCSDK_v6.1.0-Full/MotorControl/MCSDK/MCLib/Any/Src/revup_ctrl.c ****   * SHALL STMICROELECTRONICS OR CONTRIBUTORS BE LIABLE FOR ANY DIRECT, INDIRECT,
  41:MCSDK_v6.1.0-Full/MotorControl/MCSDK/MCLib/Any/Src/revup_ctrl.c ****   * INCIDENTAL, SPECIAL, EXEMPLARY, OR CONSEQUENTIAL DAMAGES (INCLUDING, BUT NOT
  42:MCSDK_v6.1.0-Full/MotorControl/MCSDK/MCLib/Any/Src/revup_ctrl.c ****   * LIMITED TO, PROCUREMENT OF SUBSTITUTE GOODS OR SERVICES; LOSS OF USE, DATA,
  43:MCSDK_v6.1.0-Full/MotorControl/MCSDK/MCLib/Any/Src/revup_ctrl.c ****   * OR PROFITS; OR BUSINESS INTERRUPTION) HOWEVER CAUSED AND ON ANY THEORY OF
  44:MCSDK_v6.1.0-Full/MotorControl/MCSDK/MCLib/Any/Src/revup_ctrl.c ****   * LIABILITY, WHETHER IN CONTRACT, STRICT LIABILITY, OR TORT (INCLUDING
  45:MCSDK_v6.1.0-Full/MotorControl/MCSDK/MCLib/Any/Src/revup_ctrl.c ****   * NEGLIGENCE OR OTHERWISE) ARISING IN ANY WAY OUT OF THE USE OF THIS SOFTWARE,
  46:MCSDK_v6.1.0-Full/MotorControl/MCSDK/MCLib/Any/Src/revup_ctrl.c ****   * EVEN IF ADVISED OF THE POSSIBILITY OF SUCH DAMAGE.
  47:MCSDK_v6.1.0-Full/MotorControl/MCSDK/MCLib/Any/Src/revup_ctrl.c ****   *
  48:MCSDK_v6.1.0-Full/MotorControl/MCSDK/MCLib/Any/Src/revup_ctrl.c ****   ******************************************************************************
  49:MCSDK_v6.1.0-Full/MotorControl/MCSDK/MCLib/Any/Src/revup_ctrl.c ****   * @ingroup RevUpCtrlFOC
  50:MCSDK_v6.1.0-Full/MotorControl/MCSDK/MCLib/Any/Src/revup_ctrl.c ****   */
  51:MCSDK_v6.1.0-Full/MotorControl/MCSDK/MCLib/Any/Src/revup_ctrl.c **** 
  52:MCSDK_v6.1.0-Full/MotorControl/MCSDK/MCLib/Any/Src/revup_ctrl.c **** /* Includes ------------------------------------------------------------------*/
  53:MCSDK_v6.1.0-Full/MotorControl/MCSDK/MCLib/Any/Src/revup_ctrl.c **** #include "revup_ctrl.h"
  54:MCSDK_v6.1.0-Full/MotorControl/MCSDK/MCLib/Any/Src/revup_ctrl.c **** 
  55:MCSDK_v6.1.0-Full/MotorControl/MCSDK/MCLib/Any/Src/revup_ctrl.c **** /** @addtogroup MCSDK
  56:MCSDK_v6.1.0-Full/MotorControl/MCSDK/MCLib/Any/Src/revup_ctrl.c ****   * @{
  57:MCSDK_v6.1.0-Full/MotorControl/MCSDK/MCLib/Any/Src/revup_ctrl.c ****   */
  58:MCSDK_v6.1.0-Full/MotorControl/MCSDK/MCLib/Any/Src/revup_ctrl.c **** 
  59:MCSDK_v6.1.0-Full/MotorControl/MCSDK/MCLib/Any/Src/revup_ctrl.c **** 
  60:MCSDK_v6.1.0-Full/MotorControl/MCSDK/MCLib/Any/Src/revup_ctrl.c **** /** @defgroup RevUpCtrl Rev-Up Control
  61:MCSDK_v6.1.0-Full/MotorControl/MCSDK/MCLib/Any/Src/revup_ctrl.c ****   * @brief Rev-Up Control component of the Motor Control SDK
  62:MCSDK_v6.1.0-Full/MotorControl/MCSDK/MCLib/Any/Src/revup_ctrl.c ****   *
  63:MCSDK_v6.1.0-Full/MotorControl/MCSDK/MCLib/Any/Src/revup_ctrl.c ****   * Used to start up the motor with a set of pre-programmed phases.
  64:MCSDK_v6.1.0-Full/MotorControl/MCSDK/MCLib/Any/Src/revup_ctrl.c ****   *
  65:MCSDK_v6.1.0-Full/MotorControl/MCSDK/MCLib/Any/Src/revup_ctrl.c ****   * The number of phases of the Rev-Up procedure range is from 0 to 5.
  66:MCSDK_v6.1.0-Full/MotorControl/MCSDK/MCLib/Any/Src/revup_ctrl.c ****   * The Rev-Up controller must be called at speed loop frequency.
  67:MCSDK_v6.1.0-Full/MotorControl/MCSDK/MCLib/Any/Src/revup_ctrl.c ****   *
  68:MCSDK_v6.1.0-Full/MotorControl/MCSDK/MCLib/Any/Src/revup_ctrl.c ****   * @{
  69:MCSDK_v6.1.0-Full/MotorControl/MCSDK/MCLib/Any/Src/revup_ctrl.c ****   */
  70:MCSDK_v6.1.0-Full/MotorControl/MCSDK/MCLib/Any/Src/revup_ctrl.c ****   
  71:MCSDK_v6.1.0-Full/MotorControl/MCSDK/MCLib/Any/Src/revup_ctrl.c ****   
  72:MCSDK_v6.1.0-Full/MotorControl/MCSDK/MCLib/Any/Src/revup_ctrl.c ****   
  73:MCSDK_v6.1.0-Full/MotorControl/MCSDK/MCLib/Any/Src/revup_ctrl.c **** 
  74:MCSDK_v6.1.0-Full/MotorControl/MCSDK/MCLib/Any/Src/revup_ctrl.c **** /** @defgroup RevUpCtrlFOC FOC Rev-Up Control component
  75:MCSDK_v6.1.0-Full/MotorControl/MCSDK/MCLib/Any/Src/revup_ctrl.c ****   * @brief Rev-Up control component used to start motor driven with 
  76:MCSDK_v6.1.0-Full/MotorControl/MCSDK/MCLib/Any/Src/revup_ctrl.c ****   *        the Field Oriented Control technique
  77:MCSDK_v6.1.0-Full/MotorControl/MCSDK/MCLib/Any/Src/revup_ctrl.c ****   *
  78:MCSDK_v6.1.0-Full/MotorControl/MCSDK/MCLib/Any/Src/revup_ctrl.c ****   * @{
  79:MCSDK_v6.1.0-Full/MotorControl/MCSDK/MCLib/Any/Src/revup_ctrl.c ****   */
  80:MCSDK_v6.1.0-Full/MotorControl/MCSDK/MCLib/Any/Src/revup_ctrl.c **** 
  81:MCSDK_v6.1.0-Full/MotorControl/MCSDK/MCLib/Any/Src/revup_ctrl.c **** /* Private defines -----------------------------------------------------------*/
  82:MCSDK_v6.1.0-Full/MotorControl/MCSDK/MCLib/Any/Src/revup_ctrl.c **** 
  83:MCSDK_v6.1.0-Full/MotorControl/MCSDK/MCLib/Any/Src/revup_ctrl.c **** /**
  84:MCSDK_v6.1.0-Full/MotorControl/MCSDK/MCLib/Any/Src/revup_ctrl.c ****   * @brief Timeout used to reset integral term of PLL.
  85:MCSDK_v6.1.0-Full/MotorControl/MCSDK/MCLib/Any/Src/revup_ctrl.c ****   *  It is expressed in ms.
  86:MCSDK_v6.1.0-Full/MotorControl/MCSDK/MCLib/Any/Src/revup_ctrl.c ****   *
  87:MCSDK_v6.1.0-Full/MotorControl/MCSDK/MCLib/Any/Src/revup_ctrl.c ****   */
ARM GAS  /tmp/ccCiLUJR.s 			page 3


  88:MCSDK_v6.1.0-Full/MotorControl/MCSDK/MCLib/Any/Src/revup_ctrl.c **** #define RUC_OTF_PLL_RESET_TIMEOUT 100u
  89:MCSDK_v6.1.0-Full/MotorControl/MCSDK/MCLib/Any/Src/revup_ctrl.c **** 
  90:MCSDK_v6.1.0-Full/MotorControl/MCSDK/MCLib/Any/Src/revup_ctrl.c **** 
  91:MCSDK_v6.1.0-Full/MotorControl/MCSDK/MCLib/Any/Src/revup_ctrl.c **** /* Private functions ----------------------------------------------------------*/
  92:MCSDK_v6.1.0-Full/MotorControl/MCSDK/MCLib/Any/Src/revup_ctrl.c **** 
  93:MCSDK_v6.1.0-Full/MotorControl/MCSDK/MCLib/Any/Src/revup_ctrl.c **** 
  94:MCSDK_v6.1.0-Full/MotorControl/MCSDK/MCLib/Any/Src/revup_ctrl.c **** /* Returns the  mechanical speed of a selected phase */
  95:MCSDK_v6.1.0-Full/MotorControl/MCSDK/MCLib/Any/Src/revup_ctrl.c **** static int16_t RUC_GetPhaseFinalMecSpeed01Hz(RevUpCtrl_Handle_t *pHandle, uint8_t bPhase)
  96:MCSDK_v6.1.0-Full/MotorControl/MCSDK/MCLib/Any/Src/revup_ctrl.c **** {
  29              		.loc 1 96 1 view -0
  30              		.cfi_startproc
  31              		@ args = 0, pretend = 0, frame = 0
  32              		@ frame_needed = 0, uses_anonymous_args = 0
  33              		@ link register save eliminated.
  97:MCSDK_v6.1.0-Full/MotorControl/MCSDK/MCLib/Any/Src/revup_ctrl.c ****   int16_t hRetVal = 0;
  34              		.loc 1 97 3 view .LVU1
  98:MCSDK_v6.1.0-Full/MotorControl/MCSDK/MCLib/Any/Src/revup_ctrl.c **** #ifdef NULL_PTR_REV_UP_CTL
  99:MCSDK_v6.1.0-Full/MotorControl/MCSDK/MCLib/Any/Src/revup_ctrl.c ****   if (MC_NULL == pHandle)
 100:MCSDK_v6.1.0-Full/MotorControl/MCSDK/MCLib/Any/Src/revup_ctrl.c ****   {
 101:MCSDK_v6.1.0-Full/MotorControl/MCSDK/MCLib/Any/Src/revup_ctrl.c ****     /* Nothing to do */
 102:MCSDK_v6.1.0-Full/MotorControl/MCSDK/MCLib/Any/Src/revup_ctrl.c ****   }
 103:MCSDK_v6.1.0-Full/MotorControl/MCSDK/MCLib/Any/Src/revup_ctrl.c ****   else
 104:MCSDK_v6.1.0-Full/MotorControl/MCSDK/MCLib/Any/Src/revup_ctrl.c ****   {
 105:MCSDK_v6.1.0-Full/MotorControl/MCSDK/MCLib/Any/Src/revup_ctrl.c **** #endif
 106:MCSDK_v6.1.0-Full/MotorControl/MCSDK/MCLib/Any/Src/revup_ctrl.c ****     hRetVal = pHandle->ParamsData[bPhase].hFinalMecSpeedUnit;
  35              		.loc 1 106 5 view .LVU2
  36              		.loc 1 106 13 is_stmt 0 view .LVU3
  37 0000 01EB4101 		add	r1, r1, r1, lsl #1
  38              	.LVL1:
  39              		.loc 1 106 13 view .LVU4
  40 0004 00EB8101 		add	r1, r0, r1, lsl #2
  41              	.LVL2:
 107:MCSDK_v6.1.0-Full/MotorControl/MCSDK/MCLib/Any/Src/revup_ctrl.c **** #ifdef NULL_PTR_REV_UP_CTL
 108:MCSDK_v6.1.0-Full/MotorControl/MCSDK/MCLib/Any/Src/revup_ctrl.c ****   }
 109:MCSDK_v6.1.0-Full/MotorControl/MCSDK/MCLib/Any/Src/revup_ctrl.c **** #endif
 110:MCSDK_v6.1.0-Full/MotorControl/MCSDK/MCLib/Any/Src/revup_ctrl.c ****   return (hRetVal);
  42              		.loc 1 110 3 is_stmt 1 view .LVU5
 111:MCSDK_v6.1.0-Full/MotorControl/MCSDK/MCLib/Any/Src/revup_ctrl.c **** }
  43              		.loc 1 111 1 is_stmt 0 view .LVU6
  44 0008 B1F90E00 		ldrsh	r0, [r1, #14]
  45              	.LVL3:
  46              		.loc 1 111 1 view .LVU7
  47 000c 7047     		bx	lr
  48              		.cfi_endproc
  49              	.LFE1435:
  51              		.section	.text.RUC_Init,"ax",%progbits
  52              		.align	1
  53              		.weak	RUC_Init
  54              		.syntax unified
  55              		.thumb
  56              		.thumb_func
  57              		.fpu fpv4-sp-d16
  59              	RUC_Init:
  60              	.LVL4:
  61              	.LFB1436:
 112:MCSDK_v6.1.0-Full/MotorControl/MCSDK/MCLib/Any/Src/revup_ctrl.c **** 
 113:MCSDK_v6.1.0-Full/MotorControl/MCSDK/MCLib/Any/Src/revup_ctrl.c **** 
ARM GAS  /tmp/ccCiLUJR.s 			page 4


 114:MCSDK_v6.1.0-Full/MotorControl/MCSDK/MCLib/Any/Src/revup_ctrl.c **** /**
 115:MCSDK_v6.1.0-Full/MotorControl/MCSDK/MCLib/Any/Src/revup_ctrl.c ****   * @brief  Initialize and configure the FOC RevUpCtrl Component
 116:MCSDK_v6.1.0-Full/MotorControl/MCSDK/MCLib/Any/Src/revup_ctrl.c ****   * @param  pHandle: Pointer on Handle structure of FOC RevUp controller.
 117:MCSDK_v6.1.0-Full/MotorControl/MCSDK/MCLib/Any/Src/revup_ctrl.c ****   * @param  pSTC: Pointer on speed and torque controller structure.
 118:MCSDK_v6.1.0-Full/MotorControl/MCSDK/MCLib/Any/Src/revup_ctrl.c ****   * @param  pVSS: Pointer on virtual speed sensor structure.
 119:MCSDK_v6.1.0-Full/MotorControl/MCSDK/MCLib/Any/Src/revup_ctrl.c ****   * @param  pSNSL: Pointer on sensorless state observer structure.
 120:MCSDK_v6.1.0-Full/MotorControl/MCSDK/MCLib/Any/Src/revup_ctrl.c ****   * @param  pPWM: Pointer on the PWM structure.
 121:MCSDK_v6.1.0-Full/MotorControl/MCSDK/MCLib/Any/Src/revup_ctrl.c ****   */
 122:MCSDK_v6.1.0-Full/MotorControl/MCSDK/MCLib/Any/Src/revup_ctrl.c **** __weak void RUC_Init(	RevUpCtrl_Handle_t *pHandle,
 123:MCSDK_v6.1.0-Full/MotorControl/MCSDK/MCLib/Any/Src/revup_ctrl.c **** 						SpeednTorqCtrl_Handle_t *pSTC,
 124:MCSDK_v6.1.0-Full/MotorControl/MCSDK/MCLib/Any/Src/revup_ctrl.c **** 						VirtualSpeedSensor_Handle_t *pVSS,
 125:MCSDK_v6.1.0-Full/MotorControl/MCSDK/MCLib/Any/Src/revup_ctrl.c **** 						STO_Handle_t *pSNSL,
 126:MCSDK_v6.1.0-Full/MotorControl/MCSDK/MCLib/Any/Src/revup_ctrl.c **** 						PWMC_Handle_t *pPWM)
 127:MCSDK_v6.1.0-Full/MotorControl/MCSDK/MCLib/Any/Src/revup_ctrl.c **** {
  62              		.loc 1 127 1 is_stmt 1 view -0
  63              		.cfi_startproc
  64              		@ args = 4, pretend = 0, frame = 0
  65              		@ frame_needed = 0, uses_anonymous_args = 0
  66              		@ link register save eliminated.
  67              		.loc 1 127 1 is_stmt 0 view .LVU9
  68 0000 10B4     		push	{r4}
  69              		.cfi_def_cfa_offset 4
  70              		.cfi_offset 4, -4
 128:MCSDK_v6.1.0-Full/MotorControl/MCSDK/MCLib/Any/Src/revup_ctrl.c **** #ifdef NULL_PTR_REV_UP_CTL
 129:MCSDK_v6.1.0-Full/MotorControl/MCSDK/MCLib/Any/Src/revup_ctrl.c ****   if (MC_NULL == pHandle)
 130:MCSDK_v6.1.0-Full/MotorControl/MCSDK/MCLib/Any/Src/revup_ctrl.c ****   {
 131:MCSDK_v6.1.0-Full/MotorControl/MCSDK/MCLib/Any/Src/revup_ctrl.c ****     /* Nothing to do */
 132:MCSDK_v6.1.0-Full/MotorControl/MCSDK/MCLib/Any/Src/revup_ctrl.c ****   }
 133:MCSDK_v6.1.0-Full/MotorControl/MCSDK/MCLib/Any/Src/revup_ctrl.c ****   else
 134:MCSDK_v6.1.0-Full/MotorControl/MCSDK/MCLib/Any/Src/revup_ctrl.c ****   {
 135:MCSDK_v6.1.0-Full/MotorControl/MCSDK/MCLib/Any/Src/revup_ctrl.c **** #endif
 136:MCSDK_v6.1.0-Full/MotorControl/MCSDK/MCLib/Any/Src/revup_ctrl.c ****     RevUpCtrl_PhaseParams_t *pRUCPhaseParams = &pHandle->ParamsData[0];
  71              		.loc 1 136 5 is_stmt 1 view .LVU10
  72              		.loc 1 136 30 is_stmt 0 view .LVU11
  73 0002 00F10C04 		add	r4, r0, #12
  74              	.LVL5:
 137:MCSDK_v6.1.0-Full/MotorControl/MCSDK/MCLib/Any/Src/revup_ctrl.c ****     uint8_t bPhase = 0U;
  75              		.loc 1 137 5 is_stmt 1 view .LVU12
 138:MCSDK_v6.1.0-Full/MotorControl/MCSDK/MCLib/Any/Src/revup_ctrl.c **** 
 139:MCSDK_v6.1.0-Full/MotorControl/MCSDK/MCLib/Any/Src/revup_ctrl.c ****     pHandle->pSTC = pSTC;
  76              		.loc 1 139 5 view .LVU13
  77              		.loc 1 139 19 is_stmt 0 view .LVU14
  78 0006 8166     		str	r1, [r0, #104]
 140:MCSDK_v6.1.0-Full/MotorControl/MCSDK/MCLib/Any/Src/revup_ctrl.c ****     pHandle->pVSS = pVSS;
  79              		.loc 1 140 5 is_stmt 1 view .LVU15
  80              		.loc 1 140 19 is_stmt 0 view .LVU16
  81 0008 C266     		str	r2, [r0, #108]
 141:MCSDK_v6.1.0-Full/MotorControl/MCSDK/MCLib/Any/Src/revup_ctrl.c ****     pHandle->pSNSL = pSNSL;
  82              		.loc 1 141 5 is_stmt 1 view .LVU17
  83              		.loc 1 141 20 is_stmt 0 view .LVU18
  84 000a 0367     		str	r3, [r0, #112]
 142:MCSDK_v6.1.0-Full/MotorControl/MCSDK/MCLib/Any/Src/revup_ctrl.c ****     pHandle->pPWM = pPWM;
  85              		.loc 1 142 5 is_stmt 1 view .LVU19
  86              		.loc 1 142 19 is_stmt 0 view .LVU20
  87 000c 019B     		ldr	r3, [sp, #4]
  88              	.LVL6:
  89              		.loc 1 142 19 view .LVU21
ARM GAS  /tmp/ccCiLUJR.s 			page 5


  90 000e 4367     		str	r3, [r0, #116]
 143:MCSDK_v6.1.0-Full/MotorControl/MCSDK/MCLib/Any/Src/revup_ctrl.c ****     pHandle->OTFSCLowside = false;
  91              		.loc 1 143 5 is_stmt 1 view .LVU22
  92              		.loc 1 143 27 is_stmt 0 view .LVU23
  93 0010 0023     		movs	r3, #0
  94 0012 80F85430 		strb	r3, [r0, #84]
 144:MCSDK_v6.1.0-Full/MotorControl/MCSDK/MCLib/Any/Src/revup_ctrl.c ****     pHandle->EnteredZone1 = false;
  95              		.loc 1 144 5 is_stmt 1 view .LVU24
  96              		.loc 1 144 27 is_stmt 0 view .LVU25
  97 0016 80F85530 		strb	r3, [r0, #85]
 145:MCSDK_v6.1.0-Full/MotorControl/MCSDK/MCLib/Any/Src/revup_ctrl.c **** 
 146:MCSDK_v6.1.0-Full/MotorControl/MCSDK/MCLib/Any/Src/revup_ctrl.c ****     while ((pRUCPhaseParams != MC_NULL) && (bPhase < RUC_MAX_PHASE_NUMBER))
  98              		.loc 1 146 5 is_stmt 1 view .LVU26
  99              	.LVL7:
 100              	.L3:
 101              		.loc 1 146 11 view .LVU27
 102 001a 2CB1     		cbz	r4, .L4
 103              		.loc 1 146 41 is_stmt 0 discriminator 1 view .LVU28
 104 001c 042B     		cmp	r3, #4
 105 001e 03D8     		bhi	.L4
 147:MCSDK_v6.1.0-Full/MotorControl/MCSDK/MCLib/Any/Src/revup_ctrl.c ****     {
 148:MCSDK_v6.1.0-Full/MotorControl/MCSDK/MCLib/Any/Src/revup_ctrl.c ****       /* Dump HF data for now HF data are forced to 16 bits*/
 149:MCSDK_v6.1.0-Full/MotorControl/MCSDK/MCLib/Any/Src/revup_ctrl.c ****       pRUCPhaseParams = (RevUpCtrl_PhaseParams_t *)pRUCPhaseParams->pNext;  //cstat !MISRAC2012-Rul
 106              		.loc 1 149 7 is_stmt 1 view .LVU29
 107              		.loc 1 149 23 is_stmt 0 view .LVU30
 108 0020 A468     		ldr	r4, [r4, #8]
 109              	.LVL8:
 150:MCSDK_v6.1.0-Full/MotorControl/MCSDK/MCLib/Any/Src/revup_ctrl.c ****       bPhase++;
 110              		.loc 1 150 7 is_stmt 1 view .LVU31
 111              		.loc 1 150 13 is_stmt 0 view .LVU32
 112 0022 0133     		adds	r3, r3, #1
 113              	.LVL9:
 114              		.loc 1 150 13 view .LVU33
 115 0024 DBB2     		uxtb	r3, r3
 116              	.LVL10:
 117              		.loc 1 150 13 view .LVU34
 118 0026 F8E7     		b	.L3
 119              	.L4:
 151:MCSDK_v6.1.0-Full/MotorControl/MCSDK/MCLib/Any/Src/revup_ctrl.c ****     }
 152:MCSDK_v6.1.0-Full/MotorControl/MCSDK/MCLib/Any/Src/revup_ctrl.c **** 
 153:MCSDK_v6.1.0-Full/MotorControl/MCSDK/MCLib/Any/Src/revup_ctrl.c ****     if (0U == bPhase)
 120              		.loc 1 153 5 is_stmt 1 view .LVU35
 121              		.loc 1 153 8 is_stmt 0 view .LVU36
 122 0028 9BB1     		cbz	r3, .L2
 154:MCSDK_v6.1.0-Full/MotorControl/MCSDK/MCLib/Any/Src/revup_ctrl.c ****     {
 155:MCSDK_v6.1.0-Full/MotorControl/MCSDK/MCLib/Any/Src/revup_ctrl.c ****       /* nothing to do error */
 156:MCSDK_v6.1.0-Full/MotorControl/MCSDK/MCLib/Any/Src/revup_ctrl.c ****     }
 157:MCSDK_v6.1.0-Full/MotorControl/MCSDK/MCLib/Any/Src/revup_ctrl.c ****     else
 158:MCSDK_v6.1.0-Full/MotorControl/MCSDK/MCLib/Any/Src/revup_ctrl.c ****     {
 159:MCSDK_v6.1.0-Full/MotorControl/MCSDK/MCLib/Any/Src/revup_ctrl.c ****       pHandle->ParamsData[bPhase - 1u].pNext = MC_NULL;
 123              		.loc 1 159 7 is_stmt 1 view .LVU37
 124              		.loc 1 159 34 is_stmt 0 view .LVU38
 125 002a 5A1E     		subs	r2, r3, #1
 126              	.LVL11:
 127              		.loc 1 159 46 view .LVU39
 128 002c 02EB4202 		add	r2, r2, r2, lsl #1
 129 0030 00EB8202 		add	r2, r0, r2, lsl #2
ARM GAS  /tmp/ccCiLUJR.s 			page 6


 130 0034 0021     		movs	r1, #0
 131              	.LVL12:
 132              		.loc 1 159 46 view .LVU40
 133 0036 5161     		str	r1, [r2, #20]
 134              	.LVL13:
 160:MCSDK_v6.1.0-Full/MotorControl/MCSDK/MCLib/Any/Src/revup_ctrl.c **** 
 161:MCSDK_v6.1.0-Full/MotorControl/MCSDK/MCLib/Any/Src/revup_ctrl.c ****       pHandle->bPhaseNbr = bPhase;
 135              		.loc 1 161 7 is_stmt 1 view .LVU41
 136              		.loc 1 161 26 is_stmt 0 view .LVU42
 137 0038 80F84830 		strb	r3, [r0, #72]
 162:MCSDK_v6.1.0-Full/MotorControl/MCSDK/MCLib/Any/Src/revup_ctrl.c **** 
 163:MCSDK_v6.1.0-Full/MotorControl/MCSDK/MCLib/Any/Src/revup_ctrl.c ****       pHandle->bResetPLLTh = (uint8_t)((RUC_OTF_PLL_RESET_TIMEOUT * pHandle->hRUCFrequencyHz) / 100
 138              		.loc 1 163 7 is_stmt 1 view .LVU43
 139              		.loc 1 163 76 is_stmt 0 view .LVU44
 140 003c 0288     		ldrh	r2, [r0]
 141              		.loc 1 163 67 view .LVU45
 142 003e 6423     		movs	r3, #100
 143              	.LVL14:
 144              		.loc 1 163 67 view .LVU46
 145 0040 03FB02F3 		mul	r3, r3, r2
 146              		.loc 1 163 95 view .LVU47
 147 0044 044A     		ldr	r2, .L8
 148 0046 A2FB0323 		umull	r2, r3, r2, r3
 149              		.loc 1 163 30 view .LVU48
 150 004a C3F38713 		ubfx	r3, r3, #6, #8
 151              		.loc 1 163 28 view .LVU49
 152 004e 80F85630 		strb	r3, [r0, #86]
 153              	.LVL15:
 154              	.L2:
 164:MCSDK_v6.1.0-Full/MotorControl/MCSDK/MCLib/Any/Src/revup_ctrl.c ****     }
 165:MCSDK_v6.1.0-Full/MotorControl/MCSDK/MCLib/Any/Src/revup_ctrl.c **** #ifdef NULL_PTR_REV_UP_CTL
 166:MCSDK_v6.1.0-Full/MotorControl/MCSDK/MCLib/Any/Src/revup_ctrl.c ****   }
 167:MCSDK_v6.1.0-Full/MotorControl/MCSDK/MCLib/Any/Src/revup_ctrl.c **** #endif
 168:MCSDK_v6.1.0-Full/MotorControl/MCSDK/MCLib/Any/Src/revup_ctrl.c **** }
 155              		.loc 1 168 1 view .LVU50
 156 0052 5DF8044B 		ldr	r4, [sp], #4
 157              		.cfi_restore 4
 158              		.cfi_def_cfa_offset 0
 159              	.LVL16:
 160              		.loc 1 168 1 view .LVU51
 161 0056 7047     		bx	lr
 162              	.L9:
 163              		.align	2
 164              	.L8:
 165 0058 D34D6210 		.word	274877907
 166              		.cfi_endproc
 167              	.LFE1436:
 169              		.section	.text.RUC_Clear,"ax",%progbits
 170              		.align	1
 171              		.weak	RUC_Clear
 172              		.syntax unified
 173              		.thumb
 174              		.thumb_func
 175              		.fpu fpv4-sp-d16
 177              	RUC_Clear:
 178              	.LVL17:
 179              	.LFB1437:
ARM GAS  /tmp/ccCiLUJR.s 			page 7


 169:MCSDK_v6.1.0-Full/MotorControl/MCSDK/MCLib/Any/Src/revup_ctrl.c **** 
 170:MCSDK_v6.1.0-Full/MotorControl/MCSDK/MCLib/Any/Src/revup_ctrl.c **** /**
 171:MCSDK_v6.1.0-Full/MotorControl/MCSDK/MCLib/Any/Src/revup_ctrl.c ****   * @brief  Initialize internal FOC RevUp controller state.
 172:MCSDK_v6.1.0-Full/MotorControl/MCSDK/MCLib/Any/Src/revup_ctrl.c ****   * @param  pHandle: Pointer on Handle structure of RevUp controller.
 173:MCSDK_v6.1.0-Full/MotorControl/MCSDK/MCLib/Any/Src/revup_ctrl.c ****   * @param  hMotorDirection: Rotor rotation direction.
 174:MCSDK_v6.1.0-Full/MotorControl/MCSDK/MCLib/Any/Src/revup_ctrl.c ****   *         This parameter must be -1 or +1.
 175:MCSDK_v6.1.0-Full/MotorControl/MCSDK/MCLib/Any/Src/revup_ctrl.c ****   */
 176:MCSDK_v6.1.0-Full/MotorControl/MCSDK/MCLib/Any/Src/revup_ctrl.c **** __weak void RUC_Clear(RevUpCtrl_Handle_t *pHandle, int16_t hMotorDirection)
 177:MCSDK_v6.1.0-Full/MotorControl/MCSDK/MCLib/Any/Src/revup_ctrl.c **** {
 180              		.loc 1 177 1 is_stmt 1 view -0
 181              		.cfi_startproc
 182              		@ args = 0, pretend = 0, frame = 0
 183              		@ frame_needed = 0, uses_anonymous_args = 0
 184              		.loc 1 177 1 is_stmt 0 view .LVU53
 185 0000 2DE9F041 		push	{r4, r5, r6, r7, r8, lr}
 186              		.cfi_def_cfa_offset 24
 187              		.cfi_offset 4, -24
 188              		.cfi_offset 5, -20
 189              		.cfi_offset 6, -16
 190              		.cfi_offset 7, -12
 191              		.cfi_offset 8, -8
 192              		.cfi_offset 14, -4
 193 0004 0446     		mov	r4, r0
 194 0006 0D46     		mov	r5, r1
 178:MCSDK_v6.1.0-Full/MotorControl/MCSDK/MCLib/Any/Src/revup_ctrl.c **** #ifdef NULL_PTR_REV_UP_CTL
 179:MCSDK_v6.1.0-Full/MotorControl/MCSDK/MCLib/Any/Src/revup_ctrl.c ****   if (MC_NULL == pHandle)
 180:MCSDK_v6.1.0-Full/MotorControl/MCSDK/MCLib/Any/Src/revup_ctrl.c ****   {
 181:MCSDK_v6.1.0-Full/MotorControl/MCSDK/MCLib/Any/Src/revup_ctrl.c ****     /* Nothing to do */
 182:MCSDK_v6.1.0-Full/MotorControl/MCSDK/MCLib/Any/Src/revup_ctrl.c ****   }
 183:MCSDK_v6.1.0-Full/MotorControl/MCSDK/MCLib/Any/Src/revup_ctrl.c ****   else
 184:MCSDK_v6.1.0-Full/MotorControl/MCSDK/MCLib/Any/Src/revup_ctrl.c ****   {
 185:MCSDK_v6.1.0-Full/MotorControl/MCSDK/MCLib/Any/Src/revup_ctrl.c **** #endif
 186:MCSDK_v6.1.0-Full/MotorControl/MCSDK/MCLib/Any/Src/revup_ctrl.c ****     VirtualSpeedSensor_Handle_t *pVSS = pHandle->pVSS;
 195              		.loc 1 186 5 is_stmt 1 view .LVU54
 196              		.loc 1 186 34 is_stmt 0 view .LVU55
 197 0008 C76E     		ldr	r7, [r0, #108]
 198              	.LVL18:
 187:MCSDK_v6.1.0-Full/MotorControl/MCSDK/MCLib/Any/Src/revup_ctrl.c ****     SpeednTorqCtrl_Handle_t *pSTC = pHandle->pSTC;
 199              		.loc 1 187 5 is_stmt 1 view .LVU56
 200              		.loc 1 187 30 is_stmt 0 view .LVU57
 201 000a D0F86880 		ldr	r8, [r0, #104]
 202              	.LVL19:
 188:MCSDK_v6.1.0-Full/MotorControl/MCSDK/MCLib/Any/Src/revup_ctrl.c ****     RevUpCtrl_PhaseParams_t *pPhaseParams = pHandle->ParamsData;
 203              		.loc 1 188 5 is_stmt 1 view .LVU58
 189:MCSDK_v6.1.0-Full/MotorControl/MCSDK/MCLib/Any/Src/revup_ctrl.c **** 
 190:MCSDK_v6.1.0-Full/MotorControl/MCSDK/MCLib/Any/Src/revup_ctrl.c ****     pHandle->hDirection = hMotorDirection;
 204              		.loc 1 190 5 view .LVU59
 205              		.loc 1 190 25 is_stmt 0 view .LVU60
 206 000e C180     		strh	r1, [r0, #6]	@ movhi
 191:MCSDK_v6.1.0-Full/MotorControl/MCSDK/MCLib/Any/Src/revup_ctrl.c ****     pHandle->EnteredZone1 = false;
 207              		.loc 1 191 5 is_stmt 1 view .LVU61
 208              		.loc 1 191 27 is_stmt 0 view .LVU62
 209 0010 0026     		movs	r6, #0
 210 0012 80F85560 		strb	r6, [r0, #85]
 192:MCSDK_v6.1.0-Full/MotorControl/MCSDK/MCLib/Any/Src/revup_ctrl.c **** 
 193:MCSDK_v6.1.0-Full/MotorControl/MCSDK/MCLib/Any/Src/revup_ctrl.c ****     /*Initializes the rev up stages counter.*/
 194:MCSDK_v6.1.0-Full/MotorControl/MCSDK/MCLib/Any/Src/revup_ctrl.c ****     pHandle->bStageCnt = 0U;
ARM GAS  /tmp/ccCiLUJR.s 			page 8


 211              		.loc 1 194 5 is_stmt 1 view .LVU63
 212              		.loc 1 194 24 is_stmt 0 view .LVU64
 213 0016 80F85860 		strb	r6, [r0, #88]
 195:MCSDK_v6.1.0-Full/MotorControl/MCSDK/MCLib/Any/Src/revup_ctrl.c ****     pHandle->bOTFRelCounter = 0U;
 214              		.loc 1 195 5 is_stmt 1 view .LVU65
 215              		.loc 1 195 29 is_stmt 0 view .LVU66
 216 001a 80F85360 		strb	r6, [r0, #83]
 196:MCSDK_v6.1.0-Full/MotorControl/MCSDK/MCLib/Any/Src/revup_ctrl.c ****     pHandle->OTFSCLowside = false;
 217              		.loc 1 196 5 is_stmt 1 view .LVU67
 218              		.loc 1 196 27 is_stmt 0 view .LVU68
 219 001e 80F85460 		strb	r6, [r0, #84]
 197:MCSDK_v6.1.0-Full/MotorControl/MCSDK/MCLib/Any/Src/revup_ctrl.c **** 
 198:MCSDK_v6.1.0-Full/MotorControl/MCSDK/MCLib/Any/Src/revup_ctrl.c ****     /* Calls the clear method of VSS.*/
 199:MCSDK_v6.1.0-Full/MotorControl/MCSDK/MCLib/Any/Src/revup_ctrl.c ****     VSS_Clear(pVSS);
 220              		.loc 1 199 5 is_stmt 1 view .LVU69
 221 0022 3846     		mov	r0, r7
 222              	.LVL20:
 223              		.loc 1 199 5 is_stmt 0 view .LVU70
 224 0024 FFF7FEFF 		bl	VSS_Clear
 225              	.LVL21:
 200:MCSDK_v6.1.0-Full/MotorControl/MCSDK/MCLib/Any/Src/revup_ctrl.c **** 
 201:MCSDK_v6.1.0-Full/MotorControl/MCSDK/MCLib/Any/Src/revup_ctrl.c ****     /* Sets the STC in torque mode.*/
 202:MCSDK_v6.1.0-Full/MotorControl/MCSDK/MCLib/Any/Src/revup_ctrl.c ****     STC_SetControlMode(pSTC, MCM_TORQUE_MODE);
 226              		.loc 1 202 5 is_stmt 1 view .LVU71
 227 0028 0421     		movs	r1, #4
 228 002a 4046     		mov	r0, r8
 229 002c FFF7FEFF 		bl	STC_SetControlMode
 230              	.LVL22:
 203:MCSDK_v6.1.0-Full/MotorControl/MCSDK/MCLib/Any/Src/revup_ctrl.c **** 
 204:MCSDK_v6.1.0-Full/MotorControl/MCSDK/MCLib/Any/Src/revup_ctrl.c ****     /* Sets the mechanical starting angle of VSS.*/
 205:MCSDK_v6.1.0-Full/MotorControl/MCSDK/MCLib/Any/Src/revup_ctrl.c ****     VSS_SetMecAngle(pVSS, pHandle->hStartingMecAngle * hMotorDirection);
 231              		.loc 1 205 5 view .LVU72
 232              		.loc 1 205 34 is_stmt 0 view .LVU73
 233 0030 6188     		ldrh	r1, [r4, #2]
 234              		.loc 1 205 54 view .LVU74
 235 0032 ADB2     		uxth	r5, r5
 236 0034 11FB05F1 		smulbb	r1, r1, r5
 237              		.loc 1 205 5 view .LVU75
 238 0038 09B2     		sxth	r1, r1
 239 003a 3846     		mov	r0, r7
 240 003c FFF7FEFF 		bl	VSS_SetMecAngle
 241              	.LVL23:
 206:MCSDK_v6.1.0-Full/MotorControl/MCSDK/MCLib/Any/Src/revup_ctrl.c **** 
 207:MCSDK_v6.1.0-Full/MotorControl/MCSDK/MCLib/Any/Src/revup_ctrl.c ****     /* Sets to zero the starting torque of STC */
 208:MCSDK_v6.1.0-Full/MotorControl/MCSDK/MCLib/Any/Src/revup_ctrl.c ****     (void)STC_ExecRamp(pSTC, 0, 0U);
 242              		.loc 1 208 5 is_stmt 1 view .LVU76
 243              		.loc 1 208 11 is_stmt 0 view .LVU77
 244 0040 3246     		mov	r2, r6
 245 0042 3146     		mov	r1, r6
 246 0044 4046     		mov	r0, r8
 247 0046 FFF7FEFF 		bl	STC_ExecRamp
 248              	.LVL24:
 209:MCSDK_v6.1.0-Full/MotorControl/MCSDK/MCLib/Any/Src/revup_ctrl.c **** 
 210:MCSDK_v6.1.0-Full/MotorControl/MCSDK/MCLib/Any/Src/revup_ctrl.c ****     /* Gives the first command to STC and VSS.*/
 211:MCSDK_v6.1.0-Full/MotorControl/MCSDK/MCLib/Any/Src/revup_ctrl.c ****     (void)STC_ExecRamp(pSTC, pPhaseParams->hFinalTorque * hMotorDirection, (uint32_t)(pPhaseParams-
 249              		.loc 1 211 5 is_stmt 1 view .LVU78
 250              		.loc 1 211 42 is_stmt 0 view .LVU79
ARM GAS  /tmp/ccCiLUJR.s 			page 9


 251 004a 218A     		ldrh	r1, [r4, #16]
 252              		.loc 1 211 57 view .LVU80
 253 004c 15FB01F1 		smulbb	r1, r5, r1
 254              		.loc 1 211 11 view .LVU81
 255 0050 A289     		ldrh	r2, [r4, #12]
 256 0052 09B2     		sxth	r1, r1
 257 0054 4046     		mov	r0, r8
 258 0056 FFF7FEFF 		bl	STC_ExecRamp
 259              	.LVL25:
 212:MCSDK_v6.1.0-Full/MotorControl/MCSDK/MCLib/Any/Src/revup_ctrl.c **** 
 213:MCSDK_v6.1.0-Full/MotorControl/MCSDK/MCLib/Any/Src/revup_ctrl.c ****     VSS_SetMecAcceleration(pVSS, pPhaseParams->hFinalMecSpeedUnit * hMotorDirection, pPhaseParams->
 260              		.loc 1 213 5 is_stmt 1 view .LVU82
 261              		.loc 1 213 46 is_stmt 0 view .LVU83
 262 005a E189     		ldrh	r1, [r4, #14]
 263              		.loc 1 213 67 view .LVU84
 264 005c 15FB01F1 		smulbb	r1, r5, r1
 265              		.loc 1 213 5 view .LVU85
 266 0060 A289     		ldrh	r2, [r4, #12]
 267 0062 09B2     		sxth	r1, r1
 268 0064 3846     		mov	r0, r7
 269 0066 FFF7FEFF 		bl	VSS_SetMecAcceleration
 270              	.LVL26:
 214:MCSDK_v6.1.0-Full/MotorControl/MCSDK/MCLib/Any/Src/revup_ctrl.c **** 
 215:MCSDK_v6.1.0-Full/MotorControl/MCSDK/MCLib/Any/Src/revup_ctrl.c ****     /* Compute hPhaseRemainingTicks.*/
 216:MCSDK_v6.1.0-Full/MotorControl/MCSDK/MCLib/Any/Src/revup_ctrl.c ****     pHandle->hPhaseRemainingTicks = (uint16_t)((((uint32_t)pPhaseParams->hDurationms)
 271              		.loc 1 216 5 is_stmt 1 view .LVU86
 272              		.loc 1 216 72 is_stmt 0 view .LVU87
 273 006a A289     		ldrh	r2, [r4, #12]
 217:MCSDK_v6.1.0-Full/MotorControl/MCSDK/MCLib/Any/Src/revup_ctrl.c ****                                               * ((uint32_t)pHandle->hRUCFrequencyHz))
 274              		.loc 1 217 67 view .LVU88
 275 006c 2388     		ldrh	r3, [r4]
 276              		.loc 1 217 47 view .LVU89
 277 006e 03FB02F3 		mul	r3, r3, r2
 218:MCSDK_v6.1.0-Full/MotorControl/MCSDK/MCLib/Any/Src/revup_ctrl.c ****                                               / 1000U );
 278              		.loc 1 218 47 view .LVU90
 279 0072 064A     		ldr	r2, .L12
 280 0074 A2FB0323 		umull	r2, r3, r2, r3
 216:MCSDK_v6.1.0-Full/MotorControl/MCSDK/MCLib/Any/Src/revup_ctrl.c ****                                               * ((uint32_t)pHandle->hRUCFrequencyHz))
 281              		.loc 1 216 37 view .LVU91
 282 0078 C3F38F13 		ubfx	r3, r3, #6, #16
 219:MCSDK_v6.1.0-Full/MotorControl/MCSDK/MCLib/Any/Src/revup_ctrl.c **** 
 220:MCSDK_v6.1.0-Full/MotorControl/MCSDK/MCLib/Any/Src/revup_ctrl.c ****     pHandle->hPhaseRemainingTicks++;
 283              		.loc 1 220 5 is_stmt 1 view .LVU92
 284              		.loc 1 220 34 is_stmt 0 view .LVU93
 285 007c 0133     		adds	r3, r3, #1
 286 007e A380     		strh	r3, [r4, #4]	@ movhi
 221:MCSDK_v6.1.0-Full/MotorControl/MCSDK/MCLib/Any/Src/revup_ctrl.c **** 
 222:MCSDK_v6.1.0-Full/MotorControl/MCSDK/MCLib/Any/Src/revup_ctrl.c ****     /*Set the next phases parameter pointer.*/
 223:MCSDK_v6.1.0-Full/MotorControl/MCSDK/MCLib/Any/Src/revup_ctrl.c ****     pHandle->pCurrentPhaseParams = (RevUpCtrl_PhaseParams_t *)pPhaseParams->pNext;  //cstat !MISRAC
 287              		.loc 1 223 5 is_stmt 1 view .LVU94
 288              		.loc 1 223 75 is_stmt 0 view .LVU95
 289 0080 6369     		ldr	r3, [r4, #20]
 290              		.loc 1 223 34 view .LVU96
 291 0082 A360     		str	r3, [r4, #8]
 224:MCSDK_v6.1.0-Full/MotorControl/MCSDK/MCLib/Any/Src/revup_ctrl.c **** 
 225:MCSDK_v6.1.0-Full/MotorControl/MCSDK/MCLib/Any/Src/revup_ctrl.c ****     /*Timeout counter for PLL reset during OTF.*/
 226:MCSDK_v6.1.0-Full/MotorControl/MCSDK/MCLib/Any/Src/revup_ctrl.c ****     pHandle->bResetPLLCnt = 0U;
ARM GAS  /tmp/ccCiLUJR.s 			page 10


 292              		.loc 1 226 5 is_stmt 1 view .LVU97
 293              		.loc 1 226 27 is_stmt 0 view .LVU98
 294 0084 84F85760 		strb	r6, [r4, #87]
 227:MCSDK_v6.1.0-Full/MotorControl/MCSDK/MCLib/Any/Src/revup_ctrl.c **** #ifdef NULL_PTR_REV_UP_CTL
 228:MCSDK_v6.1.0-Full/MotorControl/MCSDK/MCLib/Any/Src/revup_ctrl.c ****   }
 229:MCSDK_v6.1.0-Full/MotorControl/MCSDK/MCLib/Any/Src/revup_ctrl.c **** #endif
 230:MCSDK_v6.1.0-Full/MotorControl/MCSDK/MCLib/Any/Src/revup_ctrl.c **** }
 295              		.loc 1 230 1 view .LVU99
 296 0088 BDE8F081 		pop	{r4, r5, r6, r7, r8, pc}
 297              	.LVL27:
 298              	.L13:
 299              		.loc 1 230 1 view .LVU100
 300              		.align	2
 301              	.L12:
 302 008c D34D6210 		.word	274877907
 303              		.cfi_endproc
 304              	.LFE1437:
 306              		.section	.text.RUC_OTF_Exec,"ax",%progbits
 307              		.align	1
 308              		.weak	RUC_OTF_Exec
 309              		.syntax unified
 310              		.thumb
 311              		.thumb_func
 312              		.fpu fpv4-sp-d16
 314              	RUC_OTF_Exec:
 315              	.LVL28:
 316              	.LFB1438:
 231:MCSDK_v6.1.0-Full/MotorControl/MCSDK/MCLib/Any/Src/revup_ctrl.c **** 
 232:MCSDK_v6.1.0-Full/MotorControl/MCSDK/MCLib/Any/Src/revup_ctrl.c **** /**
 233:MCSDK_v6.1.0-Full/MotorControl/MCSDK/MCLib/Any/Src/revup_ctrl.c ****   * @brief  FOC Main Rev-Up controller procedure executing overall programmed phases and
 234:MCSDK_v6.1.0-Full/MotorControl/MCSDK/MCLib/Any/Src/revup_ctrl.c ****   *         on-the-fly startup handling.
 235:MCSDK_v6.1.0-Full/MotorControl/MCSDK/MCLib/Any/Src/revup_ctrl.c ****   * @param  pHandle: Pointer on Handle structure of RevUp controller.
 236:MCSDK_v6.1.0-Full/MotorControl/MCSDK/MCLib/Any/Src/revup_ctrl.c ****   *  @retval Boolean set to false when entire Rev-Up phases have been completed.
 237:MCSDK_v6.1.0-Full/MotorControl/MCSDK/MCLib/Any/Src/revup_ctrl.c ****   */
 238:MCSDK_v6.1.0-Full/MotorControl/MCSDK/MCLib/Any/Src/revup_ctrl.c **** __weak bool RUC_OTF_Exec(RevUpCtrl_Handle_t *pHandle)
 239:MCSDK_v6.1.0-Full/MotorControl/MCSDK/MCLib/Any/Src/revup_ctrl.c **** {
 317              		.loc 1 239 1 is_stmt 1 view -0
 318              		.cfi_startproc
 319              		@ args = 0, pretend = 0, frame = 0
 320              		@ frame_needed = 0, uses_anonymous_args = 0
 321              		.loc 1 239 1 is_stmt 0 view .LVU102
 322 0000 F8B5     		push	{r3, r4, r5, r6, r7, lr}
 323              		.cfi_def_cfa_offset 24
 324              		.cfi_offset 3, -24
 325              		.cfi_offset 4, -20
 326              		.cfi_offset 5, -16
 327              		.cfi_offset 6, -12
 328              		.cfi_offset 7, -8
 329              		.cfi_offset 14, -4
 330 0002 0446     		mov	r4, r0
 240:MCSDK_v6.1.0-Full/MotorControl/MCSDK/MCLib/Any/Src/revup_ctrl.c ****   bool retVal = true;
 331              		.loc 1 240 3 is_stmt 1 view .LVU103
 332              	.LVL29:
 241:MCSDK_v6.1.0-Full/MotorControl/MCSDK/MCLib/Any/Src/revup_ctrl.c **** #ifdef NULL_PTR_REV_UP_CTL
 242:MCSDK_v6.1.0-Full/MotorControl/MCSDK/MCLib/Any/Src/revup_ctrl.c ****   if (MC_NULL == pHandle)
 243:MCSDK_v6.1.0-Full/MotorControl/MCSDK/MCLib/Any/Src/revup_ctrl.c ****   {
 244:MCSDK_v6.1.0-Full/MotorControl/MCSDK/MCLib/Any/Src/revup_ctrl.c ****     /* Nothing to do */
ARM GAS  /tmp/ccCiLUJR.s 			page 11


 245:MCSDK_v6.1.0-Full/MotorControl/MCSDK/MCLib/Any/Src/revup_ctrl.c ****   }
 246:MCSDK_v6.1.0-Full/MotorControl/MCSDK/MCLib/Any/Src/revup_ctrl.c ****   else
 247:MCSDK_v6.1.0-Full/MotorControl/MCSDK/MCLib/Any/Src/revup_ctrl.c ****   {
 248:MCSDK_v6.1.0-Full/MotorControl/MCSDK/MCLib/Any/Src/revup_ctrl.c **** #endif
 249:MCSDK_v6.1.0-Full/MotorControl/MCSDK/MCLib/Any/Src/revup_ctrl.c ****     bool IsSpeedReliable;
 333              		.loc 1 249 5 view .LVU104
 250:MCSDK_v6.1.0-Full/MotorControl/MCSDK/MCLib/Any/Src/revup_ctrl.c ****     bool condition = false;
 334              		.loc 1 250 5 view .LVU105
 251:MCSDK_v6.1.0-Full/MotorControl/MCSDK/MCLib/Any/Src/revup_ctrl.c **** 
 252:MCSDK_v6.1.0-Full/MotorControl/MCSDK/MCLib/Any/Src/revup_ctrl.c ****     if (pHandle->hPhaseRemainingTicks > 0u)
 335              		.loc 1 252 5 view .LVU106
 336              		.loc 1 252 16 is_stmt 0 view .LVU107
 337 0004 8388     		ldrh	r3, [r0, #4]
 338              		.loc 1 252 8 view .LVU108
 339 0006 002B     		cmp	r3, #0
 340 0008 00F0AC80 		beq	.L15
 253:MCSDK_v6.1.0-Full/MotorControl/MCSDK/MCLib/Any/Src/revup_ctrl.c ****     {
 254:MCSDK_v6.1.0-Full/MotorControl/MCSDK/MCLib/Any/Src/revup_ctrl.c ****       /* Decrease the hPhaseRemainingTicks.*/
 255:MCSDK_v6.1.0-Full/MotorControl/MCSDK/MCLib/Any/Src/revup_ctrl.c ****       pHandle->hPhaseRemainingTicks--;
 341              		.loc 1 255 7 is_stmt 1 view .LVU109
 342              		.loc 1 255 36 is_stmt 0 view .LVU110
 343 000c 013B     		subs	r3, r3, #1
 344 000e 8380     		strh	r3, [r0, #4]	@ movhi
 256:MCSDK_v6.1.0-Full/MotorControl/MCSDK/MCLib/Any/Src/revup_ctrl.c **** 
 257:MCSDK_v6.1.0-Full/MotorControl/MCSDK/MCLib/Any/Src/revup_ctrl.c ****       /* OTF start-up */
 258:MCSDK_v6.1.0-Full/MotorControl/MCSDK/MCLib/Any/Src/revup_ctrl.c ****       if (0U == pHandle->bStageCnt)
 345              		.loc 1 258 7 is_stmt 1 view .LVU111
 346              		.loc 1 258 24 is_stmt 0 view .LVU112
 347 0010 90F85830 		ldrb	r3, [r0, #88]	@ zero_extendqisi2
 348              		.loc 1 258 10 view .LVU113
 349 0014 002B     		cmp	r3, #0
 350 0016 40F0A580 		bne	.L15
 259:MCSDK_v6.1.0-Full/MotorControl/MCSDK/MCLib/Any/Src/revup_ctrl.c ****       {
 260:MCSDK_v6.1.0-Full/MotorControl/MCSDK/MCLib/Any/Src/revup_ctrl.c ****         if (false ==  pHandle->EnteredZone1)
 351              		.loc 1 260 9 is_stmt 1 view .LVU114
 352              		.loc 1 260 30 is_stmt 0 view .LVU115
 353 001a 90F85550 		ldrb	r5, [r0, #85]	@ zero_extendqisi2
 354              		.loc 1 260 12 view .LVU116
 355 001e 002D     		cmp	r5, #0
 356 0020 40F09D80 		bne	.L16
 261:MCSDK_v6.1.0-Full/MotorControl/MCSDK/MCLib/Any/Src/revup_ctrl.c ****         {
 262:MCSDK_v6.1.0-Full/MotorControl/MCSDK/MCLib/Any/Src/revup_ctrl.c ****           if (pHandle->pSNSL->pFctStoOtfResetPLL != MC_NULL)
 357              		.loc 1 262 11 is_stmt 1 view .LVU117
 358              		.loc 1 262 22 is_stmt 0 view .LVU118
 359 0024 006F     		ldr	r0, [r0, #112]
 360              	.LVL30:
 361              		.loc 1 262 29 view .LVU119
 362 0026 C368     		ldr	r3, [r0, #12]
 363              		.loc 1 262 14 view .LVU120
 364 0028 83B1     		cbz	r3, .L17
 263:MCSDK_v6.1.0-Full/MotorControl/MCSDK/MCLib/Any/Src/revup_ctrl.c ****           {
 264:MCSDK_v6.1.0-Full/MotorControl/MCSDK/MCLib/Any/Src/revup_ctrl.c ****             pHandle->bResetPLLCnt++;
 365              		.loc 1 264 13 is_stmt 1 view .LVU121
 366              		.loc 1 264 20 is_stmt 0 view .LVU122
 367 002a 94F85730 		ldrb	r3, [r4, #87]	@ zero_extendqisi2
 368              		.loc 1 264 34 view .LVU123
 369 002e 0133     		adds	r3, r3, #1
ARM GAS  /tmp/ccCiLUJR.s 			page 12


 370 0030 DBB2     		uxtb	r3, r3
 371 0032 84F85730 		strb	r3, [r4, #87]
 265:MCSDK_v6.1.0-Full/MotorControl/MCSDK/MCLib/Any/Src/revup_ctrl.c ****             if (pHandle->bResetPLLCnt > pHandle->bResetPLLTh)
 372              		.loc 1 265 13 is_stmt 1 view .LVU124
 373              		.loc 1 265 48 is_stmt 0 view .LVU125
 374 0036 94F85620 		ldrb	r2, [r4, #86]	@ zero_extendqisi2
 375              		.loc 1 265 16 view .LVU126
 376 003a 9342     		cmp	r3, r2
 377 003c 06D9     		bls	.L17
 266:MCSDK_v6.1.0-Full/MotorControl/MCSDK/MCLib/Any/Src/revup_ctrl.c ****             {
 267:MCSDK_v6.1.0-Full/MotorControl/MCSDK/MCLib/Any/Src/revup_ctrl.c ****               pHandle->pSNSL->pFctStoOtfResetPLL(pHandle->pSNSL);
 378              		.loc 1 267 15 is_stmt 1 view .LVU127
 379              		.loc 1 267 29 is_stmt 0 view .LVU128
 380 003e C368     		ldr	r3, [r0, #12]
 381              		.loc 1 267 15 view .LVU129
 382 0040 9847     		blx	r3
 383              	.LVL31:
 268:MCSDK_v6.1.0-Full/MotorControl/MCSDK/MCLib/Any/Src/revup_ctrl.c ****               pHandle->bOTFRelCounter = 0U;
 384              		.loc 1 268 15 is_stmt 1 view .LVU130
 385              		.loc 1 268 39 is_stmt 0 view .LVU131
 386 0042 0023     		movs	r3, #0
 387 0044 84F85330 		strb	r3, [r4, #83]
 269:MCSDK_v6.1.0-Full/MotorControl/MCSDK/MCLib/Any/Src/revup_ctrl.c ****               pHandle->bResetPLLCnt = 0U;
 388              		.loc 1 269 15 is_stmt 1 view .LVU132
 389              		.loc 1 269 37 is_stmt 0 view .LVU133
 390 0048 84F85730 		strb	r3, [r4, #87]
 391              	.L17:
 270:MCSDK_v6.1.0-Full/MotorControl/MCSDK/MCLib/Any/Src/revup_ctrl.c ****             }
 271:MCSDK_v6.1.0-Full/MotorControl/MCSDK/MCLib/Any/Src/revup_ctrl.c ****           }
 272:MCSDK_v6.1.0-Full/MotorControl/MCSDK/MCLib/Any/Src/revup_ctrl.c **** 
 273:MCSDK_v6.1.0-Full/MotorControl/MCSDK/MCLib/Any/Src/revup_ctrl.c ****           IsSpeedReliable = pHandle->pSNSL->pFctSTO_SpeedReliabilityCheck(pHandle->pSNSL);
 392              		.loc 1 273 11 is_stmt 1 view .LVU134
 393              		.loc 1 273 36 is_stmt 0 view .LVU135
 394 004c 206F     		ldr	r0, [r4, #112]
 395              		.loc 1 273 43 view .LVU136
 396 004e 0369     		ldr	r3, [r0, #16]
 397              		.loc 1 273 29 view .LVU137
 398 0050 9847     		blx	r3
 399              	.LVL32:
 274:MCSDK_v6.1.0-Full/MotorControl/MCSDK/MCLib/Any/Src/revup_ctrl.c **** 
 275:MCSDK_v6.1.0-Full/MotorControl/MCSDK/MCLib/Any/Src/revup_ctrl.c ****           if (IsSpeedReliable)
 400              		.loc 1 275 11 is_stmt 1 view .LVU138
 401              		.loc 1 275 14 is_stmt 0 view .LVU139
 402 0052 38B1     		cbz	r0, .L18
 276:MCSDK_v6.1.0-Full/MotorControl/MCSDK/MCLib/Any/Src/revup_ctrl.c ****           {
 277:MCSDK_v6.1.0-Full/MotorControl/MCSDK/MCLib/Any/Src/revup_ctrl.c ****             if (pHandle->bOTFRelCounter < 127U)
 403              		.loc 1 277 13 is_stmt 1 view .LVU140
 404              		.loc 1 277 24 is_stmt 0 view .LVU141
 405 0054 94F85330 		ldrb	r3, [r4, #83]	@ zero_extendqisi2
 406              		.loc 1 277 16 view .LVU142
 407 0058 7E2B     		cmp	r3, #126
 408 005a 06D8     		bhi	.L19
 278:MCSDK_v6.1.0-Full/MotorControl/MCSDK/MCLib/Any/Src/revup_ctrl.c ****             {
 279:MCSDK_v6.1.0-Full/MotorControl/MCSDK/MCLib/Any/Src/revup_ctrl.c ****               pHandle->bOTFRelCounter++;
 409              		.loc 1 279 15 is_stmt 1 view .LVU143
 410              		.loc 1 279 38 is_stmt 0 view .LVU144
 411 005c 0133     		adds	r3, r3, #1
ARM GAS  /tmp/ccCiLUJR.s 			page 13


 412 005e 84F85330 		strb	r3, [r4, #83]
 413 0062 02E0     		b	.L19
 414              	.L18:
 280:MCSDK_v6.1.0-Full/MotorControl/MCSDK/MCLib/Any/Src/revup_ctrl.c ****             }
 281:MCSDK_v6.1.0-Full/MotorControl/MCSDK/MCLib/Any/Src/revup_ctrl.c ****           }
 282:MCSDK_v6.1.0-Full/MotorControl/MCSDK/MCLib/Any/Src/revup_ctrl.c ****           else
 283:MCSDK_v6.1.0-Full/MotorControl/MCSDK/MCLib/Any/Src/revup_ctrl.c ****           {
 284:MCSDK_v6.1.0-Full/MotorControl/MCSDK/MCLib/Any/Src/revup_ctrl.c ****             pHandle->bOTFRelCounter = 0U;
 415              		.loc 1 284 13 is_stmt 1 view .LVU145
 416              		.loc 1 284 37 is_stmt 0 view .LVU146
 417 0064 0023     		movs	r3, #0
 418 0066 84F85330 		strb	r3, [r4, #83]
 419              	.L19:
 285:MCSDK_v6.1.0-Full/MotorControl/MCSDK/MCLib/Any/Src/revup_ctrl.c ****           }
 286:MCSDK_v6.1.0-Full/MotorControl/MCSDK/MCLib/Any/Src/revup_ctrl.c **** 
 287:MCSDK_v6.1.0-Full/MotorControl/MCSDK/MCLib/Any/Src/revup_ctrl.c ****           if (pHandle->pSNSL->pFctStoOtfResetPLL != MC_NULL)
 420              		.loc 1 287 11 is_stmt 1 view .LVU147
 421              		.loc 1 287 22 is_stmt 0 view .LVU148
 422 006a 236F     		ldr	r3, [r4, #112]
 423              		.loc 1 287 29 view .LVU149
 424 006c DA68     		ldr	r2, [r3, #12]
 425              		.loc 1 287 14 view .LVU150
 426 006e 0AB3     		cbz	r2, .L20
 288:MCSDK_v6.1.0-Full/MotorControl/MCSDK/MCLib/Any/Src/revup_ctrl.c ****           {
 289:MCSDK_v6.1.0-Full/MotorControl/MCSDK/MCLib/Any/Src/revup_ctrl.c ****             if (pHandle->bOTFRelCounter == (pHandle->bResetPLLTh >> 1))
 427              		.loc 1 289 13 is_stmt 1 view .LVU151
 428              		.loc 1 289 24 is_stmt 0 view .LVU152
 429 0070 94F85320 		ldrb	r2, [r4, #83]	@ zero_extendqisi2
 430              		.loc 1 289 52 view .LVU153
 431 0074 94F85610 		ldrb	r1, [r4, #86]	@ zero_extendqisi2
 432              		.loc 1 289 16 view .LVU154
 433 0078 B2EB510F 		cmp	r2, r1, lsr #1
 434 007c 72D1     		bne	.L15
 435              	.L21:
 436              	.LVL33:
 437              	.LBB2:
 290:MCSDK_v6.1.0-Full/MotorControl/MCSDK/MCLib/Any/Src/revup_ctrl.c ****             {
 291:MCSDK_v6.1.0-Full/MotorControl/MCSDK/MCLib/Any/Src/revup_ctrl.c ****               condition = true;
 292:MCSDK_v6.1.0-Full/MotorControl/MCSDK/MCLib/Any/Src/revup_ctrl.c ****             }
 293:MCSDK_v6.1.0-Full/MotorControl/MCSDK/MCLib/Any/Src/revup_ctrl.c ****           }
 294:MCSDK_v6.1.0-Full/MotorControl/MCSDK/MCLib/Any/Src/revup_ctrl.c ****           else
 295:MCSDK_v6.1.0-Full/MotorControl/MCSDK/MCLib/Any/Src/revup_ctrl.c ****           {
 296:MCSDK_v6.1.0-Full/MotorControl/MCSDK/MCLib/Any/Src/revup_ctrl.c ****             if (127U == pHandle->bOTFRelCounter)
 297:MCSDK_v6.1.0-Full/MotorControl/MCSDK/MCLib/Any/Src/revup_ctrl.c ****             {
 298:MCSDK_v6.1.0-Full/MotorControl/MCSDK/MCLib/Any/Src/revup_ctrl.c ****               condition = true;
 299:MCSDK_v6.1.0-Full/MotorControl/MCSDK/MCLib/Any/Src/revup_ctrl.c ****             }
 300:MCSDK_v6.1.0-Full/MotorControl/MCSDK/MCLib/Any/Src/revup_ctrl.c ****           }
 301:MCSDK_v6.1.0-Full/MotorControl/MCSDK/MCLib/Any/Src/revup_ctrl.c **** 
 302:MCSDK_v6.1.0-Full/MotorControl/MCSDK/MCLib/Any/Src/revup_ctrl.c ****           if (true == condition)
 303:MCSDK_v6.1.0-Full/MotorControl/MCSDK/MCLib/Any/Src/revup_ctrl.c ****           {
 304:MCSDK_v6.1.0-Full/MotorControl/MCSDK/MCLib/Any/Src/revup_ctrl.c ****             bool bCollinearSpeed = false;
 438              		.loc 1 304 13 is_stmt 1 view .LVU155
 305:MCSDK_v6.1.0-Full/MotorControl/MCSDK/MCLib/Any/Src/revup_ctrl.c ****             int16_t hObsSpeedUnit = SPD_GetAvrgMecSpeedUnit(pHandle->pSNSL->_Super);
 439              		.loc 1 305 13 view .LVU156
 440              		.loc 1 305 37 is_stmt 0 view .LVU157
 441 007e 1868     		ldr	r0, [r3]
 442              	.LVL34:
ARM GAS  /tmp/ccCiLUJR.s 			page 14


 443              		.loc 1 305 37 view .LVU158
 444 0080 FFF7FEFF 		bl	SPD_GetAvrgMecSpeedUnit
 445              	.LVL35:
 446 0084 0646     		mov	r6, r0
 447              	.LVL36:
 306:MCSDK_v6.1.0-Full/MotorControl/MCSDK/MCLib/Any/Src/revup_ctrl.c ****             int16_t hObsSpeedUnitAbsValue =
 448              		.loc 1 306 13 is_stmt 1 view .LVU159
 307:MCSDK_v6.1.0-Full/MotorControl/MCSDK/MCLib/Any/Src/revup_ctrl.c ****                     ((hObsSpeedUnit < 0) ? (-hObsSpeedUnit) : (hObsSpeedUnit)); /* hObsSpeedUnit ab
 449              		.loc 1 307 61 is_stmt 0 view .LVU160
 450 0086 80EAE073 		eor	r3, r0, r0, asr #31
 451 008a A3EBE073 		sub	r3, r3, r0, asr #31
 452 008e 9AB2     		uxth	r2, r3
 306:MCSDK_v6.1.0-Full/MotorControl/MCSDK/MCLib/Any/Src/revup_ctrl.c ****             int16_t hObsSpeedUnitAbsValue =
 453              		.loc 1 306 21 view .LVU161
 454 0090 1FB2     		sxth	r7, r3
 455              	.LVL37:
 308:MCSDK_v6.1.0-Full/MotorControl/MCSDK/MCLib/Any/Src/revup_ctrl.c **** 
 309:MCSDK_v6.1.0-Full/MotorControl/MCSDK/MCLib/Any/Src/revup_ctrl.c ****             if (pHandle->hDirection > 0)
 456              		.loc 1 309 13 is_stmt 1 view .LVU162
 457              		.loc 1 309 24 is_stmt 0 view .LVU163
 458 0092 B4F90630 		ldrsh	r3, [r4, #6]
 459              		.loc 1 309 16 view .LVU164
 460 0096 002B     		cmp	r3, #0
 461 0098 11DD     		ble	.L22
 310:MCSDK_v6.1.0-Full/MotorControl/MCSDK/MCLib/Any/Src/revup_ctrl.c ****             {
 311:MCSDK_v6.1.0-Full/MotorControl/MCSDK/MCLib/Any/Src/revup_ctrl.c ****               if (hObsSpeedUnit > 0)
 462              		.loc 1 311 15 is_stmt 1 view .LVU165
 463              		.loc 1 311 18 is_stmt 0 view .LVU166
 464 009a 0028     		cmp	r0, #0
 465 009c 11DD     		ble	.L24
 466              	.L23:
 467              	.LVL38:
 312:MCSDK_v6.1.0-Full/MotorControl/MCSDK/MCLib/Any/Src/revup_ctrl.c ****               {
 313:MCSDK_v6.1.0-Full/MotorControl/MCSDK/MCLib/Any/Src/revup_ctrl.c ****                 bCollinearSpeed = true; /* actual and reference speed are collinear*/
 314:MCSDK_v6.1.0-Full/MotorControl/MCSDK/MCLib/Any/Src/revup_ctrl.c ****               }
 315:MCSDK_v6.1.0-Full/MotorControl/MCSDK/MCLib/Any/Src/revup_ctrl.c ****             }
 316:MCSDK_v6.1.0-Full/MotorControl/MCSDK/MCLib/Any/Src/revup_ctrl.c ****             else
 317:MCSDK_v6.1.0-Full/MotorControl/MCSDK/MCLib/Any/Src/revup_ctrl.c ****             {
 318:MCSDK_v6.1.0-Full/MotorControl/MCSDK/MCLib/Any/Src/revup_ctrl.c ****               if (hObsSpeedUnit < 0)
 319:MCSDK_v6.1.0-Full/MotorControl/MCSDK/MCLib/Any/Src/revup_ctrl.c ****               {
 320:MCSDK_v6.1.0-Full/MotorControl/MCSDK/MCLib/Any/Src/revup_ctrl.c ****                 bCollinearSpeed = true; /* actual and reference speed are collinear*/
 321:MCSDK_v6.1.0-Full/MotorControl/MCSDK/MCLib/Any/Src/revup_ctrl.c ****               }
 322:MCSDK_v6.1.0-Full/MotorControl/MCSDK/MCLib/Any/Src/revup_ctrl.c ****             }
 323:MCSDK_v6.1.0-Full/MotorControl/MCSDK/MCLib/Any/Src/revup_ctrl.c **** 
 324:MCSDK_v6.1.0-Full/MotorControl/MCSDK/MCLib/Any/Src/revup_ctrl.c ****             if (false == bCollinearSpeed)
 325:MCSDK_v6.1.0-Full/MotorControl/MCSDK/MCLib/Any/Src/revup_ctrl.c ****             {
 326:MCSDK_v6.1.0-Full/MotorControl/MCSDK/MCLib/Any/Src/revup_ctrl.c ****               /*reverse speed management*/
 327:MCSDK_v6.1.0-Full/MotorControl/MCSDK/MCLib/Any/Src/revup_ctrl.c ****               pHandle->bOTFRelCounter = 0U;
 328:MCSDK_v6.1.0-Full/MotorControl/MCSDK/MCLib/Any/Src/revup_ctrl.c ****             }
 329:MCSDK_v6.1.0-Full/MotorControl/MCSDK/MCLib/Any/Src/revup_ctrl.c ****             else /*speeds are collinear*/
 330:MCSDK_v6.1.0-Full/MotorControl/MCSDK/MCLib/Any/Src/revup_ctrl.c ****             {
 331:MCSDK_v6.1.0-Full/MotorControl/MCSDK/MCLib/Any/Src/revup_ctrl.c ****               if ((uint16_t)(hObsSpeedUnitAbsValue) > pHandle->hMinStartUpValidSpeed)
 468              		.loc 1 331 15 is_stmt 1 view .LVU167
 469              		.loc 1 331 62 is_stmt 0 view .LVU168
 470 009e B4F84A30 		ldrh	r3, [r4, #74]
 471              		.loc 1 331 18 view .LVU169
 472 00a2 9A42     		cmp	r2, r3
ARM GAS  /tmp/ccCiLUJR.s 			page 15


 473 00a4 11D9     		bls	.L25
 332:MCSDK_v6.1.0-Full/MotorControl/MCSDK/MCLib/Any/Src/revup_ctrl.c ****               {
 333:MCSDK_v6.1.0-Full/MotorControl/MCSDK/MCLib/Any/Src/revup_ctrl.c ****                 /* startup end, go to run */
 334:MCSDK_v6.1.0-Full/MotorControl/MCSDK/MCLib/Any/Src/revup_ctrl.c ****                 pHandle->pSNSL->pFctForceConvergency1(pHandle->pSNSL);
 474              		.loc 1 334 17 is_stmt 1 view .LVU170
 475              		.loc 1 334 24 is_stmt 0 view .LVU171
 476 00a6 206F     		ldr	r0, [r4, #112]
 477              	.LVL39:
 478              		.loc 1 334 31 view .LVU172
 479 00a8 4368     		ldr	r3, [r0, #4]
 480              		.loc 1 334 17 view .LVU173
 481 00aa 9847     		blx	r3
 482              	.LVL40:
 335:MCSDK_v6.1.0-Full/MotorControl/MCSDK/MCLib/Any/Src/revup_ctrl.c ****                 pHandle->EnteredZone1 = true;
 483              		.loc 1 335 17 is_stmt 1 view .LVU174
 484              		.loc 1 335 39 is_stmt 0 view .LVU175
 485 00ac 0123     		movs	r3, #1
 486 00ae 84F85530 		strb	r3, [r4, #85]
 487 00b2 57E0     		b	.L15
 488              	.LVL41:
 489              	.L20:
 490              		.loc 1 335 39 view .LVU176
 491              	.LBE2:
 296:MCSDK_v6.1.0-Full/MotorControl/MCSDK/MCLib/Any/Src/revup_ctrl.c ****             {
 492              		.loc 1 296 13 is_stmt 1 view .LVU177
 296:MCSDK_v6.1.0-Full/MotorControl/MCSDK/MCLib/Any/Src/revup_ctrl.c ****             {
 493              		.loc 1 296 32 is_stmt 0 view .LVU178
 494 00b4 94F85320 		ldrb	r2, [r4, #83]	@ zero_extendqisi2
 296:MCSDK_v6.1.0-Full/MotorControl/MCSDK/MCLib/Any/Src/revup_ctrl.c ****             {
 495              		.loc 1 296 16 view .LVU179
 496 00b8 7F2A     		cmp	r2, #127
 497 00ba 53D1     		bne	.L15
 498 00bc DFE7     		b	.L21
 499              	.LVL42:
 500              	.L22:
 501              	.LBB5:
 318:MCSDK_v6.1.0-Full/MotorControl/MCSDK/MCLib/Any/Src/revup_ctrl.c ****               {
 502              		.loc 1 318 15 is_stmt 1 view .LVU180
 318:MCSDK_v6.1.0-Full/MotorControl/MCSDK/MCLib/Any/Src/revup_ctrl.c ****               {
 503              		.loc 1 318 18 is_stmt 0 view .LVU181
 504 00be 0028     		cmp	r0, #0
 505 00c0 EDDB     		blt	.L23
 506              	.L24:
 507              	.LVL43:
 327:MCSDK_v6.1.0-Full/MotorControl/MCSDK/MCLib/Any/Src/revup_ctrl.c ****             }
 508              		.loc 1 327 15 is_stmt 1 view .LVU182
 327:MCSDK_v6.1.0-Full/MotorControl/MCSDK/MCLib/Any/Src/revup_ctrl.c ****             }
 509              		.loc 1 327 39 is_stmt 0 view .LVU183
 510 00c2 0023     		movs	r3, #0
 511 00c4 84F85330 		strb	r3, [r4, #83]
 512 00c8 4CE0     		b	.L15
 513              	.L25:
 336:MCSDK_v6.1.0-Full/MotorControl/MCSDK/MCLib/Any/Src/revup_ctrl.c ****               }
 337:MCSDK_v6.1.0-Full/MotorControl/MCSDK/MCLib/Any/Src/revup_ctrl.c ****               else if ((uint16_t)(hObsSpeedUnitAbsValue) > pHandle->hMinStartUpFlySpeed)
 514              		.loc 1 337 20 is_stmt 1 view .LVU184
 515              		.loc 1 337 67 is_stmt 0 view .LVU185
 516 00ca B4F84C30 		ldrh	r3, [r4, #76]
ARM GAS  /tmp/ccCiLUJR.s 			page 16


 517              		.loc 1 337 23 view .LVU186
 518 00ce 9A42     		cmp	r2, r3
 519 00d0 48D9     		bls	.L15
 520              	.LBB3:
 338:MCSDK_v6.1.0-Full/MotorControl/MCSDK/MCLib/Any/Src/revup_ctrl.c ****               {
 339:MCSDK_v6.1.0-Full/MotorControl/MCSDK/MCLib/Any/Src/revup_ctrl.c ****                 /* synch with startup*/
 340:MCSDK_v6.1.0-Full/MotorControl/MCSDK/MCLib/Any/Src/revup_ctrl.c ****                 /* nearest phase search*/
 341:MCSDK_v6.1.0-Full/MotorControl/MCSDK/MCLib/Any/Src/revup_ctrl.c ****                 int16_t hOldFinalMecSpeedUnit = 0;
 521              		.loc 1 341 17 is_stmt 1 view .LVU187
 522              	.LVL44:
 342:MCSDK_v6.1.0-Full/MotorControl/MCSDK/MCLib/Any/Src/revup_ctrl.c ****                 int16_t hOldFinalTorque = 0;
 523              		.loc 1 342 17 view .LVU188
 343:MCSDK_v6.1.0-Full/MotorControl/MCSDK/MCLib/Any/Src/revup_ctrl.c ****                 int32_t wDeltaSpeedRevUp;
 524              		.loc 1 343 17 view .LVU189
 344:MCSDK_v6.1.0-Full/MotorControl/MCSDK/MCLib/Any/Src/revup_ctrl.c ****                 int32_t wDeltaTorqueRevUp;
 525              		.loc 1 344 17 view .LVU190
 345:MCSDK_v6.1.0-Full/MotorControl/MCSDK/MCLib/Any/Src/revup_ctrl.c ****                 bool bError = false;
 526              		.loc 1 345 17 view .LVU191
 346:MCSDK_v6.1.0-Full/MotorControl/MCSDK/MCLib/Any/Src/revup_ctrl.c ****                 VSS_SetCopyObserver(pHandle->pVSS);
 527              		.loc 1 346 17 view .LVU192
 528 00d2 E06E     		ldr	r0, [r4, #108]
 529              	.LVL45:
 530              		.loc 1 346 17 is_stmt 0 view .LVU193
 531 00d4 FFF7FEFF 		bl	VSS_SetCopyObserver
 532              	.LVL46:
 347:MCSDK_v6.1.0-Full/MotorControl/MCSDK/MCLib/Any/Src/revup_ctrl.c ****                 pHandle->pSNSL->pFctForceConvergency2(pHandle->pSNSL);
 533              		.loc 1 347 17 is_stmt 1 view .LVU194
 534              		.loc 1 347 24 is_stmt 0 view .LVU195
 535 00d8 206F     		ldr	r0, [r4, #112]
 536              		.loc 1 347 31 view .LVU196
 537 00da 8368     		ldr	r3, [r0, #8]
 538              		.loc 1 347 17 view .LVU197
 539 00dc 9847     		blx	r3
 540              	.LVL47:
 348:MCSDK_v6.1.0-Full/MotorControl/MCSDK/MCLib/Any/Src/revup_ctrl.c **** 
 349:MCSDK_v6.1.0-Full/MotorControl/MCSDK/MCLib/Any/Src/revup_ctrl.c ****                 if (MC_NULL == pHandle->pCurrentPhaseParams)
 541              		.loc 1 349 17 is_stmt 1 view .LVU198
 542              		.loc 1 349 39 is_stmt 0 view .LVU199
 543 00de A368     		ldr	r3, [r4, #8]
 544              		.loc 1 349 20 view .LVU200
 545 00e0 9BB1     		cbz	r3, .L40
 342:MCSDK_v6.1.0-Full/MotorControl/MCSDK/MCLib/Any/Src/revup_ctrl.c ****                 int32_t wDeltaSpeedRevUp;
 546              		.loc 1 342 25 view .LVU201
 547 00e2 4FF0000C 		mov	ip, #0
 341:MCSDK_v6.1.0-Full/MotorControl/MCSDK/MCLib/Any/Src/revup_ctrl.c ****                 int16_t hOldFinalTorque = 0;
 548              		.loc 1 341 25 view .LVU202
 549 00e6 6046     		mov	r0, ip
 550              	.LVL48:
 551              	.L26:
 350:MCSDK_v6.1.0-Full/MotorControl/MCSDK/MCLib/Any/Src/revup_ctrl.c ****                 {
 351:MCSDK_v6.1.0-Full/MotorControl/MCSDK/MCLib/Any/Src/revup_ctrl.c ****                   bError = true;
 352:MCSDK_v6.1.0-Full/MotorControl/MCSDK/MCLib/Any/Src/revup_ctrl.c ****                   pHandle->hPhaseRemainingTicks = 0U;
 353:MCSDK_v6.1.0-Full/MotorControl/MCSDK/MCLib/Any/Src/revup_ctrl.c ****                 }
 354:MCSDK_v6.1.0-Full/MotorControl/MCSDK/MCLib/Any/Src/revup_ctrl.c ****                 else
 355:MCSDK_v6.1.0-Full/MotorControl/MCSDK/MCLib/Any/Src/revup_ctrl.c ****                 {
 356:MCSDK_v6.1.0-Full/MotorControl/MCSDK/MCLib/Any/Src/revup_ctrl.c ****                   while (pHandle->pCurrentPhaseParams->hFinalMecSpeedUnit < hObsSpeedUnitAbsValue)
 552              		.loc 1 356 25 is_stmt 1 view .LVU203
ARM GAS  /tmp/ccCiLUJR.s 			page 17


 553              		.loc 1 356 33 is_stmt 0 view .LVU204
 554 00e8 A368     		ldr	r3, [r4, #8]
 555              		.loc 1 356 54 view .LVU205
 556 00ea B3F90220 		ldrsh	r2, [r3, #2]
 557              		.loc 1 356 25 view .LVU206
 558 00ee BA42     		cmp	r2, r7
 559 00f0 13DA     		bge	.L27
 357:MCSDK_v6.1.0-Full/MotorControl/MCSDK/MCLib/Any/Src/revup_ctrl.c ****                   {
 358:MCSDK_v6.1.0-Full/MotorControl/MCSDK/MCLib/Any/Src/revup_ctrl.c ****                     if (pHandle->pCurrentPhaseParams->pNext == MC_NULL)
 560              		.loc 1 358 21 is_stmt 1 view .LVU207
 561              		.loc 1 358 53 is_stmt 0 view .LVU208
 562 00f2 9968     		ldr	r1, [r3, #8]
 563              		.loc 1 358 24 view .LVU209
 564 00f4 71B1     		cbz	r1, .L41
 359:MCSDK_v6.1.0-Full/MotorControl/MCSDK/MCLib/Any/Src/revup_ctrl.c ****                     {
 360:MCSDK_v6.1.0-Full/MotorControl/MCSDK/MCLib/Any/Src/revup_ctrl.c ****                       /* sets for Revup fail error*/
 361:MCSDK_v6.1.0-Full/MotorControl/MCSDK/MCLib/Any/Src/revup_ctrl.c ****                       bError = true;
 362:MCSDK_v6.1.0-Full/MotorControl/MCSDK/MCLib/Any/Src/revup_ctrl.c ****                       pHandle->hPhaseRemainingTicks = 0U;
 363:MCSDK_v6.1.0-Full/MotorControl/MCSDK/MCLib/Any/Src/revup_ctrl.c ****                       break;
 364:MCSDK_v6.1.0-Full/MotorControl/MCSDK/MCLib/Any/Src/revup_ctrl.c ****                     }
 365:MCSDK_v6.1.0-Full/MotorControl/MCSDK/MCLib/Any/Src/revup_ctrl.c ****                     else
 366:MCSDK_v6.1.0-Full/MotorControl/MCSDK/MCLib/Any/Src/revup_ctrl.c ****                     {
 367:MCSDK_v6.1.0-Full/MotorControl/MCSDK/MCLib/Any/Src/revup_ctrl.c ****                       /* skips this phase*/
 368:MCSDK_v6.1.0-Full/MotorControl/MCSDK/MCLib/Any/Src/revup_ctrl.c ****                       hOldFinalMecSpeedUnit = pHandle->pCurrentPhaseParams->hFinalMecSpeedUnit;
 565              		.loc 1 368 23 is_stmt 1 view .LVU210
 566              	.LVL49:
 369:MCSDK_v6.1.0-Full/MotorControl/MCSDK/MCLib/Any/Src/revup_ctrl.c ****                       hOldFinalTorque = pHandle->pCurrentPhaseParams->hFinalTorque;
 567              		.loc 1 369 23 view .LVU211
 568              		.loc 1 369 39 is_stmt 0 view .LVU212
 569 00f6 B3F904C0 		ldrsh	ip, [r3, #4]
 570              	.LVL50:
 370:MCSDK_v6.1.0-Full/MotorControl/MCSDK/MCLib/Any/Src/revup_ctrl.c ****                       //cstat !MISRAC2012-Rule-11.5
 371:MCSDK_v6.1.0-Full/MotorControl/MCSDK/MCLib/Any/Src/revup_ctrl.c ****                       pHandle->pCurrentPhaseParams = (RevUpCtrl_PhaseParams_t *)pHandle->pCurrentPh
 571              		.loc 1 371 23 is_stmt 1 view .LVU213
 572              		.loc 1 371 52 is_stmt 0 view .LVU214
 573 00fa A160     		str	r1, [r4, #8]
 372:MCSDK_v6.1.0-Full/MotorControl/MCSDK/MCLib/Any/Src/revup_ctrl.c ****                       pHandle->bStageCnt++;
 574              		.loc 1 372 23 is_stmt 1 view .LVU215
 575              		.loc 1 372 30 is_stmt 0 view .LVU216
 576 00fc 94F85830 		ldrb	r3, [r4, #88]	@ zero_extendqisi2
 577              		.loc 1 372 41 view .LVU217
 578 0100 0133     		adds	r3, r3, #1
 579 0102 84F85830 		strb	r3, [r4, #88]
 368:MCSDK_v6.1.0-Full/MotorControl/MCSDK/MCLib/Any/Src/revup_ctrl.c ****                       hOldFinalTorque = pHandle->pCurrentPhaseParams->hFinalTorque;
 580              		.loc 1 368 45 view .LVU218
 581 0106 1046     		mov	r0, r2
 582 0108 EEE7     		b	.L26
 583              	.LVL51:
 584              	.L40:
 351:MCSDK_v6.1.0-Full/MotorControl/MCSDK/MCLib/Any/Src/revup_ctrl.c ****                   pHandle->hPhaseRemainingTicks = 0U;
 585              		.loc 1 351 19 is_stmt 1 view .LVU219
 352:MCSDK_v6.1.0-Full/MotorControl/MCSDK/MCLib/Any/Src/revup_ctrl.c ****                 }
 586              		.loc 1 352 19 view .LVU220
 352:MCSDK_v6.1.0-Full/MotorControl/MCSDK/MCLib/Any/Src/revup_ctrl.c ****                 }
 587              		.loc 1 352 49 is_stmt 0 view .LVU221
 588 010a 0020     		movs	r0, #0
 589 010c A080     		strh	r0, [r4, #4]	@ movhi
ARM GAS  /tmp/ccCiLUJR.s 			page 18


 351:MCSDK_v6.1.0-Full/MotorControl/MCSDK/MCLib/Any/Src/revup_ctrl.c ****                   pHandle->hPhaseRemainingTicks = 0U;
 590              		.loc 1 351 26 view .LVU222
 591 010e 0125     		movs	r5, #1
 342:MCSDK_v6.1.0-Full/MotorControl/MCSDK/MCLib/Any/Src/revup_ctrl.c ****                 int32_t wDeltaSpeedRevUp;
 592              		.loc 1 342 25 view .LVU223
 593 0110 8446     		mov	ip, r0
 594 0112 02E0     		b	.L27
 595              	.LVL52:
 596              	.L41:
 361:MCSDK_v6.1.0-Full/MotorControl/MCSDK/MCLib/Any/Src/revup_ctrl.c ****                       pHandle->hPhaseRemainingTicks = 0U;
 597              		.loc 1 361 23 is_stmt 1 view .LVU224
 362:MCSDK_v6.1.0-Full/MotorControl/MCSDK/MCLib/Any/Src/revup_ctrl.c ****                       break;
 598              		.loc 1 362 23 view .LVU225
 362:MCSDK_v6.1.0-Full/MotorControl/MCSDK/MCLib/Any/Src/revup_ctrl.c ****                       break;
 599              		.loc 1 362 53 is_stmt 0 view .LVU226
 600 0114 0023     		movs	r3, #0
 601 0116 A380     		strh	r3, [r4, #4]	@ movhi
 363:MCSDK_v6.1.0-Full/MotorControl/MCSDK/MCLib/Any/Src/revup_ctrl.c ****                     }
 602              		.loc 1 363 23 is_stmt 1 view .LVU227
 361:MCSDK_v6.1.0-Full/MotorControl/MCSDK/MCLib/Any/Src/revup_ctrl.c ****                       pHandle->hPhaseRemainingTicks = 0U;
 603              		.loc 1 361 30 is_stmt 0 view .LVU228
 604 0118 0125     		movs	r5, #1
 605              	.LVL53:
 606              	.L27:
 373:MCSDK_v6.1.0-Full/MotorControl/MCSDK/MCLib/Any/Src/revup_ctrl.c ****                     }
 374:MCSDK_v6.1.0-Full/MotorControl/MCSDK/MCLib/Any/Src/revup_ctrl.c ****                   }
 375:MCSDK_v6.1.0-Full/MotorControl/MCSDK/MCLib/Any/Src/revup_ctrl.c ****                 }
 376:MCSDK_v6.1.0-Full/MotorControl/MCSDK/MCLib/Any/Src/revup_ctrl.c ****                 if (false == bError)
 607              		.loc 1 376 17 is_stmt 1 view .LVU229
 608              		.loc 1 376 20 is_stmt 0 view .LVU230
 609 011a 1DBB     		cbnz	r5, .L15
 610              	.LBB4:
 377:MCSDK_v6.1.0-Full/MotorControl/MCSDK/MCLib/Any/Src/revup_ctrl.c ****                 {
 378:MCSDK_v6.1.0-Full/MotorControl/MCSDK/MCLib/Any/Src/revup_ctrl.c ****                   /* calculation of the transition phase from OTF to standard revup */
 379:MCSDK_v6.1.0-Full/MotorControl/MCSDK/MCLib/Any/Src/revup_ctrl.c ****                   int16_t hTorqueReference;
 611              		.loc 1 379 19 is_stmt 1 view .LVU231
 380:MCSDK_v6.1.0-Full/MotorControl/MCSDK/MCLib/Any/Src/revup_ctrl.c **** 
 381:MCSDK_v6.1.0-Full/MotorControl/MCSDK/MCLib/Any/Src/revup_ctrl.c ****                   wDeltaSpeedRevUp = ((int32_t)(pHandle->pCurrentPhaseParams->hFinalMecSpeedUnit))
 612              		.loc 1 381 19 view .LVU232
 613              		.loc 1 381 56 is_stmt 0 view .LVU233
 614 011c A268     		ldr	r2, [r4, #8]
 615              		.loc 1 381 77 view .LVU234
 616 011e B2F90230 		ldrsh	r3, [r2, #2]
 617              	.LVL54:
 382:MCSDK_v6.1.0-Full/MotorControl/MCSDK/MCLib/Any/Src/revup_ctrl.c ****                                    - ((int32_t)(hOldFinalMecSpeedUnit));
 383:MCSDK_v6.1.0-Full/MotorControl/MCSDK/MCLib/Any/Src/revup_ctrl.c ****                   wDeltaTorqueRevUp = ((int32_t)(pHandle->pCurrentPhaseParams->hFinalTorque))
 618              		.loc 1 383 19 is_stmt 1 view .LVU235
 619              		.loc 1 383 78 is_stmt 0 view .LVU236
 620 0122 B2F90410 		ldrsh	r1, [r2, #4]
 621              		.loc 1 383 37 view .LVU237
 622 0126 A1EB0C01 		sub	r1, r1, ip
 623              	.LVL55:
 384:MCSDK_v6.1.0-Full/MotorControl/MCSDK/MCLib/Any/Src/revup_ctrl.c ****                                     - ((int32_t)(hOldFinalTorque));
 385:MCSDK_v6.1.0-Full/MotorControl/MCSDK/MCLib/Any/Src/revup_ctrl.c **** 
 386:MCSDK_v6.1.0-Full/MotorControl/MCSDK/MCLib/Any/Src/revup_ctrl.c ****                   if ((int32_t)0 == wDeltaSpeedRevUp)
 624              		.loc 1 386 19 is_stmt 1 view .LVU238
 625              		.loc 1 386 22 is_stmt 0 view .LVU239
ARM GAS  /tmp/ccCiLUJR.s 			page 19


 626 012a 1B1A     		subs	r3, r3, r0
 627              	.LVL56:
 628              		.loc 1 386 22 view .LVU240
 629 012c 08D1     		bne	.L42
 630              	.LVL57:
 631              	.L30:
 387:MCSDK_v6.1.0-Full/MotorControl/MCSDK/MCLib/Any/Src/revup_ctrl.c ****                   {
 388:MCSDK_v6.1.0-Full/MotorControl/MCSDK/MCLib/Any/Src/revup_ctrl.c ****                     /* Nothing to do */
 389:MCSDK_v6.1.0-Full/MotorControl/MCSDK/MCLib/Any/Src/revup_ctrl.c ****                   }
 390:MCSDK_v6.1.0-Full/MotorControl/MCSDK/MCLib/Any/Src/revup_ctrl.c ****                   else
 391:MCSDK_v6.1.0-Full/MotorControl/MCSDK/MCLib/Any/Src/revup_ctrl.c ****                   {
 392:MCSDK_v6.1.0-Full/MotorControl/MCSDK/MCLib/Any/Src/revup_ctrl.c ****                     hTorqueReference = (int16_t)((((int32_t)hObsSpeedUnit) * wDeltaTorqueRevUp) / w
 393:MCSDK_v6.1.0-Full/MotorControl/MCSDK/MCLib/Any/Src/revup_ctrl.c ****                                      + hOldFinalTorque;
 394:MCSDK_v6.1.0-Full/MotorControl/MCSDK/MCLib/Any/Src/revup_ctrl.c **** 
 395:MCSDK_v6.1.0-Full/MotorControl/MCSDK/MCLib/Any/Src/revup_ctrl.c ****                     (void)STC_ExecRamp(pHandle->pSTC, pHandle->hDirection * hTorqueReference, 0U);
 396:MCSDK_v6.1.0-Full/MotorControl/MCSDK/MCLib/Any/Src/revup_ctrl.c ****                   }
 397:MCSDK_v6.1.0-Full/MotorControl/MCSDK/MCLib/Any/Src/revup_ctrl.c **** 
 398:MCSDK_v6.1.0-Full/MotorControl/MCSDK/MCLib/Any/Src/revup_ctrl.c ****                   pHandle->hPhaseRemainingTicks = 1U;
 632              		.loc 1 398 19 is_stmt 1 view .LVU241
 633              		.loc 1 398 49 is_stmt 0 view .LVU242
 634 012e 0123     		movs	r3, #1
 635 0130 A380     		strh	r3, [r4, #4]	@ movhi
 399:MCSDK_v6.1.0-Full/MotorControl/MCSDK/MCLib/Any/Src/revup_ctrl.c **** 
 400:MCSDK_v6.1.0-Full/MotorControl/MCSDK/MCLib/Any/Src/revup_ctrl.c ****                   pHandle->pCurrentPhaseParams = &pHandle->OTFPhaseParams;
 636              		.loc 1 400 19 is_stmt 1 view .LVU243
 637              		.loc 1 400 50 is_stmt 0 view .LVU244
 638 0132 04F15C03 		add	r3, r4, #92
 639              		.loc 1 400 48 view .LVU245
 640 0136 A360     		str	r3, [r4, #8]
 401:MCSDK_v6.1.0-Full/MotorControl/MCSDK/MCLib/Any/Src/revup_ctrl.c **** 
 402:MCSDK_v6.1.0-Full/MotorControl/MCSDK/MCLib/Any/Src/revup_ctrl.c ****                   pHandle->bStageCnt = 6U;
 641              		.loc 1 402 19 is_stmt 1 view .LVU246
 642              		.loc 1 402 38 is_stmt 0 view .LVU247
 643 0138 0623     		movs	r3, #6
 644 013a 84F85830 		strb	r3, [r4, #88]
 645 013e 11E0     		b	.L15
 646              	.LVL58:
 647              	.L42:
 392:MCSDK_v6.1.0-Full/MotorControl/MCSDK/MCLib/Any/Src/revup_ctrl.c ****                                      + hOldFinalTorque;
 648              		.loc 1 392 21 is_stmt 1 view .LVU248
 392:MCSDK_v6.1.0-Full/MotorControl/MCSDK/MCLib/Any/Src/revup_ctrl.c ****                                      + hOldFinalTorque;
 649              		.loc 1 392 76 is_stmt 0 view .LVU249
 650 0140 01FB06F1 		mul	r1, r1, r6
 651              	.LVL59:
 392:MCSDK_v6.1.0-Full/MotorControl/MCSDK/MCLib/Any/Src/revup_ctrl.c ****                                      + hOldFinalTorque;
 652              		.loc 1 392 97 view .LVU250
 653 0144 91FBF3F1 		sdiv	r1, r1, r3
 393:MCSDK_v6.1.0-Full/MotorControl/MCSDK/MCLib/Any/Src/revup_ctrl.c **** 
 654              		.loc 1 393 38 view .LVU251
 655 0148 1CFA81F1 		uxtah	r1, ip, r1
 656              	.LVL60:
 395:MCSDK_v6.1.0-Full/MotorControl/MCSDK/MCLib/Any/Src/revup_ctrl.c ****                   }
 657              		.loc 1 395 21 is_stmt 1 view .LVU252
 395:MCSDK_v6.1.0-Full/MotorControl/MCSDK/MCLib/Any/Src/revup_ctrl.c ****                   }
 658              		.loc 1 395 62 is_stmt 0 view .LVU253
 659 014c E388     		ldrh	r3, [r4, #6]
 660              	.LVL61:
ARM GAS  /tmp/ccCiLUJR.s 			page 20


 395:MCSDK_v6.1.0-Full/MotorControl/MCSDK/MCLib/Any/Src/revup_ctrl.c ****                   }
 661              		.loc 1 395 75 view .LVU254
 662 014e 11FB03F1 		smulbb	r1, r1, r3
 663              	.LVL62:
 395:MCSDK_v6.1.0-Full/MotorControl/MCSDK/MCLib/Any/Src/revup_ctrl.c ****                   }
 664              		.loc 1 395 27 view .LVU255
 665 0152 0022     		movs	r2, #0
 666              	.LVL63:
 395:MCSDK_v6.1.0-Full/MotorControl/MCSDK/MCLib/Any/Src/revup_ctrl.c ****                   }
 667              		.loc 1 395 27 view .LVU256
 668 0154 09B2     		sxth	r1, r1
 669 0156 A06E     		ldr	r0, [r4, #104]
 670              	.LVL64:
 395:MCSDK_v6.1.0-Full/MotorControl/MCSDK/MCLib/Any/Src/revup_ctrl.c ****                   }
 671              		.loc 1 395 27 view .LVU257
 672 0158 FFF7FEFF 		bl	STC_ExecRamp
 673              	.LVL65:
 395:MCSDK_v6.1.0-Full/MotorControl/MCSDK/MCLib/Any/Src/revup_ctrl.c ****                   }
 674              		.loc 1 395 27 view .LVU258
 675 015c E7E7     		b	.L30
 676              	.LVL66:
 677              	.L16:
 395:MCSDK_v6.1.0-Full/MotorControl/MCSDK/MCLib/Any/Src/revup_ctrl.c ****                   }
 678              		.loc 1 395 27 view .LVU259
 679              	.LBE4:
 680              	.LBE3:
 681              	.LBE5:
 403:MCSDK_v6.1.0-Full/MotorControl/MCSDK/MCLib/Any/Src/revup_ctrl.c ****                 } /* no MC_NULL error */
 404:MCSDK_v6.1.0-Full/MotorControl/MCSDK/MCLib/Any/Src/revup_ctrl.c ****               } /* speed > MinStartupFly */
 405:MCSDK_v6.1.0-Full/MotorControl/MCSDK/MCLib/Any/Src/revup_ctrl.c ****               else
 406:MCSDK_v6.1.0-Full/MotorControl/MCSDK/MCLib/Any/Src/revup_ctrl.c ****               {
 407:MCSDK_v6.1.0-Full/MotorControl/MCSDK/MCLib/Any/Src/revup_ctrl.c ****               }
 408:MCSDK_v6.1.0-Full/MotorControl/MCSDK/MCLib/Any/Src/revup_ctrl.c ****             } /* speeds are collinear */
 409:MCSDK_v6.1.0-Full/MotorControl/MCSDK/MCLib/Any/Src/revup_ctrl.c ****           } /* speed is reliable */
 410:MCSDK_v6.1.0-Full/MotorControl/MCSDK/MCLib/Any/Src/revup_ctrl.c ****         }/*EnteredZone1 1 is false */
 411:MCSDK_v6.1.0-Full/MotorControl/MCSDK/MCLib/Any/Src/revup_ctrl.c ****         else
 412:MCSDK_v6.1.0-Full/MotorControl/MCSDK/MCLib/Any/Src/revup_ctrl.c ****         {
 413:MCSDK_v6.1.0-Full/MotorControl/MCSDK/MCLib/Any/Src/revup_ctrl.c ****           pHandle->pSNSL->pFctForceConvergency1(pHandle->pSNSL);
 682              		.loc 1 413 11 is_stmt 1 view .LVU260
 683              		.loc 1 413 18 is_stmt 0 view .LVU261
 684 015e 006F     		ldr	r0, [r0, #112]
 685              	.LVL67:
 686              		.loc 1 413 25 view .LVU262
 687 0160 4368     		ldr	r3, [r0, #4]
 688              		.loc 1 413 11 view .LVU263
 689 0162 9847     		blx	r3
 690              	.LVL68:
 691              	.L15:
 414:MCSDK_v6.1.0-Full/MotorControl/MCSDK/MCLib/Any/Src/revup_ctrl.c ****         }
 415:MCSDK_v6.1.0-Full/MotorControl/MCSDK/MCLib/Any/Src/revup_ctrl.c ****       } /*stage 0*/
 416:MCSDK_v6.1.0-Full/MotorControl/MCSDK/MCLib/Any/Src/revup_ctrl.c ****     } /* hPhaseRemainingTicks > 0 */
 417:MCSDK_v6.1.0-Full/MotorControl/MCSDK/MCLib/Any/Src/revup_ctrl.c **** 
 418:MCSDK_v6.1.0-Full/MotorControl/MCSDK/MCLib/Any/Src/revup_ctrl.c ****     if (0U == pHandle->hPhaseRemainingTicks)
 692              		.loc 1 418 5 is_stmt 1 view .LVU264
 693              		.loc 1 418 22 is_stmt 0 view .LVU265
 694 0164 A388     		ldrh	r3, [r4, #4]
 695              		.loc 1 418 8 view .LVU266
ARM GAS  /tmp/ccCiLUJR.s 			page 21


 696 0166 002B     		cmp	r3, #0
 697 0168 56D1     		bne	.L36
 419:MCSDK_v6.1.0-Full/MotorControl/MCSDK/MCLib/Any/Src/revup_ctrl.c ****     {
 420:MCSDK_v6.1.0-Full/MotorControl/MCSDK/MCLib/Any/Src/revup_ctrl.c ****       if (pHandle->pCurrentPhaseParams != MC_NULL)
 698              		.loc 1 420 7 is_stmt 1 view .LVU267
 699              		.loc 1 420 18 is_stmt 0 view .LVU268
 700 016a A368     		ldr	r3, [r4, #8]
 701              		.loc 1 420 10 view .LVU269
 702 016c 002B     		cmp	r3, #0
 703 016e 42D0     		beq	.L32
 421:MCSDK_v6.1.0-Full/MotorControl/MCSDK/MCLib/Any/Src/revup_ctrl.c ****       {
 422:MCSDK_v6.1.0-Full/MotorControl/MCSDK/MCLib/Any/Src/revup_ctrl.c ****         if (0U == pHandle->bStageCnt)
 704              		.loc 1 422 9 is_stmt 1 view .LVU270
 705              		.loc 1 422 26 is_stmt 0 view .LVU271
 706 0170 94F85830 		ldrb	r3, [r4, #88]	@ zero_extendqisi2
 707              		.loc 1 422 12 view .LVU272
 708 0174 53B3     		cbz	r3, .L43
 423:MCSDK_v6.1.0-Full/MotorControl/MCSDK/MCLib/Any/Src/revup_ctrl.c ****         {
 424:MCSDK_v6.1.0-Full/MotorControl/MCSDK/MCLib/Any/Src/revup_ctrl.c ****           /*end of OTF*/
 425:MCSDK_v6.1.0-Full/MotorControl/MCSDK/MCLib/Any/Src/revup_ctrl.c ****           PWMC_SwitchOffPWM(pHandle->pPWM);
 426:MCSDK_v6.1.0-Full/MotorControl/MCSDK/MCLib/Any/Src/revup_ctrl.c ****           pHandle->OTFSCLowside = true;
 427:MCSDK_v6.1.0-Full/MotorControl/MCSDK/MCLib/Any/Src/revup_ctrl.c ****           PWMC_TurnOnLowSides(pHandle->pPWM, 0u);
 428:MCSDK_v6.1.0-Full/MotorControl/MCSDK/MCLib/Any/Src/revup_ctrl.c ****           pHandle->bOTFRelCounter = 0U;
 429:MCSDK_v6.1.0-Full/MotorControl/MCSDK/MCLib/Any/Src/revup_ctrl.c ****         }
 430:MCSDK_v6.1.0-Full/MotorControl/MCSDK/MCLib/Any/Src/revup_ctrl.c ****         else if (1U == pHandle->bStageCnt)
 709              		.loc 1 430 14 is_stmt 1 view .LVU273
 710              		.loc 1 430 17 is_stmt 0 view .LVU274
 711 0176 012B     		cmp	r3, #1
 712 0178 36D0     		beq	.L44
 713              	.L34:
 431:MCSDK_v6.1.0-Full/MotorControl/MCSDK/MCLib/Any/Src/revup_ctrl.c ****         {
 432:MCSDK_v6.1.0-Full/MotorControl/MCSDK/MCLib/Any/Src/revup_ctrl.c ****           PWMC_SwitchOnPWM(pHandle->pPWM);
 433:MCSDK_v6.1.0-Full/MotorControl/MCSDK/MCLib/Any/Src/revup_ctrl.c ****           pHandle->OTFSCLowside = false;
 434:MCSDK_v6.1.0-Full/MotorControl/MCSDK/MCLib/Any/Src/revup_ctrl.c ****         }
 435:MCSDK_v6.1.0-Full/MotorControl/MCSDK/MCLib/Any/Src/revup_ctrl.c ****         else
 436:MCSDK_v6.1.0-Full/MotorControl/MCSDK/MCLib/Any/Src/revup_ctrl.c ****         {
 437:MCSDK_v6.1.0-Full/MotorControl/MCSDK/MCLib/Any/Src/revup_ctrl.c ****         }
 714              		.loc 1 437 9 is_stmt 1 view .LVU275
 438:MCSDK_v6.1.0-Full/MotorControl/MCSDK/MCLib/Any/Src/revup_ctrl.c **** 
 439:MCSDK_v6.1.0-Full/MotorControl/MCSDK/MCLib/Any/Src/revup_ctrl.c ****         /* If it becomes zero the current phase has been completed.*/
 440:MCSDK_v6.1.0-Full/MotorControl/MCSDK/MCLib/Any/Src/revup_ctrl.c ****         /* Gives the next command to STC and VSS.*/
 441:MCSDK_v6.1.0-Full/MotorControl/MCSDK/MCLib/Any/Src/revup_ctrl.c ****         (void)STC_ExecRamp(pHandle->pSTC, pHandle->pCurrentPhaseParams->hFinalTorque * pHandle->hDi
 715              		.loc 1 441 9 view .LVU276
 716              		.loc 1 441 50 is_stmt 0 view .LVU277
 717 017a A368     		ldr	r3, [r4, #8]
 718              		.loc 1 441 71 view .LVU278
 719 017c 9988     		ldrh	r1, [r3, #4]
 720              		.loc 1 441 95 view .LVU279
 721 017e E288     		ldrh	r2, [r4, #6]
 722              		.loc 1 441 86 view .LVU280
 723 0180 11FB02F1 		smulbb	r1, r1, r2
 724              		.loc 1 441 15 view .LVU281
 725 0184 1A88     		ldrh	r2, [r3]
 726 0186 09B2     		sxth	r1, r1
 727 0188 A06E     		ldr	r0, [r4, #104]
 728 018a FFF7FEFF 		bl	STC_ExecRamp
 729              	.LVL69:
ARM GAS  /tmp/ccCiLUJR.s 			page 22


 442:MCSDK_v6.1.0-Full/MotorControl/MCSDK/MCLib/Any/Src/revup_ctrl.c ****                            (uint32_t)(pHandle->pCurrentPhaseParams->hDurationms));
 443:MCSDK_v6.1.0-Full/MotorControl/MCSDK/MCLib/Any/Src/revup_ctrl.c **** 
 444:MCSDK_v6.1.0-Full/MotorControl/MCSDK/MCLib/Any/Src/revup_ctrl.c ****         VSS_SetMecAcceleration(pHandle->pVSS,
 730              		.loc 1 444 9 is_stmt 1 view .LVU282
 445:MCSDK_v6.1.0-Full/MotorControl/MCSDK/MCLib/Any/Src/revup_ctrl.c ****                                pHandle->pCurrentPhaseParams->hFinalMecSpeedUnit * pHandle->hDirecti
 731              		.loc 1 445 39 is_stmt 0 view .LVU283
 732 018e A368     		ldr	r3, [r4, #8]
 733              		.loc 1 445 60 view .LVU284
 734 0190 5988     		ldrh	r1, [r3, #2]
 735              		.loc 1 445 90 view .LVU285
 736 0192 E288     		ldrh	r2, [r4, #6]
 737              		.loc 1 445 81 view .LVU286
 738 0194 11FB02F1 		smulbb	r1, r1, r2
 444:MCSDK_v6.1.0-Full/MotorControl/MCSDK/MCLib/Any/Src/revup_ctrl.c ****                                pHandle->pCurrentPhaseParams->hFinalMecSpeedUnit * pHandle->hDirecti
 739              		.loc 1 444 9 view .LVU287
 740 0198 1A88     		ldrh	r2, [r3]
 741 019a 09B2     		sxth	r1, r1
 742 019c E06E     		ldr	r0, [r4, #108]
 743 019e FFF7FEFF 		bl	VSS_SetMecAcceleration
 744              	.LVL70:
 446:MCSDK_v6.1.0-Full/MotorControl/MCSDK/MCLib/Any/Src/revup_ctrl.c ****                                pHandle->pCurrentPhaseParams->hDurationms);
 447:MCSDK_v6.1.0-Full/MotorControl/MCSDK/MCLib/Any/Src/revup_ctrl.c **** 
 448:MCSDK_v6.1.0-Full/MotorControl/MCSDK/MCLib/Any/Src/revup_ctrl.c ****         /* Compute hPhaseRemainingTicks.*/
 449:MCSDK_v6.1.0-Full/MotorControl/MCSDK/MCLib/Any/Src/revup_ctrl.c ****         pHandle->hPhaseRemainingTicks = (uint16_t)((((uint32_t)pHandle->pCurrentPhaseParams->hDurat
 745              		.loc 1 449 9 is_stmt 1 view .LVU288
 746              		.loc 1 449 71 is_stmt 0 view .LVU289
 747 01a2 A268     		ldr	r2, [r4, #8]
 748              		.loc 1 449 92 view .LVU290
 749 01a4 1188     		ldrh	r1, [r2]
 450:MCSDK_v6.1.0-Full/MotorControl/MCSDK/MCLib/Any/Src/revup_ctrl.c ****                                                  * (uint32_t)pHandle->hRUCFrequencyHz) / 1000U);
 750              		.loc 1 450 69 view .LVU291
 751 01a6 2388     		ldrh	r3, [r4]
 752              		.loc 1 450 50 view .LVU292
 753 01a8 03FB01F3 		mul	r3, r3, r1
 754              		.loc 1 450 88 view .LVU293
 755 01ac 1C49     		ldr	r1, .L46
 756 01ae A1FB0313 		umull	r1, r3, r1, r3
 449:MCSDK_v6.1.0-Full/MotorControl/MCSDK/MCLib/Any/Src/revup_ctrl.c ****                                                  * (uint32_t)pHandle->hRUCFrequencyHz) / 1000U);
 757              		.loc 1 449 41 view .LVU294
 758 01b2 C3F38F13 		ubfx	r3, r3, #6, #16
 451:MCSDK_v6.1.0-Full/MotorControl/MCSDK/MCLib/Any/Src/revup_ctrl.c ****         pHandle->hPhaseRemainingTicks++;
 759              		.loc 1 451 9 is_stmt 1 view .LVU295
 760              		.loc 1 451 38 is_stmt 0 view .LVU296
 761 01b6 0133     		adds	r3, r3, #1
 762 01b8 A380     		strh	r3, [r4, #4]	@ movhi
 452:MCSDK_v6.1.0-Full/MotorControl/MCSDK/MCLib/Any/Src/revup_ctrl.c **** 
 453:MCSDK_v6.1.0-Full/MotorControl/MCSDK/MCLib/Any/Src/revup_ctrl.c ****         /*Set the next phases parameter pointer.*/
 454:MCSDK_v6.1.0-Full/MotorControl/MCSDK/MCLib/Any/Src/revup_ctrl.c ****         pHandle->pCurrentPhaseParams = pHandle->pCurrentPhaseParams->pNext; //cstat !MISRAC2012-Rul
 763              		.loc 1 454 9 is_stmt 1 view .LVU297
 764              		.loc 1 454 68 is_stmt 0 view .LVU298
 765 01ba 9368     		ldr	r3, [r2, #8]
 766              		.loc 1 454 38 view .LVU299
 767 01bc A360     		str	r3, [r4, #8]
 455:MCSDK_v6.1.0-Full/MotorControl/MCSDK/MCLib/Any/Src/revup_ctrl.c **** 
 456:MCSDK_v6.1.0-Full/MotorControl/MCSDK/MCLib/Any/Src/revup_ctrl.c ****         /*Increases the rev up stages counter.*/
 457:MCSDK_v6.1.0-Full/MotorControl/MCSDK/MCLib/Any/Src/revup_ctrl.c ****         pHandle->bStageCnt++;
 768              		.loc 1 457 9 is_stmt 1 view .LVU300
ARM GAS  /tmp/ccCiLUJR.s 			page 23


 769              		.loc 1 457 16 is_stmt 0 view .LVU301
 770 01be 94F85830 		ldrb	r3, [r4, #88]	@ zero_extendqisi2
 771              		.loc 1 457 27 view .LVU302
 772 01c2 0133     		adds	r3, r3, #1
 773 01c4 84F85830 		strb	r3, [r4, #88]
 240:MCSDK_v6.1.0-Full/MotorControl/MCSDK/MCLib/Any/Src/revup_ctrl.c **** #ifdef NULL_PTR_REV_UP_CTL
 774              		.loc 1 240 8 view .LVU303
 775 01c8 0120     		movs	r0, #1
 776 01ca 26E0     		b	.L31
 777              	.L43:
 425:MCSDK_v6.1.0-Full/MotorControl/MCSDK/MCLib/Any/Src/revup_ctrl.c ****           pHandle->OTFSCLowside = true;
 778              		.loc 1 425 11 is_stmt 1 view .LVU304
 779 01cc 606F     		ldr	r0, [r4, #116]
 780 01ce FFF7FEFF 		bl	PWMC_SwitchOffPWM
 781              	.LVL71:
 426:MCSDK_v6.1.0-Full/MotorControl/MCSDK/MCLib/Any/Src/revup_ctrl.c ****           PWMC_TurnOnLowSides(pHandle->pPWM, 0u);
 782              		.loc 1 426 11 view .LVU305
 426:MCSDK_v6.1.0-Full/MotorControl/MCSDK/MCLib/Any/Src/revup_ctrl.c ****           PWMC_TurnOnLowSides(pHandle->pPWM, 0u);
 783              		.loc 1 426 33 is_stmt 0 view .LVU306
 784 01d2 0123     		movs	r3, #1
 785 01d4 84F85430 		strb	r3, [r4, #84]
 427:MCSDK_v6.1.0-Full/MotorControl/MCSDK/MCLib/Any/Src/revup_ctrl.c ****           pHandle->bOTFRelCounter = 0U;
 786              		.loc 1 427 11 is_stmt 1 view .LVU307
 787 01d8 0021     		movs	r1, #0
 788 01da 606F     		ldr	r0, [r4, #116]
 789 01dc FFF7FEFF 		bl	PWMC_TurnOnLowSides
 790              	.LVL72:
 428:MCSDK_v6.1.0-Full/MotorControl/MCSDK/MCLib/Any/Src/revup_ctrl.c ****         }
 791              		.loc 1 428 11 view .LVU308
 428:MCSDK_v6.1.0-Full/MotorControl/MCSDK/MCLib/Any/Src/revup_ctrl.c ****         }
 792              		.loc 1 428 35 is_stmt 0 view .LVU309
 793 01e0 0023     		movs	r3, #0
 794 01e2 84F85330 		strb	r3, [r4, #83]
 795 01e6 C8E7     		b	.L34
 796              	.L44:
 432:MCSDK_v6.1.0-Full/MotorControl/MCSDK/MCLib/Any/Src/revup_ctrl.c ****           pHandle->OTFSCLowside = false;
 797              		.loc 1 432 11 is_stmt 1 view .LVU310
 798 01e8 606F     		ldr	r0, [r4, #116]
 799 01ea FFF7FEFF 		bl	PWMC_SwitchOnPWM
 800              	.LVL73:
 433:MCSDK_v6.1.0-Full/MotorControl/MCSDK/MCLib/Any/Src/revup_ctrl.c ****         }
 801              		.loc 1 433 11 view .LVU311
 433:MCSDK_v6.1.0-Full/MotorControl/MCSDK/MCLib/Any/Src/revup_ctrl.c ****         }
 802              		.loc 1 433 33 is_stmt 0 view .LVU312
 803 01ee 0023     		movs	r3, #0
 804 01f0 84F85430 		strb	r3, [r4, #84]
 805 01f4 C1E7     		b	.L34
 806              	.L32:
 458:MCSDK_v6.1.0-Full/MotorControl/MCSDK/MCLib/Any/Src/revup_ctrl.c ****       }
 459:MCSDK_v6.1.0-Full/MotorControl/MCSDK/MCLib/Any/Src/revup_ctrl.c ****       else
 460:MCSDK_v6.1.0-Full/MotorControl/MCSDK/MCLib/Any/Src/revup_ctrl.c ****       {
 461:MCSDK_v6.1.0-Full/MotorControl/MCSDK/MCLib/Any/Src/revup_ctrl.c ****         if (pHandle->bStageCnt == (pHandle->bPhaseNbr - (uint8_t)1)) /* End of user programmed revu
 807              		.loc 1 461 9 is_stmt 1 view .LVU313
 808              		.loc 1 461 20 is_stmt 0 view .LVU314
 809 01f6 94F85820 		ldrb	r2, [r4, #88]	@ zero_extendqisi2
 810              		.loc 1 461 43 view .LVU315
 811 01fa 94F84830 		ldrb	r3, [r4, #72]	@ zero_extendqisi2
ARM GAS  /tmp/ccCiLUJR.s 			page 24


 812              		.loc 1 461 55 view .LVU316
 813 01fe 013B     		subs	r3, r3, #1
 814              		.loc 1 461 12 view .LVU317
 815 0200 9A42     		cmp	r2, r3
 816 0202 0BD0     		beq	.L37
 462:MCSDK_v6.1.0-Full/MotorControl/MCSDK/MCLib/Any/Src/revup_ctrl.c ****         {
 463:MCSDK_v6.1.0-Full/MotorControl/MCSDK/MCLib/Any/Src/revup_ctrl.c ****           retVal = false;
 464:MCSDK_v6.1.0-Full/MotorControl/MCSDK/MCLib/Any/Src/revup_ctrl.c ****         }
 465:MCSDK_v6.1.0-Full/MotorControl/MCSDK/MCLib/Any/Src/revup_ctrl.c ****         else if (7U == pHandle->bStageCnt) /* End of first OTF runs */
 817              		.loc 1 465 14 is_stmt 1 view .LVU318
 818              		.loc 1 465 17 is_stmt 0 view .LVU319
 819 0204 072A     		cmp	r2, #7
 820 0206 01D0     		beq	.L45
 240:MCSDK_v6.1.0-Full/MotorControl/MCSDK/MCLib/Any/Src/revup_ctrl.c **** #ifdef NULL_PTR_REV_UP_CTL
 821              		.loc 1 240 8 view .LVU320
 822 0208 0120     		movs	r0, #1
 823 020a 06E0     		b	.L31
 824              	.L45:
 466:MCSDK_v6.1.0-Full/MotorControl/MCSDK/MCLib/Any/Src/revup_ctrl.c ****         {
 467:MCSDK_v6.1.0-Full/MotorControl/MCSDK/MCLib/Any/Src/revup_ctrl.c ****           pHandle->bStageCnt = 0U; /* Breaking state */
 825              		.loc 1 467 11 is_stmt 1 view .LVU321
 826              		.loc 1 467 30 is_stmt 0 view .LVU322
 827 020c 0023     		movs	r3, #0
 828 020e 84F85830 		strb	r3, [r4, #88]
 468:MCSDK_v6.1.0-Full/MotorControl/MCSDK/MCLib/Any/Src/revup_ctrl.c ****           pHandle->hPhaseRemainingTicks = 0U;
 829              		.loc 1 468 11 is_stmt 1 view .LVU323
 830              		.loc 1 468 41 is_stmt 0 view .LVU324
 831 0212 A380     		strh	r3, [r4, #4]	@ movhi
 240:MCSDK_v6.1.0-Full/MotorControl/MCSDK/MCLib/Any/Src/revup_ctrl.c **** #ifdef NULL_PTR_REV_UP_CTL
 832              		.loc 1 240 8 view .LVU325
 833 0214 0120     		movs	r0, #1
 834 0216 00E0     		b	.L31
 835              	.L36:
 240:MCSDK_v6.1.0-Full/MotorControl/MCSDK/MCLib/Any/Src/revup_ctrl.c **** #ifdef NULL_PTR_REV_UP_CTL
 836              		.loc 1 240 8 view .LVU326
 837 0218 0120     		movs	r0, #1
 838              	.L31:
 839              	.LVL74:
 469:MCSDK_v6.1.0-Full/MotorControl/MCSDK/MCLib/Any/Src/revup_ctrl.c ****         }
 470:MCSDK_v6.1.0-Full/MotorControl/MCSDK/MCLib/Any/Src/revup_ctrl.c ****         else
 471:MCSDK_v6.1.0-Full/MotorControl/MCSDK/MCLib/Any/Src/revup_ctrl.c ****         {
 472:MCSDK_v6.1.0-Full/MotorControl/MCSDK/MCLib/Any/Src/revup_ctrl.c ****           /* Nothing to do */
 473:MCSDK_v6.1.0-Full/MotorControl/MCSDK/MCLib/Any/Src/revup_ctrl.c ****         }
 840              		.loc 1 473 9 is_stmt 1 view .LVU327
 474:MCSDK_v6.1.0-Full/MotorControl/MCSDK/MCLib/Any/Src/revup_ctrl.c ****       }
 475:MCSDK_v6.1.0-Full/MotorControl/MCSDK/MCLib/Any/Src/revup_ctrl.c ****     }
 476:MCSDK_v6.1.0-Full/MotorControl/MCSDK/MCLib/Any/Src/revup_ctrl.c **** #ifdef NULL_PTR_REV_UP_CTL
 477:MCSDK_v6.1.0-Full/MotorControl/MCSDK/MCLib/Any/Src/revup_ctrl.c ****   }
 478:MCSDK_v6.1.0-Full/MotorControl/MCSDK/MCLib/Any/Src/revup_ctrl.c **** #endif
 479:MCSDK_v6.1.0-Full/MotorControl/MCSDK/MCLib/Any/Src/revup_ctrl.c ****   return (retVal);
 841              		.loc 1 479 3 view .LVU328
 480:MCSDK_v6.1.0-Full/MotorControl/MCSDK/MCLib/Any/Src/revup_ctrl.c **** }
 842              		.loc 1 480 1 is_stmt 0 view .LVU329
 843 021a F8BD     		pop	{r3, r4, r5, r6, r7, pc}
 844              	.LVL75:
 845              	.L37:
 463:MCSDK_v6.1.0-Full/MotorControl/MCSDK/MCLib/Any/Src/revup_ctrl.c ****         }
ARM GAS  /tmp/ccCiLUJR.s 			page 25


 846              		.loc 1 463 18 view .LVU330
 847 021c 0020     		movs	r0, #0
 848 021e FCE7     		b	.L31
 849              	.L47:
 850              		.align	2
 851              	.L46:
 852 0220 D34D6210 		.word	274877907
 853              		.cfi_endproc
 854              	.LFE1438:
 856              		.section	.text.RUC_Exec,"ax",%progbits
 857              		.align	1
 858              		.weak	RUC_Exec
 859              		.syntax unified
 860              		.thumb
 861              		.thumb_func
 862              		.fpu fpv4-sp-d16
 864              	RUC_Exec:
 865              	.LVL76:
 866              	.LFB1439:
 481:MCSDK_v6.1.0-Full/MotorControl/MCSDK/MCLib/Any/Src/revup_ctrl.c **** 
 482:MCSDK_v6.1.0-Full/MotorControl/MCSDK/MCLib/Any/Src/revup_ctrl.c **** /**
 483:MCSDK_v6.1.0-Full/MotorControl/MCSDK/MCLib/Any/Src/revup_ctrl.c ****   * @brief  FOC Main Rev-Up controller procedure executing overall programmed phases.
 484:MCSDK_v6.1.0-Full/MotorControl/MCSDK/MCLib/Any/Src/revup_ctrl.c ****   * @param  pHandle: Pointer on Handle structure of RevUp controller.
 485:MCSDK_v6.1.0-Full/MotorControl/MCSDK/MCLib/Any/Src/revup_ctrl.c ****   *  @retval Boolean set to false when entire Rev-Up phases have been completed.
 486:MCSDK_v6.1.0-Full/MotorControl/MCSDK/MCLib/Any/Src/revup_ctrl.c ****   */
 487:MCSDK_v6.1.0-Full/MotorControl/MCSDK/MCLib/Any/Src/revup_ctrl.c **** __weak bool RUC_Exec(RevUpCtrl_Handle_t *pHandle)
 488:MCSDK_v6.1.0-Full/MotorControl/MCSDK/MCLib/Any/Src/revup_ctrl.c **** {
 867              		.loc 1 488 1 is_stmt 1 view -0
 868              		.cfi_startproc
 869              		@ args = 0, pretend = 0, frame = 0
 870              		@ frame_needed = 0, uses_anonymous_args = 0
 871              		.loc 1 488 1 is_stmt 0 view .LVU332
 872 0000 10B5     		push	{r4, lr}
 873              		.cfi_def_cfa_offset 8
 874              		.cfi_offset 4, -8
 875              		.cfi_offset 14, -4
 876 0002 0446     		mov	r4, r0
 489:MCSDK_v6.1.0-Full/MotorControl/MCSDK/MCLib/Any/Src/revup_ctrl.c ****   bool retVal = true;
 877              		.loc 1 489 3 is_stmt 1 view .LVU333
 878              	.LVL77:
 490:MCSDK_v6.1.0-Full/MotorControl/MCSDK/MCLib/Any/Src/revup_ctrl.c **** #ifdef NULL_PTR_REV_UP_CTL
 491:MCSDK_v6.1.0-Full/MotorControl/MCSDK/MCLib/Any/Src/revup_ctrl.c ****   if (MC_NULL == pHandle)
 492:MCSDK_v6.1.0-Full/MotorControl/MCSDK/MCLib/Any/Src/revup_ctrl.c ****   {
 493:MCSDK_v6.1.0-Full/MotorControl/MCSDK/MCLib/Any/Src/revup_ctrl.c ****     retVal = false;
 494:MCSDK_v6.1.0-Full/MotorControl/MCSDK/MCLib/Any/Src/revup_ctrl.c ****   }
 495:MCSDK_v6.1.0-Full/MotorControl/MCSDK/MCLib/Any/Src/revup_ctrl.c ****   else
 496:MCSDK_v6.1.0-Full/MotorControl/MCSDK/MCLib/Any/Src/revup_ctrl.c ****   {
 497:MCSDK_v6.1.0-Full/MotorControl/MCSDK/MCLib/Any/Src/revup_ctrl.c **** #endif
 498:MCSDK_v6.1.0-Full/MotorControl/MCSDK/MCLib/Any/Src/revup_ctrl.c ****     if (pHandle->hPhaseRemainingTicks > 0U)
 879              		.loc 1 498 5 view .LVU334
 880              		.loc 1 498 16 is_stmt 0 view .LVU335
 881 0004 8388     		ldrh	r3, [r0, #4]
 882              		.loc 1 498 8 view .LVU336
 883 0006 0BB1     		cbz	r3, .L49
 499:MCSDK_v6.1.0-Full/MotorControl/MCSDK/MCLib/Any/Src/revup_ctrl.c ****     {
 500:MCSDK_v6.1.0-Full/MotorControl/MCSDK/MCLib/Any/Src/revup_ctrl.c ****       /* Decrease the hPhaseRemainingTicks.*/
 501:MCSDK_v6.1.0-Full/MotorControl/MCSDK/MCLib/Any/Src/revup_ctrl.c ****       pHandle->hPhaseRemainingTicks--;
ARM GAS  /tmp/ccCiLUJR.s 			page 26


 884              		.loc 1 501 7 is_stmt 1 view .LVU337
 885              		.loc 1 501 36 is_stmt 0 view .LVU338
 886 0008 013B     		subs	r3, r3, #1
 887 000a 8380     		strh	r3, [r0, #4]	@ movhi
 888              	.L49:
 502:MCSDK_v6.1.0-Full/MotorControl/MCSDK/MCLib/Any/Src/revup_ctrl.c **** 
 503:MCSDK_v6.1.0-Full/MotorControl/MCSDK/MCLib/Any/Src/revup_ctrl.c ****     } /* hPhaseRemainingTicks > 0 */
 504:MCSDK_v6.1.0-Full/MotorControl/MCSDK/MCLib/Any/Src/revup_ctrl.c **** 
 505:MCSDK_v6.1.0-Full/MotorControl/MCSDK/MCLib/Any/Src/revup_ctrl.c ****     if (0U == pHandle->hPhaseRemainingTicks)
 889              		.loc 1 505 5 is_stmt 1 view .LVU339
 890              		.loc 1 505 22 is_stmt 0 view .LVU340
 891 000c A388     		ldrh	r3, [r4, #4]
 892              		.loc 1 505 8 view .LVU341
 893 000e 4BBB     		cbnz	r3, .L51
 506:MCSDK_v6.1.0-Full/MotorControl/MCSDK/MCLib/Any/Src/revup_ctrl.c ****     {
 507:MCSDK_v6.1.0-Full/MotorControl/MCSDK/MCLib/Any/Src/revup_ctrl.c ****       if (pHandle->pCurrentPhaseParams != MC_NULL)
 894              		.loc 1 507 7 is_stmt 1 view .LVU342
 895              		.loc 1 507 18 is_stmt 0 view .LVU343
 896 0010 A368     		ldr	r3, [r4, #8]
 897              		.loc 1 507 10 view .LVU344
 898 0012 4BB3     		cbz	r3, .L52
 508:MCSDK_v6.1.0-Full/MotorControl/MCSDK/MCLib/Any/Src/revup_ctrl.c ****       {
 509:MCSDK_v6.1.0-Full/MotorControl/MCSDK/MCLib/Any/Src/revup_ctrl.c ****         /* If it becomes zero the current phase has been completed.*/
 510:MCSDK_v6.1.0-Full/MotorControl/MCSDK/MCLib/Any/Src/revup_ctrl.c ****         /* Gives the next command to STC and VSS.*/
 511:MCSDK_v6.1.0-Full/MotorControl/MCSDK/MCLib/Any/Src/revup_ctrl.c ****         (void)STC_ExecRamp(pHandle->pSTC, pHandle->pCurrentPhaseParams->hFinalTorque * pHandle->hDi
 899              		.loc 1 511 9 is_stmt 1 view .LVU345
 900              		.loc 1 511 71 is_stmt 0 view .LVU346
 901 0014 9988     		ldrh	r1, [r3, #4]
 902              		.loc 1 511 95 view .LVU347
 903 0016 E288     		ldrh	r2, [r4, #6]
 904              		.loc 1 511 86 view .LVU348
 905 0018 11FB02F1 		smulbb	r1, r1, r2
 906              		.loc 1 511 15 view .LVU349
 907 001c 1A88     		ldrh	r2, [r3]
 908 001e 09B2     		sxth	r1, r1
 909 0020 A06E     		ldr	r0, [r4, #104]
 910              	.LVL78:
 911              		.loc 1 511 15 view .LVU350
 912 0022 FFF7FEFF 		bl	STC_ExecRamp
 913              	.LVL79:
 512:MCSDK_v6.1.0-Full/MotorControl/MCSDK/MCLib/Any/Src/revup_ctrl.c ****                            (uint32_t)(pHandle->pCurrentPhaseParams->hDurationms));
 513:MCSDK_v6.1.0-Full/MotorControl/MCSDK/MCLib/Any/Src/revup_ctrl.c **** 
 514:MCSDK_v6.1.0-Full/MotorControl/MCSDK/MCLib/Any/Src/revup_ctrl.c ****         VSS_SetMecAcceleration(pHandle->pVSS,
 914              		.loc 1 514 9 is_stmt 1 view .LVU351
 515:MCSDK_v6.1.0-Full/MotorControl/MCSDK/MCLib/Any/Src/revup_ctrl.c ****                                pHandle->pCurrentPhaseParams->hFinalMecSpeedUnit * pHandle->hDirecti
 915              		.loc 1 515 39 is_stmt 0 view .LVU352
 916 0026 A368     		ldr	r3, [r4, #8]
 917              		.loc 1 515 60 view .LVU353
 918 0028 5988     		ldrh	r1, [r3, #2]
 919              		.loc 1 515 90 view .LVU354
 920 002a E288     		ldrh	r2, [r4, #6]
 921              		.loc 1 515 81 view .LVU355
 922 002c 11FB02F1 		smulbb	r1, r1, r2
 514:MCSDK_v6.1.0-Full/MotorControl/MCSDK/MCLib/Any/Src/revup_ctrl.c ****                                pHandle->pCurrentPhaseParams->hFinalMecSpeedUnit * pHandle->hDirecti
 923              		.loc 1 514 9 view .LVU356
 924 0030 1A88     		ldrh	r2, [r3]
 925 0032 09B2     		sxth	r1, r1
ARM GAS  /tmp/ccCiLUJR.s 			page 27


 926 0034 E06E     		ldr	r0, [r4, #108]
 927 0036 FFF7FEFF 		bl	VSS_SetMecAcceleration
 928              	.LVL80:
 516:MCSDK_v6.1.0-Full/MotorControl/MCSDK/MCLib/Any/Src/revup_ctrl.c ****                                pHandle->pCurrentPhaseParams->hDurationms);
 517:MCSDK_v6.1.0-Full/MotorControl/MCSDK/MCLib/Any/Src/revup_ctrl.c **** 
 518:MCSDK_v6.1.0-Full/MotorControl/MCSDK/MCLib/Any/Src/revup_ctrl.c ****         /* Compute hPhaseRemainingTicks.*/
 519:MCSDK_v6.1.0-Full/MotorControl/MCSDK/MCLib/Any/Src/revup_ctrl.c ****         pHandle->hPhaseRemainingTicks = (uint16_t)((((uint32_t)pHandle->pCurrentPhaseParams->hDurat
 929              		.loc 1 519 9 is_stmt 1 view .LVU357
 930              		.loc 1 519 71 is_stmt 0 view .LVU358
 931 003a A268     		ldr	r2, [r4, #8]
 932              		.loc 1 519 92 view .LVU359
 933 003c 1188     		ldrh	r1, [r2]
 520:MCSDK_v6.1.0-Full/MotorControl/MCSDK/MCLib/Any/Src/revup_ctrl.c ****                                                   * ((uint32_t)pHandle->hRUCFrequencyHz)) / 1000U )
 934              		.loc 1 520 71 view .LVU360
 935 003e 2388     		ldrh	r3, [r4]
 936              		.loc 1 520 51 view .LVU361
 937 0040 03FB01F3 		mul	r3, r3, r1
 938              		.loc 1 520 91 view .LVU362
 939 0044 0949     		ldr	r1, .L54
 940 0046 A1FB0313 		umull	r1, r3, r1, r3
 519:MCSDK_v6.1.0-Full/MotorControl/MCSDK/MCLib/Any/Src/revup_ctrl.c ****                                                   * ((uint32_t)pHandle->hRUCFrequencyHz)) / 1000U )
 941              		.loc 1 519 41 view .LVU363
 942 004a C3F38F13 		ubfx	r3, r3, #6, #16
 521:MCSDK_v6.1.0-Full/MotorControl/MCSDK/MCLib/Any/Src/revup_ctrl.c ****         pHandle->hPhaseRemainingTicks++;
 943              		.loc 1 521 9 is_stmt 1 view .LVU364
 944              		.loc 1 521 38 is_stmt 0 view .LVU365
 945 004e 0133     		adds	r3, r3, #1
 946 0050 A380     		strh	r3, [r4, #4]	@ movhi
 522:MCSDK_v6.1.0-Full/MotorControl/MCSDK/MCLib/Any/Src/revup_ctrl.c **** 
 523:MCSDK_v6.1.0-Full/MotorControl/MCSDK/MCLib/Any/Src/revup_ctrl.c ****         /*Set the next phases parameter pointer.*/
 524:MCSDK_v6.1.0-Full/MotorControl/MCSDK/MCLib/Any/Src/revup_ctrl.c ****         pHandle->pCurrentPhaseParams = pHandle->pCurrentPhaseParams->pNext; //cstat !MISRAC2012-Rul
 947              		.loc 1 524 9 is_stmt 1 view .LVU366
 948              		.loc 1 524 68 is_stmt 0 view .LVU367
 949 0052 9368     		ldr	r3, [r2, #8]
 950              		.loc 1 524 38 view .LVU368
 951 0054 A360     		str	r3, [r4, #8]
 525:MCSDK_v6.1.0-Full/MotorControl/MCSDK/MCLib/Any/Src/revup_ctrl.c **** 
 526:MCSDK_v6.1.0-Full/MotorControl/MCSDK/MCLib/Any/Src/revup_ctrl.c ****         /*Increases the rev up stages counter.*/
 527:MCSDK_v6.1.0-Full/MotorControl/MCSDK/MCLib/Any/Src/revup_ctrl.c ****         pHandle->bStageCnt++;
 952              		.loc 1 527 9 is_stmt 1 view .LVU369
 953              		.loc 1 527 16 is_stmt 0 view .LVU370
 954 0056 94F85830 		ldrb	r3, [r4, #88]	@ zero_extendqisi2
 955              		.loc 1 527 27 view .LVU371
 956 005a 0133     		adds	r3, r3, #1
 957 005c 84F85830 		strb	r3, [r4, #88]
 489:MCSDK_v6.1.0-Full/MotorControl/MCSDK/MCLib/Any/Src/revup_ctrl.c **** #ifdef NULL_PTR_REV_UP_CTL
 958              		.loc 1 489 8 view .LVU372
 959 0060 0120     		movs	r0, #1
 960 0062 00E0     		b	.L50
 961              	.LVL81:
 962              	.L51:
 489:MCSDK_v6.1.0-Full/MotorControl/MCSDK/MCLib/Any/Src/revup_ctrl.c **** #ifdef NULL_PTR_REV_UP_CTL
 963              		.loc 1 489 8 view .LVU373
 964 0064 0120     		movs	r0, #1
 965              	.LVL82:
 966              	.L50:
 528:MCSDK_v6.1.0-Full/MotorControl/MCSDK/MCLib/Any/Src/revup_ctrl.c ****       }
ARM GAS  /tmp/ccCiLUJR.s 			page 28


 529:MCSDK_v6.1.0-Full/MotorControl/MCSDK/MCLib/Any/Src/revup_ctrl.c ****       else
 530:MCSDK_v6.1.0-Full/MotorControl/MCSDK/MCLib/Any/Src/revup_ctrl.c ****       {
 531:MCSDK_v6.1.0-Full/MotorControl/MCSDK/MCLib/Any/Src/revup_ctrl.c ****         retVal = false;
 532:MCSDK_v6.1.0-Full/MotorControl/MCSDK/MCLib/Any/Src/revup_ctrl.c ****       }
 533:MCSDK_v6.1.0-Full/MotorControl/MCSDK/MCLib/Any/Src/revup_ctrl.c ****     }
 534:MCSDK_v6.1.0-Full/MotorControl/MCSDK/MCLib/Any/Src/revup_ctrl.c **** #ifdef NULL_PTR_REV_UP_CTL
 535:MCSDK_v6.1.0-Full/MotorControl/MCSDK/MCLib/Any/Src/revup_ctrl.c ****   }
 536:MCSDK_v6.1.0-Full/MotorControl/MCSDK/MCLib/Any/Src/revup_ctrl.c **** #endif
 537:MCSDK_v6.1.0-Full/MotorControl/MCSDK/MCLib/Any/Src/revup_ctrl.c ****   return (retVal);
 967              		.loc 1 537 3 is_stmt 1 view .LVU374
 538:MCSDK_v6.1.0-Full/MotorControl/MCSDK/MCLib/Any/Src/revup_ctrl.c **** }
 968              		.loc 1 538 1 is_stmt 0 view .LVU375
 969 0066 10BD     		pop	{r4, pc}
 970              	.LVL83:
 971              	.L52:
 531:MCSDK_v6.1.0-Full/MotorControl/MCSDK/MCLib/Any/Src/revup_ctrl.c ****       }
 972              		.loc 1 531 16 view .LVU376
 973 0068 0020     		movs	r0, #0
 974              	.LVL84:
 531:MCSDK_v6.1.0-Full/MotorControl/MCSDK/MCLib/Any/Src/revup_ctrl.c ****       }
 975              		.loc 1 531 16 view .LVU377
 976 006a FCE7     		b	.L50
 977              	.L55:
 978              		.align	2
 979              	.L54:
 980 006c D34D6210 		.word	274877907
 981              		.cfi_endproc
 982              	.LFE1439:
 984              		.section	.text.RUC_IsAlignStageNow,"ax",%progbits
 985              		.align	1
 986              		.global	RUC_IsAlignStageNow
 987              		.syntax unified
 988              		.thumb
 989              		.thumb_func
 990              		.fpu fpv4-sp-d16
 992              	RUC_IsAlignStageNow:
 993              	.LVL85:
 994              	.LFB1440:
 539:MCSDK_v6.1.0-Full/MotorControl/MCSDK/MCLib/Any/Src/revup_ctrl.c **** 
 540:MCSDK_v6.1.0-Full/MotorControl/MCSDK/MCLib/Any/Src/revup_ctrl.c **** /**
 541:MCSDK_v6.1.0-Full/MotorControl/MCSDK/MCLib/Any/Src/revup_ctrl.c ****   * @brief  It checks if this stage is used for align motor.
 542:MCSDK_v6.1.0-Full/MotorControl/MCSDK/MCLib/Any/Src/revup_ctrl.c ****   * @param  pHandle: Pointer on Handle structure of RevUp controller.
 543:MCSDK_v6.1.0-Full/MotorControl/MCSDK/MCLib/Any/Src/revup_ctrl.c ****   * @retval Returns 1 if the alignment is correct otherwise it returns 0
 544:MCSDK_v6.1.0-Full/MotorControl/MCSDK/MCLib/Any/Src/revup_ctrl.c ****   */
 545:MCSDK_v6.1.0-Full/MotorControl/MCSDK/MCLib/Any/Src/revup_ctrl.c **** uint8_t RUC_IsAlignStageNow(RevUpCtrl_Handle_t *pHandle)
 546:MCSDK_v6.1.0-Full/MotorControl/MCSDK/MCLib/Any/Src/revup_ctrl.c **** {
 995              		.loc 1 546 1 is_stmt 1 view -0
 996              		.cfi_startproc
 997              		@ args = 0, pretend = 0, frame = 0
 998              		@ frame_needed = 0, uses_anonymous_args = 0
 999              		.loc 1 546 1 is_stmt 0 view .LVU379
 1000 0000 08B5     		push	{r3, lr}
 1001              		.cfi_def_cfa_offset 8
 1002              		.cfi_offset 3, -8
 1003              		.cfi_offset 14, -4
 547:MCSDK_v6.1.0-Full/MotorControl/MCSDK/MCLib/Any/Src/revup_ctrl.c ****   uint8_t align_flag = 0;
 1004              		.loc 1 547 3 is_stmt 1 view .LVU380
ARM GAS  /tmp/ccCiLUJR.s 			page 29


 1005              	.LVL86:
 548:MCSDK_v6.1.0-Full/MotorControl/MCSDK/MCLib/Any/Src/revup_ctrl.c **** #ifdef NULL_PTR_REV_UP_CTL
 549:MCSDK_v6.1.0-Full/MotorControl/MCSDK/MCLib/Any/Src/revup_ctrl.c ****   if (MC_NULL == pHandle)
 550:MCSDK_v6.1.0-Full/MotorControl/MCSDK/MCLib/Any/Src/revup_ctrl.c ****   {
 551:MCSDK_v6.1.0-Full/MotorControl/MCSDK/MCLib/Any/Src/revup_ctrl.c ****     /* Nothing to do */
 552:MCSDK_v6.1.0-Full/MotorControl/MCSDK/MCLib/Any/Src/revup_ctrl.c ****   }
 553:MCSDK_v6.1.0-Full/MotorControl/MCSDK/MCLib/Any/Src/revup_ctrl.c ****   else
 554:MCSDK_v6.1.0-Full/MotorControl/MCSDK/MCLib/Any/Src/revup_ctrl.c ****   {
 555:MCSDK_v6.1.0-Full/MotorControl/MCSDK/MCLib/Any/Src/revup_ctrl.c **** #endif
 556:MCSDK_v6.1.0-Full/MotorControl/MCSDK/MCLib/Any/Src/revup_ctrl.c ****     int16_t speed;
 1006              		.loc 1 556 5 view .LVU381
 557:MCSDK_v6.1.0-Full/MotorControl/MCSDK/MCLib/Any/Src/revup_ctrl.c ****     speed = RUC_GetPhaseFinalMecSpeed01Hz(pHandle, pHandle->bStageCnt);
 1007              		.loc 1 557 5 view .LVU382
 1008              		.loc 1 557 13 is_stmt 0 view .LVU383
 1009 0002 90F85810 		ldrb	r1, [r0, #88]	@ zero_extendqisi2
 1010 0006 FFF7FEFF 		bl	RUC_GetPhaseFinalMecSpeed01Hz
 1011              	.LVL87:
 558:MCSDK_v6.1.0-Full/MotorControl/MCSDK/MCLib/Any/Src/revup_ctrl.c ****     if (0 == speed)
 1012              		.loc 1 558 5 is_stmt 1 view .LVU384
 1013              		.loc 1 558 8 is_stmt 0 view .LVU385
 1014 000a 08B1     		cbz	r0, .L58
 547:MCSDK_v6.1.0-Full/MotorControl/MCSDK/MCLib/Any/Src/revup_ctrl.c **** #ifdef NULL_PTR_REV_UP_CTL
 1015              		.loc 1 547 11 view .LVU386
 1016 000c 0020     		movs	r0, #0
 1017              	.LVL88:
 1018              	.L57:
 559:MCSDK_v6.1.0-Full/MotorControl/MCSDK/MCLib/Any/Src/revup_ctrl.c ****     {
 560:MCSDK_v6.1.0-Full/MotorControl/MCSDK/MCLib/Any/Src/revup_ctrl.c ****       align_flag = 1;
 561:MCSDK_v6.1.0-Full/MotorControl/MCSDK/MCLib/Any/Src/revup_ctrl.c ****     }
 562:MCSDK_v6.1.0-Full/MotorControl/MCSDK/MCLib/Any/Src/revup_ctrl.c **** #ifdef NULL_PTR_REV_UP_CTL
 563:MCSDK_v6.1.0-Full/MotorControl/MCSDK/MCLib/Any/Src/revup_ctrl.c ****   }
 564:MCSDK_v6.1.0-Full/MotorControl/MCSDK/MCLib/Any/Src/revup_ctrl.c **** #endif
 565:MCSDK_v6.1.0-Full/MotorControl/MCSDK/MCLib/Any/Src/revup_ctrl.c ****   return (align_flag);
 1019              		.loc 1 565 3 is_stmt 1 view .LVU387
 566:MCSDK_v6.1.0-Full/MotorControl/MCSDK/MCLib/Any/Src/revup_ctrl.c **** }
 1020              		.loc 1 566 1 is_stmt 0 view .LVU388
 1021 000e 08BD     		pop	{r3, pc}
 1022              	.LVL89:
 1023              	.L58:
 560:MCSDK_v6.1.0-Full/MotorControl/MCSDK/MCLib/Any/Src/revup_ctrl.c ****     }
 1024              		.loc 1 560 18 view .LVU389
 1025 0010 0120     		movs	r0, #1
 1026              	.LVL90:
 560:MCSDK_v6.1.0-Full/MotorControl/MCSDK/MCLib/Any/Src/revup_ctrl.c ****     }
 1027              		.loc 1 560 18 view .LVU390
 1028 0012 FCE7     		b	.L57
 1029              		.cfi_endproc
 1030              	.LFE1440:
 1032              		.section	.text.RUC_Completed,"ax",%progbits
 1033              		.align	1
 1034              		.weak	RUC_Completed
 1035              		.syntax unified
 1036              		.thumb
 1037              		.thumb_func
 1038              		.fpu fpv4-sp-d16
 1040              	RUC_Completed:
 1041              	.LVL91:
ARM GAS  /tmp/ccCiLUJR.s 			page 30


 1042              	.LFB1441:
 567:MCSDK_v6.1.0-Full/MotorControl/MCSDK/MCLib/Any/Src/revup_ctrl.c **** 
 568:MCSDK_v6.1.0-Full/MotorControl/MCSDK/MCLib/Any/Src/revup_ctrl.c **** /**
 569:MCSDK_v6.1.0-Full/MotorControl/MCSDK/MCLib/Any/Src/revup_ctrl.c ****   * @brief  Provide current state of Rev-Up controller procedure.
 570:MCSDK_v6.1.0-Full/MotorControl/MCSDK/MCLib/Any/Src/revup_ctrl.c ****   * @param  pHandle: Pointer on Handle structure of RevUp controller.
 571:MCSDK_v6.1.0-Full/MotorControl/MCSDK/MCLib/Any/Src/revup_ctrl.c ****   *  @retval Boolean set to true when entire Rev-Up phases have been completed.
 572:MCSDK_v6.1.0-Full/MotorControl/MCSDK/MCLib/Any/Src/revup_ctrl.c ****   */
 573:MCSDK_v6.1.0-Full/MotorControl/MCSDK/MCLib/Any/Src/revup_ctrl.c **** __weak bool RUC_Completed(RevUpCtrl_Handle_t *pHandle)
 574:MCSDK_v6.1.0-Full/MotorControl/MCSDK/MCLib/Any/Src/revup_ctrl.c **** {
 1043              		.loc 1 574 1 is_stmt 1 view -0
 1044              		.cfi_startproc
 1045              		@ args = 0, pretend = 0, frame = 0
 1046              		@ frame_needed = 0, uses_anonymous_args = 0
 1047              		@ link register save eliminated.
 575:MCSDK_v6.1.0-Full/MotorControl/MCSDK/MCLib/Any/Src/revup_ctrl.c ****   bool retVal = false;
 1048              		.loc 1 575 3 view .LVU392
 576:MCSDK_v6.1.0-Full/MotorControl/MCSDK/MCLib/Any/Src/revup_ctrl.c **** #ifdef NULL_PTR_REV_UP_CTL
 577:MCSDK_v6.1.0-Full/MotorControl/MCSDK/MCLib/Any/Src/revup_ctrl.c ****   if (MC_NULL == pHandle)
 578:MCSDK_v6.1.0-Full/MotorControl/MCSDK/MCLib/Any/Src/revup_ctrl.c ****   {
 579:MCSDK_v6.1.0-Full/MotorControl/MCSDK/MCLib/Any/Src/revup_ctrl.c ****     /* Nothing to do */
 580:MCSDK_v6.1.0-Full/MotorControl/MCSDK/MCLib/Any/Src/revup_ctrl.c ****   }
 581:MCSDK_v6.1.0-Full/MotorControl/MCSDK/MCLib/Any/Src/revup_ctrl.c ****   else
 582:MCSDK_v6.1.0-Full/MotorControl/MCSDK/MCLib/Any/Src/revup_ctrl.c ****   {
 583:MCSDK_v6.1.0-Full/MotorControl/MCSDK/MCLib/Any/Src/revup_ctrl.c **** #endif
 584:MCSDK_v6.1.0-Full/MotorControl/MCSDK/MCLib/Any/Src/revup_ctrl.c ****     if (MC_NULL == pHandle->pCurrentPhaseParams)
 1049              		.loc 1 584 5 view .LVU393
 1050              		.loc 1 584 27 is_stmt 0 view .LVU394
 1051 0000 8368     		ldr	r3, [r0, #8]
 1052              		.loc 1 584 8 view .LVU395
 1053 0002 0BB1     		cbz	r3, .L62
 575:MCSDK_v6.1.0-Full/MotorControl/MCSDK/MCLib/Any/Src/revup_ctrl.c ****   bool retVal = false;
 1054              		.loc 1 575 8 view .LVU396
 1055 0004 0020     		movs	r0, #0
 1056              	.LVL92:
 575:MCSDK_v6.1.0-Full/MotorControl/MCSDK/MCLib/Any/Src/revup_ctrl.c ****   bool retVal = false;
 1057              		.loc 1 575 8 view .LVU397
 1058 0006 7047     		bx	lr
 1059              	.LVL93:
 1060              	.L62:
 585:MCSDK_v6.1.0-Full/MotorControl/MCSDK/MCLib/Any/Src/revup_ctrl.c ****     {
 586:MCSDK_v6.1.0-Full/MotorControl/MCSDK/MCLib/Any/Src/revup_ctrl.c ****       retVal = true;
 1061              		.loc 1 586 14 view .LVU398
 1062 0008 0120     		movs	r0, #1
 1063              	.LVL94:
 587:MCSDK_v6.1.0-Full/MotorControl/MCSDK/MCLib/Any/Src/revup_ctrl.c ****     }
 588:MCSDK_v6.1.0-Full/MotorControl/MCSDK/MCLib/Any/Src/revup_ctrl.c **** #ifdef NULL_PTR_REV_UP_CTL
 589:MCSDK_v6.1.0-Full/MotorControl/MCSDK/MCLib/Any/Src/revup_ctrl.c ****   }
 590:MCSDK_v6.1.0-Full/MotorControl/MCSDK/MCLib/Any/Src/revup_ctrl.c **** #endif
 591:MCSDK_v6.1.0-Full/MotorControl/MCSDK/MCLib/Any/Src/revup_ctrl.c ****   return (retVal);
 1064              		.loc 1 591 3 is_stmt 1 view .LVU399
 592:MCSDK_v6.1.0-Full/MotorControl/MCSDK/MCLib/Any/Src/revup_ctrl.c **** }
 1065              		.loc 1 592 1 is_stmt 0 view .LVU400
 1066 000a 7047     		bx	lr
 1067              		.cfi_endproc
 1068              	.LFE1441:
 1070              		.section	.text.RUC_Stop,"ax",%progbits
 1071              		.align	1
ARM GAS  /tmp/ccCiLUJR.s 			page 31


 1072              		.weak	RUC_Stop
 1073              		.syntax unified
 1074              		.thumb
 1075              		.thumb_func
 1076              		.fpu fpv4-sp-d16
 1078              	RUC_Stop:
 1079              	.LVL95:
 1080              	.LFB1442:
 593:MCSDK_v6.1.0-Full/MotorControl/MCSDK/MCLib/Any/Src/revup_ctrl.c **** 
 594:MCSDK_v6.1.0-Full/MotorControl/MCSDK/MCLib/Any/Src/revup_ctrl.c **** /**
 595:MCSDK_v6.1.0-Full/MotorControl/MCSDK/MCLib/Any/Src/revup_ctrl.c ****   * @brief  Allow to exit from Rev-Up process at the current rotor speed.
 596:MCSDK_v6.1.0-Full/MotorControl/MCSDK/MCLib/Any/Src/revup_ctrl.c ****   * @param  pHandle: Pointer on Handle structure of RevUp controller.
 597:MCSDK_v6.1.0-Full/MotorControl/MCSDK/MCLib/Any/Src/revup_ctrl.c ****   */
 598:MCSDK_v6.1.0-Full/MotorControl/MCSDK/MCLib/Any/Src/revup_ctrl.c **** __weak void RUC_Stop(RevUpCtrl_Handle_t *pHandle)
 599:MCSDK_v6.1.0-Full/MotorControl/MCSDK/MCLib/Any/Src/revup_ctrl.c **** {
 1081              		.loc 1 599 1 is_stmt 1 view -0
 1082              		.cfi_startproc
 1083              		@ args = 0, pretend = 0, frame = 0
 1084              		@ frame_needed = 0, uses_anonymous_args = 0
 1085              		.loc 1 599 1 is_stmt 0 view .LVU402
 1086 0000 38B5     		push	{r3, r4, r5, lr}
 1087              		.cfi_def_cfa_offset 16
 1088              		.cfi_offset 3, -16
 1089              		.cfi_offset 4, -12
 1090              		.cfi_offset 5, -8
 1091              		.cfi_offset 14, -4
 600:MCSDK_v6.1.0-Full/MotorControl/MCSDK/MCLib/Any/Src/revup_ctrl.c **** #ifdef NULL_PTR_REV_UP_CTL
 601:MCSDK_v6.1.0-Full/MotorControl/MCSDK/MCLib/Any/Src/revup_ctrl.c ****   if (MC_NULL == pHandle)
 602:MCSDK_v6.1.0-Full/MotorControl/MCSDK/MCLib/Any/Src/revup_ctrl.c ****   {
 603:MCSDK_v6.1.0-Full/MotorControl/MCSDK/MCLib/Any/Src/revup_ctrl.c ****     /* Nothing to do */
 604:MCSDK_v6.1.0-Full/MotorControl/MCSDK/MCLib/Any/Src/revup_ctrl.c ****   }
 605:MCSDK_v6.1.0-Full/MotorControl/MCSDK/MCLib/Any/Src/revup_ctrl.c ****   else
 606:MCSDK_v6.1.0-Full/MotorControl/MCSDK/MCLib/Any/Src/revup_ctrl.c ****   {
 607:MCSDK_v6.1.0-Full/MotorControl/MCSDK/MCLib/Any/Src/revup_ctrl.c **** #endif
 608:MCSDK_v6.1.0-Full/MotorControl/MCSDK/MCLib/Any/Src/revup_ctrl.c ****     VirtualSpeedSensor_Handle_t *pVSS = pHandle->pVSS;
 1092              		.loc 1 608 5 is_stmt 1 view .LVU403
 1093              		.loc 1 608 34 is_stmt 0 view .LVU404
 1094 0002 C56E     		ldr	r5, [r0, #108]
 1095              	.LVL96:
 609:MCSDK_v6.1.0-Full/MotorControl/MCSDK/MCLib/Any/Src/revup_ctrl.c ****     pHandle->pCurrentPhaseParams = MC_NULL;
 1096              		.loc 1 609 5 is_stmt 1 view .LVU405
 1097              		.loc 1 609 34 is_stmt 0 view .LVU406
 1098 0004 0024     		movs	r4, #0
 1099 0006 8460     		str	r4, [r0, #8]
 610:MCSDK_v6.1.0-Full/MotorControl/MCSDK/MCLib/Any/Src/revup_ctrl.c ****     pHandle->hPhaseRemainingTicks = 0U;
 1100              		.loc 1 610 5 is_stmt 1 view .LVU407
 1101              		.loc 1 610 35 is_stmt 0 view .LVU408
 1102 0008 8480     		strh	r4, [r0, #4]	@ movhi
 611:MCSDK_v6.1.0-Full/MotorControl/MCSDK/MCLib/Any/Src/revup_ctrl.c ****     VSS_SetMecAcceleration(pVSS, SPD_GetAvrgMecSpeedUnit(&pVSS->_Super), 0U);
 1103              		.loc 1 611 5 is_stmt 1 view .LVU409
 1104 000a 2846     		mov	r0, r5
 1105              	.LVL97:
 1106              		.loc 1 611 5 is_stmt 0 view .LVU410
 1107 000c FFF7FEFF 		bl	SPD_GetAvrgMecSpeedUnit
 1108              	.LVL98:
 1109 0010 0146     		mov	r1, r0
 1110 0012 2246     		mov	r2, r4
ARM GAS  /tmp/ccCiLUJR.s 			page 32


 1111 0014 2846     		mov	r0, r5
 1112 0016 FFF7FEFF 		bl	VSS_SetMecAcceleration
 1113              	.LVL99:
 612:MCSDK_v6.1.0-Full/MotorControl/MCSDK/MCLib/Any/Src/revup_ctrl.c **** #ifdef NULL_PTR_REV_UP_CTL
 613:MCSDK_v6.1.0-Full/MotorControl/MCSDK/MCLib/Any/Src/revup_ctrl.c ****   }
 614:MCSDK_v6.1.0-Full/MotorControl/MCSDK/MCLib/Any/Src/revup_ctrl.c **** #endif
 615:MCSDK_v6.1.0-Full/MotorControl/MCSDK/MCLib/Any/Src/revup_ctrl.c **** }
 1114              		.loc 1 615 1 view .LVU411
 1115 001a 38BD     		pop	{r3, r4, r5, pc}
 1116              		.loc 1 615 1 view .LVU412
 1117              		.cfi_endproc
 1118              	.LFE1442:
 1120              		.section	.text.RUC_FirstAccelerationStageReached,"ax",%progbits
 1121              		.align	1
 1122              		.weak	RUC_FirstAccelerationStageReached
 1123              		.syntax unified
 1124              		.thumb
 1125              		.thumb_func
 1126              		.fpu fpv4-sp-d16
 1128              	RUC_FirstAccelerationStageReached:
 1129              	.LVL100:
 1130              	.LFB1443:
 616:MCSDK_v6.1.0-Full/MotorControl/MCSDK/MCLib/Any/Src/revup_ctrl.c **** 
 617:MCSDK_v6.1.0-Full/MotorControl/MCSDK/MCLib/Any/Src/revup_ctrl.c **** #if defined (CCMRAM)
 618:MCSDK_v6.1.0-Full/MotorControl/MCSDK/MCLib/Any/Src/revup_ctrl.c **** #if defined (__ICCARM__)
 619:MCSDK_v6.1.0-Full/MotorControl/MCSDK/MCLib/Any/Src/revup_ctrl.c **** #pragma location = ".ccmram"
 620:MCSDK_v6.1.0-Full/MotorControl/MCSDK/MCLib/Any/Src/revup_ctrl.c **** #elif defined (__CC_ARM) || defined(__GNUC__)
 621:MCSDK_v6.1.0-Full/MotorControl/MCSDK/MCLib/Any/Src/revup_ctrl.c **** __attribute__((section(".ccmram")))
 622:MCSDK_v6.1.0-Full/MotorControl/MCSDK/MCLib/Any/Src/revup_ctrl.c **** #endif
 623:MCSDK_v6.1.0-Full/MotorControl/MCSDK/MCLib/Any/Src/revup_ctrl.c **** #endif
 624:MCSDK_v6.1.0-Full/MotorControl/MCSDK/MCLib/Any/Src/revup_ctrl.c **** 
 625:MCSDK_v6.1.0-Full/MotorControl/MCSDK/MCLib/Any/Src/revup_ctrl.c **** /**
 626:MCSDK_v6.1.0-Full/MotorControl/MCSDK/MCLib/Any/Src/revup_ctrl.c ****   * @brief  Check that alignment and first acceleration stage are completed.
 627:MCSDK_v6.1.0-Full/MotorControl/MCSDK/MCLib/Any/Src/revup_ctrl.c ****   * @param  pHandle: Pointer on Handle structure of RevUp controller.
 628:MCSDK_v6.1.0-Full/MotorControl/MCSDK/MCLib/Any/Src/revup_ctrl.c ****   *  @retval Boolean set to true when first acceleration stage has been reached.
 629:MCSDK_v6.1.0-Full/MotorControl/MCSDK/MCLib/Any/Src/revup_ctrl.c ****   */
 630:MCSDK_v6.1.0-Full/MotorControl/MCSDK/MCLib/Any/Src/revup_ctrl.c **** __weak bool RUC_FirstAccelerationStageReached(RevUpCtrl_Handle_t *pHandle)
 631:MCSDK_v6.1.0-Full/MotorControl/MCSDK/MCLib/Any/Src/revup_ctrl.c **** {
 1131              		.loc 1 631 1 is_stmt 1 view -0
 1132              		.cfi_startproc
 1133              		@ args = 0, pretend = 0, frame = 0
 1134              		@ frame_needed = 0, uses_anonymous_args = 0
 1135              		@ link register save eliminated.
 632:MCSDK_v6.1.0-Full/MotorControl/MCSDK/MCLib/Any/Src/revup_ctrl.c ****   bool retVal = false;
 1136              		.loc 1 632 3 view .LVU414
 633:MCSDK_v6.1.0-Full/MotorControl/MCSDK/MCLib/Any/Src/revup_ctrl.c **** #ifdef NULL_PTR_REV_UP_CTL
 634:MCSDK_v6.1.0-Full/MotorControl/MCSDK/MCLib/Any/Src/revup_ctrl.c ****   if (MC_NULL == pHandle)
 635:MCSDK_v6.1.0-Full/MotorControl/MCSDK/MCLib/Any/Src/revup_ctrl.c ****   {
 636:MCSDK_v6.1.0-Full/MotorControl/MCSDK/MCLib/Any/Src/revup_ctrl.c ****     /* Nothing to do */
 637:MCSDK_v6.1.0-Full/MotorControl/MCSDK/MCLib/Any/Src/revup_ctrl.c ****   }
 638:MCSDK_v6.1.0-Full/MotorControl/MCSDK/MCLib/Any/Src/revup_ctrl.c ****   else
 639:MCSDK_v6.1.0-Full/MotorControl/MCSDK/MCLib/Any/Src/revup_ctrl.c ****   {
 640:MCSDK_v6.1.0-Full/MotorControl/MCSDK/MCLib/Any/Src/revup_ctrl.c **** #endif
 641:MCSDK_v6.1.0-Full/MotorControl/MCSDK/MCLib/Any/Src/revup_ctrl.c ****     if (pHandle->bStageCnt >= pHandle->bFirstAccelerationStage)
 1137              		.loc 1 641 5 view .LVU415
 1138              		.loc 1 641 16 is_stmt 0 view .LVU416
 1139 0000 90F85820 		ldrb	r2, [r0, #88]	@ zero_extendqisi2
ARM GAS  /tmp/ccCiLUJR.s 			page 33


 1140              		.loc 1 641 38 view .LVU417
 1141 0004 90F84930 		ldrb	r3, [r0, #73]	@ zero_extendqisi2
 1142              		.loc 1 641 8 view .LVU418
 1143 0008 9A42     		cmp	r2, r3
 1144 000a 01D2     		bcs	.L67
 632:MCSDK_v6.1.0-Full/MotorControl/MCSDK/MCLib/Any/Src/revup_ctrl.c ****   bool retVal = false;
 1145              		.loc 1 632 8 view .LVU419
 1146 000c 0020     		movs	r0, #0
 1147              	.LVL101:
 632:MCSDK_v6.1.0-Full/MotorControl/MCSDK/MCLib/Any/Src/revup_ctrl.c ****   bool retVal = false;
 1148              		.loc 1 632 8 view .LVU420
 1149 000e 7047     		bx	lr
 1150              	.LVL102:
 1151              	.L67:
 642:MCSDK_v6.1.0-Full/MotorControl/MCSDK/MCLib/Any/Src/revup_ctrl.c ****     {
 643:MCSDK_v6.1.0-Full/MotorControl/MCSDK/MCLib/Any/Src/revup_ctrl.c ****       retVal = true;
 1152              		.loc 1 643 14 view .LVU421
 1153 0010 0120     		movs	r0, #1
 1154              	.LVL103:
 644:MCSDK_v6.1.0-Full/MotorControl/MCSDK/MCLib/Any/Src/revup_ctrl.c ****     }
 645:MCSDK_v6.1.0-Full/MotorControl/MCSDK/MCLib/Any/Src/revup_ctrl.c **** #ifdef NULL_PTR_REV_UP_CTL
 646:MCSDK_v6.1.0-Full/MotorControl/MCSDK/MCLib/Any/Src/revup_ctrl.c ****   }
 647:MCSDK_v6.1.0-Full/MotorControl/MCSDK/MCLib/Any/Src/revup_ctrl.c **** #endif
 648:MCSDK_v6.1.0-Full/MotorControl/MCSDK/MCLib/Any/Src/revup_ctrl.c ****   return (retVal);
 1155              		.loc 1 648 3 is_stmt 1 view .LVU422
 649:MCSDK_v6.1.0-Full/MotorControl/MCSDK/MCLib/Any/Src/revup_ctrl.c **** }
 1156              		.loc 1 649 1 is_stmt 0 view .LVU423
 1157 0012 7047     		bx	lr
 1158              		.cfi_endproc
 1159              	.LFE1443:
 1161              		.section	.text.RUC_SetPhaseDurationms,"ax",%progbits
 1162              		.align	1
 1163              		.weak	RUC_SetPhaseDurationms
 1164              		.syntax unified
 1165              		.thumb
 1166              		.thumb_func
 1167              		.fpu fpv4-sp-d16
 1169              	RUC_SetPhaseDurationms:
 1170              	.LVL104:
 1171              	.LFB1444:
 650:MCSDK_v6.1.0-Full/MotorControl/MCSDK/MCLib/Any/Src/revup_ctrl.c **** 
 651:MCSDK_v6.1.0-Full/MotorControl/MCSDK/MCLib/Any/Src/revup_ctrl.c **** /**
 652:MCSDK_v6.1.0-Full/MotorControl/MCSDK/MCLib/Any/Src/revup_ctrl.c ****   * @brief  Allow to modify duration of a selected phase.
 653:MCSDK_v6.1.0-Full/MotorControl/MCSDK/MCLib/Any/Src/revup_ctrl.c ****   * @param  pHandle: Pointer on Handle structure of RevUp controller.
 654:MCSDK_v6.1.0-Full/MotorControl/MCSDK/MCLib/Any/Src/revup_ctrl.c ****   * @param  bPhase: RevUp phase where new duration shall be modified.
 655:MCSDK_v6.1.0-Full/MotorControl/MCSDK/MCLib/Any/Src/revup_ctrl.c ****   *         This parameter must be a number between 0 and 6.
 656:MCSDK_v6.1.0-Full/MotorControl/MCSDK/MCLib/Any/Src/revup_ctrl.c ****   * @param  hDurationms: new duration value required for associated phase.
 657:MCSDK_v6.1.0-Full/MotorControl/MCSDK/MCLib/Any/Src/revup_ctrl.c ****   *         This parameter must be set in millisecond.
 658:MCSDK_v6.1.0-Full/MotorControl/MCSDK/MCLib/Any/Src/revup_ctrl.c ****   */
 659:MCSDK_v6.1.0-Full/MotorControl/MCSDK/MCLib/Any/Src/revup_ctrl.c **** __weak void RUC_SetPhaseDurationms(RevUpCtrl_Handle_t *pHandle, uint8_t bPhase, uint16_t hDurationm
 660:MCSDK_v6.1.0-Full/MotorControl/MCSDK/MCLib/Any/Src/revup_ctrl.c **** {
 1172              		.loc 1 660 1 is_stmt 1 view -0
 1173              		.cfi_startproc
 1174              		@ args = 0, pretend = 0, frame = 0
 1175              		@ frame_needed = 0, uses_anonymous_args = 0
 1176              		@ link register save eliminated.
 661:MCSDK_v6.1.0-Full/MotorControl/MCSDK/MCLib/Any/Src/revup_ctrl.c **** #ifdef NULL_PTR_REV_UP_CTL
ARM GAS  /tmp/ccCiLUJR.s 			page 34


 662:MCSDK_v6.1.0-Full/MotorControl/MCSDK/MCLib/Any/Src/revup_ctrl.c ****   if (MC_NULL == pHandle)
 663:MCSDK_v6.1.0-Full/MotorControl/MCSDK/MCLib/Any/Src/revup_ctrl.c ****   {
 664:MCSDK_v6.1.0-Full/MotorControl/MCSDK/MCLib/Any/Src/revup_ctrl.c ****     /* Nothing to do */
 665:MCSDK_v6.1.0-Full/MotorControl/MCSDK/MCLib/Any/Src/revup_ctrl.c ****   }
 666:MCSDK_v6.1.0-Full/MotorControl/MCSDK/MCLib/Any/Src/revup_ctrl.c ****   else
 667:MCSDK_v6.1.0-Full/MotorControl/MCSDK/MCLib/Any/Src/revup_ctrl.c ****   {
 668:MCSDK_v6.1.0-Full/MotorControl/MCSDK/MCLib/Any/Src/revup_ctrl.c **** #endif
 669:MCSDK_v6.1.0-Full/MotorControl/MCSDK/MCLib/Any/Src/revup_ctrl.c ****     pHandle->ParamsData[bPhase].hDurationms = hDurationms;
 1177              		.loc 1 669 5 view .LVU425
 1178              		.loc 1 669 45 is_stmt 0 view .LVU426
 1179 0000 01EB4101 		add	r1, r1, r1, lsl #1
 1180              	.LVL105:
 1181              		.loc 1 669 45 view .LVU427
 1182 0004 00EB8101 		add	r1, r0, r1, lsl #2
 1183 0008 8A81     		strh	r2, [r1, #12]	@ movhi
 670:MCSDK_v6.1.0-Full/MotorControl/MCSDK/MCLib/Any/Src/revup_ctrl.c **** #ifdef NULL_PTR_REV_UP_CTL
 671:MCSDK_v6.1.0-Full/MotorControl/MCSDK/MCLib/Any/Src/revup_ctrl.c ****   }
 672:MCSDK_v6.1.0-Full/MotorControl/MCSDK/MCLib/Any/Src/revup_ctrl.c **** #endif
 673:MCSDK_v6.1.0-Full/MotorControl/MCSDK/MCLib/Any/Src/revup_ctrl.c **** }
 1184              		.loc 1 673 1 view .LVU428
 1185 000a 7047     		bx	lr
 1186              		.cfi_endproc
 1187              	.LFE1444:
 1189              		.section	.text.RUC_SetPhaseFinalMecSpeedUnit,"ax",%progbits
 1190              		.align	1
 1191              		.weak	RUC_SetPhaseFinalMecSpeedUnit
 1192              		.syntax unified
 1193              		.thumb
 1194              		.thumb_func
 1195              		.fpu fpv4-sp-d16
 1197              	RUC_SetPhaseFinalMecSpeedUnit:
 1198              	.LVL106:
 1199              	.LFB1445:
 674:MCSDK_v6.1.0-Full/MotorControl/MCSDK/MCLib/Any/Src/revup_ctrl.c **** 
 675:MCSDK_v6.1.0-Full/MotorControl/MCSDK/MCLib/Any/Src/revup_ctrl.c **** /**
 676:MCSDK_v6.1.0-Full/MotorControl/MCSDK/MCLib/Any/Src/revup_ctrl.c ****   * @brief  Allow to modify targeted mechanical speed of a selected phase.
 677:MCSDK_v6.1.0-Full/MotorControl/MCSDK/MCLib/Any/Src/revup_ctrl.c ****   * @param  pHandle: Pointer on Handle structure of RevUp controller.
 678:MCSDK_v6.1.0-Full/MotorControl/MCSDK/MCLib/Any/Src/revup_ctrl.c ****   * @param  bPhase: RevUp phase where new mechanical speed shall be modified.
 679:MCSDK_v6.1.0-Full/MotorControl/MCSDK/MCLib/Any/Src/revup_ctrl.c ****   *         This parameter must be a number between 0 and 6.
 680:MCSDK_v6.1.0-Full/MotorControl/MCSDK/MCLib/Any/Src/revup_ctrl.c ****   * @param  hFinalMecSpeedUnit: new targeted mechanical speed.
 681:MCSDK_v6.1.0-Full/MotorControl/MCSDK/MCLib/Any/Src/revup_ctrl.c ****   *         This parameter must be expressed in 0.1Hz.
 682:MCSDK_v6.1.0-Full/MotorControl/MCSDK/MCLib/Any/Src/revup_ctrl.c ****   */
 683:MCSDK_v6.1.0-Full/MotorControl/MCSDK/MCLib/Any/Src/revup_ctrl.c **** __weak void RUC_SetPhaseFinalMecSpeedUnit(RevUpCtrl_Handle_t *pHandle, uint8_t bPhase, int16_t hFin
 684:MCSDK_v6.1.0-Full/MotorControl/MCSDK/MCLib/Any/Src/revup_ctrl.c **** {
 1200              		.loc 1 684 1 is_stmt 1 view -0
 1201              		.cfi_startproc
 1202              		@ args = 0, pretend = 0, frame = 0
 1203              		@ frame_needed = 0, uses_anonymous_args = 0
 1204              		@ link register save eliminated.
 685:MCSDK_v6.1.0-Full/MotorControl/MCSDK/MCLib/Any/Src/revup_ctrl.c **** #ifdef NULL_PTR_REV_UP_CTL
 686:MCSDK_v6.1.0-Full/MotorControl/MCSDK/MCLib/Any/Src/revup_ctrl.c ****   if (MC_NULL == pHandle)
 687:MCSDK_v6.1.0-Full/MotorControl/MCSDK/MCLib/Any/Src/revup_ctrl.c ****   {
 688:MCSDK_v6.1.0-Full/MotorControl/MCSDK/MCLib/Any/Src/revup_ctrl.c ****     /* Nothing to do */
 689:MCSDK_v6.1.0-Full/MotorControl/MCSDK/MCLib/Any/Src/revup_ctrl.c ****   }
 690:MCSDK_v6.1.0-Full/MotorControl/MCSDK/MCLib/Any/Src/revup_ctrl.c ****   else
 691:MCSDK_v6.1.0-Full/MotorControl/MCSDK/MCLib/Any/Src/revup_ctrl.c ****   {
 692:MCSDK_v6.1.0-Full/MotorControl/MCSDK/MCLib/Any/Src/revup_ctrl.c **** #endif
ARM GAS  /tmp/ccCiLUJR.s 			page 35


 693:MCSDK_v6.1.0-Full/MotorControl/MCSDK/MCLib/Any/Src/revup_ctrl.c ****     pHandle->ParamsData[bPhase].hFinalMecSpeedUnit = hFinalMecSpeedUnit;
 1205              		.loc 1 693 5 view .LVU430
 1206              		.loc 1 693 52 is_stmt 0 view .LVU431
 1207 0000 01EB4101 		add	r1, r1, r1, lsl #1
 1208              	.LVL107:
 1209              		.loc 1 693 52 view .LVU432
 1210 0004 00EB8101 		add	r1, r0, r1, lsl #2
 1211 0008 CA81     		strh	r2, [r1, #14]	@ movhi
 694:MCSDK_v6.1.0-Full/MotorControl/MCSDK/MCLib/Any/Src/revup_ctrl.c **** #ifdef NULL_PTR_REV_UP_CTL
 695:MCSDK_v6.1.0-Full/MotorControl/MCSDK/MCLib/Any/Src/revup_ctrl.c ****   }
 696:MCSDK_v6.1.0-Full/MotorControl/MCSDK/MCLib/Any/Src/revup_ctrl.c **** #endif
 697:MCSDK_v6.1.0-Full/MotorControl/MCSDK/MCLib/Any/Src/revup_ctrl.c **** }
 1212              		.loc 1 697 1 view .LVU433
 1213 000a 7047     		bx	lr
 1214              		.cfi_endproc
 1215              	.LFE1445:
 1217              		.section	.text.RUC_SetPhaseFinalTorque,"ax",%progbits
 1218              		.align	1
 1219              		.weak	RUC_SetPhaseFinalTorque
 1220              		.syntax unified
 1221              		.thumb
 1222              		.thumb_func
 1223              		.fpu fpv4-sp-d16
 1225              	RUC_SetPhaseFinalTorque:
 1226              	.LVL108:
 1227              	.LFB1446:
 698:MCSDK_v6.1.0-Full/MotorControl/MCSDK/MCLib/Any/Src/revup_ctrl.c **** 
 699:MCSDK_v6.1.0-Full/MotorControl/MCSDK/MCLib/Any/Src/revup_ctrl.c **** /**
 700:MCSDK_v6.1.0-Full/MotorControl/MCSDK/MCLib/Any/Src/revup_ctrl.c ****   * @brief  Allow to modify targeted the motor torque of a selected phase.
 701:MCSDK_v6.1.0-Full/MotorControl/MCSDK/MCLib/Any/Src/revup_ctrl.c ****   * @param  pHandle: Pointer on Handle structure of RevUp controller.
 702:MCSDK_v6.1.0-Full/MotorControl/MCSDK/MCLib/Any/Src/revup_ctrl.c ****   * @param  bPhase: RevUp phase where new the motor torque shall be modified.
 703:MCSDK_v6.1.0-Full/MotorControl/MCSDK/MCLib/Any/Src/revup_ctrl.c ****   *         This parameter must be a number between 0 and 6.
 704:MCSDK_v6.1.0-Full/MotorControl/MCSDK/MCLib/Any/Src/revup_ctrl.c ****   * @param  hFinalTorque: new targeted motor torque.
 705:MCSDK_v6.1.0-Full/MotorControl/MCSDK/MCLib/Any/Src/revup_ctrl.c ****   */
 706:MCSDK_v6.1.0-Full/MotorControl/MCSDK/MCLib/Any/Src/revup_ctrl.c **** __weak void RUC_SetPhaseFinalTorque(RevUpCtrl_Handle_t *pHandle, uint8_t bPhase, int16_t hFinalTorq
 707:MCSDK_v6.1.0-Full/MotorControl/MCSDK/MCLib/Any/Src/revup_ctrl.c **** {
 1228              		.loc 1 707 1 is_stmt 1 view -0
 1229              		.cfi_startproc
 1230              		@ args = 0, pretend = 0, frame = 0
 1231              		@ frame_needed = 0, uses_anonymous_args = 0
 1232              		@ link register save eliminated.
 708:MCSDK_v6.1.0-Full/MotorControl/MCSDK/MCLib/Any/Src/revup_ctrl.c **** #ifdef NULL_PTR_REV_UP_CTL
 709:MCSDK_v6.1.0-Full/MotorControl/MCSDK/MCLib/Any/Src/revup_ctrl.c ****   if (MC_NULL == pHandle)
 710:MCSDK_v6.1.0-Full/MotorControl/MCSDK/MCLib/Any/Src/revup_ctrl.c ****   {
 711:MCSDK_v6.1.0-Full/MotorControl/MCSDK/MCLib/Any/Src/revup_ctrl.c ****     /* Nothing to do */
 712:MCSDK_v6.1.0-Full/MotorControl/MCSDK/MCLib/Any/Src/revup_ctrl.c ****   }
 713:MCSDK_v6.1.0-Full/MotorControl/MCSDK/MCLib/Any/Src/revup_ctrl.c ****   else
 714:MCSDK_v6.1.0-Full/MotorControl/MCSDK/MCLib/Any/Src/revup_ctrl.c ****   {
 715:MCSDK_v6.1.0-Full/MotorControl/MCSDK/MCLib/Any/Src/revup_ctrl.c **** #endif
 716:MCSDK_v6.1.0-Full/MotorControl/MCSDK/MCLib/Any/Src/revup_ctrl.c ****     pHandle->ParamsData[bPhase].hFinalTorque = hFinalTorque;
 1233              		.loc 1 716 5 view .LVU435
 1234              		.loc 1 716 46 is_stmt 0 view .LVU436
 1235 0000 01EB4101 		add	r1, r1, r1, lsl #1
 1236              	.LVL109:
 1237              		.loc 1 716 46 view .LVU437
 1238 0004 00EB8101 		add	r1, r0, r1, lsl #2
 1239 0008 0A82     		strh	r2, [r1, #16]	@ movhi
ARM GAS  /tmp/ccCiLUJR.s 			page 36


 717:MCSDK_v6.1.0-Full/MotorControl/MCSDK/MCLib/Any/Src/revup_ctrl.c **** #ifdef NULL_PTR_REV_UP_CTL
 718:MCSDK_v6.1.0-Full/MotorControl/MCSDK/MCLib/Any/Src/revup_ctrl.c ****   }
 719:MCSDK_v6.1.0-Full/MotorControl/MCSDK/MCLib/Any/Src/revup_ctrl.c **** #endif
 720:MCSDK_v6.1.0-Full/MotorControl/MCSDK/MCLib/Any/Src/revup_ctrl.c **** }
 1240              		.loc 1 720 1 view .LVU438
 1241 000a 7047     		bx	lr
 1242              		.cfi_endproc
 1243              	.LFE1446:
 1245              		.section	.text.RUC_SetPhase,"ax",%progbits
 1246              		.align	1
 1247              		.weak	RUC_SetPhase
 1248              		.syntax unified
 1249              		.thumb
 1250              		.thumb_func
 1251              		.fpu fpv4-sp-d16
 1253              	RUC_SetPhase:
 1254              	.LVL110:
 1255              	.LFB1447:
 721:MCSDK_v6.1.0-Full/MotorControl/MCSDK/MCLib/Any/Src/revup_ctrl.c **** 
 722:MCSDK_v6.1.0-Full/MotorControl/MCSDK/MCLib/Any/Src/revup_ctrl.c **** /**
 723:MCSDK_v6.1.0-Full/MotorControl/MCSDK/MCLib/Any/Src/revup_ctrl.c ****   * @brief  Allow to configure a Rev-Up phase.
 724:MCSDK_v6.1.0-Full/MotorControl/MCSDK/MCLib/Any/Src/revup_ctrl.c ****   * @param  pHandle: Pointer on Handle structure of Rev-Up controller.
 725:MCSDK_v6.1.0-Full/MotorControl/MCSDK/MCLib/Any/Src/revup_ctrl.c ****   * @param  phaseNumber : number of phases relative to the programmed Rev-Up
 726:MCSDK_v6.1.0-Full/MotorControl/MCSDK/MCLib/Any/Src/revup_ctrl.c ****   * @param  phaseData:
 727:MCSDK_v6.1.0-Full/MotorControl/MCSDK/MCLib/Any/Src/revup_ctrl.c ****   * 			- RevUp phase where new motor torque shall be modified.
 728:MCSDK_v6.1.0-Full/MotorControl/MCSDK/MCLib/Any/Src/revup_ctrl.c ****   *        			This parameter must be a number between 0 and 6.
 729:MCSDK_v6.1.0-Full/MotorControl/MCSDK/MCLib/Any/Src/revup_ctrl.c ****   *        		- RevUp phase where new mechanical speed shall be modified.
 730:MCSDK_v6.1.0-Full/MotorControl/MCSDK/MCLib/Any/Src/revup_ctrl.c ****   *         		This parameter must be a number between 0 and 6.
 731:MCSDK_v6.1.0-Full/MotorControl/MCSDK/MCLib/Any/Src/revup_ctrl.c ****   *        		- New duration value required for associated phase in ms unit.
 732:MCSDK_v6.1.0-Full/MotorControl/MCSDK/MCLib/Any/Src/revup_ctrl.c ****   *  @retval Boolean set to true
 733:MCSDK_v6.1.0-Full/MotorControl/MCSDK/MCLib/Any/Src/revup_ctrl.c ****   */
 734:MCSDK_v6.1.0-Full/MotorControl/MCSDK/MCLib/Any/Src/revup_ctrl.c **** __weak bool RUC_SetPhase(RevUpCtrl_Handle_t *pHandle, uint8_t phaseNumber, RevUpCtrl_PhaseParams_t 
 735:MCSDK_v6.1.0-Full/MotorControl/MCSDK/MCLib/Any/Src/revup_ctrl.c **** {
 1256              		.loc 1 735 1 is_stmt 1 view -0
 1257              		.cfi_startproc
 1258              		@ args = 0, pretend = 0, frame = 0
 1259              		@ frame_needed = 0, uses_anonymous_args = 0
 1260              		@ link register save eliminated.
 1261              		.loc 1 735 1 is_stmt 0 view .LVU440
 1262 0000 10B4     		push	{r4}
 1263              		.cfi_def_cfa_offset 4
 1264              		.cfi_offset 4, -4
 736:MCSDK_v6.1.0-Full/MotorControl/MCSDK/MCLib/Any/Src/revup_ctrl.c ****   bool retValue = true;
 1265              		.loc 1 736 3 is_stmt 1 view .LVU441
 1266              	.LVL111:
 737:MCSDK_v6.1.0-Full/MotorControl/MCSDK/MCLib/Any/Src/revup_ctrl.c **** #ifdef NULL_PTR_REV_UP_CTL
 738:MCSDK_v6.1.0-Full/MotorControl/MCSDK/MCLib/Any/Src/revup_ctrl.c ****   if ((MC_NULL == pHandle) || (MC_NULL == phaseData))
 739:MCSDK_v6.1.0-Full/MotorControl/MCSDK/MCLib/Any/Src/revup_ctrl.c ****   {
 740:MCSDK_v6.1.0-Full/MotorControl/MCSDK/MCLib/Any/Src/revup_ctrl.c ****     retValue = false;
 741:MCSDK_v6.1.0-Full/MotorControl/MCSDK/MCLib/Any/Src/revup_ctrl.c ****   }
 742:MCSDK_v6.1.0-Full/MotorControl/MCSDK/MCLib/Any/Src/revup_ctrl.c ****   else
 743:MCSDK_v6.1.0-Full/MotorControl/MCSDK/MCLib/Any/Src/revup_ctrl.c ****   {
 744:MCSDK_v6.1.0-Full/MotorControl/MCSDK/MCLib/Any/Src/revup_ctrl.c **** #endif
 745:MCSDK_v6.1.0-Full/MotorControl/MCSDK/MCLib/Any/Src/revup_ctrl.c ****     pHandle->ParamsData[phaseNumber].hFinalTorque = phaseData->hFinalTorque;
 1267              		.loc 1 745 5 view .LVU442
 1268              		.loc 1 745 62 is_stmt 0 view .LVU443
 1269 0002 B2F90440 		ldrsh	r4, [r2, #4]
ARM GAS  /tmp/ccCiLUJR.s 			page 37


 1270              		.loc 1 745 51 view .LVU444
 1271 0006 01EB4103 		add	r3, r1, r1, lsl #1
 1272 000a 00EB8303 		add	r3, r0, r3, lsl #2
 1273 000e 1C82     		strh	r4, [r3, #16]	@ movhi
 746:MCSDK_v6.1.0-Full/MotorControl/MCSDK/MCLib/Any/Src/revup_ctrl.c ****     pHandle->ParamsData[phaseNumber].hFinalMecSpeedUnit = phaseData->hFinalMecSpeedUnit;
 1274              		.loc 1 746 5 is_stmt 1 view .LVU445
 1275              		.loc 1 746 68 is_stmt 0 view .LVU446
 1276 0010 B2F90240 		ldrsh	r4, [r2, #2]
 1277              		.loc 1 746 57 view .LVU447
 1278 0014 DC81     		strh	r4, [r3, #14]	@ movhi
 747:MCSDK_v6.1.0-Full/MotorControl/MCSDK/MCLib/Any/Src/revup_ctrl.c ****     pHandle->ParamsData[phaseNumber].hDurationms = phaseData->hDurationms;
 1279              		.loc 1 747 5 is_stmt 1 view .LVU448
 1280              		.loc 1 747 61 is_stmt 0 view .LVU449
 1281 0016 1388     		ldrh	r3, [r2]
 1282              		.loc 1 747 50 view .LVU450
 1283 0018 01EB4101 		add	r1, r1, r1, lsl #1
 1284              	.LVL112:
 1285              		.loc 1 747 50 view .LVU451
 1286 001c 00EB8101 		add	r1, r0, r1, lsl #2
 1287 0020 8B81     		strh	r3, [r1, #12]	@ movhi
 748:MCSDK_v6.1.0-Full/MotorControl/MCSDK/MCLib/Any/Src/revup_ctrl.c **** #ifdef NULL_PTR_REV_UP_CTL
 749:MCSDK_v6.1.0-Full/MotorControl/MCSDK/MCLib/Any/Src/revup_ctrl.c ****   }
 750:MCSDK_v6.1.0-Full/MotorControl/MCSDK/MCLib/Any/Src/revup_ctrl.c **** #endif
 751:MCSDK_v6.1.0-Full/MotorControl/MCSDK/MCLib/Any/Src/revup_ctrl.c ****   return (retValue);
 1288              		.loc 1 751 3 is_stmt 1 view .LVU452
 752:MCSDK_v6.1.0-Full/MotorControl/MCSDK/MCLib/Any/Src/revup_ctrl.c **** }
 1289              		.loc 1 752 1 is_stmt 0 view .LVU453
 1290 0022 0120     		movs	r0, #1
 1291              	.LVL113:
 1292              		.loc 1 752 1 view .LVU454
 1293 0024 5DF8044B 		ldr	r4, [sp], #4
 1294              		.cfi_restore 4
 1295              		.cfi_def_cfa_offset 0
 1296 0028 7047     		bx	lr
 1297              		.cfi_endproc
 1298              	.LFE1447:
 1300              		.section	.text.RUC_GetPhaseDurationms,"ax",%progbits
 1301              		.align	1
 1302              		.weak	RUC_GetPhaseDurationms
 1303              		.syntax unified
 1304              		.thumb
 1305              		.thumb_func
 1306              		.fpu fpv4-sp-d16
 1308              	RUC_GetPhaseDurationms:
 1309              	.LVL114:
 1310              	.LFB1448:
 753:MCSDK_v6.1.0-Full/MotorControl/MCSDK/MCLib/Any/Src/revup_ctrl.c **** 
 754:MCSDK_v6.1.0-Full/MotorControl/MCSDK/MCLib/Any/Src/revup_ctrl.c **** /**
 755:MCSDK_v6.1.0-Full/MotorControl/MCSDK/MCLib/Any/Src/revup_ctrl.c ****   * @brief  Allow to read duration set in selected phase.
 756:MCSDK_v6.1.0-Full/MotorControl/MCSDK/MCLib/Any/Src/revup_ctrl.c ****   * @param  pHandle: Pointer on Handle structure of RevUp controller.
 757:MCSDK_v6.1.0-Full/MotorControl/MCSDK/MCLib/Any/Src/revup_ctrl.c ****   * @param  bPhase: RevUp phase from where duration is read.
 758:MCSDK_v6.1.0-Full/MotorControl/MCSDK/MCLib/Any/Src/revup_ctrl.c ****   *         This parameter must be a number between 0 and 6.
 759:MCSDK_v6.1.0-Full/MotorControl/MCSDK/MCLib/Any/Src/revup_ctrl.c ****   *  @retval Returns duration used in selected phase in ms unit.
 760:MCSDK_v6.1.0-Full/MotorControl/MCSDK/MCLib/Any/Src/revup_ctrl.c ****   */
 761:MCSDK_v6.1.0-Full/MotorControl/MCSDK/MCLib/Any/Src/revup_ctrl.c **** __weak uint16_t RUC_GetPhaseDurationms(RevUpCtrl_Handle_t *pHandle, uint8_t bPhase)
 762:MCSDK_v6.1.0-Full/MotorControl/MCSDK/MCLib/Any/Src/revup_ctrl.c **** {
 1311              		.loc 1 762 1 is_stmt 1 view -0
ARM GAS  /tmp/ccCiLUJR.s 			page 38


 1312              		.cfi_startproc
 1313              		@ args = 0, pretend = 0, frame = 0
 1314              		@ frame_needed = 0, uses_anonymous_args = 0
 1315              		@ link register save eliminated.
 763:MCSDK_v6.1.0-Full/MotorControl/MCSDK/MCLib/Any/Src/revup_ctrl.c **** #ifdef NULL_PTR_REV_UP_CTL
 764:MCSDK_v6.1.0-Full/MotorControl/MCSDK/MCLib/Any/Src/revup_ctrl.c ****   return ((MC_NULL == pHandle) ? 0U : (uint16_t)pHandle->ParamsData[bPhase].hDurationms);
 765:MCSDK_v6.1.0-Full/MotorControl/MCSDK/MCLib/Any/Src/revup_ctrl.c **** #else
 766:MCSDK_v6.1.0-Full/MotorControl/MCSDK/MCLib/Any/Src/revup_ctrl.c ****   return ((uint16_t)pHandle->ParamsData[bPhase].hDurationms);
 1316              		.loc 1 766 3 view .LVU456
 1317              		.loc 1 766 11 is_stmt 0 view .LVU457
 1318 0000 01EB4101 		add	r1, r1, r1, lsl #1
 1319              	.LVL115:
 1320              		.loc 1 766 11 view .LVU458
 1321 0004 00EB8101 		add	r1, r0, r1, lsl #2
 767:MCSDK_v6.1.0-Full/MotorControl/MCSDK/MCLib/Any/Src/revup_ctrl.c **** #endif
 768:MCSDK_v6.1.0-Full/MotorControl/MCSDK/MCLib/Any/Src/revup_ctrl.c **** }
 1322              		.loc 1 768 1 view .LVU459
 1323 0008 8889     		ldrh	r0, [r1, #12]
 1324              	.LVL116:
 1325              		.loc 1 768 1 view .LVU460
 1326 000a 7047     		bx	lr
 1327              		.cfi_endproc
 1328              	.LFE1448:
 1330              		.section	.text.RUC_GetPhaseFinalMecSpeedUnit,"ax",%progbits
 1331              		.align	1
 1332              		.weak	RUC_GetPhaseFinalMecSpeedUnit
 1333              		.syntax unified
 1334              		.thumb
 1335              		.thumb_func
 1336              		.fpu fpv4-sp-d16
 1338              	RUC_GetPhaseFinalMecSpeedUnit:
 1339              	.LVL117:
 1340              	.LFB1449:
 769:MCSDK_v6.1.0-Full/MotorControl/MCSDK/MCLib/Any/Src/revup_ctrl.c **** 
 770:MCSDK_v6.1.0-Full/MotorControl/MCSDK/MCLib/Any/Src/revup_ctrl.c **** /**
 771:MCSDK_v6.1.0-Full/MotorControl/MCSDK/MCLib/Any/Src/revup_ctrl.c ****   * @brief  Allow to read targeted rotor speed set in selected phase.
 772:MCSDK_v6.1.0-Full/MotorControl/MCSDK/MCLib/Any/Src/revup_ctrl.c ****   * @param  pHandle: Pointer on Handle structure of RevUp controller.
 773:MCSDK_v6.1.0-Full/MotorControl/MCSDK/MCLib/Any/Src/revup_ctrl.c ****   * @param  bPhase: RevUp phase from where targeted rotor speed is read.
 774:MCSDK_v6.1.0-Full/MotorControl/MCSDK/MCLib/Any/Src/revup_ctrl.c ****   *         This parameter must be a number between 0 and 6.
 775:MCSDK_v6.1.0-Full/MotorControl/MCSDK/MCLib/Any/Src/revup_ctrl.c ****   *  @retval Returns targeted rotor speed set for a selected phase.
 776:MCSDK_v6.1.0-Full/MotorControl/MCSDK/MCLib/Any/Src/revup_ctrl.c ****   */
 777:MCSDK_v6.1.0-Full/MotorControl/MCSDK/MCLib/Any/Src/revup_ctrl.c **** __weak int16_t RUC_GetPhaseFinalMecSpeedUnit(RevUpCtrl_Handle_t *pHandle, uint8_t bPhase)
 778:MCSDK_v6.1.0-Full/MotorControl/MCSDK/MCLib/Any/Src/revup_ctrl.c **** {
 1341              		.loc 1 778 1 is_stmt 1 view -0
 1342              		.cfi_startproc
 1343              		@ args = 0, pretend = 0, frame = 0
 1344              		@ frame_needed = 0, uses_anonymous_args = 0
 1345              		@ link register save eliminated.
 779:MCSDK_v6.1.0-Full/MotorControl/MCSDK/MCLib/Any/Src/revup_ctrl.c **** #ifdef NULL_PTR_REV_UP_CTL
 780:MCSDK_v6.1.0-Full/MotorControl/MCSDK/MCLib/Any/Src/revup_ctrl.c ****   return ((MC_NULL == pHandle) ? 0 : (int16_t)pHandle->ParamsData[bPhase].hFinalMecSpeedUnit);
 781:MCSDK_v6.1.0-Full/MotorControl/MCSDK/MCLib/Any/Src/revup_ctrl.c **** #else
 782:MCSDK_v6.1.0-Full/MotorControl/MCSDK/MCLib/Any/Src/revup_ctrl.c ****   return ((int16_t)pHandle->ParamsData[bPhase].hFinalMecSpeedUnit);
 1346              		.loc 1 782 3 view .LVU462
 1347              		.loc 1 782 11 is_stmt 0 view .LVU463
 1348 0000 01EB4101 		add	r1, r1, r1, lsl #1
 1349              	.LVL118:
 1350              		.loc 1 782 11 view .LVU464
ARM GAS  /tmp/ccCiLUJR.s 			page 39


 1351 0004 00EB8101 		add	r1, r0, r1, lsl #2
 783:MCSDK_v6.1.0-Full/MotorControl/MCSDK/MCLib/Any/Src/revup_ctrl.c **** #endif
 784:MCSDK_v6.1.0-Full/MotorControl/MCSDK/MCLib/Any/Src/revup_ctrl.c **** }
 1352              		.loc 1 784 1 view .LVU465
 1353 0008 B1F90E00 		ldrsh	r0, [r1, #14]
 1354              	.LVL119:
 1355              		.loc 1 784 1 view .LVU466
 1356 000c 7047     		bx	lr
 1357              		.cfi_endproc
 1358              	.LFE1449:
 1360              		.section	.text.RUC_GetPhaseFinalTorque,"ax",%progbits
 1361              		.align	1
 1362              		.weak	RUC_GetPhaseFinalTorque
 1363              		.syntax unified
 1364              		.thumb
 1365              		.thumb_func
 1366              		.fpu fpv4-sp-d16
 1368              	RUC_GetPhaseFinalTorque:
 1369              	.LVL120:
 1370              	.LFB1450:
 785:MCSDK_v6.1.0-Full/MotorControl/MCSDK/MCLib/Any/Src/revup_ctrl.c **** 
 786:MCSDK_v6.1.0-Full/MotorControl/MCSDK/MCLib/Any/Src/revup_ctrl.c **** /**
 787:MCSDK_v6.1.0-Full/MotorControl/MCSDK/MCLib/Any/Src/revup_ctrl.c ****   * @brief  Allow to read targeted motor torque set in selected phase.
 788:MCSDK_v6.1.0-Full/MotorControl/MCSDK/MCLib/Any/Src/revup_ctrl.c ****   * @param  pHandle: Pointer on Handle structure of RevUp controller.
 789:MCSDK_v6.1.0-Full/MotorControl/MCSDK/MCLib/Any/Src/revup_ctrl.c ****   * @param  bPhase: RevUp phase from where targeted motor torque is read.
 790:MCSDK_v6.1.0-Full/MotorControl/MCSDK/MCLib/Any/Src/revup_ctrl.c ****   *         This parameter must be a number between 0 and 6.
 791:MCSDK_v6.1.0-Full/MotorControl/MCSDK/MCLib/Any/Src/revup_ctrl.c ****   *  @retval Returns targeted motor torque set for a selected phase.
 792:MCSDK_v6.1.0-Full/MotorControl/MCSDK/MCLib/Any/Src/revup_ctrl.c ****   */
 793:MCSDK_v6.1.0-Full/MotorControl/MCSDK/MCLib/Any/Src/revup_ctrl.c **** __weak int16_t RUC_GetPhaseFinalTorque(RevUpCtrl_Handle_t *pHandle, uint8_t bPhase)
 794:MCSDK_v6.1.0-Full/MotorControl/MCSDK/MCLib/Any/Src/revup_ctrl.c **** {
 1371              		.loc 1 794 1 is_stmt 1 view -0
 1372              		.cfi_startproc
 1373              		@ args = 0, pretend = 0, frame = 0
 1374              		@ frame_needed = 0, uses_anonymous_args = 0
 1375              		@ link register save eliminated.
 795:MCSDK_v6.1.0-Full/MotorControl/MCSDK/MCLib/Any/Src/revup_ctrl.c **** #ifdef NULL_PTR_REV_UP_CTL
 796:MCSDK_v6.1.0-Full/MotorControl/MCSDK/MCLib/Any/Src/revup_ctrl.c ****   return ((MC_NULL == pHandle) ? 0 : (int16_t)pHandle->ParamsData[bPhase].hFinalTorque);
 797:MCSDK_v6.1.0-Full/MotorControl/MCSDK/MCLib/Any/Src/revup_ctrl.c **** #else
 798:MCSDK_v6.1.0-Full/MotorControl/MCSDK/MCLib/Any/Src/revup_ctrl.c ****   return ((int16_t)pHandle->ParamsData[bPhase].hFinalTorque);
 1376              		.loc 1 798 3 view .LVU468
 1377              		.loc 1 798 11 is_stmt 0 view .LVU469
 1378 0000 01EB4101 		add	r1, r1, r1, lsl #1
 1379              	.LVL121:
 1380              		.loc 1 798 11 view .LVU470
 1381 0004 00EB8101 		add	r1, r0, r1, lsl #2
 799:MCSDK_v6.1.0-Full/MotorControl/MCSDK/MCLib/Any/Src/revup_ctrl.c **** #endif
 800:MCSDK_v6.1.0-Full/MotorControl/MCSDK/MCLib/Any/Src/revup_ctrl.c **** }
 1382              		.loc 1 800 1 view .LVU471
 1383 0008 B1F91000 		ldrsh	r0, [r1, #16]
 1384              	.LVL122:
 1385              		.loc 1 800 1 view .LVU472
 1386 000c 7047     		bx	lr
 1387              		.cfi_endproc
 1388              	.LFE1450:
 1390              		.section	.text.RUC_GetNumberOfPhases,"ax",%progbits
 1391              		.align	1
 1392              		.weak	RUC_GetNumberOfPhases
ARM GAS  /tmp/ccCiLUJR.s 			page 40


 1393              		.syntax unified
 1394              		.thumb
 1395              		.thumb_func
 1396              		.fpu fpv4-sp-d16
 1398              	RUC_GetNumberOfPhases:
 1399              	.LVL123:
 1400              	.LFB1451:
 801:MCSDK_v6.1.0-Full/MotorControl/MCSDK/MCLib/Any/Src/revup_ctrl.c **** 
 802:MCSDK_v6.1.0-Full/MotorControl/MCSDK/MCLib/Any/Src/revup_ctrl.c **** /**
 803:MCSDK_v6.1.0-Full/MotorControl/MCSDK/MCLib/Any/Src/revup_ctrl.c ****   * @brief  Allow to read total number of programmed phases.
 804:MCSDK_v6.1.0-Full/MotorControl/MCSDK/MCLib/Any/Src/revup_ctrl.c ****   * @param  pHandle: Pointer on Handle structure of RevUp controller.
 805:MCSDK_v6.1.0-Full/MotorControl/MCSDK/MCLib/Any/Src/revup_ctrl.c ****   *  @retval Returns number of phases relative to the programmed Rev-Up.
 806:MCSDK_v6.1.0-Full/MotorControl/MCSDK/MCLib/Any/Src/revup_ctrl.c ****   *
 807:MCSDK_v6.1.0-Full/MotorControl/MCSDK/MCLib/Any/Src/revup_ctrl.c ****   */
 808:MCSDK_v6.1.0-Full/MotorControl/MCSDK/MCLib/Any/Src/revup_ctrl.c **** 
 809:MCSDK_v6.1.0-Full/MotorControl/MCSDK/MCLib/Any/Src/revup_ctrl.c **** __weak uint8_t RUC_GetNumberOfPhases(RevUpCtrl_Handle_t *pHandle)
 810:MCSDK_v6.1.0-Full/MotorControl/MCSDK/MCLib/Any/Src/revup_ctrl.c **** {
 1401              		.loc 1 810 1 is_stmt 1 view -0
 1402              		.cfi_startproc
 1403              		@ args = 0, pretend = 0, frame = 0
 1404              		@ frame_needed = 0, uses_anonymous_args = 0
 1405              		@ link register save eliminated.
 811:MCSDK_v6.1.0-Full/MotorControl/MCSDK/MCLib/Any/Src/revup_ctrl.c **** #ifdef NULL_PTR_REV_UP_CTL
 812:MCSDK_v6.1.0-Full/MotorControl/MCSDK/MCLib/Any/Src/revup_ctrl.c ****   return ((MC_NULL == pHandle) ? 0U : (uint8_t)pHandle->bPhaseNbr);
 813:MCSDK_v6.1.0-Full/MotorControl/MCSDK/MCLib/Any/Src/revup_ctrl.c **** #else
 814:MCSDK_v6.1.0-Full/MotorControl/MCSDK/MCLib/Any/Src/revup_ctrl.c ****   return ((uint8_t)pHandle->bPhaseNbr);
 1406              		.loc 1 814 3 view .LVU474
 815:MCSDK_v6.1.0-Full/MotorControl/MCSDK/MCLib/Any/Src/revup_ctrl.c **** #endif
 816:MCSDK_v6.1.0-Full/MotorControl/MCSDK/MCLib/Any/Src/revup_ctrl.c **** }
 1407              		.loc 1 816 1 is_stmt 0 view .LVU475
 1408 0000 90F84800 		ldrb	r0, [r0, #72]	@ zero_extendqisi2
 1409              	.LVL124:
 1410              		.loc 1 816 1 view .LVU476
 1411 0004 7047     		bx	lr
 1412              		.cfi_endproc
 1413              	.LFE1451:
 1415              		.section	.text.RUC_GetPhase,"ax",%progbits
 1416              		.align	1
 1417              		.weak	RUC_GetPhase
 1418              		.syntax unified
 1419              		.thumb
 1420              		.thumb_func
 1421              		.fpu fpv4-sp-d16
 1423              	RUC_GetPhase:
 1424              	.LVL125:
 1425              	.LFB1452:
 817:MCSDK_v6.1.0-Full/MotorControl/MCSDK/MCLib/Any/Src/revup_ctrl.c **** 
 818:MCSDK_v6.1.0-Full/MotorControl/MCSDK/MCLib/Any/Src/revup_ctrl.c **** /**
 819:MCSDK_v6.1.0-Full/MotorControl/MCSDK/MCLib/Any/Src/revup_ctrl.c ****   * @brief  Allow to read a programmed phase.
 820:MCSDK_v6.1.0-Full/MotorControl/MCSDK/MCLib/Any/Src/revup_ctrl.c ****   * @param  pHandle: Pointer on Handle structure of RevUp controller.
 821:MCSDK_v6.1.0-Full/MotorControl/MCSDK/MCLib/Any/Src/revup_ctrl.c ****   * @param  phaseNumber : number of phases relative to the programmed Rev-Up
 822:MCSDK_v6.1.0-Full/MotorControl/MCSDK/MCLib/Any/Src/revup_ctrl.c ****   * @param  phaseData:
 823:MCSDK_v6.1.0-Full/MotorControl/MCSDK/MCLib/Any/Src/revup_ctrl.c ****   * 			- RevUp phase from where targeted rotor speed is read.
 824:MCSDK_v6.1.0-Full/MotorControl/MCSDK/MCLib/Any/Src/revup_ctrl.c ****   *        			This parameter must be a number between 0 and 6.
 825:MCSDK_v6.1.0-Full/MotorControl/MCSDK/MCLib/Any/Src/revup_ctrl.c ****   *        		- RevUp phase from where targeted motor torque is read.
 826:MCSDK_v6.1.0-Full/MotorControl/MCSDK/MCLib/Any/Src/revup_ctrl.c ****   *         		This parameter must be a number between 0 and 6.
 827:MCSDK_v6.1.0-Full/MotorControl/MCSDK/MCLib/Any/Src/revup_ctrl.c ****   *        		- Duration set in selected phase in ms unit.
ARM GAS  /tmp/ccCiLUJR.s 			page 41


 828:MCSDK_v6.1.0-Full/MotorControl/MCSDK/MCLib/Any/Src/revup_ctrl.c ****   *  @retval Returns Boolean set to true value.
 829:MCSDK_v6.1.0-Full/MotorControl/MCSDK/MCLib/Any/Src/revup_ctrl.c ****   */
 830:MCSDK_v6.1.0-Full/MotorControl/MCSDK/MCLib/Any/Src/revup_ctrl.c **** __weak bool RUC_GetPhase(RevUpCtrl_Handle_t *pHandle, uint8_t phaseNumber, RevUpCtrl_PhaseParams_t 
 831:MCSDK_v6.1.0-Full/MotorControl/MCSDK/MCLib/Any/Src/revup_ctrl.c **** {
 1426              		.loc 1 831 1 is_stmt 1 view -0
 1427              		.cfi_startproc
 1428              		@ args = 0, pretend = 0, frame = 0
 1429              		@ frame_needed = 0, uses_anonymous_args = 0
 1430              		@ link register save eliminated.
 1431              		.loc 1 831 1 is_stmt 0 view .LVU478
 1432 0000 10B4     		push	{r4}
 1433              		.cfi_def_cfa_offset 4
 1434              		.cfi_offset 4, -4
 832:MCSDK_v6.1.0-Full/MotorControl/MCSDK/MCLib/Any/Src/revup_ctrl.c ****   bool retValue = true;
 1435              		.loc 1 832 3 is_stmt 1 view .LVU479
 1436              	.LVL126:
 833:MCSDK_v6.1.0-Full/MotorControl/MCSDK/MCLib/Any/Src/revup_ctrl.c **** #ifdef NULL_PTR_REV_UP_CTL
 834:MCSDK_v6.1.0-Full/MotorControl/MCSDK/MCLib/Any/Src/revup_ctrl.c ****   if ((MC_NULL == pHandle) || (MC_NULL == phaseData))
 835:MCSDK_v6.1.0-Full/MotorControl/MCSDK/MCLib/Any/Src/revup_ctrl.c ****   {
 836:MCSDK_v6.1.0-Full/MotorControl/MCSDK/MCLib/Any/Src/revup_ctrl.c ****     retValue = false;
 837:MCSDK_v6.1.0-Full/MotorControl/MCSDK/MCLib/Any/Src/revup_ctrl.c ****   }
 838:MCSDK_v6.1.0-Full/MotorControl/MCSDK/MCLib/Any/Src/revup_ctrl.c ****   else
 839:MCSDK_v6.1.0-Full/MotorControl/MCSDK/MCLib/Any/Src/revup_ctrl.c ****   {
 840:MCSDK_v6.1.0-Full/MotorControl/MCSDK/MCLib/Any/Src/revup_ctrl.c **** #endif
 841:MCSDK_v6.1.0-Full/MotorControl/MCSDK/MCLib/Any/Src/revup_ctrl.c ****     phaseData->hFinalTorque = (int16_t)pHandle->ParamsData[phaseNumber].hFinalTorque;
 1437              		.loc 1 841 5 view .LVU480
 1438              		.loc 1 841 72 is_stmt 0 view .LVU481
 1439 0002 01EB4103 		add	r3, r1, r1, lsl #1
 1440 0006 00EB8303 		add	r3, r0, r3, lsl #2
 1441 000a B3F91040 		ldrsh	r4, [r3, #16]
 1442              		.loc 1 841 29 view .LVU482
 1443 000e 9480     		strh	r4, [r2, #4]	@ movhi
 842:MCSDK_v6.1.0-Full/MotorControl/MCSDK/MCLib/Any/Src/revup_ctrl.c ****     phaseData->hFinalMecSpeedUnit = (int16_t)pHandle->ParamsData[phaseNumber].hFinalMecSpeedUnit;
 1444              		.loc 1 842 5 is_stmt 1 view .LVU483
 1445              		.loc 1 842 78 is_stmt 0 view .LVU484
 1446 0010 B3F90E30 		ldrsh	r3, [r3, #14]
 1447              		.loc 1 842 35 view .LVU485
 1448 0014 5380     		strh	r3, [r2, #2]	@ movhi
 843:MCSDK_v6.1.0-Full/MotorControl/MCSDK/MCLib/Any/Src/revup_ctrl.c ****     phaseData->hDurationms = (uint16_t)pHandle->ParamsData[phaseNumber].hDurationms;
 1449              		.loc 1 843 5 is_stmt 1 view .LVU486
 1450              		.loc 1 843 72 is_stmt 0 view .LVU487
 1451 0016 01EB4101 		add	r1, r1, r1, lsl #1
 1452              	.LVL127:
 1453              		.loc 1 843 72 view .LVU488
 1454 001a 00EB8101 		add	r1, r0, r1, lsl #2
 1455 001e 8B89     		ldrh	r3, [r1, #12]
 1456              		.loc 1 843 28 view .LVU489
 1457 0020 1380     		strh	r3, [r2]	@ movhi
 844:MCSDK_v6.1.0-Full/MotorControl/MCSDK/MCLib/Any/Src/revup_ctrl.c **** #ifdef NULL_PTR_REV_UP_CTL
 845:MCSDK_v6.1.0-Full/MotorControl/MCSDK/MCLib/Any/Src/revup_ctrl.c ****   }
 846:MCSDK_v6.1.0-Full/MotorControl/MCSDK/MCLib/Any/Src/revup_ctrl.c **** #endif
 847:MCSDK_v6.1.0-Full/MotorControl/MCSDK/MCLib/Any/Src/revup_ctrl.c ****   return (retValue);
 1458              		.loc 1 847 3 is_stmt 1 view .LVU490
 848:MCSDK_v6.1.0-Full/MotorControl/MCSDK/MCLib/Any/Src/revup_ctrl.c **** }
 1459              		.loc 1 848 1 is_stmt 0 view .LVU491
 1460 0022 0120     		movs	r0, #1
 1461              	.LVL128:
ARM GAS  /tmp/ccCiLUJR.s 			page 42


 1462              		.loc 1 848 1 view .LVU492
 1463 0024 5DF8044B 		ldr	r4, [sp], #4
 1464              		.cfi_restore 4
 1465              		.cfi_def_cfa_offset 0
 1466 0028 7047     		bx	lr
 1467              		.cfi_endproc
 1468              	.LFE1452:
 1470              		.section	.text.RUC_Get_SCLowsideOTF_Status,"ax",%progbits
 1471              		.align	1
 1472              		.weak	RUC_Get_SCLowsideOTF_Status
 1473              		.syntax unified
 1474              		.thumb
 1475              		.thumb_func
 1476              		.fpu fpv4-sp-d16
 1478              	RUC_Get_SCLowsideOTF_Status:
 1479              	.LVL129:
 1480              	.LFB1453:
 849:MCSDK_v6.1.0-Full/MotorControl/MCSDK/MCLib/Any/Src/revup_ctrl.c **** 
 850:MCSDK_v6.1.0-Full/MotorControl/MCSDK/MCLib/Any/Src/revup_ctrl.c **** /**
 851:MCSDK_v6.1.0-Full/MotorControl/MCSDK/MCLib/Any/Src/revup_ctrl.c ****   * @brief  Allow to read status of On The Fly (OTF) feature.
 852:MCSDK_v6.1.0-Full/MotorControl/MCSDK/MCLib/Any/Src/revup_ctrl.c ****   * @param  pHandle: Pointer on Handle structure of RevUp controller.
 853:MCSDK_v6.1.0-Full/MotorControl/MCSDK/MCLib/Any/Src/revup_ctrl.c ****   *  @retval Boolean set to true at the end of OTF processing.
 854:MCSDK_v6.1.0-Full/MotorControl/MCSDK/MCLib/Any/Src/revup_ctrl.c ****   */
 855:MCSDK_v6.1.0-Full/MotorControl/MCSDK/MCLib/Any/Src/revup_ctrl.c **** __weak bool RUC_Get_SCLowsideOTF_Status(RevUpCtrl_Handle_t *pHandle)
 856:MCSDK_v6.1.0-Full/MotorControl/MCSDK/MCLib/Any/Src/revup_ctrl.c **** {
 1481              		.loc 1 856 1 is_stmt 1 view -0
 1482              		.cfi_startproc
 1483              		@ args = 0, pretend = 0, frame = 0
 1484              		@ frame_needed = 0, uses_anonymous_args = 0
 1485              		@ link register save eliminated.
 857:MCSDK_v6.1.0-Full/MotorControl/MCSDK/MCLib/Any/Src/revup_ctrl.c **** #ifdef NULL_PTR_REV_UP_CTL
 858:MCSDK_v6.1.0-Full/MotorControl/MCSDK/MCLib/Any/Src/revup_ctrl.c ****   return ((MC_NULL == pHandle) ? false : pHandle->OTFSCLowside);
 859:MCSDK_v6.1.0-Full/MotorControl/MCSDK/MCLib/Any/Src/revup_ctrl.c **** #else
 860:MCSDK_v6.1.0-Full/MotorControl/MCSDK/MCLib/Any/Src/revup_ctrl.c ****   return (pHandle->OTFSCLowside);
 1486              		.loc 1 860 3 view .LVU494
 861:MCSDK_v6.1.0-Full/MotorControl/MCSDK/MCLib/Any/Src/revup_ctrl.c **** #endif
 862:MCSDK_v6.1.0-Full/MotorControl/MCSDK/MCLib/Any/Src/revup_ctrl.c **** }
 1487              		.loc 1 862 1 is_stmt 0 view .LVU495
 1488 0000 90F85400 		ldrb	r0, [r0, #84]	@ zero_extendqisi2
 1489              	.LVL130:
 1490              		.loc 1 862 1 view .LVU496
 1491 0004 7047     		bx	lr
 1492              		.cfi_endproc
 1493              	.LFE1453:
 1495              		.text
 1496              	.Letext0:
 1497              		.file 2 "/usr/lib/gcc/arm-none-eabi/9.2.1/include/stdint.h"
 1498              		.file 3 "Drivers/CMSIS/Include/core_cm4.h"
 1499              		.file 4 "Drivers/CMSIS/Device/ST/STM32G4xx/Include/system_stm32g4xx.h"
 1500              		.file 5 "Drivers/STM32G4xx_HAL_Driver/Inc/stm32g4xx_hal_def.h"
 1501              		.file 6 "Drivers/STM32G4xx_HAL_Driver/Inc/stm32g4xx_hal_flash.h"
 1502              		.file 7 "Drivers/STM32G4xx_HAL_Driver/Inc/stm32g4xx_hal.h"
 1503              		.file 8 "Drivers/STM32G4xx_HAL_Driver/Inc/stm32g4xx_ll_tim.h"
 1504              		.file 9 "Drivers/STM32G4xx_HAL_Driver/Inc/stm32g4xx_ll_usart.h"
 1505              		.file 10 "Drivers/STM32G4xx_HAL_Driver/Inc/stm32g4xx_ll_dma.h"
 1506              		.file 11 "MCSDK_v6.1.0-Full/MotorControl/MCSDK/MCLib/Any/Inc/mc_type.h"
 1507              		.file 12 "MCSDK_v6.1.0-Full/MotorControl/MCSDK/MCLib/Any/Inc/pid_regulator.h"
ARM GAS  /tmp/ccCiLUJR.s 			page 43


 1508              		.file 13 "MCSDK_v6.1.0-Full/MotorControl/MCSDK/MCLib/Any/Inc/speed_pos_fdbk.h"
 1509              		.file 14 "MCSDK_v6.1.0-Full/MotorControl/MCSDK/MCLib/Any/Inc/speed_torq_ctrl.h"
 1510              		.file 15 "MCSDK_v6.1.0-Full/MotorControl/MCSDK/MCLib/Any/Inc/virtual_speed_sensor.h"
 1511              		.file 16 "MCSDK_v6.1.0-Full/MotorControl/MCSDK/MCLib/Any/Inc/sto_speed_pos_fdbk.h"
 1512              		.file 17 "MCSDK_v6.1.0-Full/MotorControl/MCSDK/MCLib/Any/Inc/pwm_curr_fdbk.h"
 1513              		.file 18 "MCSDK_v6.1.0-Full/MotorControl/MCSDK/MCLib/Any/Inc/revup_ctrl.h"
ARM GAS  /tmp/ccCiLUJR.s 			page 44

