Archive member included to satisfy reference by file (symbol)

/usr/lib/gcc/arm-none-eabi/9.2.1/../../../arm-none-eabi/lib/thumb/v7e-m+fp/hard/libc_nano.a(lib_a-atexit.o)
                              /usr/lib/gcc/arm-none-eabi/9.2.1/../../../arm-none-eabi/lib/thumb/v7e-m+fp/hard/crt0.o (atexit)
/usr/lib/gcc/arm-none-eabi/9.2.1/../../../arm-none-eabi/lib/thumb/v7e-m+fp/hard/libc_nano.a(lib_a-exit.o)
                              /usr/lib/gcc/arm-none-eabi/9.2.1/../../../arm-none-eabi/lib/thumb/v7e-m+fp/hard/crt0.o (exit)
/usr/lib/gcc/arm-none-eabi/9.2.1/../../../arm-none-eabi/lib/thumb/v7e-m+fp/hard/libc_nano.a(lib_a-fini.o)
                              /usr/lib/gcc/arm-none-eabi/9.2.1/../../../arm-none-eabi/lib/thumb/v7e-m+fp/hard/crt0.o (__libc_fini_array)
/usr/lib/gcc/arm-none-eabi/9.2.1/../../../arm-none-eabi/lib/thumb/v7e-m+fp/hard/libc_nano.a(lib_a-impure.o)
                              /usr/lib/gcc/arm-none-eabi/9.2.1/../../../arm-none-eabi/lib/thumb/v7e-m+fp/hard/libc_nano.a(lib_a-exit.o) (_global_impure_ptr)
/usr/lib/gcc/arm-none-eabi/9.2.1/../../../arm-none-eabi/lib/thumb/v7e-m+fp/hard/libc_nano.a(lib_a-init.o)
                              /usr/lib/gcc/arm-none-eabi/9.2.1/../../../arm-none-eabi/lib/thumb/v7e-m+fp/hard/crt0.o (__libc_init_array)
/usr/lib/gcc/arm-none-eabi/9.2.1/../../../arm-none-eabi/lib/thumb/v7e-m+fp/hard/libc_nano.a(lib_a-memcpy.o)
                              build/mcpa.o (memcpy)
/usr/lib/gcc/arm-none-eabi/9.2.1/../../../arm-none-eabi/lib/thumb/v7e-m+fp/hard/libc_nano.a(lib_a-memset.o)
                              /usr/lib/gcc/arm-none-eabi/9.2.1/../../../arm-none-eabi/lib/thumb/v7e-m+fp/hard/crt0.o (memset)
/usr/lib/gcc/arm-none-eabi/9.2.1/../../../arm-none-eabi/lib/thumb/v7e-m+fp/hard/libc_nano.a(lib_a-__atexit.o)
                              /usr/lib/gcc/arm-none-eabi/9.2.1/../../../arm-none-eabi/lib/thumb/v7e-m+fp/hard/libc_nano.a(lib_a-atexit.o) (__register_exitproc)
/usr/lib/gcc/arm-none-eabi/9.2.1/../../../arm-none-eabi/lib/thumb/v7e-m+fp/hard/libc_nano.a(lib_a-__call_atexit.o)
                              /usr/lib/gcc/arm-none-eabi/9.2.1/../../../arm-none-eabi/lib/thumb/v7e-m+fp/hard/libc_nano.a(lib_a-__atexit.o) (__call_exitprocs)
/usr/lib/gcc/arm-none-eabi/9.2.1/../../../arm-none-eabi/lib/thumb/v7e-m+fp/hard/libnosys.a(_exit.o)
                              /usr/lib/gcc/arm-none-eabi/9.2.1/../../../arm-none-eabi/lib/thumb/v7e-m+fp/hard/libc_nano.a(lib_a-exit.o) (_exit)
/usr/lib/gcc/arm-none-eabi/9.2.1/thumb/v7e-m+fp/hard/libgcc.a(_arm_muldf3.o)
                              build/mc_interface.o (__aeabi_dmul)
/usr/lib/gcc/arm-none-eabi/9.2.1/thumb/v7e-m+fp/hard/libgcc.a(_arm_addsubdf3.o)
                              build/mc_interface.o (__aeabi_i2d)
/usr/lib/gcc/arm-none-eabi/9.2.1/thumb/v7e-m+fp/hard/libgcc.a(_arm_fixdfsi.o)
                              build/mc_interface.o (__aeabi_d2iz)
/usr/lib/gcc/arm-none-eabi/9.2.1/thumb/v7e-m+fp/hard/libgcc.a(_arm_truncdfsf2.o)
                              build/mc_interface.o (__aeabi_d2f)

Allocating common symbols
Common symbol       size              file

dataPtrTableBuffA   0x28              build/mcp_config.o
MCP_UserCallBack    0x8               build/mcp_config.o
htim4               0x4c              build/main.o
uwTick              0x4               build/stm32g4xx_hal.o
dataSizeTableBuffA  0xa               build/mcp_config.o
pMCI                0x4               build/motorcontrol.o
Mci                 0x24              build/mc_config.o
dataPtrTableA       0x28              build/mcp_config.o
dataSizeTableA      0xa               build/mcp_config.o

Discarded input sections

 .text          0x0000000000000000        0x0 /usr/lib/gcc/arm-none-eabi/9.2.1/thumb/v7e-m+fp/hard/crti.o
 .data          0x0000000000000000        0x0 /usr/lib/gcc/arm-none-eabi/9.2.1/thumb/v7e-m+fp/hard/crti.o
 .bss           0x0000000000000000        0x0 /usr/lib/gcc/arm-none-eabi/9.2.1/thumb/v7e-m+fp/hard/crti.o
 .data          0x0000000000000000        0x4 /usr/lib/gcc/arm-none-eabi/9.2.1/thumb/v7e-m+fp/hard/crtbegin.o
 .text          0x0000000000000000       0x70 /usr/lib/gcc/arm-none-eabi/9.2.1/../../../arm-none-eabi/lib/thumb/v7e-m+fp/hard/crt0.o
 .data          0x0000000000000000        0x0 /usr/lib/gcc/arm-none-eabi/9.2.1/../../../arm-none-eabi/lib/thumb/v7e-m+fp/hard/crt0.o
 .bss           0x0000000000000000        0x0 /usr/lib/gcc/arm-none-eabi/9.2.1/../../../arm-none-eabi/lib/thumb/v7e-m+fp/hard/crt0.o
 .ARM.extab     0x0000000000000000        0x0 /usr/lib/gcc/arm-none-eabi/9.2.1/../../../arm-none-eabi/lib/thumb/v7e-m+fp/hard/crt0.o
 .ARM.exidx     0x0000000000000000       0x10 /usr/lib/gcc/arm-none-eabi/9.2.1/../../../arm-none-eabi/lib/thumb/v7e-m+fp/hard/crt0.o
 .debug_line    0x0000000000000000       0x87 /usr/lib/gcc/arm-none-eabi/9.2.1/../../../arm-none-eabi/lib/thumb/v7e-m+fp/hard/crt0.o
 .debug_info    0x0000000000000000       0x26 /usr/lib/gcc/arm-none-eabi/9.2.1/../../../arm-none-eabi/lib/thumb/v7e-m+fp/hard/crt0.o
 .debug_abbrev  0x0000000000000000       0x14 /usr/lib/gcc/arm-none-eabi/9.2.1/../../../arm-none-eabi/lib/thumb/v7e-m+fp/hard/crt0.o
 .debug_aranges
                0x0000000000000000       0x20 /usr/lib/gcc/arm-none-eabi/9.2.1/../../../arm-none-eabi/lib/thumb/v7e-m+fp/hard/crt0.o
 .debug_str     0x0000000000000000       0x98 /usr/lib/gcc/arm-none-eabi/9.2.1/../../../arm-none-eabi/lib/thumb/v7e-m+fp/hard/crt0.o
 .ARM.attributes
                0x0000000000000000       0x1c /usr/lib/gcc/arm-none-eabi/9.2.1/../../../arm-none-eabi/lib/thumb/v7e-m+fp/hard/crt0.o
 .text          0x0000000000000000        0x0 build/stm32g4xx_hal.o
 .data          0x0000000000000000        0x0 build/stm32g4xx_hal.o
 .bss           0x0000000000000000        0x0 build/stm32g4xx_hal.o
 .text.HAL_MspInit
                0x0000000000000000        0x2 build/stm32g4xx_hal.o
 .text.HAL_MspDeInit
                0x0000000000000000        0x2 build/stm32g4xx_hal.o
 .text.HAL_DeInit
                0x0000000000000000       0x2c build/stm32g4xx_hal.o
 .text.HAL_GetTick
                0x0000000000000000        0xc build/stm32g4xx_hal.o
 .text.HAL_GetTickPrio
                0x0000000000000000        0xc build/stm32g4xx_hal.o
 .text.HAL_SetTickFreq
                0x0000000000000000       0x2c build/stm32g4xx_hal.o
 .text.HAL_GetTickFreq
                0x0000000000000000        0xc build/stm32g4xx_hal.o
 .text.HAL_Delay
                0x0000000000000000       0x28 build/stm32g4xx_hal.o
 .text.HAL_SuspendTick
                0x0000000000000000       0x10 build/stm32g4xx_hal.o
 .text.HAL_ResumeTick
                0x0000000000000000       0x10 build/stm32g4xx_hal.o
 .text.HAL_GetHalVersion
                0x0000000000000000        0x8 build/stm32g4xx_hal.o
 .text.HAL_GetREVID
                0x0000000000000000        0xc build/stm32g4xx_hal.o
 .text.HAL_GetDEVID
                0x0000000000000000       0x10 build/stm32g4xx_hal.o
 .text.HAL_DBGMCU_EnableDBGSleepMode
                0x0000000000000000       0x10 build/stm32g4xx_hal.o
 .text.HAL_DBGMCU_DisableDBGSleepMode
                0x0000000000000000       0x10 build/stm32g4xx_hal.o
 .text.HAL_DBGMCU_EnableDBGStopMode
                0x0000000000000000       0x10 build/stm32g4xx_hal.o
 .text.HAL_DBGMCU_DisableDBGStopMode
                0x0000000000000000       0x10 build/stm32g4xx_hal.o
 .text.HAL_DBGMCU_EnableDBGStandbyMode
                0x0000000000000000       0x10 build/stm32g4xx_hal.o
 .text.HAL_DBGMCU_DisableDBGStandbyMode
                0x0000000000000000       0x10 build/stm32g4xx_hal.o
 .text.HAL_SYSCFG_CCMSRAMErase
                0x0000000000000000       0x18 build/stm32g4xx_hal.o
 .text.HAL_SYSCFG_EnableMemorySwappingBank
                0x0000000000000000       0x10 build/stm32g4xx_hal.o
 .text.HAL_SYSCFG_DisableMemorySwappingBank
                0x0000000000000000       0x10 build/stm32g4xx_hal.o
 .text.HAL_SYSCFG_VREFBUF_VoltageScalingConfig
                0x0000000000000000       0x14 build/stm32g4xx_hal.o
 .text.HAL_SYSCFG_VREFBUF_HighImpedanceConfig
                0x0000000000000000       0x14 build/stm32g4xx_hal.o
 .text.HAL_SYSCFG_VREFBUF_TrimmingConfig
                0x0000000000000000       0x14 build/stm32g4xx_hal.o
 .text.HAL_SYSCFG_EnableVREFBUF
                0x0000000000000000       0x34 build/stm32g4xx_hal.o
 .text.HAL_SYSCFG_DisableVREFBUF
                0x0000000000000000       0x10 build/stm32g4xx_hal.o
 .text.HAL_SYSCFG_EnableIOSwitchBooster
                0x0000000000000000       0x10 build/stm32g4xx_hal.o
 .text.HAL_SYSCFG_DisableIOSwitchBooster
                0x0000000000000000       0x10 build/stm32g4xx_hal.o
 .text.HAL_SYSCFG_EnableIOSwitchVDD
                0x0000000000000000       0x10 build/stm32g4xx_hal.o
 .text.HAL_SYSCFG_DisableIOSwitchVDD
                0x0000000000000000       0x10 build/stm32g4xx_hal.o
 .text.HAL_SYSCFG_CCMSRAM_WriteProtectionEnable
                0x0000000000000000       0x10 build/stm32g4xx_hal.o
 .text          0x0000000000000000        0x0 build/stm32g4xx_hal_cortex.o
 .data          0x0000000000000000        0x0 build/stm32g4xx_hal_cortex.o
 .bss           0x0000000000000000        0x0 build/stm32g4xx_hal_cortex.o
 .text.HAL_NVIC_EnableIRQ
                0x0000000000000000       0x1c build/stm32g4xx_hal_cortex.o
 .text.HAL_NVIC_DisableIRQ
                0x0000000000000000       0x24 build/stm32g4xx_hal_cortex.o
 .text.HAL_NVIC_SystemReset
                0x0000000000000000       0x24 build/stm32g4xx_hal_cortex.o
 .text.HAL_NVIC_GetPriorityGrouping
                0x0000000000000000       0x10 build/stm32g4xx_hal_cortex.o
 .text.HAL_NVIC_GetPriority
                0x0000000000000000       0x60 build/stm32g4xx_hal_cortex.o
 .text.HAL_NVIC_SetPendingIRQ
                0x0000000000000000       0x1c build/stm32g4xx_hal_cortex.o
 .text.HAL_NVIC_GetPendingIRQ
                0x0000000000000000       0x24 build/stm32g4xx_hal_cortex.o
 .text.HAL_NVIC_ClearPendingIRQ
                0x0000000000000000       0x1c build/stm32g4xx_hal_cortex.o
 .text.HAL_NVIC_GetActive
                0x0000000000000000       0x24 build/stm32g4xx_hal_cortex.o
 .text.HAL_SYSTICK_CLKSourceConfig
                0x0000000000000000       0x20 build/stm32g4xx_hal_cortex.o
 .text.HAL_MPU_Enable
                0x0000000000000000       0x18 build/stm32g4xx_hal_cortex.o
 .text.HAL_MPU_Disable
                0x0000000000000000       0x10 build/stm32g4xx_hal_cortex.o
 .text.HAL_MPU_ConfigRegion
                0x0000000000000000       0x54 build/stm32g4xx_hal_cortex.o
 .text          0x0000000000000000        0x0 build/stm32g4xx_hal_dma.o
 .data          0x0000000000000000        0x0 build/stm32g4xx_hal_dma.o
 .bss           0x0000000000000000        0x0 build/stm32g4xx_hal_dma.o
 .text.DMA_SetConfig
                0x0000000000000000       0x40 build/stm32g4xx_hal_dma.o
 .text.DMA_CalcDMAMUXChannelBaseAndMask
                0x0000000000000000       0x48 build/stm32g4xx_hal_dma.o
 .text.DMA_CalcDMAMUXRequestGenBaseAndMask
                0x0000000000000000       0x28 build/stm32g4xx_hal_dma.o
 .text.HAL_DMA_Init
                0x0000000000000000       0xd8 build/stm32g4xx_hal_dma.o
 .text.HAL_DMA_DeInit
                0x0000000000000000       0xb8 build/stm32g4xx_hal_dma.o
 .text.HAL_DMA_Start
                0x0000000000000000       0x52 build/stm32g4xx_hal_dma.o
 .text.HAL_DMA_Start_IT
                0x0000000000000000       0x94 build/stm32g4xx_hal_dma.o
 .text.HAL_DMA_Abort
                0x0000000000000000       0x6c build/stm32g4xx_hal_dma.o
 .text.HAL_DMA_Abort_IT
                0x0000000000000000       0x7e build/stm32g4xx_hal_dma.o
 .text.HAL_DMA_PollForTransfer
                0x0000000000000000      0x11a build/stm32g4xx_hal_dma.o
 .text.HAL_DMA_IRQHandler
                0x0000000000000000       0xc4 build/stm32g4xx_hal_dma.o
 .text.HAL_DMA_RegisterCallback
                0x0000000000000000       0x46 build/stm32g4xx_hal_dma.o
 .text.HAL_DMA_UnRegisterCallback
                0x0000000000000000       0x5c build/stm32g4xx_hal_dma.o
 .text.HAL_DMA_GetState
                0x0000000000000000        0x6 build/stm32g4xx_hal_dma.o
 .text.HAL_DMA_GetError
                0x0000000000000000        0x4 build/stm32g4xx_hal_dma.o
 .debug_info    0x0000000000000000      0xbef build/stm32g4xx_hal_dma.o
 .debug_abbrev  0x0000000000000000      0x255 build/stm32g4xx_hal_dma.o
 .debug_loc     0x0000000000000000      0x8a0 build/stm32g4xx_hal_dma.o
 .debug_aranges
                0x0000000000000000       0x90 build/stm32g4xx_hal_dma.o
 .debug_ranges  0x0000000000000000       0x80 build/stm32g4xx_hal_dma.o
 .debug_line    0x0000000000000000      0xc12 build/stm32g4xx_hal_dma.o
 .debug_str     0x0000000000000000      0x96a build/stm32g4xx_hal_dma.o
 .comment       0x0000000000000000       0x5a build/stm32g4xx_hal_dma.o
 .debug_frame   0x0000000000000000      0x178 build/stm32g4xx_hal_dma.o
 .ARM.attributes
                0x0000000000000000       0x34 build/stm32g4xx_hal_dma.o
 .text          0x0000000000000000        0x0 build/stm32g4xx_hal_dma_ex.o
 .data          0x0000000000000000        0x0 build/stm32g4xx_hal_dma_ex.o
 .bss           0x0000000000000000        0x0 build/stm32g4xx_hal_dma_ex.o
 .text.HAL_DMAEx_ConfigMuxSync
                0x0000000000000000       0x54 build/stm32g4xx_hal_dma_ex.o
 .text.HAL_DMAEx_ConfigMuxRequestGenerator
                0x0000000000000000       0x5a build/stm32g4xx_hal_dma_ex.o
 .text.HAL_DMAEx_EnableMuxRequestGenerator
                0x0000000000000000       0x1e build/stm32g4xx_hal_dma_ex.o
 .text.HAL_DMAEx_DisableMuxRequestGenerator
                0x0000000000000000       0x1e build/stm32g4xx_hal_dma_ex.o
 .text.HAL_DMAEx_MUX_IRQHandler
                0x0000000000000000       0x5a build/stm32g4xx_hal_dma_ex.o
 .debug_info    0x0000000000000000      0x846 build/stm32g4xx_hal_dma_ex.o
 .debug_abbrev  0x0000000000000000      0x224 build/stm32g4xx_hal_dma_ex.o
 .debug_loc     0x0000000000000000      0x214 build/stm32g4xx_hal_dma_ex.o
 .debug_aranges
                0x0000000000000000       0x40 build/stm32g4xx_hal_dma_ex.o
 .debug_ranges  0x0000000000000000       0x48 build/stm32g4xx_hal_dma_ex.o
 .debug_line    0x0000000000000000      0x445 build/stm32g4xx_hal_dma_ex.o
 .debug_str     0x0000000000000000      0x835 build/stm32g4xx_hal_dma_ex.o
 .comment       0x0000000000000000       0x5a build/stm32g4xx_hal_dma_ex.o
 .debug_frame   0x0000000000000000       0x90 build/stm32g4xx_hal_dma_ex.o
 .ARM.attributes
                0x0000000000000000       0x34 build/stm32g4xx_hal_dma_ex.o
 .text          0x0000000000000000        0x0 build/stm32g4xx_hal_exti.o
 .data          0x0000000000000000        0x0 build/stm32g4xx_hal_exti.o
 .bss           0x0000000000000000        0x0 build/stm32g4xx_hal_exti.o
 .text.HAL_EXTI_SetConfigLine
                0x0000000000000000       0xdc build/stm32g4xx_hal_exti.o
 .text.HAL_EXTI_GetConfigLine
                0x0000000000000000       0xb4 build/stm32g4xx_hal_exti.o
 .text.HAL_EXTI_ClearConfigLine
                0x0000000000000000       0x98 build/stm32g4xx_hal_exti.o
 .text.HAL_EXTI_RegisterCallback
                0x0000000000000000       0x10 build/stm32g4xx_hal_exti.o
 .text.HAL_EXTI_GetHandle
                0x0000000000000000        0xc build/stm32g4xx_hal_exti.o
 .text.HAL_EXTI_IRQHandler
                0x0000000000000000       0x2c build/stm32g4xx_hal_exti.o
 .text.HAL_EXTI_GetPending
                0x0000000000000000       0x20 build/stm32g4xx_hal_exti.o
 .text.HAL_EXTI_ClearPending
                0x0000000000000000       0x1c build/stm32g4xx_hal_exti.o
 .text.HAL_EXTI_GenerateSWI
                0x0000000000000000       0x1c build/stm32g4xx_hal_exti.o
 .debug_info    0x0000000000000000      0x93d build/stm32g4xx_hal_exti.o
 .debug_abbrev  0x0000000000000000      0x1de build/stm32g4xx_hal_exti.o
 .debug_loc     0x0000000000000000      0xb3a build/stm32g4xx_hal_exti.o
 .debug_aranges
                0x0000000000000000       0x60 build/stm32g4xx_hal_exti.o
 .debug_ranges  0x0000000000000000       0x50 build/stm32g4xx_hal_exti.o
 .debug_line    0x0000000000000000      0x714 build/stm32g4xx_hal_exti.o
 .debug_str     0x0000000000000000      0x631 build/stm32g4xx_hal_exti.o
 .comment       0x0000000000000000       0x5a build/stm32g4xx_hal_exti.o
 .debug_frame   0x0000000000000000      0x104 build/stm32g4xx_hal_exti.o
 .ARM.attributes
                0x0000000000000000       0x34 build/stm32g4xx_hal_exti.o
 .text          0x0000000000000000        0x0 build/stm32g4xx_hal_flash.o
 .data          0x0000000000000000        0x0 build/stm32g4xx_hal_flash.o
 .bss           0x0000000000000000        0x0 build/stm32g4xx_hal_flash.o
 .text.FLASH_Program_DoubleWord
                0x0000000000000000       0x20 build/stm32g4xx_hal_flash.o
 .text.FLASH_Program_Fast
                0x0000000000000000       0x34 build/stm32g4xx_hal_flash.o
 .text.HAL_FLASH_EndOfOperationCallback
                0x0000000000000000        0x2 build/stm32g4xx_hal_flash.o
 .text.HAL_FLASH_OperationErrorCallback
                0x0000000000000000        0x2 build/stm32g4xx_hal_flash.o
 .text.HAL_FLASH_IRQHandler
                0x0000000000000000      0x120 build/stm32g4xx_hal_flash.o
 .text.HAL_FLASH_Unlock
                0x0000000000000000       0x30 build/stm32g4xx_hal_flash.o
 .text.HAL_FLASH_Lock
                0x0000000000000000       0x1c build/stm32g4xx_hal_flash.o
 .text.HAL_FLASH_OB_Unlock
                0x0000000000000000       0x34 build/stm32g4xx_hal_flash.o
 .text.HAL_FLASH_OB_Lock
                0x0000000000000000       0x20 build/stm32g4xx_hal_flash.o
 .text.HAL_FLASH_GetError
                0x0000000000000000        0xc build/stm32g4xx_hal_flash.o
 .text.FLASH_WaitForLastOperation
                0x0000000000000000       0x60 build/stm32g4xx_hal_flash.o
 .text.HAL_FLASH_Program
                0x0000000000000000       0x7c build/stm32g4xx_hal_flash.o
 .text.HAL_FLASH_Program_IT
                0x0000000000000000       0x84 build/stm32g4xx_hal_flash.o
 .text.HAL_FLASH_OB_Launch
                0x0000000000000000       0x1c build/stm32g4xx_hal_flash.o
 .data.pFlash   0x0000000000000000       0x20 build/stm32g4xx_hal_flash.o
 .debug_info    0x0000000000000000      0x952 build/stm32g4xx_hal_flash.o
 .debug_abbrev  0x0000000000000000      0x31b build/stm32g4xx_hal_flash.o
 .debug_loc     0x0000000000000000      0x5df build/stm32g4xx_hal_flash.o
 .debug_aranges
                0x0000000000000000       0x88 build/stm32g4xx_hal_flash.o
 .debug_ranges  0x0000000000000000       0x78 build/stm32g4xx_hal_flash.o
 .debug_line    0x0000000000000000      0x742 build/stm32g4xx_hal_flash.o
 .debug_str     0x0000000000000000      0x695 build/stm32g4xx_hal_flash.o
 .comment       0x0000000000000000       0x5a build/stm32g4xx_hal_flash.o
 .debug_frame   0x0000000000000000      0x144 build/stm32g4xx_hal_flash.o
 .ARM.attributes
                0x0000000000000000       0x34 build/stm32g4xx_hal_flash.o
 .text          0x0000000000000000        0x0 build/stm32g4xx_hal_flash_ex.o
 .data          0x0000000000000000        0x0 build/stm32g4xx_hal_flash_ex.o
 .bss           0x0000000000000000        0x0 build/stm32g4xx_hal_flash_ex.o
 .text.FLASH_MassErase
                0x0000000000000000       0x20 build/stm32g4xx_hal_flash_ex.o
 .text.FLASH_OB_GetSecMem
                0x0000000000000000       0x18 build/stm32g4xx_hal_flash_ex.o
 .text.FLASH_OB_GetBootLock
                0x0000000000000000       0x10 build/stm32g4xx_hal_flash_ex.o
 .text.FLASH_OB_GetWRP
                0x0000000000000000       0x34 build/stm32g4xx_hal_flash_ex.o
 .text.FLASH_OB_GetRDP
                0x0000000000000000       0x18 build/stm32g4xx_hal_flash_ex.o
 .text.FLASH_OB_GetUser
                0x0000000000000000       0x10 build/stm32g4xx_hal_flash_ex.o
 .text.FLASH_OB_GetPCROP
                0x0000000000000000       0x40 build/stm32g4xx_hal_flash_ex.o
 .text.FLASH_OB_WRPConfig
                0x0000000000000000       0x44 build/stm32g4xx_hal_flash_ex.o
 .text.FLASH_OB_RDPConfig
                0x0000000000000000       0x34 build/stm32g4xx_hal_flash_ex.o
 .text.FLASH_OB_UserConfig
                0x0000000000000000      0x128 build/stm32g4xx_hal_flash_ex.o
 .text.FLASH_OB_PCROPConfig
                0x0000000000000000       0x68 build/stm32g4xx_hal_flash_ex.o
 .text.FLASH_OB_SecMemConfig
                0x0000000000000000       0x3c build/stm32g4xx_hal_flash_ex.o
 .text.FLASH_OB_BootLockConfig
                0x0000000000000000       0x34 build/stm32g4xx_hal_flash_ex.o
 .text.HAL_FLASHEx_OBProgram
                0x0000000000000000       0xc0 build/stm32g4xx_hal_flash_ex.o
 .text.HAL_FLASHEx_OBGetConfig
                0x0000000000000000       0x74 build/stm32g4xx_hal_flash_ex.o
 .text.HAL_FLASHEx_EnableSecMemProtection
                0x0000000000000000       0x14 build/stm32g4xx_hal_flash_ex.o
 .text.HAL_FLASHEx_EnableDebugger
                0x0000000000000000       0x10 build/stm32g4xx_hal_flash_ex.o
 .text.HAL_FLASHEx_DisableDebugger
                0x0000000000000000       0x10 build/stm32g4xx_hal_flash_ex.o
 .text.FLASH_PageErase
                0x0000000000000000       0x28 build/stm32g4xx_hal_flash_ex.o
 .text.HAL_FLASHEx_Erase_IT
                0x0000000000000000       0xb0 build/stm32g4xx_hal_flash_ex.o
 .text.FLASH_FlushCaches
                0x0000000000000000       0x64 build/stm32g4xx_hal_flash_ex.o
 .text.HAL_FLASHEx_Erase
                0x0000000000000000       0xec build/stm32g4xx_hal_flash_ex.o
 .debug_info    0x0000000000000000      0xc81 build/stm32g4xx_hal_flash_ex.o
 .debug_abbrev  0x0000000000000000      0x28b build/stm32g4xx_hal_flash_ex.o
 .debug_loc     0x0000000000000000      0x78d build/stm32g4xx_hal_flash_ex.o
 .debug_aranges
                0x0000000000000000       0xc8 build/stm32g4xx_hal_flash_ex.o
 .debug_ranges  0x0000000000000000       0xb8 build/stm32g4xx_hal_flash_ex.o
 .debug_line    0x0000000000000000      0xb40 build/stm32g4xx_hal_flash_ex.o
 .debug_str     0x0000000000000000      0x7d0 build/stm32g4xx_hal_flash_ex.o
 .comment       0x0000000000000000       0x5a build/stm32g4xx_hal_flash_ex.o
 .debug_frame   0x0000000000000000      0x1f0 build/stm32g4xx_hal_flash_ex.o
 .ARM.attributes
                0x0000000000000000       0x34 build/stm32g4xx_hal_flash_ex.o
 .text          0x0000000000000000        0x0 build/stm32g4xx_hal_flash_ramfunc.o
 .data          0x0000000000000000        0x0 build/stm32g4xx_hal_flash_ramfunc.o
 .bss           0x0000000000000000        0x0 build/stm32g4xx_hal_flash_ramfunc.o
 .RamFunc       0x0000000000000000       0x48 build/stm32g4xx_hal_flash_ramfunc.o
 .debug_info    0x0000000000000000      0x3a7 build/stm32g4xx_hal_flash_ramfunc.o
 .debug_abbrev  0x0000000000000000      0x117 build/stm32g4xx_hal_flash_ramfunc.o
 .debug_aranges
                0x0000000000000000       0x28 build/stm32g4xx_hal_flash_ramfunc.o
 .debug_ranges  0x0000000000000000       0x18 build/stm32g4xx_hal_flash_ramfunc.o
 .debug_line    0x0000000000000000      0x1a0 build/stm32g4xx_hal_flash_ramfunc.o
 .debug_str     0x0000000000000000      0x4a7 build/stm32g4xx_hal_flash_ramfunc.o
 .comment       0x0000000000000000       0x5a build/stm32g4xx_hal_flash_ramfunc.o
 .debug_frame   0x0000000000000000       0x30 build/stm32g4xx_hal_flash_ramfunc.o
 .ARM.attributes
                0x0000000000000000       0x34 build/stm32g4xx_hal_flash_ramfunc.o
 .text          0x0000000000000000        0x0 build/stm32g4xx_hal_gpio.o
 .data          0x0000000000000000        0x0 build/stm32g4xx_hal_gpio.o
 .bss           0x0000000000000000        0x0 build/stm32g4xx_hal_gpio.o
 .text.HAL_GPIO_DeInit
                0x0000000000000000      0x114 build/stm32g4xx_hal_gpio.o
 .text.HAL_GPIO_ReadPin
                0x0000000000000000        0xe build/stm32g4xx_hal_gpio.o
 .text.HAL_GPIO_WritePin
                0x0000000000000000        0xa build/stm32g4xx_hal_gpio.o
 .text.HAL_GPIO_TogglePin
                0x0000000000000000       0x12 build/stm32g4xx_hal_gpio.o
 .text.HAL_GPIO_LockPin
                0x0000000000000000       0x2e build/stm32g4xx_hal_gpio.o
 .text.HAL_GPIO_EXTI_Callback
                0x0000000000000000        0x2 build/stm32g4xx_hal_gpio.o
 .text.HAL_GPIO_EXTI_IRQHandler
                0x0000000000000000       0x1c build/stm32g4xx_hal_gpio.o
 .text          0x0000000000000000        0x0 build/stm32g4xx_hal_pwr.o
 .data          0x0000000000000000        0x0 build/stm32g4xx_hal_pwr.o
 .bss           0x0000000000000000        0x0 build/stm32g4xx_hal_pwr.o
 .text.HAL_PWR_DeInit
                0x0000000000000000       0x18 build/stm32g4xx_hal_pwr.o
 .text.HAL_PWR_EnableBkUpAccess
                0x0000000000000000       0x10 build/stm32g4xx_hal_pwr.o
 .text.HAL_PWR_DisableBkUpAccess
                0x0000000000000000       0x10 build/stm32g4xx_hal_pwr.o
 .text.HAL_PWR_ConfigPVD
                0x0000000000000000       0x84 build/stm32g4xx_hal_pwr.o
 .text.HAL_PWR_EnablePVD
                0x0000000000000000       0x10 build/stm32g4xx_hal_pwr.o
 .text.HAL_PWR_DisablePVD
                0x0000000000000000       0x10 build/stm32g4xx_hal_pwr.o
 .text.HAL_PWR_EnableWakeUpPin
                0x0000000000000000       0x20 build/stm32g4xx_hal_pwr.o
 .text.HAL_PWR_DisableWakeUpPin
                0x0000000000000000       0x14 build/stm32g4xx_hal_pwr.o
 .text.HAL_PWR_EnterSLEEPMode
                0x0000000000000000       0x48 build/stm32g4xx_hal_pwr.o
 .text.HAL_PWR_EnterSTOPMode
                0x0000000000000000       0x18 build/stm32g4xx_hal_pwr.o
 .text.HAL_PWR_EnterSTANDBYMode
                0x0000000000000000       0x24 build/stm32g4xx_hal_pwr.o
 .text.HAL_PWR_EnableSleepOnExit
                0x0000000000000000       0x10 build/stm32g4xx_hal_pwr.o
 .text.HAL_PWR_DisableSleepOnExit
                0x0000000000000000       0x10 build/stm32g4xx_hal_pwr.o
 .text.HAL_PWR_EnableSEVOnPend
                0x0000000000000000       0x10 build/stm32g4xx_hal_pwr.o
 .text.HAL_PWR_DisableSEVOnPend
                0x0000000000000000       0x10 build/stm32g4xx_hal_pwr.o
 .text.HAL_PWR_PVDCallback
                0x0000000000000000        0x2 build/stm32g4xx_hal_pwr.o
 .debug_info    0x0000000000000000      0xb44 build/stm32g4xx_hal_pwr.o
 .debug_abbrev  0x0000000000000000      0x1a4 build/stm32g4xx_hal_pwr.o
 .debug_loc     0x0000000000000000      0x1b1 build/stm32g4xx_hal_pwr.o
 .debug_aranges
                0x0000000000000000       0x98 build/stm32g4xx_hal_pwr.o
 .debug_ranges  0x0000000000000000       0x88 build/stm32g4xx_hal_pwr.o
 .debug_line    0x0000000000000000      0x3b9 build/stm32g4xx_hal_pwr.o
 .debug_str     0x0000000000000000      0x88f build/stm32g4xx_hal_pwr.o
 .comment       0x0000000000000000       0x5a build/stm32g4xx_hal_pwr.o
 .debug_frame   0x0000000000000000      0x120 build/stm32g4xx_hal_pwr.o
 .ARM.attributes
                0x0000000000000000       0x34 build/stm32g4xx_hal_pwr.o
 .text          0x0000000000000000        0x0 build/stm32g4xx_hal_pwr_ex.o
 .data          0x0000000000000000        0x0 build/stm32g4xx_hal_pwr_ex.o
 .bss           0x0000000000000000        0x0 build/stm32g4xx_hal_pwr_ex.o
 .text.HAL_PWREx_GetVoltageRange
                0x0000000000000000       0x24 build/stm32g4xx_hal_pwr_ex.o
 .text.HAL_PWREx_ControlVoltageScaling
                0x0000000000000000      0x10c build/stm32g4xx_hal_pwr_ex.o
 .text.HAL_PWREx_EnableBatteryCharging
                0x0000000000000000       0x1c build/stm32g4xx_hal_pwr_ex.o
 .text.HAL_PWREx_DisableBatteryCharging
                0x0000000000000000       0x10 build/stm32g4xx_hal_pwr_ex.o
 .text.HAL_PWREx_EnableInternalWakeUpLine
                0x0000000000000000       0x10 build/stm32g4xx_hal_pwr_ex.o
 .text.HAL_PWREx_DisableInternalWakeUpLine
                0x0000000000000000       0x10 build/stm32g4xx_hal_pwr_ex.o
 .text.HAL_PWREx_EnableGPIOPullUp
                0x0000000000000000       0xb8 build/stm32g4xx_hal_pwr_ex.o
 .text.HAL_PWREx_DisableGPIOPullUp
                0x0000000000000000       0x8c build/stm32g4xx_hal_pwr_ex.o
 .text.HAL_PWREx_EnableGPIOPullDown
                0x0000000000000000       0xbc build/stm32g4xx_hal_pwr_ex.o
 .text.HAL_PWREx_DisableGPIOPullDown
                0x0000000000000000       0x88 build/stm32g4xx_hal_pwr_ex.o
 .text.HAL_PWREx_EnablePullUpPullDownConfig
                0x0000000000000000       0x10 build/stm32g4xx_hal_pwr_ex.o
 .text.HAL_PWREx_DisablePullUpPullDownConfig
                0x0000000000000000       0x10 build/stm32g4xx_hal_pwr_ex.o
 .text.HAL_PWREx_EnableSRAM2ContentRetention
                0x0000000000000000       0x10 build/stm32g4xx_hal_pwr_ex.o
 .text.HAL_PWREx_DisableSRAM2ContentRetention
                0x0000000000000000       0x10 build/stm32g4xx_hal_pwr_ex.o
 .text.HAL_PWREx_EnablePVM1
                0x0000000000000000       0x10 build/stm32g4xx_hal_pwr_ex.o
 .text.HAL_PWREx_DisablePVM1
                0x0000000000000000       0x10 build/stm32g4xx_hal_pwr_ex.o
 .text.HAL_PWREx_EnablePVM2
                0x0000000000000000       0x10 build/stm32g4xx_hal_pwr_ex.o
 .text.HAL_PWREx_DisablePVM2
                0x0000000000000000       0x10 build/stm32g4xx_hal_pwr_ex.o
 .text.HAL_PWREx_EnablePVM3
                0x0000000000000000       0x10 build/stm32g4xx_hal_pwr_ex.o
 .text.HAL_PWREx_DisablePVM3
                0x0000000000000000       0x10 build/stm32g4xx_hal_pwr_ex.o
 .text.HAL_PWREx_EnablePVM4
                0x0000000000000000       0x10 build/stm32g4xx_hal_pwr_ex.o
 .text.HAL_PWREx_DisablePVM4
                0x0000000000000000       0x10 build/stm32g4xx_hal_pwr_ex.o
 .text.HAL_PWREx_ConfigPVM
                0x0000000000000000      0x1ec build/stm32g4xx_hal_pwr_ex.o
 .text.HAL_PWREx_EnableLowPowerRunMode
                0x0000000000000000       0x10 build/stm32g4xx_hal_pwr_ex.o
 .text.HAL_PWREx_DisableLowPowerRunMode
                0x0000000000000000       0x50 build/stm32g4xx_hal_pwr_ex.o
 .text.HAL_PWREx_EnterSTOP0Mode
                0x0000000000000000       0x38 build/stm32g4xx_hal_pwr_ex.o
 .text.HAL_PWREx_EnterSTOP1Mode
                0x0000000000000000       0x3c build/stm32g4xx_hal_pwr_ex.o
 .text.HAL_PWREx_EnterSHUTDOWNMode
                0x0000000000000000       0x24 build/stm32g4xx_hal_pwr_ex.o
 .text.HAL_PWREx_PVM1Callback
                0x0000000000000000        0x2 build/stm32g4xx_hal_pwr_ex.o
 .text.HAL_PWREx_PVM2Callback
                0x0000000000000000        0x2 build/stm32g4xx_hal_pwr_ex.o
 .text.HAL_PWREx_PVM3Callback
                0x0000000000000000        0x2 build/stm32g4xx_hal_pwr_ex.o
 .text.HAL_PWREx_PVM4Callback
                0x0000000000000000        0x2 build/stm32g4xx_hal_pwr_ex.o
 .text.HAL_PWREx_PVD_PVM_IRQHandler
                0x0000000000000000       0x78 build/stm32g4xx_hal_pwr_ex.o
 .text.HAL_PWREx_EnableUCPDStandbyMode
                0x0000000000000000       0x10 build/stm32g4xx_hal_pwr_ex.o
 .text.HAL_PWREx_DisableUCPDStandbyMode
                0x0000000000000000       0x10 build/stm32g4xx_hal_pwr_ex.o
 .text.HAL_PWREx_EnableUCPDDeadBattery
                0x0000000000000000       0x10 build/stm32g4xx_hal_pwr_ex.o
 .text          0x0000000000000000        0x0 build/stm32g4xx_hal_rcc.o
 .data          0x0000000000000000        0x0 build/stm32g4xx_hal_rcc.o
 .bss           0x0000000000000000        0x0 build/stm32g4xx_hal_rcc.o
 .text.RCC_GetSysClockFreqFromPLLSource
                0x0000000000000000       0x58 build/stm32g4xx_hal_rcc.o
 .text.HAL_RCC_DeInit
                0x0000000000000000       0xcc build/stm32g4xx_hal_rcc.o
 .text.HAL_RCC_OscConfig
                0x0000000000000000      0x4e8 build/stm32g4xx_hal_rcc.o
 .text.HAL_RCC_MCOConfig
                0x0000000000000000       0x58 build/stm32g4xx_hal_rcc.o
 .text.HAL_RCC_GetSysClockFreq
                0x0000000000000000       0x88 build/stm32g4xx_hal_rcc.o
 .text.HAL_RCC_ClockConfig
                0x0000000000000000      0x1f8 build/stm32g4xx_hal_rcc.o
 .text.HAL_RCC_GetPCLK1Freq
                0x0000000000000000       0x24 build/stm32g4xx_hal_rcc.o
 .text.HAL_RCC_GetPCLK2Freq
                0x0000000000000000       0x24 build/stm32g4xx_hal_rcc.o
 .text.HAL_RCC_GetOscConfig
                0x0000000000000000       0xf4 build/stm32g4xx_hal_rcc.o
 .text.HAL_RCC_GetClockConfig
                0x0000000000000000       0x3c build/stm32g4xx_hal_rcc.o
 .text.HAL_RCC_EnableCSS
                0x0000000000000000       0x10 build/stm32g4xx_hal_rcc.o
 .text.HAL_RCC_EnableLSECSS
                0x0000000000000000       0x14 build/stm32g4xx_hal_rcc.o
 .text.HAL_RCC_DisableLSECSS
                0x0000000000000000       0x14 build/stm32g4xx_hal_rcc.o
 .text.HAL_RCC_CSSCallback
                0x0000000000000000        0x2 build/stm32g4xx_hal_rcc.o
 .text.HAL_RCC_NMI_IRQHandler
                0x0000000000000000       0x20 build/stm32g4xx_hal_rcc.o
 .text          0x0000000000000000        0x0 build/stm32g4xx_hal_rcc_ex.o
 .data          0x0000000000000000        0x0 build/stm32g4xx_hal_rcc_ex.o
 .bss           0x0000000000000000        0x0 build/stm32g4xx_hal_rcc_ex.o
 .text.HAL_RCCEx_PeriphCLKConfig
                0x0000000000000000      0x2e4 build/stm32g4xx_hal_rcc_ex.o
 .text.HAL_RCCEx_GetPeriphCLKConfig
                0x0000000000000000       0xb0 build/stm32g4xx_hal_rcc_ex.o
 .text.HAL_RCCEx_GetPeriphCLKFreq
                0x0000000000000000      0x644 build/stm32g4xx_hal_rcc_ex.o
 .text.HAL_RCCEx_EnableLSECSS
                0x0000000000000000       0x14 build/stm32g4xx_hal_rcc_ex.o
 .text.HAL_RCCEx_DisableLSECSS
                0x0000000000000000       0x1c build/stm32g4xx_hal_rcc_ex.o
 .text.HAL_RCCEx_EnableLSECSS_IT
                0x0000000000000000       0x30 build/stm32g4xx_hal_rcc_ex.o
 .text.HAL_RCCEx_LSECSS_Callback
                0x0000000000000000        0x2 build/stm32g4xx_hal_rcc_ex.o
 .text.HAL_RCCEx_LSECSS_IRQHandler
                0x0000000000000000       0x20 build/stm32g4xx_hal_rcc_ex.o
 .text.HAL_RCCEx_EnableLSCO
                0x0000000000000000       0xa0 build/stm32g4xx_hal_rcc_ex.o
 .text.HAL_RCCEx_DisableLSCO
                0x0000000000000000       0x6c build/stm32g4xx_hal_rcc_ex.o
 .text.HAL_RCCEx_CRSConfig
                0x0000000000000000       0x4c build/stm32g4xx_hal_rcc_ex.o
 .text.HAL_RCCEx_CRSSoftwareSynchronizationGenerate
                0x0000000000000000       0x10 build/stm32g4xx_hal_rcc_ex.o
 .text.HAL_RCCEx_CRSGetSynchronizationInfo
                0x0000000000000000       0x24 build/stm32g4xx_hal_rcc_ex.o
 .text.HAL_RCCEx_CRSWaitSynchronization
                0x0000000000000000       0xac build/stm32g4xx_hal_rcc_ex.o
 .text.HAL_RCCEx_CRS_SyncOkCallback
                0x0000000000000000        0x2 build/stm32g4xx_hal_rcc_ex.o
 .text.HAL_RCCEx_CRS_SyncWarnCallback
                0x0000000000000000        0x2 build/stm32g4xx_hal_rcc_ex.o
 .text.HAL_RCCEx_CRS_ExpectedSyncCallback
                0x0000000000000000        0x2 build/stm32g4xx_hal_rcc_ex.o
 .text.HAL_RCCEx_CRS_ErrorCallback
                0x0000000000000000        0x2 build/stm32g4xx_hal_rcc_ex.o
 .text.HAL_RCCEx_CRS_IRQHandler
                0x0000000000000000       0x88 build/stm32g4xx_hal_rcc_ex.o
 .debug_info    0x0000000000000000     0x1083 build/stm32g4xx_hal_rcc_ex.o
 .debug_abbrev  0x0000000000000000      0x270 build/stm32g4xx_hal_rcc_ex.o
 .debug_loc     0x0000000000000000     0x11a5 build/stm32g4xx_hal_rcc_ex.o
 .debug_aranges
                0x0000000000000000       0xb0 build/stm32g4xx_hal_rcc_ex.o
 .debug_ranges  0x0000000000000000       0xb8 build/stm32g4xx_hal_rcc_ex.o
 .debug_line    0x0000000000000000     0x1020 build/stm32g4xx_hal_rcc_ex.o
 .debug_str     0x0000000000000000      0xc0b build/stm32g4xx_hal_rcc_ex.o
 .comment       0x0000000000000000       0x5a build/stm32g4xx_hal_rcc_ex.o
 .debug_frame   0x0000000000000000      0x1a0 build/stm32g4xx_hal_rcc_ex.o
 .ARM.attributes
                0x0000000000000000       0x34 build/stm32g4xx_hal_rcc_ex.o
 .text          0x0000000000000000        0x0 build/stm32g4xx_hal_tim.o
 .data          0x0000000000000000        0x0 build/stm32g4xx_hal_tim.o
 .bss           0x0000000000000000        0x0 build/stm32g4xx_hal_tim.o
 .text.TIM_OC1_SetConfig
                0x0000000000000000       0x9c build/stm32g4xx_hal_tim.o
 .text.TIM_OC3_SetConfig
                0x0000000000000000       0x8c build/stm32g4xx_hal_tim.o
 .text.TIM_OC4_SetConfig
                0x0000000000000000       0x8c build/stm32g4xx_hal_tim.o
 .text.TIM_OC5_SetConfig
                0x0000000000000000       0x68 build/stm32g4xx_hal_tim.o
 .text.TIM_OC6_SetConfig
                0x0000000000000000       0x6c build/stm32g4xx_hal_tim.o
 .text.TIM_TI1_ConfigInputStage
                0x0000000000000000       0x24 build/stm32g4xx_hal_tim.o
 .text.TIM_TI2_SetConfig
                0x0000000000000000       0x34 build/stm32g4xx_hal_tim.o
 .text.TIM_TI2_ConfigInputStage
                0x0000000000000000       0x26 build/stm32g4xx_hal_tim.o
 .text.TIM_TI3_SetConfig
                0x0000000000000000       0x32 build/stm32g4xx_hal_tim.o
 .text.TIM_TI4_SetConfig
                0x0000000000000000       0x34 build/stm32g4xx_hal_tim.o
 .text.TIM_ITRx_SetConfig
                0x0000000000000000       0x14 build/stm32g4xx_hal_tim.o
 .text.HAL_TIM_Base_MspInit
                0x0000000000000000        0x2 build/stm32g4xx_hal_tim.o
 .text.HAL_TIM_Base_MspDeInit
                0x0000000000000000        0x2 build/stm32g4xx_hal_tim.o
 .text.HAL_TIM_Base_DeInit
                0x0000000000000000       0x66 build/stm32g4xx_hal_tim.o
 .text.HAL_TIM_Base_Start
                0x0000000000000000       0x7c build/stm32g4xx_hal_tim.o
 .text.HAL_TIM_Base_Stop
                0x0000000000000000       0x28 build/stm32g4xx_hal_tim.o
 .text.HAL_TIM_Base_Start_IT
                0x0000000000000000       0x84 build/stm32g4xx_hal_tim.o
 .text.HAL_TIM_Base_Stop_IT
                0x0000000000000000       0x32 build/stm32g4xx_hal_tim.o
 .text.HAL_TIM_Base_Start_DMA
                0x0000000000000000       0xd0 build/stm32g4xx_hal_tim.o
 .text.HAL_TIM_Base_Stop_DMA
                0x0000000000000000       0x3c build/stm32g4xx_hal_tim.o
 .text.HAL_TIM_OC_MspInit
                0x0000000000000000        0x2 build/stm32g4xx_hal_tim.o
 .text.HAL_TIM_OC_MspDeInit
                0x0000000000000000        0x2 build/stm32g4xx_hal_tim.o
 .text.HAL_TIM_OC_DeInit
                0x0000000000000000       0x66 build/stm32g4xx_hal_tim.o
 .text.HAL_TIM_PWM_MspInit
                0x0000000000000000        0x2 build/stm32g4xx_hal_tim.o
 .text.HAL_TIM_PWM_MspDeInit
                0x0000000000000000        0x2 build/stm32g4xx_hal_tim.o
 .text.HAL_TIM_PWM_DeInit
                0x0000000000000000       0x66 build/stm32g4xx_hal_tim.o
 .text.HAL_TIM_IC_MspInit
                0x0000000000000000        0x2 build/stm32g4xx_hal_tim.o
 .text.HAL_TIM_IC_MspDeInit
                0x0000000000000000        0x2 build/stm32g4xx_hal_tim.o
 .text.HAL_TIM_IC_DeInit
                0x0000000000000000       0x66 build/stm32g4xx_hal_tim.o
 .text.HAL_TIM_OnePulse_MspInit
                0x0000000000000000        0x2 build/stm32g4xx_hal_tim.o
 .text.HAL_TIM_OnePulse_MspDeInit
                0x0000000000000000        0x2 build/stm32g4xx_hal_tim.o
 .text.HAL_TIM_OnePulse_DeInit
                0x0000000000000000       0x4e build/stm32g4xx_hal_tim.o
 .text.HAL_TIM_Encoder_MspInit
                0x0000000000000000        0x2 build/stm32g4xx_hal_tim.o
 .text.HAL_TIM_Encoder_MspDeInit
                0x0000000000000000        0x2 build/stm32g4xx_hal_tim.o
 .text.HAL_TIM_Encoder_DeInit
                0x0000000000000000       0x4e build/stm32g4xx_hal_tim.o
 .text.HAL_TIM_DMABurst_MultiWriteStart
                0x0000000000000000      0x1b8 build/stm32g4xx_hal_tim.o
 .text.HAL_TIM_DMABurst_WriteStart
                0x0000000000000000       0x16 build/stm32g4xx_hal_tim.o
 .text.HAL_TIM_DMABurst_WriteStop
                0x0000000000000000       0x84 build/stm32g4xx_hal_tim.o
 .text.HAL_TIM_DMABurst_MultiReadStart
                0x0000000000000000      0x1b8 build/stm32g4xx_hal_tim.o
 .text.HAL_TIM_DMABurst_ReadStart
                0x0000000000000000       0x16 build/stm32g4xx_hal_tim.o
 .text.HAL_TIM_DMABurst_ReadStop
                0x0000000000000000       0x84 build/stm32g4xx_hal_tim.o
 .text.HAL_TIM_GenerateEvent
                0x0000000000000000       0x26 build/stm32g4xx_hal_tim.o
 .text.HAL_TIM_ConfigTI1Input
                0x0000000000000000       0x10 build/stm32g4xx_hal_tim.o
 .text.HAL_TIM_ReadCapturedValue
                0x0000000000000000       0x32 build/stm32g4xx_hal_tim.o
 .text.HAL_TIM_PeriodElapsedCallback
                0x0000000000000000        0x2 build/stm32g4xx_hal_tim.o
 .text.TIM_DMAPeriodElapsedCplt
                0x0000000000000000       0x16 build/stm32g4xx_hal_tim.o
 .text.HAL_TIM_PeriodElapsedHalfCpltCallback
                0x0000000000000000        0x2 build/stm32g4xx_hal_tim.o
 .text.TIM_DMAPeriodElapsedHalfCplt
                0x0000000000000000        0xa build/stm32g4xx_hal_tim.o
 .text.HAL_TIM_OC_DelayElapsedCallback
                0x0000000000000000        0x2 build/stm32g4xx_hal_tim.o
 .text.HAL_TIM_IC_CaptureCallback
                0x0000000000000000        0x2 build/stm32g4xx_hal_tim.o
 .text.TIM_DMACaptureCplt
                0x0000000000000000       0x80 build/stm32g4xx_hal_tim.o
 .text.HAL_TIM_IC_CaptureHalfCpltCallback
                0x0000000000000000        0x2 build/stm32g4xx_hal_tim.o
 .text.TIM_DMACaptureHalfCplt
                0x0000000000000000       0x3e build/stm32g4xx_hal_tim.o
 .text.HAL_TIM_PWM_PulseFinishedCallback
                0x0000000000000000        0x2 build/stm32g4xx_hal_tim.o
 .text.TIM_DMADelayPulseCplt
                0x0000000000000000       0x70 build/stm32g4xx_hal_tim.o
 .text.HAL_TIM_PWM_PulseFinishedHalfCpltCallback
                0x0000000000000000        0x2 build/stm32g4xx_hal_tim.o
 .text.TIM_DMADelayPulseHalfCplt
                0x0000000000000000       0x3e build/stm32g4xx_hal_tim.o
 .text.HAL_TIM_TriggerCallback
                0x0000000000000000        0x2 build/stm32g4xx_hal_tim.o
 .text.HAL_TIM_IRQHandler
                0x0000000000000000      0x21e build/stm32g4xx_hal_tim.o
 .text.TIM_DMATriggerCplt
                0x0000000000000000       0x16 build/stm32g4xx_hal_tim.o
 .text.HAL_TIM_TriggerHalfCpltCallback
                0x0000000000000000        0x2 build/stm32g4xx_hal_tim.o
 .text.TIM_DMATriggerHalfCplt
                0x0000000000000000        0xa build/stm32g4xx_hal_tim.o
 .text.HAL_TIM_ErrorCallback
                0x0000000000000000        0x2 build/stm32g4xx_hal_tim.o
 .text.TIM_DMAError
                0x0000000000000000       0x5c build/stm32g4xx_hal_tim.o
 .text.HAL_TIM_Base_GetState
                0x0000000000000000        0x6 build/stm32g4xx_hal_tim.o
 .text.HAL_TIM_OC_GetState
                0x0000000000000000        0x6 build/stm32g4xx_hal_tim.o
 .text.HAL_TIM_PWM_GetState
                0x0000000000000000        0x6 build/stm32g4xx_hal_tim.o
 .text.HAL_TIM_IC_GetState
                0x0000000000000000        0x6 build/stm32g4xx_hal_tim.o
 .text.HAL_TIM_OnePulse_GetState
                0x0000000000000000        0x6 build/stm32g4xx_hal_tim.o
 .text.HAL_TIM_Encoder_GetState
                0x0000000000000000        0x6 build/stm32g4xx_hal_tim.o
 .text.HAL_TIM_GetActiveChannel
                0x0000000000000000        0x4 build/stm32g4xx_hal_tim.o
 .text.HAL_TIM_GetChannelState
                0x0000000000000000       0x42 build/stm32g4xx_hal_tim.o
 .text.HAL_TIM_DMABurstState
                0x0000000000000000        0x6 build/stm32g4xx_hal_tim.o
 .text.HAL_TIM_Base_Init
                0x0000000000000000       0x60 build/stm32g4xx_hal_tim.o
 .text.HAL_TIM_OC_Init
                0x0000000000000000       0x60 build/stm32g4xx_hal_tim.o
 .text.HAL_TIM_PWM_Init
                0x0000000000000000       0x60 build/stm32g4xx_hal_tim.o
 .text.HAL_TIM_IC_Init
                0x0000000000000000       0x60 build/stm32g4xx_hal_tim.o
 .text.HAL_TIM_OnePulse_Init
                0x0000000000000000       0x5c build/stm32g4xx_hal_tim.o
 .text.TIM_OC2_SetConfig
                0x0000000000000000       0x8c build/stm32g4xx_hal_tim.o
 .text.HAL_TIM_OC_ConfigChannel
                0x0000000000000000       0x7a build/stm32g4xx_hal_tim.o
 .text.HAL_TIM_PWM_ConfigChannel
                0x0000000000000000      0x13a build/stm32g4xx_hal_tim.o
 .text.TIM_TI1_SetConfig
                0x0000000000000000       0x68 build/stm32g4xx_hal_tim.o
 .text.HAL_TIM_IC_ConfigChannel
                0x0000000000000000       0xc4 build/stm32g4xx_hal_tim.o
 .text.HAL_TIM_OnePulse_ConfigChannel
                0x0000000000000000      0x10a build/stm32g4xx_hal_tim.o
 .text.TIM_ETR_SetConfig
                0x0000000000000000       0x18 build/stm32g4xx_hal_tim.o
 .text.HAL_TIM_ConfigOCrefClear
                0x0000000000000000      0x264 build/stm32g4xx_hal_tim.o
 .text.HAL_TIM_ConfigClockSource
                0x0000000000000000      0x138 build/stm32g4xx_hal_tim.o
 .text.TIM_SlaveTimer_SetConfig
                0x0000000000000000      0x114 build/stm32g4xx_hal_tim.o
 .text.HAL_TIM_SlaveConfigSynchro
                0x0000000000000000       0x52 build/stm32g4xx_hal_tim.o
 .text.HAL_TIM_SlaveConfigSynchro_IT
                0x0000000000000000       0x52 build/stm32g4xx_hal_tim.o
 .text.TIM_CCxChannelCmd
                0x0000000000000000       0x24 build/stm32g4xx_hal_tim.o
 .text.HAL_TIM_OC_Start
                0x0000000000000000      0x158 build/stm32g4xx_hal_tim.o
 .text.HAL_TIM_OC_Stop
                0x0000000000000000       0xb8 build/stm32g4xx_hal_tim.o
 .text.HAL_TIM_OC_Start_IT
                0x0000000000000000      0x1a0 build/stm32g4xx_hal_tim.o
 .text.HAL_TIM_OC_Stop_IT
                0x0000000000000000      0x10c build/stm32g4xx_hal_tim.o
 .text.HAL_TIM_OC_Start_DMA
                0x0000000000000000      0x2e8 build/stm32g4xx_hal_tim.o
 .text.HAL_TIM_OC_Stop_DMA
                0x0000000000000000      0x128 build/stm32g4xx_hal_tim.o
 .text.HAL_TIM_PWM_Start
                0x0000000000000000      0x158 build/stm32g4xx_hal_tim.o
 .text.HAL_TIM_PWM_Stop
                0x0000000000000000       0xb8 build/stm32g4xx_hal_tim.o
 .text.HAL_TIM_PWM_Start_IT
                0x0000000000000000      0x1a0 build/stm32g4xx_hal_tim.o
 .text.HAL_TIM_PWM_Stop_IT
                0x0000000000000000      0x10c build/stm32g4xx_hal_tim.o
 .text.HAL_TIM_PWM_Start_DMA
                0x0000000000000000      0x2e8 build/stm32g4xx_hal_tim.o
 .text.HAL_TIM_PWM_Stop_DMA
                0x0000000000000000      0x128 build/stm32g4xx_hal_tim.o
 .text.HAL_TIM_IC_Start
                0x0000000000000000      0x160 build/stm32g4xx_hal_tim.o
 .text.HAL_TIM_IC_Stop
                0x0000000000000000       0x98 build/stm32g4xx_hal_tim.o
 .text.HAL_TIM_IC_Start_IT
                0x0000000000000000      0x1a8 build/stm32g4xx_hal_tim.o
 .text.HAL_TIM_IC_Stop_IT
                0x0000000000000000       0xe8 build/stm32g4xx_hal_tim.o
 .text.HAL_TIM_IC_Start_DMA
                0x0000000000000000      0x294 build/stm32g4xx_hal_tim.o
 .text.HAL_TIM_IC_Stop_DMA
                0x0000000000000000      0x100 build/stm32g4xx_hal_tim.o
 .text.HAL_TIM_OnePulse_Start
                0x0000000000000000       0x98 build/stm32g4xx_hal_tim.o
 .text.HAL_TIM_OnePulse_Stop
                0x0000000000000000       0x94 build/stm32g4xx_hal_tim.o
 .text.HAL_TIM_OnePulse_Start_IT
                0x0000000000000000       0xb0 build/stm32g4xx_hal_tim.o
 .text.HAL_TIM_OnePulse_Stop_IT
                0x0000000000000000       0xa8 build/stm32g4xx_hal_tim.o
 .text.HAL_TIM_Encoder_Start
                0x0000000000000000       0xc6 build/stm32g4xx_hal_tim.o
 .text.HAL_TIM_Encoder_Stop
                0x0000000000000000       0xdc build/stm32g4xx_hal_tim.o
 .text.HAL_TIM_Encoder_Start_IT
                0x0000000000000000       0xf0 build/stm32g4xx_hal_tim.o
 .text.HAL_TIM_Encoder_Stop_IT
                0x0000000000000000      0x106 build/stm32g4xx_hal_tim.o
 .text.HAL_TIM_Encoder_Start_DMA
                0x0000000000000000      0x23c build/stm32g4xx_hal_tim.o
 .text.HAL_TIM_Encoder_Stop_DMA
                0x0000000000000000      0x11e build/stm32g4xx_hal_tim.o
 .text          0x0000000000000000        0x0 build/stm32g4xx_hal_tim_ex.o
 .data          0x0000000000000000        0x0 build/stm32g4xx_hal_tim_ex.o
 .bss           0x0000000000000000        0x0 build/stm32g4xx_hal_tim_ex.o
 .text.TIM_CCxNChannelCmd
                0x0000000000000000       0x24 build/stm32g4xx_hal_tim_ex.o
 .text.TIM_DMAErrorCCxN
                0x0000000000000000       0x44 build/stm32g4xx_hal_tim_ex.o
 .text.TIM_DMADelayPulseNCplt
                0x0000000000000000       0x70 build/stm32g4xx_hal_tim_ex.o
 .text.HAL_TIMEx_HallSensor_MspInit
                0x0000000000000000        0x2 build/stm32g4xx_hal_tim_ex.o
 .text.HAL_TIMEx_HallSensor_Init
                0x0000000000000000       0xe0 build/stm32g4xx_hal_tim_ex.o
 .text.HAL_TIMEx_HallSensor_MspDeInit
                0x0000000000000000        0x2 build/stm32g4xx_hal_tim_ex.o
 .text.HAL_TIMEx_HallSensor_DeInit
                0x0000000000000000       0x4e build/stm32g4xx_hal_tim_ex.o
 .text.HAL_TIMEx_HallSensor_Start
                0x0000000000000000       0xb8 build/stm32g4xx_hal_tim_ex.o
 .text.HAL_TIMEx_HallSensor_Stop
                0x0000000000000000       0x42 build/stm32g4xx_hal_tim_ex.o
 .text.HAL_TIMEx_HallSensor_Start_IT
                0x0000000000000000       0xc4 build/stm32g4xx_hal_tim_ex.o
 .text.HAL_TIMEx_HallSensor_Stop_IT
                0x0000000000000000       0x4c build/stm32g4xx_hal_tim_ex.o
 .text.HAL_TIMEx_HallSensor_Start_DMA
                0x0000000000000000       0xe4 build/stm32g4xx_hal_tim_ex.o
 .text.HAL_TIMEx_HallSensor_Stop_DMA
                0x0000000000000000       0x4a build/stm32g4xx_hal_tim_ex.o
 .text.HAL_TIMEx_OCN_Start
                0x0000000000000000       0xf4 build/stm32g4xx_hal_tim_ex.o
 .text.HAL_TIMEx_OCN_Stop
                0x0000000000000000       0x76 build/stm32g4xx_hal_tim_ex.o
 .text.HAL_TIMEx_OCN_Start_IT
                0x0000000000000000      0x148 build/stm32g4xx_hal_tim_ex.o
 .text.HAL_TIMEx_OCN_Stop_IT
                0x0000000000000000       0xda build/stm32g4xx_hal_tim_ex.o
 .text.HAL_TIMEx_OCN_Start_DMA
                0x0000000000000000      0x25c build/stm32g4xx_hal_tim_ex.o
 .text.HAL_TIMEx_OCN_Stop_DMA
                0x0000000000000000       0xde build/stm32g4xx_hal_tim_ex.o
 .text.HAL_TIMEx_PWMN_Start
                0x0000000000000000       0xf4 build/stm32g4xx_hal_tim_ex.o
 .text.HAL_TIMEx_PWMN_Stop
                0x0000000000000000       0x76 build/stm32g4xx_hal_tim_ex.o
 .text.HAL_TIMEx_PWMN_Start_IT
                0x0000000000000000      0x148 build/stm32g4xx_hal_tim_ex.o
 .text.HAL_TIMEx_PWMN_Stop_IT
                0x0000000000000000       0xda build/stm32g4xx_hal_tim_ex.o
 .text.HAL_TIMEx_PWMN_Start_DMA
                0x0000000000000000      0x25c build/stm32g4xx_hal_tim_ex.o
 .text.HAL_TIMEx_PWMN_Stop_DMA
                0x0000000000000000       0xde build/stm32g4xx_hal_tim_ex.o
 .text.HAL_TIMEx_OnePulseN_Start
                0x0000000000000000       0x76 build/stm32g4xx_hal_tim_ex.o
 .text.HAL_TIMEx_OnePulseN_Stop
                0x0000000000000000       0x72 build/stm32g4xx_hal_tim_ex.o
 .text.HAL_TIMEx_OnePulseN_Start_IT
                0x0000000000000000       0x8a build/stm32g4xx_hal_tim_ex.o
 .text.HAL_TIMEx_OnePulseN_Stop_IT
                0x0000000000000000       0x86 build/stm32g4xx_hal_tim_ex.o
 .text.HAL_TIMEx_ConfigCommutEvent
                0x0000000000000000       0x98 build/stm32g4xx_hal_tim_ex.o
 .text.HAL_TIMEx_ConfigCommutEvent_IT
                0x0000000000000000       0x98 build/stm32g4xx_hal_tim_ex.o
 .text.HAL_TIMEx_ConfigCommutEvent_DMA
                0x0000000000000000       0xb8 build/stm32g4xx_hal_tim_ex.o
 .text.HAL_TIMEx_ConfigBreakDeadTime
                0x0000000000000000       0xbc build/stm32g4xx_hal_tim_ex.o
 .text.HAL_TIMEx_ConfigBreakInput
                0x0000000000000000       0xd4 build/stm32g4xx_hal_tim_ex.o
 .text.HAL_TIMEx_RemapConfig
                0x0000000000000000       0x28 build/stm32g4xx_hal_tim_ex.o
 .text.HAL_TIMEx_TISelection
                0x0000000000000000       0x9c build/stm32g4xx_hal_tim_ex.o
 .text.HAL_TIMEx_GroupChannel5
                0x0000000000000000       0x3e build/stm32g4xx_hal_tim_ex.o
 .text.HAL_TIMEx_DisarmBreakInput
                0x0000000000000000       0x50 build/stm32g4xx_hal_tim_ex.o
 .text.HAL_TIMEx_ReArmBreakInput
                0x0000000000000000       0x84 build/stm32g4xx_hal_tim_ex.o
 .text.HAL_TIMEx_DitheringEnable
                0x0000000000000000        0xe build/stm32g4xx_hal_tim_ex.o
 .text.HAL_TIMEx_DitheringDisable
                0x0000000000000000        0xe build/stm32g4xx_hal_tim_ex.o
 .text.HAL_TIMEx_OC_ConfigPulseOnCompare
                0x0000000000000000       0x40 build/stm32g4xx_hal_tim_ex.o
 .text.HAL_TIMEx_ConfigSlaveModePreload
                0x0000000000000000       0x10 build/stm32g4xx_hal_tim_ex.o
 .text.HAL_TIMEx_EnableSlaveModePreload
                0x0000000000000000        0xe build/stm32g4xx_hal_tim_ex.o
 .text.HAL_TIMEx_DisableSlaveModePreload
                0x0000000000000000        0xe build/stm32g4xx_hal_tim_ex.o
 .text.HAL_TIMEx_EnableDeadTimePreload
                0x0000000000000000        0xe build/stm32g4xx_hal_tim_ex.o
 .text.HAL_TIMEx_DisableDeadTimePreload
                0x0000000000000000        0xe build/stm32g4xx_hal_tim_ex.o
 .text.HAL_TIMEx_ConfigDeadTime
                0x0000000000000000       0x10 build/stm32g4xx_hal_tim_ex.o
 .text.HAL_TIMEx_ConfigAsymmetricalDeadTime
                0x0000000000000000       0x10 build/stm32g4xx_hal_tim_ex.o
 .text.HAL_TIMEx_EnableAsymmetricalDeadTime
                0x0000000000000000        0xe build/stm32g4xx_hal_tim_ex.o
 .text.HAL_TIMEx_DisableAsymmetricalDeadTime
                0x0000000000000000        0xe build/stm32g4xx_hal_tim_ex.o
 .text.HAL_TIMEx_ConfigEncoderIndex
                0x0000000000000000       0x50 build/stm32g4xx_hal_tim_ex.o
 .text.HAL_TIMEx_EnableEncoderIndex
                0x0000000000000000        0xe build/stm32g4xx_hal_tim_ex.o
 .text.HAL_TIMEx_DisableEncoderIndex
                0x0000000000000000        0xe build/stm32g4xx_hal_tim_ex.o
 .text.HAL_TIMEx_EnableEncoderFirstIndex
                0x0000000000000000        0xe build/stm32g4xx_hal_tim_ex.o
 .text.HAL_TIMEx_DisableEncoderFirstIndex
                0x0000000000000000        0xe build/stm32g4xx_hal_tim_ex.o
 .text.HAL_TIMEx_CommutCallback
                0x0000000000000000        0x2 build/stm32g4xx_hal_tim_ex.o
 .text.TIMEx_DMACommutationCplt
                0x0000000000000000       0x10 build/stm32g4xx_hal_tim_ex.o
 .text.HAL_TIMEx_CommutHalfCpltCallback
                0x0000000000000000        0x2 build/stm32g4xx_hal_tim_ex.o
 .text.TIMEx_DMACommutationHalfCplt
                0x0000000000000000       0x10 build/stm32g4xx_hal_tim_ex.o
 .text.HAL_TIMEx_BreakCallback
                0x0000000000000000        0x2 build/stm32g4xx_hal_tim_ex.o
 .text.HAL_TIMEx_Break2Callback
                0x0000000000000000        0x2 build/stm32g4xx_hal_tim_ex.o
 .text.HAL_TIMEx_EncoderIndexCallback
                0x0000000000000000        0x2 build/stm32g4xx_hal_tim_ex.o
 .text.HAL_TIMEx_DirectionChangeCallback
                0x0000000000000000        0x2 build/stm32g4xx_hal_tim_ex.o
 .text.HAL_TIMEx_IndexErrorCallback
                0x0000000000000000        0x2 build/stm32g4xx_hal_tim_ex.o
 .text.HAL_TIMEx_TransitionErrorCallback
                0x0000000000000000        0x2 build/stm32g4xx_hal_tim_ex.o
 .text.HAL_TIMEx_HallSensor_GetState
                0x0000000000000000        0x6 build/stm32g4xx_hal_tim_ex.o
 .text.HAL_TIMEx_GetChannelNState
                0x0000000000000000       0x2a build/stm32g4xx_hal_tim_ex.o
 .text          0x0000000000000000        0x0 build/stm32g4xx_ll_adc.o
 .data          0x0000000000000000        0x0 build/stm32g4xx_ll_adc.o
 .bss           0x0000000000000000        0x0 build/stm32g4xx_ll_adc.o
 .text.LL_ADC_CommonDeInit
                0x0000000000000000       0x28 build/stm32g4xx_ll_adc.o
 .text.LL_ADC_CommonStructInit
                0x0000000000000000       0x10 build/stm32g4xx_ll_adc.o
 .text.LL_ADC_DeInit
                0x0000000000000000      0x220 build/stm32g4xx_ll_adc.o
 .text.LL_ADC_StructInit
                0x0000000000000000        0xa build/stm32g4xx_ll_adc.o
 .text.LL_ADC_REG_StructInit
                0x0000000000000000       0x14 build/stm32g4xx_ll_adc.o
 .text.LL_ADC_INJ_StructInit
                0x0000000000000000        0xc build/stm32g4xx_ll_adc.o
 .text          0x0000000000000000        0x0 build/stm32g4xx_ll_cordic.o
 .data          0x0000000000000000        0x0 build/stm32g4xx_ll_cordic.o
 .bss           0x0000000000000000        0x0 build/stm32g4xx_ll_cordic.o
 .text.LL_CORDIC_DeInit
                0x0000000000000000       0x28 build/stm32g4xx_ll_cordic.o
 .debug_info    0x0000000000000000      0x5bc build/stm32g4xx_ll_cordic.o
 .debug_abbrev  0x0000000000000000      0x1be build/stm32g4xx_ll_cordic.o
 .debug_loc     0x0000000000000000       0x89 build/stm32g4xx_ll_cordic.o
 .debug_aranges
                0x0000000000000000       0x20 build/stm32g4xx_ll_cordic.o
 .debug_ranges  0x0000000000000000       0x28 build/stm32g4xx_ll_cordic.o
 .debug_line    0x0000000000000000      0x1e9 build/stm32g4xx_ll_cordic.o
 .debug_str     0x0000000000000000      0x5a3 build/stm32g4xx_ll_cordic.o
 .comment       0x0000000000000000       0x5a build/stm32g4xx_ll_cordic.o
 .debug_frame   0x0000000000000000       0x20 build/stm32g4xx_ll_cordic.o
 .ARM.attributes
                0x0000000000000000       0x34 build/stm32g4xx_ll_cordic.o
 .text          0x0000000000000000        0x0 build/stm32g4xx_ll_dma.o
 .data          0x0000000000000000        0x0 build/stm32g4xx_ll_dma.o
 .bss           0x0000000000000000        0x0 build/stm32g4xx_ll_dma.o
 .text.LL_DMA_DeInit
                0x0000000000000000      0x1a8 build/stm32g4xx_ll_dma.o
 .text.LL_DMA_Init
                0x0000000000000000       0x74 build/stm32g4xx_ll_dma.o
 .text.LL_DMA_StructInit
                0x0000000000000000       0x1a build/stm32g4xx_ll_dma.o
 .rodata.CHANNEL_OFFSET_TAB
                0x0000000000000000        0x6 build/stm32g4xx_ll_dma.o
 .debug_info    0x0000000000000000      0xc8f build/stm32g4xx_ll_dma.o
 .debug_abbrev  0x0000000000000000      0x2a9 build/stm32g4xx_ll_dma.o
 .debug_loc     0x0000000000000000      0x591 build/stm32g4xx_ll_dma.o
 .debug_aranges
                0x0000000000000000       0x30 build/stm32g4xx_ll_dma.o
 .debug_ranges  0x0000000000000000       0xe0 build/stm32g4xx_ll_dma.o
 .debug_line    0x0000000000000000      0x584 build/stm32g4xx_ll_dma.o
 .debug_str     0x0000000000000000      0x814 build/stm32g4xx_ll_dma.o
 .comment       0x0000000000000000       0x5a build/stm32g4xx_ll_dma.o
 .debug_frame   0x0000000000000000       0x50 build/stm32g4xx_ll_dma.o
 .ARM.attributes
                0x0000000000000000       0x34 build/stm32g4xx_ll_dma.o
 .text          0x0000000000000000        0x0 build/stm32g4xx_ll_exti.o
 .data          0x0000000000000000        0x0 build/stm32g4xx_ll_exti.o
 .bss           0x0000000000000000        0x0 build/stm32g4xx_ll_exti.o
 .text.LL_EXTI_DeInit
                0x0000000000000000       0x34 build/stm32g4xx_ll_exti.o
 .text.LL_EXTI_StructInit
                0x0000000000000000       0x10 build/stm32g4xx_ll_exti.o
 .text          0x0000000000000000        0x0 build/stm32g4xx_ll_gpio.o
 .data          0x0000000000000000        0x0 build/stm32g4xx_ll_gpio.o
 .bss           0x0000000000000000        0x0 build/stm32g4xx_ll_gpio.o
 .text.LL_GPIO_DeInit
                0x0000000000000000      0x108 build/stm32g4xx_ll_gpio.o
 .text.LL_GPIO_StructInit
                0x0000000000000000       0x16 build/stm32g4xx_ll_gpio.o
 .text          0x0000000000000000        0x0 build/stm32g4xx_ll_opamp.o
 .data          0x0000000000000000        0x0 build/stm32g4xx_ll_opamp.o
 .bss           0x0000000000000000        0x0 build/stm32g4xx_ll_opamp.o
 .text.LL_OPAMP_DeInit
                0x0000000000000000       0x28 build/stm32g4xx_ll_opamp.o
 .text.LL_OPAMP_StructInit
                0x0000000000000000       0x10 build/stm32g4xx_ll_opamp.o
 .text          0x0000000000000000        0x0 build/stm32g4xx_ll_rcc.o
 .data          0x0000000000000000        0x0 build/stm32g4xx_ll_rcc.o
 .bss           0x0000000000000000        0x0 build/stm32g4xx_ll_rcc.o
 .text.RCC_PLL_GetFreqDomain_ADC
                0x0000000000000000       0x64 build/stm32g4xx_ll_rcc.o
 .text.RCC_PLL_GetFreqDomain_48M
                0x0000000000000000       0x48 build/stm32g4xx_ll_rcc.o
 .text.LL_RCC_DeInit
                0x0000000000000000       0x6c build/stm32g4xx_ll_rcc.o
 .text.LL_RCC_GetSystemClocksFreq
                0x0000000000000000       0x20 build/stm32g4xx_ll_rcc.o
 .text.LL_RCC_GetI2CClockFreq
                0x0000000000000000      0x110 build/stm32g4xx_ll_rcc.o
 .text.LL_RCC_GetLPUARTClockFreq
                0x0000000000000000       0x58 build/stm32g4xx_ll_rcc.o
 .text.LL_RCC_GetLPTIMClockFreq
                0x0000000000000000       0x70 build/stm32g4xx_ll_rcc.o
 .text.LL_RCC_GetSAIClockFreq
                0x0000000000000000       0x60 build/stm32g4xx_ll_rcc.o
 .text.LL_RCC_GetI2SClockFreq
                0x0000000000000000       0x60 build/stm32g4xx_ll_rcc.o
 .text.LL_RCC_GetFDCANClockFreq
                0x0000000000000000       0x5c build/stm32g4xx_ll_rcc.o
 .text.LL_RCC_GetRNGClockFreq
                0x0000000000000000       0x48 build/stm32g4xx_ll_rcc.o
 .text.LL_RCC_GetUSBClockFreq
                0x0000000000000000       0x48 build/stm32g4xx_ll_rcc.o
 .text.LL_RCC_GetADCClockFreq
                0x0000000000000000       0x60 build/stm32g4xx_ll_rcc.o
 .text          0x0000000000000000        0x0 build/stm32g4xx_ll_tim.o
 .data          0x0000000000000000        0x0 build/stm32g4xx_ll_tim.o
 .bss           0x0000000000000000        0x0 build/stm32g4xx_ll_tim.o
 .text.IC1Config
                0x0000000000000000       0x38 build/stm32g4xx_ll_tim.o
 .text.IC2Config
                0x0000000000000000       0x3a build/stm32g4xx_ll_tim.o
 .text.IC3Config
                0x0000000000000000       0x3a build/stm32g4xx_ll_tim.o
 .text.IC4Config
                0x0000000000000000       0x3a build/stm32g4xx_ll_tim.o
 .text.LL_TIM_DeInit
                0x0000000000000000      0x158 build/stm32g4xx_ll_tim.o
 .text.LL_TIM_StructInit
                0x0000000000000000       0x12 build/stm32g4xx_ll_tim.o
 .text.LL_TIM_OC_StructInit
                0x0000000000000000       0x14 build/stm32g4xx_ll_tim.o
 .text.LL_TIM_IC_StructInit
                0x0000000000000000       0x10 build/stm32g4xx_ll_tim.o
 .text.LL_TIM_IC_Init
                0x0000000000000000       0x3c build/stm32g4xx_ll_tim.o
 .text.LL_TIM_ENCODER_StructInit
                0x0000000000000000       0x1c build/stm32g4xx_ll_tim.o
 .text.LL_TIM_ENCODER_Init
                0x0000000000000000       0x62 build/stm32g4xx_ll_tim.o
 .text.LL_TIM_HALLSENSOR_StructInit
                0x0000000000000000        0xc build/stm32g4xx_ll_tim.o
 .text.LL_TIM_HALLSENSOR_Init
                0x0000000000000000       0x5c build/stm32g4xx_ll_tim.o
 .text.LL_TIM_BDTR_StructInit
                0x0000000000000000       0x1e build/stm32g4xx_ll_tim.o
 .text          0x0000000000000000        0x0 build/stm32g4xx_ll_usart.o
 .data          0x0000000000000000        0x0 build/stm32g4xx_ll_usart.o
 .bss           0x0000000000000000        0x0 build/stm32g4xx_ll_usart.o
 .text.LL_USART_DeInit
                0x0000000000000000       0x8c build/stm32g4xx_ll_usart.o
 .text.LL_USART_StructInit
                0x0000000000000000       0x1a build/stm32g4xx_ll_usart.o
 .text.LL_USART_ClockInit
                0x0000000000000000       0x2e build/stm32g4xx_ll_usart.o
 .text.LL_USART_ClockStructInit
                0x0000000000000000        0xc build/stm32g4xx_ll_usart.o
 .text          0x0000000000000000        0x0 build/stm32g4xx_ll_utils.o
 .data          0x0000000000000000        0x0 build/stm32g4xx_ll_utils.o
 .bss           0x0000000000000000        0x0 build/stm32g4xx_ll_utils.o
 .text.UTILS_GetPLLOutputFrequency
                0x0000000000000000       0x22 build/stm32g4xx_ll_utils.o
 .text.UTILS_PLL_IsBusy
                0x0000000000000000       0x18 build/stm32g4xx_ll_utils.o
 .text.LL_Init1msTick
                0x0000000000000000       0x20 build/stm32g4xx_ll_utils.o
 .text.LL_mDelay
                0x0000000000000000       0x2c build/stm32g4xx_ll_utils.o
 .text.LL_SetFlashLatency
                0x0000000000000000       0xe4 build/stm32g4xx_ll_utils.o
 .text.UTILS_EnablePLLAndSwitchSystem
                0x0000000000000000       0xb4 build/stm32g4xx_ll_utils.o
 .text.LL_PLL_ConfigSystemClock_HSI
                0x0000000000000000       0xac build/stm32g4xx_ll_utils.o
 .text.LL_PLL_ConfigSystemClock_HSE
                0x0000000000000000       0xc8 build/stm32g4xx_ll_utils.o
 .text          0x0000000000000000        0x0 build/bus_voltage_sensor.o
 .data          0x0000000000000000        0x0 build/bus_voltage_sensor.o
 .bss           0x0000000000000000        0x0 build/bus_voltage_sensor.o
 .text.VBS_GetBusVoltage_d
                0x0000000000000000        0x4 build/bus_voltage_sensor.o
 .text.VBS_CheckVbus
                0x0000000000000000        0x4 build/bus_voltage_sensor.o
 .text          0x0000000000000000        0x0 build/circle_limitation.o
 .data          0x0000000000000000        0x0 build/circle_limitation.o
 .bss           0x0000000000000000        0x0 build/circle_limitation.o
 .text          0x0000000000000000        0x0 build/digital_output.o
 .data          0x0000000000000000        0x0 build/digital_output.o
 .bss           0x0000000000000000        0x0 build/digital_output.o
 .text.DOUT_SetOutputState
                0x0000000000000000       0x32 build/digital_output.o
 .text.DOUT_GetOutputState
                0x0000000000000000        0x4 build/digital_output.o
 .debug_info    0x0000000000000000      0x61c build/digital_output.o
 .debug_abbrev  0x0000000000000000      0x1e1 build/digital_output.o
 .debug_loc     0x0000000000000000       0xcd build/digital_output.o
 .debug_aranges
                0x0000000000000000       0x28 build/digital_output.o
 .debug_ranges  0x0000000000000000       0x18 build/digital_output.o
 .debug_line    0x0000000000000000      0x2eb build/digital_output.o
 .debug_str     0x0000000000000000      0x557 build/digital_output.o
 .comment       0x0000000000000000       0x5a build/digital_output.o
 .debug_frame   0x0000000000000000       0x30 build/digital_output.o
 .ARM.attributes
                0x0000000000000000       0x34 build/digital_output.o
 .text          0x0000000000000000        0x0 build/mcp.o
 .data          0x0000000000000000        0x0 build/mcp.o
 .bss           0x0000000000000000        0x0 build/mcp.o
 .text.MCP_RegisterCallBack
                0x0000000000000000       0x18 build/mcp.o
 .text          0x0000000000000000        0x0 build/mcpa.o
 .data          0x0000000000000000        0x0 build/mcpa.o
 .bss           0x0000000000000000        0x0 build/mcpa.o
 .text          0x0000000000000000        0x0 build/ntc_temperature_sensor.o
 .data          0x0000000000000000        0x0 build/ntc_temperature_sensor.o
 .bss           0x0000000000000000        0x0 build/ntc_temperature_sensor.o
 .text.NTC_GetAvTemp_d
                0x0000000000000000        0x4 build/ntc_temperature_sensor.o
 .text.NTC_CheckTemp
                0x0000000000000000        0x4 build/ntc_temperature_sensor.o
 .text          0x0000000000000000        0x0 build/open_loop.o
 .data          0x0000000000000000        0x0 build/open_loop.o
 .bss           0x0000000000000000        0x0 build/open_loop.o
 .text.OL_Init  0x0000000000000000        0xa build/open_loop.o
 .text.OL_VqdConditioning
                0x0000000000000000       0x24 build/open_loop.o
 .text.OL_UpdateVoltage
                0x0000000000000000        0x4 build/open_loop.o
 .text.OL_GetVoltage
                0x0000000000000000        0x6 build/open_loop.o
 .text.OL_Calc  0x0000000000000000       0x32 build/open_loop.o
 .text.OL_VF    0x0000000000000000        0x4 build/open_loop.o
 .debug_info    0x0000000000000000      0x704 build/open_loop.o
 .debug_abbrev  0x0000000000000000      0x184 build/open_loop.o
 .debug_loc     0x0000000000000000       0x6d build/open_loop.o
 .debug_aranges
                0x0000000000000000       0x48 build/open_loop.o
 .debug_ranges  0x0000000000000000       0x38 build/open_loop.o
 .debug_line    0x0000000000000000      0x32e build/open_loop.o
 .debug_str     0x0000000000000000      0x72e build/open_loop.o
 .comment       0x0000000000000000       0x5a build/open_loop.o
 .debug_frame   0x0000000000000000       0x78 build/open_loop.o
 .ARM.attributes
                0x0000000000000000       0x34 build/open_loop.o
 .text          0x0000000000000000        0x0 build/pid_regulator.o
 .data          0x0000000000000000        0x0 build/pid_regulator.o
 .bss           0x0000000000000000        0x0 build/pid_regulator.o
 .text.PID_GetDefaultKP
                0x0000000000000000        0x6 build/pid_regulator.o
 .text.PID_GetDefaultKI
                0x0000000000000000        0x6 build/pid_regulator.o
 .text.PID_GetKPDivisor
                0x0000000000000000        0x4 build/pid_regulator.o
 .text.PID_SetLowerOutputLimit
                0x0000000000000000        0x4 build/pid_regulator.o
 .text.PID_SetUpperOutputLimit
                0x0000000000000000        0x4 build/pid_regulator.o
 .text.PID_SetPrevError
                0x0000000000000000        0x4 build/pid_regulator.o
 .text.PID_GetKDDivisor
                0x0000000000000000        0x4 build/pid_regulator.o
 .text.PID_Controller
                0x0000000000000000       0x3e build/pid_regulator.o
 .text          0x0000000000000000        0x0 build/pqd_motor_power_measurement.o
 .data          0x0000000000000000        0x0 build/pqd_motor_power_measurement.o
 .bss           0x0000000000000000        0x0 build/pqd_motor_power_measurement.o
 .text          0x0000000000000000        0x0 build/pwm_common.o
 .data          0x0000000000000000        0x0 build/pwm_common.o
 .bss           0x0000000000000000        0x0 build/pwm_common.o
 .text          0x0000000000000000        0x0 build/r_divider_bus_voltage_sensor.o
 .data          0x0000000000000000        0x0 build/r_divider_bus_voltage_sensor.o
 .bss           0x0000000000000000        0x0 build/r_divider_bus_voltage_sensor.o
 .text.RVBS_ConvertVbusFiltrered
                0x0000000000000000       0x60 build/r_divider_bus_voltage_sensor.o
 .text.RVBS_CalcAvVbusFilt
                0x0000000000000000       0x5e build/r_divider_bus_voltage_sensor.o
 .text          0x0000000000000000        0x0 build/ramp_ext_mngr.o
 .data          0x0000000000000000        0x0 build/ramp_ext_mngr.o
 .bss           0x0000000000000000        0x0 build/ramp_ext_mngr.o
 .text.REMNG_GetValue
                0x0000000000000000        0xa build/ramp_ext_mngr.o
 .text.REMNG_StopRamp
                0x0000000000000000        0x8 build/ramp_ext_mngr.o
 .text          0x0000000000000000        0x0 build/revup_ctrl.o
 .data          0x0000000000000000        0x0 build/revup_ctrl.o
 .bss           0x0000000000000000        0x0 build/revup_ctrl.o
 .text.RUC_OTF_Exec
                0x0000000000000000      0x224 build/revup_ctrl.o
 .text.RUC_GetPhaseFinalMecSpeed01Hz
                0x0000000000000000        0xe build/revup_ctrl.o
 .text.RUC_IsAlignStageNow
                0x0000000000000000       0x14 build/revup_ctrl.o
 .text.RUC_Completed
                0x0000000000000000        0xc build/revup_ctrl.o
 .text.RUC_Stop
                0x0000000000000000       0x1c build/revup_ctrl.o
 .text.RUC_SetPhaseDurationms
                0x0000000000000000        0xc build/revup_ctrl.o
 .text.RUC_SetPhaseFinalMecSpeedUnit
                0x0000000000000000        0xc build/revup_ctrl.o
 .text.RUC_SetPhaseFinalTorque
                0x0000000000000000        0xc build/revup_ctrl.o
 .text.RUC_GetPhaseDurationms
                0x0000000000000000        0xc build/revup_ctrl.o
 .text.RUC_GetPhaseFinalMecSpeedUnit
                0x0000000000000000        0xe build/revup_ctrl.o
 .text.RUC_GetPhaseFinalTorque
                0x0000000000000000        0xe build/revup_ctrl.o
 .text.RUC_Get_SCLowsideOTF_Status
                0x0000000000000000        0x6 build/revup_ctrl.o
 .text          0x0000000000000000        0x0 build/speed_pos_fdbk.o
 .data          0x0000000000000000        0x0 build/speed_pos_fdbk.o
 .bss           0x0000000000000000        0x0 build/speed_pos_fdbk.o
 .text.SPD_GetMecAngle
                0x0000000000000000        0x4 build/speed_pos_fdbk.o
 .text.SPD_GetElSpeedDpp
                0x0000000000000000        0x6 build/speed_pos_fdbk.o
 .text.SPD_Check
                0x0000000000000000       0x10 build/speed_pos_fdbk.o
 .text.SPD_GetElToMecRatio
                0x0000000000000000        0x4 build/speed_pos_fdbk.o
 .text.SPD_SetElToMecRatio
                0x0000000000000000        0x4 build/speed_pos_fdbk.o
 .text          0x0000000000000000        0x0 build/speed_torq_ctrl.o
 .data          0x0000000000000000        0x0 build/speed_torq_ctrl.o
 .bss           0x0000000000000000        0x0 build/speed_torq_ctrl.o
 .text.STC_GetControlMode
                0x0000000000000000        0x4 build/speed_torq_ctrl.o
 .text.STC_GetMaxAppPositiveMecSpeedUnit
                0x0000000000000000        0x4 build/speed_torq_ctrl.o
 .text.STC_GetMinAppNegativeMecSpeedUnit
                0x0000000000000000        0x6 build/speed_torq_ctrl.o
 .text.STC_RampCompleted
                0x0000000000000000        0xc build/speed_torq_ctrl.o
 .text.STC_StopSpeedRamp
                0x0000000000000000       0x12 build/speed_torq_ctrl.o
 .text.STC_SetNominalCurrent
                0x0000000000000000        0x8 build/speed_torq_ctrl.o
 .text          0x0000000000000000        0x0 build/sto_cordic_speed_pos_fdbk.o
 .data          0x0000000000000000        0x0 build/sto_cordic_speed_pos_fdbk.o
 .bss           0x0000000000000000        0x0 build/sto_cordic_speed_pos_fdbk.o
 .text.STO_CR_BemfConsistencyCheckSwitch
                0x0000000000000000        0x6 build/sto_cordic_speed_pos_fdbk.o
 .text.STO_CR_IsBemfConsistent
                0x0000000000000000        0x6 build/sto_cordic_speed_pos_fdbk.o
 .text          0x0000000000000000        0x0 build/sto_pll_speed_pos_fdbk.o
 .data          0x0000000000000000        0x0 build/sto_pll_speed_pos_fdbk.o
 .bss           0x0000000000000000        0x0 build/sto_pll_speed_pos_fdbk.o
 .text.STO_PLL_Return
                0x0000000000000000        0x2 build/sto_pll_speed_pos_fdbk.o
 .text.STO_PLL_IsObserverConverged
                0x0000000000000000       0xd2 build/sto_pll_speed_pos_fdbk.o
 .text.STO_GetPLLGains
                0x0000000000000000       0x1c build/sto_pll_speed_pos_fdbk.o
 .text.STO_SetPLLGains
                0x0000000000000000       0x18 build/sto_pll_speed_pos_fdbk.o
 .text.STO_PLL_SetMecAngle
                0x0000000000000000        0x2 build/sto_pll_speed_pos_fdbk.o
 .text.STO_OTF_ResetPLL
                0x0000000000000000        0xe build/sto_pll_speed_pos_fdbk.o
 .text.STO_ResetPLL
                0x0000000000000000        0xc build/sto_pll_speed_pos_fdbk.o
 .text.STO_SetPLL
                0x0000000000000000       0x20 build/sto_pll_speed_pos_fdbk.o
 .text.STO_PLL_BemfConsistencyCheckSwitch
                0x0000000000000000        0x6 build/sto_pll_speed_pos_fdbk.o
 .text.STO_PLL_IsBemfConsistent
                0x0000000000000000        0x6 build/sto_pll_speed_pos_fdbk.o
 .text.STO_PLL_IsVarianceTight
                0x0000000000000000        0x8 build/sto_pll_speed_pos_fdbk.o
 .text.STO_PLL_ForceConvergency1
                0x0000000000000000        0xa build/sto_pll_speed_pos_fdbk.o
 .text.STO_PLL_ForceConvergency2
                0x0000000000000000        0xa build/sto_pll_speed_pos_fdbk.o
 .text.STO_SetMinStartUpValidSpeedUnit
                0x0000000000000000        0x6 build/sto_pll_speed_pos_fdbk.o
 .text.STO_SetDirection
                0x0000000000000000        0x6 build/sto_pll_speed_pos_fdbk.o
 .text          0x0000000000000000        0x0 build/virtual_speed_sensor.o
 .data          0x0000000000000000        0x0 build/virtual_speed_sensor.o
 .bss           0x0000000000000000        0x0 build/virtual_speed_sensor.o
 .text.VSS_RampCompleted
                0x0000000000000000        0xc build/virtual_speed_sensor.o
 .text.VSS_GetLastRampFinalSpeed
                0x0000000000000000        0x6 build/virtual_speed_sensor.o
 .text.VSS_IsTransitionOngoing
                0x0000000000000000       0x20 build/virtual_speed_sensor.o
 .text.VSS_SetCopyObserver
                0x0000000000000000        0x8 build/virtual_speed_sensor.o
 .text.VSS_SetElAngle
                0x0000000000000000        0x6 build/virtual_speed_sensor.o
 .text          0x0000000000000000        0x0 build/r3_2_g4xx_pwm_curr_fdbk.o
 .data          0x0000000000000000        0x0 build/r3_2_g4xx_pwm_curr_fdbk.o
 .bss           0x0000000000000000        0x0 build/r3_2_g4xx_pwm_curr_fdbk.o
 .text.R3_2_GetPhaseCurrents_OVM
                0x0000000000000000      0x280 build/r3_2_g4xx_pwm_curr_fdbk.o
 .text.R3_2_SetADCSampPointSectX_OVM
                0x0000000000000000       0xa0 build/r3_2_g4xx_pwm_curr_fdbk.o
 .text.RLTurnOnLowSidesAndStart
                0x0000000000000000       0x94 build/r3_2_g4xx_pwm_curr_fdbk.o
 .text          0x0000000000000000        0x0 build/aspep.o
 .data          0x0000000000000000        0x0 build/aspep.o
 .bss           0x0000000000000000        0x0 build/aspep.o
 .text          0x0000000000000000        0x0 build/debug_scope.o
 .data          0x0000000000000000        0x0 build/debug_scope.o
 .bss           0x0000000000000000        0x0 build/debug_scope.o
 .text          0x0000000000000000        0x0 build/main.o
 .data          0x0000000000000000        0x0 build/main.o
 .bss           0x0000000000000000        0x0 build/main.o
 .text          0x0000000000000000        0x0 build/mc_api.o
 .data          0x0000000000000000        0x0 build/mc_api.o
 .bss           0x0000000000000000        0x0 build/mc_api.o
 .text.getStartMotorTick
                0x0000000000000000        0xc build/mc_api.o
 .text.MC_ProgramSpeedRampMotor1
                0x0000000000000000       0x14 build/mc_api.o
 .text.MC_ProgramSpeedSinMotor1
                0x0000000000000000       0x18 build/mc_api.o
 .text.MC_ProgramSpeedRampMotor1_F
                0x0000000000000000       0x14 build/mc_api.o
 .text.MC_ProgramTorqueRampMotor1
                0x0000000000000000       0x14 build/mc_api.o
 .text.MC_ProgramTorqueRampMotor1_F
                0x0000000000000000       0x14 build/mc_api.o
 .text.MC_SetCurrentReferenceMotor1
                0x0000000000000000       0x1c build/mc_api.o
 .text.MC_SetCurrentReferenceMotor1_F
                0x0000000000000000       0x18 build/mc_api.o
 .text.MC_GetCommandStateMotor1
                0x0000000000000000       0x10 build/mc_api.o
 .text.MC_GetLastCommandMotor1
                0x0000000000000000       0x10 build/mc_api.o
 .text.MC_StopSpeedRampMotor1
                0x0000000000000000       0x10 build/mc_api.o
 .text.MC_StopRampMotor1
                0x0000000000000000       0x10 build/mc_api.o
 .text.MC_HasRampCompletedMotor1
                0x0000000000000000       0x10 build/mc_api.o
 .text.MC_GetMecSpeedReferenceMotor1
                0x0000000000000000       0x10 build/mc_api.o
 .text.MC_GetMecSpeedReferenceMotor1_F
                0x0000000000000000       0x10 build/mc_api.o
 .text.MC_GetMecSpeedAverageMotor1
                0x0000000000000000       0x10 build/mc_api.o
 .text.MC_GetMecAuxiliarySpeedAverageMotor1
                0x0000000000000000       0x10 build/mc_api.o
 .text.MC_GetMecAuxiliarySpeedAverageMotor1_F
                0x0000000000000000       0x24 build/mc_api.o
 .text.MC_GetAuxiliaryElAngledppMotor1
                0x0000000000000000       0x10 build/mc_api.o
 .text.MC_GetAuxiliaryElAngleMotor1_F
                0x0000000000000000       0x24 build/mc_api.o
 .text.MC_GetAverageMecSpeedMotor1_F
                0x0000000000000000       0x10 build/mc_api.o
 .text.MC_GetLastRampFinalSpeedMotor1
                0x0000000000000000       0x10 build/mc_api.o
 .text.MC_GetLastRampFinalSpeedMotor1_F
                0x0000000000000000       0x10 build/mc_api.o
 .text.MC_GetControlModeMotor1
                0x0000000000000000       0x10 build/mc_api.o
 .text.MC_GetImposedDirectionMotor1
                0x0000000000000000       0x10 build/mc_api.o
 .text.MC_GetSpeedSensorReliabilityMotor1
                0x0000000000000000       0x10 build/mc_api.o
 .text.MC_GetPhaseCurrentAmplitudeMotor1
                0x0000000000000000       0x10 build/mc_api.o
 .text.MC_GetPhaseVoltageAmplitudeMotor1
                0x0000000000000000       0x10 build/mc_api.o
 .text.MC_GetIabMotor1
                0x0000000000000000       0x28 build/mc_api.o
 .text.MC_GetIabMotor1_F
                0x0000000000000000       0x18 build/mc_api.o
 .text.MC_GetIalphabetaMotor1
                0x0000000000000000       0x28 build/mc_api.o
 .text.MC_GetIqdMotor1
                0x0000000000000000       0x28 build/mc_api.o
 .text.MC_GetIqdMotor1_F
                0x0000000000000000       0x18 build/mc_api.o
 .text.MC_GetIqdrefMotor1
                0x0000000000000000       0x28 build/mc_api.o
 .text.MC_GetIqdrefMotor1_F
                0x0000000000000000       0x18 build/mc_api.o
 .text.MC_GetVqdMotor1
                0x0000000000000000       0x28 build/mc_api.o
 .text.MC_GetValphabetaMotor1
                0x0000000000000000       0x28 build/mc_api.o
 .text.MC_GetElAngledppMotor1
                0x0000000000000000       0x10 build/mc_api.o
 .text.MC_GetTerefMotor1
                0x0000000000000000       0x10 build/mc_api.o
 .text.MC_GetTerefMotor1_F
                0x0000000000000000       0x10 build/mc_api.o
 .text.MC_Clear_IqdrefMotor1
                0x0000000000000000       0x10 build/mc_api.o
 .text.MC_AcknowledgeFaultMotor1
                0x0000000000000000       0x10 build/mc_api.o
 .text.MC_GetOccurredFaultsMotor1
                0x0000000000000000       0x10 build/mc_api.o
 .text.MC_GetCurrentFaultsMotor1
                0x0000000000000000       0x10 build/mc_api.o
 .text.MC_SetPolarizationOffsetsMotor1
                0x0000000000000000       0x14 build/mc_api.o
 .text.MC_GetPolarizationOffsetsMotor1
                0x0000000000000000       0x14 build/mc_api.o
 .text.MC_StartPolarizationOffsetsMeasurementMotor1
                0x0000000000000000       0x10 build/mc_api.o
 .text.MC_GetAveragePowerMotor1_F
                0x0000000000000000       0x10 build/mc_api.o
 .text          0x0000000000000000        0x0 build/mc_config.o
 .data          0x0000000000000000        0x0 build/mc_config.o
 .bss           0x0000000000000000        0x0 build/mc_config.o
 .text          0x0000000000000000        0x0 build/mc_configuration_registers.o
 .data          0x0000000000000000        0x0 build/mc_configuration_registers.o
 .bss           0x0000000000000000        0x0 build/mc_configuration_registers.o
 .text          0x0000000000000000        0x0 build/mc_interface.o
 .data          0x0000000000000000        0x0 build/mc_interface.o
 .bss           0x0000000000000000        0x0 build/mc_interface.o
 .text.MCI_ExecSpeedRamp_F
                0x0000000000000000       0x28 build/mc_interface.o
 .text.MCI_ExecTorqueRamp_F
                0x0000000000000000       0x30 build/mc_interface.o
 .text.MCI_SetCurrentReferences_F
                0x0000000000000000       0x50 build/mc_interface.o
 .text.MCI_SetSpeedMode
                0x0000000000000000       0x1c build/mc_interface.o
 .text.MCI_SetOpenLoopCurrent
                0x0000000000000000       0x1c build/mc_interface.o
 .text.MCI_SetOpenLoopVoltage
                0x0000000000000000       0x1a build/mc_interface.o
 .text.MCI_GetCalibratedOffsetsMotor
                0x0000000000000000       0x14 build/mc_interface.o
 .text.MCI_IsCommandAcknowledged
                0x0000000000000000       0x18 build/mc_interface.o
 .text.MCI_GetLastCommand
                0x0000000000000000        0x4 build/mc_interface.o
 .text.MCI_StartWithMeasurementOffset
                0x0000000000000000       0x38 build/mc_interface.o
 .text.MCI_StartOffsetMeasurments
                0x0000000000000000       0x36 build/mc_interface.o
 .text.MCI_SetCalibratedOffsetsMotor
                0x0000000000000000       0x36 build/mc_interface.o
 .text.MCI_GetLastRampFinalSpeed_F
                0x0000000000000000       0x20 build/mc_interface.o
 .text.MCI_RampCompleted
                0x0000000000000000       0x18 build/mc_interface.o
 .text.MCI_StopSpeedRamp
                0x0000000000000000        0xa build/mc_interface.o
 .text.MCI_GetSpdSensorReliability
                0x0000000000000000        0xe build/mc_interface.o
 .text.MCI_GetAvrgMecSpeed_F
                0x0000000000000000       0x1c build/mc_interface.o
 .text.MCI_GetMecSpeedRef_F
                0x0000000000000000       0x18 build/mc_interface.o
 .text.MCI_GetIab_F
                0x0000000000000000       0x70 build/mc_interface.o
 .text.MCI_GetIqd_F
                0x0000000000000000       0x70 build/mc_interface.o
 .text.MCI_GetIqdHF
                0x0000000000000000       0x1a build/mc_interface.o
 .text.MCI_GetIqdref_F
                0x0000000000000000       0x70 build/mc_interface.o
 .text.MCI_GetElAngledpp
                0x0000000000000000        0x8 build/mc_interface.o
 .text.MCI_GetTeref_F
                0x0000000000000000       0x28 build/mc_interface.o
 .text.MCI_GetPhaseCurrentAmplitude
                0x0000000000000000       0x38 build/mc_interface.o
 .text.MCI_GetPhaseVoltageAmplitude
                0x0000000000000000       0x2a build/mc_interface.o
 .text          0x0000000000000000        0x0 build/mc_math.o
 .data          0x0000000000000000        0x0 build/mc_math.o
 .bss           0x0000000000000000        0x0 build/mc_math.o
 .text.MCM_floatToIntBit
                0x0000000000000000        0xc build/mc_math.o
 .text          0x0000000000000000        0x0 build/mc_parameters.o
 .data          0x0000000000000000        0x0 build/mc_parameters.o
 .bss           0x0000000000000000        0x0 build/mc_parameters.o
 .text          0x0000000000000000        0x0 build/mc_perf.o
 .data          0x0000000000000000        0x0 build/mc_perf.o
 .bss           0x0000000000000000        0x0 build/mc_perf.o
 .text.MC_Perf_Measure_Init
                0x0000000000000000       0x54 build/mc_perf.o
 .text.MC_Perf_Clear
                0x0000000000000000       0x2c build/mc_perf.o
 .text.MC_Perf_Measure_Start
                0x0000000000000000       0x10 build/mc_perf.o
 .text.MC_BG_Perf_Measure_Start
                0x0000000000000000       0x18 build/mc_perf.o
 .text.MC_Perf_Measure_Stop
                0x0000000000000000       0x68 build/mc_perf.o
 .text.MC_BG_Perf_Measure_Stop
                0x0000000000000000       0x78 build/mc_perf.o
 .text.MC_Perf_GetCPU_Load
                0x0000000000000000       0x50 build/mc_perf.o
 .text.MC_Perf_GetMaxCPU_Load
                0x0000000000000000       0x50 build/mc_perf.o
 .text.MC_Perf_GetMinCPU_Load
                0x0000000000000000       0x60 build/mc_perf.o
 .debug_info    0x0000000000000000      0x87f build/mc_perf.o
 .debug_abbrev  0x0000000000000000      0x1b6 build/mc_perf.o
 .debug_loc     0x0000000000000000      0x399 build/mc_perf.o
 .debug_aranges
                0x0000000000000000       0x60 build/mc_perf.o
 .debug_ranges  0x0000000000000000       0x50 build/mc_perf.o
 .debug_line    0x0000000000000000      0x54d build/mc_perf.o
 .debug_str     0x0000000000000000      0x68a build/mc_perf.o
 .comment       0x0000000000000000       0x5a build/mc_perf.o
 .debug_frame   0x0000000000000000       0xc4 build/mc_perf.o
 .ARM.attributes
                0x0000000000000000       0x34 build/mc_perf.o
 .text          0x0000000000000000        0x0 build/mc_tasks.o
 .data          0x0000000000000000        0x0 build/mc_tasks.o
 .bss           0x0000000000000000        0x0 build/mc_tasks.o
 .text.GetMCI   0x0000000000000000       0x18 build/mc_tasks.o
 .text          0x0000000000000000        0x0 build/mcp_config.o
 .data          0x0000000000000000        0x0 build/mcp_config.o
 .bss           0x0000000000000000        0x0 build/mcp_config.o
 .text          0x0000000000000000        0x0 build/motorcontrol.o
 .data          0x0000000000000000        0x0 build/motorcontrol.o
 .bss           0x0000000000000000        0x0 build/motorcontrol.o
 .text          0x0000000000000000        0x0 build/pwm_curr_fdbk.o
 .data          0x0000000000000000        0x0 build/pwm_curr_fdbk.o
 .bss           0x0000000000000000        0x0 build/pwm_curr_fdbk.o
 .text.PWMC_Clear
                0x0000000000000000       0x14 build/pwm_curr_fdbk.o
 .text.PWMC_SetOffsetCalib
                0x0000000000000000        0xc build/pwm_curr_fdbk.o
 .text.PWMC_GetOffsetCalib
                0x0000000000000000        0xc build/pwm_curr_fdbk.o
 .text.PWMC_CalcPhaseCurrentsEst
                0x0000000000000000       0x72 build/pwm_curr_fdbk.o
 .text.PWMC_TurnOnLowSides
                0x0000000000000000        0x8 build/pwm_curr_fdbk.o
 .text.PWMC_OCPSetReferenceVoltage
                0x0000000000000000        0x8 build/pwm_curr_fdbk.o
 .text.PWMC_GetTurnOnLowSidesAction
                0x0000000000000000        0x6 build/pwm_curr_fdbk.o
 .text.PWMC_DPWM_ModeEnable
                0x0000000000000000        0x8 build/pwm_curr_fdbk.o
 .text.PWMC_DPWM_ModeDisable
                0x0000000000000000        0x8 build/pwm_curr_fdbk.o
 .text.PWMC_GetDPWM_Mode
                0x0000000000000000        0x6 build/pwm_curr_fdbk.o
 .text.PWMC_RLDetectionModeEnable
                0x0000000000000000        0x8 build/pwm_curr_fdbk.o
 .text.PWMC_RLDetectionModeDisable
                0x0000000000000000        0x8 build/pwm_curr_fdbk.o
 .text.PWMC_RLDetectionModeSetDuty
                0x0000000000000000        0x8 build/pwm_curr_fdbk.o
 .text.PWMC_SetAlignFlag
                0x0000000000000000        0x6 build/pwm_curr_fdbk.o
 .text.PWMC_RegisterGetPhaseCurrentsCallBack
                0x0000000000000000        0x4 build/pwm_curr_fdbk.o
 .text.PWMC_RegisterSwitchOffPwmCallBack
                0x0000000000000000        0x4 build/pwm_curr_fdbk.o
 .text.PWMC_RegisterSwitchonPwmCallBack
                0x0000000000000000        0x4 build/pwm_curr_fdbk.o
 .text.PWMC_RegisterReadingCalibrationCallBack
                0x0000000000000000        0x4 build/pwm_curr_fdbk.o
 .text.PWMC_RegisterTurnOnLowSidesCallBack
                0x0000000000000000        0x4 build/pwm_curr_fdbk.o
 .text.PWMC_RegisterSampPointSectXCallBack
                0x0000000000000000        0x4 build/pwm_curr_fdbk.o
 .text.PWMC_RegisterIsOverCurrentOccurredCallBack
                0x0000000000000000        0x4 build/pwm_curr_fdbk.o
 .text.PWMC_RegisterOCPSetRefVoltageCallBack
                0x0000000000000000        0x4 build/pwm_curr_fdbk.o
 .text.PWMC_RegisterRLDetectionModeEnableCallBack
                0x0000000000000000        0x4 build/pwm_curr_fdbk.o
 .text.PWMC_RegisterRLDetectionModeDisableCallBack
                0x0000000000000000        0x4 build/pwm_curr_fdbk.o
 .text.PWMC_RegisterRLDetectionModeSetDutyCallBack
                0x0000000000000000        0x4 build/pwm_curr_fdbk.o
 .text          0x0000000000000000        0x0 build/register_interface.o
 .data          0x0000000000000000        0x0 build/register_interface.o
 .bss           0x0000000000000000        0x0 build/register_interface.o
 .text          0x0000000000000000        0x0 build/regular_conversion_manager.o
 .data          0x0000000000000000        0x0 build/regular_conversion_manager.o
 .bss           0x0000000000000000        0x0 build/regular_conversion_manager.o
 .text.RCM_RegisterRegConv_WithCB
                0x0000000000000000       0x20 build/regular_conversion_manager.o
 .text.RCM_RequestUserConv
                0x0000000000000000       0x20 build/regular_conversion_manager.o
 .text.RCM_GetUserConv
                0x0000000000000000       0x24 build/regular_conversion_manager.o
 .text.RCM_GetUserConvState
                0x0000000000000000        0xc build/regular_conversion_manager.o
 .text.RCM_PauseRegularConv
                0x0000000000000000       0x58 build/regular_conversion_manager.o
 .text          0x0000000000000000        0x0 build/stm32g4xx_hal_msp.o
 .data          0x0000000000000000        0x0 build/stm32g4xx_hal_msp.o
 .bss           0x0000000000000000        0x0 build/stm32g4xx_hal_msp.o
 .text.HAL_TIM_Encoder_MspDeInit
                0x0000000000000000       0x2c build/stm32g4xx_hal_msp.o
 .text          0x0000000000000000        0x0 build/stm32g4xx_it.o
 .data          0x0000000000000000        0x0 build/stm32g4xx_it.o
 .bss           0x0000000000000000        0x0 build/stm32g4xx_it.o
 .debug_info    0x0000000000000000     0x289e build/stm32g4xx_it.o
 .debug_abbrev  0x0000000000000000      0x1da build/stm32g4xx_it.o
 .debug_aranges
                0x0000000000000000       0x18 build/stm32g4xx_it.o
 .debug_line    0x0000000000000000      0x3d2 build/stm32g4xx_it.o
 .debug_str     0x0000000000000000     0x2195 build/stm32g4xx_it.o
 .comment       0x0000000000000000       0x5a build/stm32g4xx_it.o
 .ARM.attributes
                0x0000000000000000       0x39 build/stm32g4xx_it.o
 .text          0x0000000000000000        0x0 build/stm32g4xx_mc_it.o
 .data          0x0000000000000000        0x0 build/stm32g4xx_mc_it.o
 .bss           0x0000000000000000        0x0 build/stm32g4xx_mc_it.o
 .text          0x0000000000000000        0x0 build/system_stm32g4xx.o
 .data          0x0000000000000000        0x0 build/system_stm32g4xx.o
 .bss           0x0000000000000000        0x0 build/system_stm32g4xx.o
 .text.SystemCoreClockUpdate
                0x0000000000000000       0x90 build/system_stm32g4xx.o
 .text          0x0000000000000000        0x0 build/usart_aspep_driver.o
 .data          0x0000000000000000        0x0 build/usart_aspep_driver.o
 .bss           0x0000000000000000        0x0 build/usart_aspep_driver.o
 .text          0x0000000000000000       0x14 build/startup_stm32g431xx.o
 .data          0x0000000000000000        0x0 build/startup_stm32g431xx.o
 .bss           0x0000000000000000        0x0 build/startup_stm32g431xx.o
 .text          0x0000000000000000        0xc /usr/lib/gcc/arm-none-eabi/9.2.1/../../../arm-none-eabi/lib/thumb/v7e-m+fp/hard/libc_nano.a(lib_a-atexit.o)
 .data          0x0000000000000000        0x0 /usr/lib/gcc/arm-none-eabi/9.2.1/../../../arm-none-eabi/lib/thumb/v7e-m+fp/hard/libc_nano.a(lib_a-atexit.o)
 .bss           0x0000000000000000        0x0 /usr/lib/gcc/arm-none-eabi/9.2.1/../../../arm-none-eabi/lib/thumb/v7e-m+fp/hard/libc_nano.a(lib_a-atexit.o)
 .debug_info    0x0000000000000000      0x995 /usr/lib/gcc/arm-none-eabi/9.2.1/../../../arm-none-eabi/lib/thumb/v7e-m+fp/hard/libc_nano.a(lib_a-atexit.o)
 .debug_abbrev  0x0000000000000000      0x1f4 /usr/lib/gcc/arm-none-eabi/9.2.1/../../../arm-none-eabi/lib/thumb/v7e-m+fp/hard/libc_nano.a(lib_a-atexit.o)
 .debug_loc     0x0000000000000000       0x32 /usr/lib/gcc/arm-none-eabi/9.2.1/../../../arm-none-eabi/lib/thumb/v7e-m+fp/hard/libc_nano.a(lib_a-atexit.o)
 .debug_aranges
                0x0000000000000000       0x20 /usr/lib/gcc/arm-none-eabi/9.2.1/../../../arm-none-eabi/lib/thumb/v7e-m+fp/hard/libc_nano.a(lib_a-atexit.o)
 .debug_line    0x0000000000000000      0x14a /usr/lib/gcc/arm-none-eabi/9.2.1/../../../arm-none-eabi/lib/thumb/v7e-m+fp/hard/libc_nano.a(lib_a-atexit.o)
 .debug_str     0x0000000000000000      0x62d /usr/lib/gcc/arm-none-eabi/9.2.1/../../../arm-none-eabi/lib/thumb/v7e-m+fp/hard/libc_nano.a(lib_a-atexit.o)
 .comment       0x0000000000000000       0x4f /usr/lib/gcc/arm-none-eabi/9.2.1/../../../arm-none-eabi/lib/thumb/v7e-m+fp/hard/libc_nano.a(lib_a-atexit.o)
 .debug_frame   0x0000000000000000       0x20 /usr/lib/gcc/arm-none-eabi/9.2.1/../../../arm-none-eabi/lib/thumb/v7e-m+fp/hard/libc_nano.a(lib_a-atexit.o)
 .ARM.attributes
                0x0000000000000000       0x34 /usr/lib/gcc/arm-none-eabi/9.2.1/../../../arm-none-eabi/lib/thumb/v7e-m+fp/hard/libc_nano.a(lib_a-atexit.o)
 .text          0x0000000000000000       0x28 /usr/lib/gcc/arm-none-eabi/9.2.1/../../../arm-none-eabi/lib/thumb/v7e-m+fp/hard/libc_nano.a(lib_a-exit.o)
 .data          0x0000000000000000        0x0 /usr/lib/gcc/arm-none-eabi/9.2.1/../../../arm-none-eabi/lib/thumb/v7e-m+fp/hard/libc_nano.a(lib_a-exit.o)
 .bss           0x0000000000000000        0x0 /usr/lib/gcc/arm-none-eabi/9.2.1/../../../arm-none-eabi/lib/thumb/v7e-m+fp/hard/libc_nano.a(lib_a-exit.o)
 .debug_info    0x0000000000000000      0x9e7 /usr/lib/gcc/arm-none-eabi/9.2.1/../../../arm-none-eabi/lib/thumb/v7e-m+fp/hard/libc_nano.a(lib_a-exit.o)
 .debug_abbrev  0x0000000000000000      0x1f6 /usr/lib/gcc/arm-none-eabi/9.2.1/../../../arm-none-eabi/lib/thumb/v7e-m+fp/hard/libc_nano.a(lib_a-exit.o)
 .debug_loc     0x0000000000000000       0x22 /usr/lib/gcc/arm-none-eabi/9.2.1/../../../arm-none-eabi/lib/thumb/v7e-m+fp/hard/libc_nano.a(lib_a-exit.o)
 .debug_aranges
                0x0000000000000000       0x20 /usr/lib/gcc/arm-none-eabi/9.2.1/../../../arm-none-eabi/lib/thumb/v7e-m+fp/hard/libc_nano.a(lib_a-exit.o)
 .debug_line    0x0000000000000000      0x16c /usr/lib/gcc/arm-none-eabi/9.2.1/../../../arm-none-eabi/lib/thumb/v7e-m+fp/hard/libc_nano.a(lib_a-exit.o)
 .debug_str     0x0000000000000000      0x62e /usr/lib/gcc/arm-none-eabi/9.2.1/../../../arm-none-eabi/lib/thumb/v7e-m+fp/hard/libc_nano.a(lib_a-exit.o)
 .comment       0x0000000000000000       0x4f /usr/lib/gcc/arm-none-eabi/9.2.1/../../../arm-none-eabi/lib/thumb/v7e-m+fp/hard/libc_nano.a(lib_a-exit.o)
 .debug_frame   0x0000000000000000       0x28 /usr/lib/gcc/arm-none-eabi/9.2.1/../../../arm-none-eabi/lib/thumb/v7e-m+fp/hard/libc_nano.a(lib_a-exit.o)
 .ARM.attributes
                0x0000000000000000       0x34 /usr/lib/gcc/arm-none-eabi/9.2.1/../../../arm-none-eabi/lib/thumb/v7e-m+fp/hard/libc_nano.a(lib_a-exit.o)
 .text          0x0000000000000000       0x34 /usr/lib/gcc/arm-none-eabi/9.2.1/../../../arm-none-eabi/lib/thumb/v7e-m+fp/hard/libc_nano.a(lib_a-fini.o)
 .data          0x0000000000000000        0x0 /usr/lib/gcc/arm-none-eabi/9.2.1/../../../arm-none-eabi/lib/thumb/v7e-m+fp/hard/libc_nano.a(lib_a-fini.o)
 .bss           0x0000000000000000        0x0 /usr/lib/gcc/arm-none-eabi/9.2.1/../../../arm-none-eabi/lib/thumb/v7e-m+fp/hard/libc_nano.a(lib_a-fini.o)
 .debug_info    0x0000000000000000      0x102 /usr/lib/gcc/arm-none-eabi/9.2.1/../../../arm-none-eabi/lib/thumb/v7e-m+fp/hard/libc_nano.a(lib_a-fini.o)
 .debug_abbrev  0x0000000000000000       0xcf /usr/lib/gcc/arm-none-eabi/9.2.1/../../../arm-none-eabi/lib/thumb/v7e-m+fp/hard/libc_nano.a(lib_a-fini.o)
 .debug_loc     0x0000000000000000       0x68 /usr/lib/gcc/arm-none-eabi/9.2.1/../../../arm-none-eabi/lib/thumb/v7e-m+fp/hard/libc_nano.a(lib_a-fini.o)
 .debug_aranges
                0x0000000000000000       0x20 /usr/lib/gcc/arm-none-eabi/9.2.1/../../../arm-none-eabi/lib/thumb/v7e-m+fp/hard/libc_nano.a(lib_a-fini.o)
 .debug_line    0x0000000000000000       0xd7 /usr/lib/gcc/arm-none-eabi/9.2.1/../../../arm-none-eabi/lib/thumb/v7e-m+fp/hard/libc_nano.a(lib_a-fini.o)
 .debug_str     0x0000000000000000      0x1ff /usr/lib/gcc/arm-none-eabi/9.2.1/../../../arm-none-eabi/lib/thumb/v7e-m+fp/hard/libc_nano.a(lib_a-fini.o)
 .comment       0x0000000000000000       0x4f /usr/lib/gcc/arm-none-eabi/9.2.1/../../../arm-none-eabi/lib/thumb/v7e-m+fp/hard/libc_nano.a(lib_a-fini.o)
 .debug_frame   0x0000000000000000       0x34 /usr/lib/gcc/arm-none-eabi/9.2.1/../../../arm-none-eabi/lib/thumb/v7e-m+fp/hard/libc_nano.a(lib_a-fini.o)
 .ARM.attributes
                0x0000000000000000       0x34 /usr/lib/gcc/arm-none-eabi/9.2.1/../../../arm-none-eabi/lib/thumb/v7e-m+fp/hard/libc_nano.a(lib_a-fini.o)
 .text          0x0000000000000000        0x0 /usr/lib/gcc/arm-none-eabi/9.2.1/../../../arm-none-eabi/lib/thumb/v7e-m+fp/hard/libc_nano.a(lib_a-impure.o)
 .data          0x0000000000000000       0x64 /usr/lib/gcc/arm-none-eabi/9.2.1/../../../arm-none-eabi/lib/thumb/v7e-m+fp/hard/libc_nano.a(lib_a-impure.o)
 .bss           0x0000000000000000        0x0 /usr/lib/gcc/arm-none-eabi/9.2.1/../../../arm-none-eabi/lib/thumb/v7e-m+fp/hard/libc_nano.a(lib_a-impure.o)
 .rodata        0x0000000000000000        0x4 /usr/lib/gcc/arm-none-eabi/9.2.1/../../../arm-none-eabi/lib/thumb/v7e-m+fp/hard/libc_nano.a(lib_a-impure.o)
 .debug_info    0x0000000000000000      0x92a /usr/lib/gcc/arm-none-eabi/9.2.1/../../../arm-none-eabi/lib/thumb/v7e-m+fp/hard/libc_nano.a(lib_a-impure.o)
 .debug_abbrev  0x0000000000000000      0x17a /usr/lib/gcc/arm-none-eabi/9.2.1/../../../arm-none-eabi/lib/thumb/v7e-m+fp/hard/libc_nano.a(lib_a-impure.o)
 .debug_aranges
                0x0000000000000000       0x18 /usr/lib/gcc/arm-none-eabi/9.2.1/../../../arm-none-eabi/lib/thumb/v7e-m+fp/hard/libc_nano.a(lib_a-impure.o)
 .debug_line    0x0000000000000000       0xe3 /usr/lib/gcc/arm-none-eabi/9.2.1/../../../arm-none-eabi/lib/thumb/v7e-m+fp/hard/libc_nano.a(lib_a-impure.o)
 .debug_str     0x0000000000000000      0x5e2 /usr/lib/gcc/arm-none-eabi/9.2.1/../../../arm-none-eabi/lib/thumb/v7e-m+fp/hard/libc_nano.a(lib_a-impure.o)
 .comment       0x0000000000000000       0x4f /usr/lib/gcc/arm-none-eabi/9.2.1/../../../arm-none-eabi/lib/thumb/v7e-m+fp/hard/libc_nano.a(lib_a-impure.o)
 .ARM.attributes
                0x0000000000000000       0x32 /usr/lib/gcc/arm-none-eabi/9.2.1/../../../arm-none-eabi/lib/thumb/v7e-m+fp/hard/libc_nano.a(lib_a-impure.o)
 .data          0x0000000000000000        0x0 /usr/lib/gcc/arm-none-eabi/9.2.1/../../../arm-none-eabi/lib/thumb/v7e-m+fp/hard/libc_nano.a(lib_a-init.o)
 .bss           0x0000000000000000        0x0 /usr/lib/gcc/arm-none-eabi/9.2.1/../../../arm-none-eabi/lib/thumb/v7e-m+fp/hard/libc_nano.a(lib_a-init.o)
 .data          0x0000000000000000        0x0 /usr/lib/gcc/arm-none-eabi/9.2.1/../../../arm-none-eabi/lib/thumb/v7e-m+fp/hard/libc_nano.a(lib_a-memcpy.o)
 .bss           0x0000000000000000        0x0 /usr/lib/gcc/arm-none-eabi/9.2.1/../../../arm-none-eabi/lib/thumb/v7e-m+fp/hard/libc_nano.a(lib_a-memcpy.o)
 .data          0x0000000000000000        0x0 /usr/lib/gcc/arm-none-eabi/9.2.1/../../../arm-none-eabi/lib/thumb/v7e-m+fp/hard/libc_nano.a(lib_a-memset.o)
 .bss           0x0000000000000000        0x0 /usr/lib/gcc/arm-none-eabi/9.2.1/../../../arm-none-eabi/lib/thumb/v7e-m+fp/hard/libc_nano.a(lib_a-memset.o)
 .text          0x0000000000000000       0xa0 /usr/lib/gcc/arm-none-eabi/9.2.1/../../../arm-none-eabi/lib/thumb/v7e-m+fp/hard/libc_nano.a(lib_a-__atexit.o)
 .data          0x0000000000000000        0x4 /usr/lib/gcc/arm-none-eabi/9.2.1/../../../arm-none-eabi/lib/thumb/v7e-m+fp/hard/libc_nano.a(lib_a-__atexit.o)
 .bss           0x0000000000000000       0x8c /usr/lib/gcc/arm-none-eabi/9.2.1/../../../arm-none-eabi/lib/thumb/v7e-m+fp/hard/libc_nano.a(lib_a-__atexit.o)
 .debug_info    0x0000000000000000      0xa3c /usr/lib/gcc/arm-none-eabi/9.2.1/../../../arm-none-eabi/lib/thumb/v7e-m+fp/hard/libc_nano.a(lib_a-__atexit.o)
 .debug_abbrev  0x0000000000000000      0x261 /usr/lib/gcc/arm-none-eabi/9.2.1/../../../arm-none-eabi/lib/thumb/v7e-m+fp/hard/libc_nano.a(lib_a-__atexit.o)
 .debug_loc     0x0000000000000000      0x230 /usr/lib/gcc/arm-none-eabi/9.2.1/../../../arm-none-eabi/lib/thumb/v7e-m+fp/hard/libc_nano.a(lib_a-__atexit.o)
 .debug_aranges
                0x0000000000000000       0x20 /usr/lib/gcc/arm-none-eabi/9.2.1/../../../arm-none-eabi/lib/thumb/v7e-m+fp/hard/libc_nano.a(lib_a-__atexit.o)
 .debug_line    0x0000000000000000      0x228 /usr/lib/gcc/arm-none-eabi/9.2.1/../../../arm-none-eabi/lib/thumb/v7e-m+fp/hard/libc_nano.a(lib_a-__atexit.o)
 .debug_str     0x0000000000000000      0x680 /usr/lib/gcc/arm-none-eabi/9.2.1/../../../arm-none-eabi/lib/thumb/v7e-m+fp/hard/libc_nano.a(lib_a-__atexit.o)
 .comment       0x0000000000000000       0x4f /usr/lib/gcc/arm-none-eabi/9.2.1/../../../arm-none-eabi/lib/thumb/v7e-m+fp/hard/libc_nano.a(lib_a-__atexit.o)
 .debug_frame   0x0000000000000000       0x34 /usr/lib/gcc/arm-none-eabi/9.2.1/../../../arm-none-eabi/lib/thumb/v7e-m+fp/hard/libc_nano.a(lib_a-__atexit.o)
 .ARM.attributes
                0x0000000000000000       0x34 /usr/lib/gcc/arm-none-eabi/9.2.1/../../../arm-none-eabi/lib/thumb/v7e-m+fp/hard/libc_nano.a(lib_a-__atexit.o)
 .text          0x0000000000000000       0x9c /usr/lib/gcc/arm-none-eabi/9.2.1/../../../arm-none-eabi/lib/thumb/v7e-m+fp/hard/libc_nano.a(lib_a-__call_atexit.o)
 .data          0x0000000000000000        0x0 /usr/lib/gcc/arm-none-eabi/9.2.1/../../../arm-none-eabi/lib/thumb/v7e-m+fp/hard/libc_nano.a(lib_a-__call_atexit.o)
 .bss           0x0000000000000000        0x4 /usr/lib/gcc/arm-none-eabi/9.2.1/../../../arm-none-eabi/lib/thumb/v7e-m+fp/hard/libc_nano.a(lib_a-__call_atexit.o)
 .debug_info    0x0000000000000000      0xa10 /usr/lib/gcc/arm-none-eabi/9.2.1/../../../arm-none-eabi/lib/thumb/v7e-m+fp/hard/libc_nano.a(lib_a-__call_atexit.o)
 .debug_abbrev  0x0000000000000000      0x237 /usr/lib/gcc/arm-none-eabi/9.2.1/../../../arm-none-eabi/lib/thumb/v7e-m+fp/hard/libc_nano.a(lib_a-__call_atexit.o)
 .debug_loc     0x0000000000000000      0x13f /usr/lib/gcc/arm-none-eabi/9.2.1/../../../arm-none-eabi/lib/thumb/v7e-m+fp/hard/libc_nano.a(lib_a-__call_atexit.o)
 .debug_aranges
                0x0000000000000000       0x20 /usr/lib/gcc/arm-none-eabi/9.2.1/../../../arm-none-eabi/lib/thumb/v7e-m+fp/hard/libc_nano.a(lib_a-__call_atexit.o)
 .debug_ranges  0x0000000000000000       0x28 /usr/lib/gcc/arm-none-eabi/9.2.1/../../../arm-none-eabi/lib/thumb/v7e-m+fp/hard/libc_nano.a(lib_a-__call_atexit.o)
 .debug_line    0x0000000000000000      0x22a /usr/lib/gcc/arm-none-eabi/9.2.1/../../../arm-none-eabi/lib/thumb/v7e-m+fp/hard/libc_nano.a(lib_a-__call_atexit.o)
 .debug_str     0x0000000000000000      0x62b /usr/lib/gcc/arm-none-eabi/9.2.1/../../../arm-none-eabi/lib/thumb/v7e-m+fp/hard/libc_nano.a(lib_a-__call_atexit.o)
 .comment       0x0000000000000000       0x4f /usr/lib/gcc/arm-none-eabi/9.2.1/../../../arm-none-eabi/lib/thumb/v7e-m+fp/hard/libc_nano.a(lib_a-__call_atexit.o)
 .debug_frame   0x0000000000000000       0x40 /usr/lib/gcc/arm-none-eabi/9.2.1/../../../arm-none-eabi/lib/thumb/v7e-m+fp/hard/libc_nano.a(lib_a-__call_atexit.o)
 .ARM.attributes
                0x0000000000000000       0x34 /usr/lib/gcc/arm-none-eabi/9.2.1/../../../arm-none-eabi/lib/thumb/v7e-m+fp/hard/libc_nano.a(lib_a-__call_atexit.o)
 .text          0x0000000000000000        0x4 /usr/lib/gcc/arm-none-eabi/9.2.1/../../../arm-none-eabi/lib/thumb/v7e-m+fp/hard/libnosys.a(_exit.o)
 .data          0x0000000000000000        0x0 /usr/lib/gcc/arm-none-eabi/9.2.1/../../../arm-none-eabi/lib/thumb/v7e-m+fp/hard/libnosys.a(_exit.o)
 .bss           0x0000000000000000        0x0 /usr/lib/gcc/arm-none-eabi/9.2.1/../../../arm-none-eabi/lib/thumb/v7e-m+fp/hard/libnosys.a(_exit.o)
 .debug_info    0x0000000000000000       0xa3 /usr/lib/gcc/arm-none-eabi/9.2.1/../../../arm-none-eabi/lib/thumb/v7e-m+fp/hard/libnosys.a(_exit.o)
 .debug_abbrev  0x0000000000000000       0x6a /usr/lib/gcc/arm-none-eabi/9.2.1/../../../arm-none-eabi/lib/thumb/v7e-m+fp/hard/libnosys.a(_exit.o)
 .debug_loc     0x0000000000000000       0x15 /usr/lib/gcc/arm-none-eabi/9.2.1/../../../arm-none-eabi/lib/thumb/v7e-m+fp/hard/libnosys.a(_exit.o)
 .debug_aranges
                0x0000000000000000       0x20 /usr/lib/gcc/arm-none-eabi/9.2.1/../../../arm-none-eabi/lib/thumb/v7e-m+fp/hard/libnosys.a(_exit.o)
 .debug_line    0x0000000000000000       0x6e /usr/lib/gcc/arm-none-eabi/9.2.1/../../../arm-none-eabi/lib/thumb/v7e-m+fp/hard/libnosys.a(_exit.o)
 .debug_str     0x0000000000000000      0x19f /usr/lib/gcc/arm-none-eabi/9.2.1/../../../arm-none-eabi/lib/thumb/v7e-m+fp/hard/libnosys.a(_exit.o)
 .comment       0x0000000000000000       0x4f /usr/lib/gcc/arm-none-eabi/9.2.1/../../../arm-none-eabi/lib/thumb/v7e-m+fp/hard/libnosys.a(_exit.o)
 .debug_frame   0x0000000000000000       0x20 /usr/lib/gcc/arm-none-eabi/9.2.1/../../../arm-none-eabi/lib/thumb/v7e-m+fp/hard/libnosys.a(_exit.o)
 .ARM.attributes
                0x0000000000000000       0x34 /usr/lib/gcc/arm-none-eabi/9.2.1/../../../arm-none-eabi/lib/thumb/v7e-m+fp/hard/libnosys.a(_exit.o)
 .text          0x0000000000000000      0x254 /usr/lib/gcc/arm-none-eabi/9.2.1/thumb/v7e-m+fp/hard/libgcc.a(_arm_muldf3.o)
 .data          0x0000000000000000        0x0 /usr/lib/gcc/arm-none-eabi/9.2.1/thumb/v7e-m+fp/hard/libgcc.a(_arm_muldf3.o)
 .bss           0x0000000000000000        0x0 /usr/lib/gcc/arm-none-eabi/9.2.1/thumb/v7e-m+fp/hard/libgcc.a(_arm_muldf3.o)
 .debug_line    0x0000000000000000      0x10c /usr/lib/gcc/arm-none-eabi/9.2.1/thumb/v7e-m+fp/hard/libgcc.a(_arm_muldf3.o)
 .debug_info    0x0000000000000000       0x26 /usr/lib/gcc/arm-none-eabi/9.2.1/thumb/v7e-m+fp/hard/libgcc.a(_arm_muldf3.o)
 .debug_abbrev  0x0000000000000000       0x14 /usr/lib/gcc/arm-none-eabi/9.2.1/thumb/v7e-m+fp/hard/libgcc.a(_arm_muldf3.o)
 .debug_aranges
                0x0000000000000000       0x20 /usr/lib/gcc/arm-none-eabi/9.2.1/thumb/v7e-m+fp/hard/libgcc.a(_arm_muldf3.o)
 .debug_str     0x0000000000000000       0xa8 /usr/lib/gcc/arm-none-eabi/9.2.1/thumb/v7e-m+fp/hard/libgcc.a(_arm_muldf3.o)
 .debug_frame   0x0000000000000000       0x30 /usr/lib/gcc/arm-none-eabi/9.2.1/thumb/v7e-m+fp/hard/libgcc.a(_arm_muldf3.o)
 .ARM.attributes
                0x0000000000000000       0x1e /usr/lib/gcc/arm-none-eabi/9.2.1/thumb/v7e-m+fp/hard/libgcc.a(_arm_muldf3.o)
 .text          0x0000000000000000      0x378 /usr/lib/gcc/arm-none-eabi/9.2.1/thumb/v7e-m+fp/hard/libgcc.a(_arm_addsubdf3.o)
 .data          0x0000000000000000        0x0 /usr/lib/gcc/arm-none-eabi/9.2.1/thumb/v7e-m+fp/hard/libgcc.a(_arm_addsubdf3.o)
 .bss           0x0000000000000000        0x0 /usr/lib/gcc/arm-none-eabi/9.2.1/thumb/v7e-m+fp/hard/libgcc.a(_arm_addsubdf3.o)
 .debug_line    0x0000000000000000      0x186 /usr/lib/gcc/arm-none-eabi/9.2.1/thumb/v7e-m+fp/hard/libgcc.a(_arm_addsubdf3.o)
 .debug_info    0x0000000000000000       0x26 /usr/lib/gcc/arm-none-eabi/9.2.1/thumb/v7e-m+fp/hard/libgcc.a(_arm_addsubdf3.o)
 .debug_abbrev  0x0000000000000000       0x14 /usr/lib/gcc/arm-none-eabi/9.2.1/thumb/v7e-m+fp/hard/libgcc.a(_arm_addsubdf3.o)
 .debug_aranges
                0x0000000000000000       0x20 /usr/lib/gcc/arm-none-eabi/9.2.1/thumb/v7e-m+fp/hard/libgcc.a(_arm_addsubdf3.o)
 .debug_str     0x0000000000000000       0xa8 /usr/lib/gcc/arm-none-eabi/9.2.1/thumb/v7e-m+fp/hard/libgcc.a(_arm_addsubdf3.o)
 .debug_frame   0x0000000000000000       0xac /usr/lib/gcc/arm-none-eabi/9.2.1/thumb/v7e-m+fp/hard/libgcc.a(_arm_addsubdf3.o)
 .ARM.attributes
                0x0000000000000000       0x1e /usr/lib/gcc/arm-none-eabi/9.2.1/thumb/v7e-m+fp/hard/libgcc.a(_arm_addsubdf3.o)
 .text          0x0000000000000000       0x50 /usr/lib/gcc/arm-none-eabi/9.2.1/thumb/v7e-m+fp/hard/libgcc.a(_arm_fixdfsi.o)
 .data          0x0000000000000000        0x0 /usr/lib/gcc/arm-none-eabi/9.2.1/thumb/v7e-m+fp/hard/libgcc.a(_arm_fixdfsi.o)
 .bss           0x0000000000000000        0x0 /usr/lib/gcc/arm-none-eabi/9.2.1/thumb/v7e-m+fp/hard/libgcc.a(_arm_fixdfsi.o)
 .debug_line    0x0000000000000000       0x79 /usr/lib/gcc/arm-none-eabi/9.2.1/thumb/v7e-m+fp/hard/libgcc.a(_arm_fixdfsi.o)
 .debug_info    0x0000000000000000       0x26 /usr/lib/gcc/arm-none-eabi/9.2.1/thumb/v7e-m+fp/hard/libgcc.a(_arm_fixdfsi.o)
 .debug_abbrev  0x0000000000000000       0x14 /usr/lib/gcc/arm-none-eabi/9.2.1/thumb/v7e-m+fp/hard/libgcc.a(_arm_fixdfsi.o)
 .debug_aranges
                0x0000000000000000       0x20 /usr/lib/gcc/arm-none-eabi/9.2.1/thumb/v7e-m+fp/hard/libgcc.a(_arm_fixdfsi.o)
 .debug_str     0x0000000000000000       0xa8 /usr/lib/gcc/arm-none-eabi/9.2.1/thumb/v7e-m+fp/hard/libgcc.a(_arm_fixdfsi.o)
 .debug_frame   0x0000000000000000       0x24 /usr/lib/gcc/arm-none-eabi/9.2.1/thumb/v7e-m+fp/hard/libgcc.a(_arm_fixdfsi.o)
 .ARM.attributes
                0x0000000000000000       0x1e /usr/lib/gcc/arm-none-eabi/9.2.1/thumb/v7e-m+fp/hard/libgcc.a(_arm_fixdfsi.o)
 .text          0x0000000000000000       0xa0 /usr/lib/gcc/arm-none-eabi/9.2.1/thumb/v7e-m+fp/hard/libgcc.a(_arm_truncdfsf2.o)
 .data          0x0000000000000000        0x0 /usr/lib/gcc/arm-none-eabi/9.2.1/thumb/v7e-m+fp/hard/libgcc.a(_arm_truncdfsf2.o)
 .bss           0x0000000000000000        0x0 /usr/lib/gcc/arm-none-eabi/9.2.1/thumb/v7e-m+fp/hard/libgcc.a(_arm_truncdfsf2.o)
 .debug_line    0x0000000000000000       0x8d /usr/lib/gcc/arm-none-eabi/9.2.1/thumb/v7e-m+fp/hard/libgcc.a(_arm_truncdfsf2.o)
 .debug_info    0x0000000000000000       0x26 /usr/lib/gcc/arm-none-eabi/9.2.1/thumb/v7e-m+fp/hard/libgcc.a(_arm_truncdfsf2.o)
 .debug_abbrev  0x0000000000000000       0x14 /usr/lib/gcc/arm-none-eabi/9.2.1/thumb/v7e-m+fp/hard/libgcc.a(_arm_truncdfsf2.o)
 .debug_aranges
                0x0000000000000000       0x20 /usr/lib/gcc/arm-none-eabi/9.2.1/thumb/v7e-m+fp/hard/libgcc.a(_arm_truncdfsf2.o)
 .debug_str     0x0000000000000000       0xa8 /usr/lib/gcc/arm-none-eabi/9.2.1/thumb/v7e-m+fp/hard/libgcc.a(_arm_truncdfsf2.o)
 .debug_frame   0x0000000000000000       0x24 /usr/lib/gcc/arm-none-eabi/9.2.1/thumb/v7e-m+fp/hard/libgcc.a(_arm_truncdfsf2.o)
 .ARM.attributes
                0x0000000000000000       0x1e /usr/lib/gcc/arm-none-eabi/9.2.1/thumb/v7e-m+fp/hard/libgcc.a(_arm_truncdfsf2.o)
 .text          0x0000000000000000        0x0 /usr/lib/gcc/arm-none-eabi/9.2.1/thumb/v7e-m+fp/hard/crtend.o
 .data          0x0000000000000000        0x0 /usr/lib/gcc/arm-none-eabi/9.2.1/thumb/v7e-m+fp/hard/crtend.o
 .bss           0x0000000000000000        0x0 /usr/lib/gcc/arm-none-eabi/9.2.1/thumb/v7e-m+fp/hard/crtend.o
 .eh_frame      0x0000000000000000        0x4 /usr/lib/gcc/arm-none-eabi/9.2.1/thumb/v7e-m+fp/hard/crtend.o
 .text          0x0000000000000000        0x0 /usr/lib/gcc/arm-none-eabi/9.2.1/thumb/v7e-m+fp/hard/crtn.o
 .data          0x0000000000000000        0x0 /usr/lib/gcc/arm-none-eabi/9.2.1/thumb/v7e-m+fp/hard/crtn.o
 .bss           0x0000000000000000        0x0 /usr/lib/gcc/arm-none-eabi/9.2.1/thumb/v7e-m+fp/hard/crtn.o

Memory Configuration

Name             Origin             Length             Attributes
RAM              0x0000000020000000 0x0000000000008000 xrw
FLASH            0x0000000008000000 0x0000000000020000 xr
*default*        0x0000000000000000 0xffffffffffffffff

Linker script and memory map

LOAD /usr/lib/gcc/arm-none-eabi/9.2.1/thumb/v7e-m+fp/hard/crti.o
LOAD /usr/lib/gcc/arm-none-eabi/9.2.1/thumb/v7e-m+fp/hard/crtbegin.o
LOAD /usr/lib/gcc/arm-none-eabi/9.2.1/../../../arm-none-eabi/lib/thumb/v7e-m+fp/hard/crt0.o
LOAD build/stm32g4xx_hal.o
LOAD build/stm32g4xx_hal_cortex.o
LOAD build/stm32g4xx_hal_dma.o
LOAD build/stm32g4xx_hal_dma_ex.o
LOAD build/stm32g4xx_hal_exti.o
LOAD build/stm32g4xx_hal_flash.o
LOAD build/stm32g4xx_hal_flash_ex.o
LOAD build/stm32g4xx_hal_flash_ramfunc.o
LOAD build/stm32g4xx_hal_gpio.o
LOAD build/stm32g4xx_hal_pwr.o
LOAD build/stm32g4xx_hal_pwr_ex.o
LOAD build/stm32g4xx_hal_rcc.o
LOAD build/stm32g4xx_hal_rcc_ex.o
LOAD build/stm32g4xx_hal_tim.o
LOAD build/stm32g4xx_hal_tim_ex.o
LOAD build/stm32g4xx_ll_adc.o
LOAD build/stm32g4xx_ll_cordic.o
LOAD build/stm32g4xx_ll_dma.o
LOAD build/stm32g4xx_ll_exti.o
LOAD build/stm32g4xx_ll_gpio.o
LOAD build/stm32g4xx_ll_opamp.o
LOAD build/stm32g4xx_ll_rcc.o
LOAD build/stm32g4xx_ll_tim.o
LOAD build/stm32g4xx_ll_usart.o
LOAD build/stm32g4xx_ll_utils.o
LOAD build/bus_voltage_sensor.o
LOAD build/circle_limitation.o
LOAD build/digital_output.o
LOAD build/mcp.o
LOAD build/mcpa.o
LOAD build/ntc_temperature_sensor.o
LOAD build/open_loop.o
LOAD build/pid_regulator.o
LOAD build/pqd_motor_power_measurement.o
LOAD build/pwm_common.o
LOAD build/r_divider_bus_voltage_sensor.o
LOAD build/ramp_ext_mngr.o
LOAD build/revup_ctrl.o
LOAD build/speed_pos_fdbk.o
LOAD build/speed_torq_ctrl.o
LOAD build/sto_cordic_speed_pos_fdbk.o
LOAD build/sto_pll_speed_pos_fdbk.o
LOAD build/virtual_speed_sensor.o
LOAD build/r3_2_g4xx_pwm_curr_fdbk.o
LOAD build/aspep.o
LOAD build/debug_scope.o
LOAD build/main.o
LOAD build/mc_api.o
LOAD build/mc_config.o
LOAD build/mc_configuration_registers.o
LOAD build/mc_interface.o
LOAD build/mc_math.o
LOAD build/mc_parameters.o
LOAD build/mc_perf.o
LOAD build/mc_tasks.o
LOAD build/mcp_config.o
LOAD build/motorcontrol.o
LOAD build/pwm_curr_fdbk.o
LOAD build/register_interface.o
LOAD build/regular_conversion_manager.o
LOAD build/stm32g4xx_hal_msp.o
LOAD build/stm32g4xx_it.o
LOAD build/stm32g4xx_mc_it.o
LOAD build/system_stm32g4xx.o
LOAD build/usart_aspep_driver.o
LOAD build/startup_stm32g431xx.o
LOAD /usr/lib/gcc/arm-none-eabi/9.2.1/../../../arm-none-eabi/lib/thumb/v7e-m+fp/hard/libc_nano.a
LOAD /usr/lib/gcc/arm-none-eabi/9.2.1/../../../arm-none-eabi/lib/thumb/v7e-m+fp/hard/libm.a
LOAD /usr/lib/gcc/arm-none-eabi/9.2.1/../../../arm-none-eabi/lib/thumb/v7e-m+fp/hard/libnosys.a
START GROUP
LOAD /usr/lib/gcc/arm-none-eabi/9.2.1/thumb/v7e-m+fp/hard/libgcc.a
LOAD /usr/lib/gcc/arm-none-eabi/9.2.1/../../../arm-none-eabi/lib/thumb/v7e-m+fp/hard/libc_nano.a
END GROUP
START GROUP
LOAD /usr/lib/gcc/arm-none-eabi/9.2.1/thumb/v7e-m+fp/hard/libgcc.a
LOAD /usr/lib/gcc/arm-none-eabi/9.2.1/../../../arm-none-eabi/lib/thumb/v7e-m+fp/hard/libc_nano.a
END GROUP
LOAD /usr/lib/gcc/arm-none-eabi/9.2.1/thumb/v7e-m+fp/hard/crtend.o
LOAD /usr/lib/gcc/arm-none-eabi/9.2.1/thumb/v7e-m+fp/hard/crtn.o
                0x0000000020008000                _estack = (ORIGIN (RAM) + LENGTH (RAM))
                0x0000000000000200                _Min_Heap_Size = 0x200
                0x0000000000000400                _Min_Stack_Size = 0x400

.isr_vector     0x0000000008000000      0x1d8
                0x0000000008000000                . = ALIGN (0x4)
 *(.isr_vector)
 .isr_vector    0x0000000008000000      0x1d8 build/startup_stm32g431xx.o
                0x0000000008000000                g_pfnVectors
                0x00000000080001d8                . = ALIGN (0x4)

.text           0x00000000080001d8     0x8480
                0x00000000080001d8                . = ALIGN (0x4)
 *(.text)
 .text          0x00000000080001d8       0x88 /usr/lib/gcc/arm-none-eabi/9.2.1/thumb/v7e-m+fp/hard/crtbegin.o
 .text          0x0000000008000260       0x48 /usr/lib/gcc/arm-none-eabi/9.2.1/../../../arm-none-eabi/lib/thumb/v7e-m+fp/hard/libc_nano.a(lib_a-init.o)
                0x0000000008000260                __libc_init_array
 .text          0x00000000080002a8      0x134 /usr/lib/gcc/arm-none-eabi/9.2.1/../../../arm-none-eabi/lib/thumb/v7e-m+fp/hard/libc_nano.a(lib_a-memcpy.o)
                0x00000000080002a8                memcpy
 .text          0x00000000080003dc       0xa0 /usr/lib/gcc/arm-none-eabi/9.2.1/../../../arm-none-eabi/lib/thumb/v7e-m+fp/hard/libc_nano.a(lib_a-memset.o)
                0x00000000080003dc                memset
 *(.text*)
 .text.HAL_InitTick
                0x000000000800047c       0x50 build/stm32g4xx_hal.o
                0x000000000800047c                HAL_InitTick
 .text.HAL_Init
                0x00000000080004cc       0x1e build/stm32g4xx_hal.o
                0x00000000080004cc                HAL_Init
 *fill*         0x00000000080004ea        0x2 
 .text.HAL_IncTick
                0x00000000080004ec       0x18 build/stm32g4xx_hal.o
                0x00000000080004ec                HAL_IncTick
 .text.HAL_NVIC_SetPriorityGrouping
                0x0000000008000504       0x24 build/stm32g4xx_hal_cortex.o
                0x0000000008000504                HAL_NVIC_SetPriorityGrouping
 .text.HAL_NVIC_SetPriority
                0x0000000008000528       0x68 build/stm32g4xx_hal_cortex.o
                0x0000000008000528                HAL_NVIC_SetPriority
 .text.HAL_SYSTICK_Config
                0x0000000008000590       0x2c build/stm32g4xx_hal_cortex.o
                0x0000000008000590                HAL_SYSTICK_Config
 .text.HAL_SYSTICK_Callback
                0x00000000080005bc        0x2 build/stm32g4xx_hal_cortex.o
                0x00000000080005bc                HAL_SYSTICK_Callback
 .text.HAL_SYSTICK_IRQHandler
                0x00000000080005be        0x8 build/stm32g4xx_hal_cortex.o
                0x00000000080005be                HAL_SYSTICK_IRQHandler
 *fill*         0x00000000080005c6        0x2 
 .text.HAL_GPIO_Init
                0x00000000080005c8      0x1ac build/stm32g4xx_hal_gpio.o
                0x00000000080005c8                HAL_GPIO_Init
 .text.HAL_PWREx_DisableUCPDDeadBattery
                0x0000000008000774       0x10 build/stm32g4xx_hal_pwr_ex.o
                0x0000000008000774                HAL_PWREx_DisableUCPDDeadBattery
 .text.HAL_RCC_GetHCLKFreq
                0x0000000008000784        0xc build/stm32g4xx_hal_rcc.o
                0x0000000008000784                HAL_RCC_GetHCLKFreq
 .text.TIM_Base_SetConfig
                0x0000000008000790       0xb8 build/stm32g4xx_hal_tim.o
                0x0000000008000790                TIM_Base_SetConfig
 .text.HAL_TIM_Encoder_Init
                0x0000000008000848       0xb0 build/stm32g4xx_hal_tim.o
                0x0000000008000848                HAL_TIM_Encoder_Init
 .text.HAL_TIMEx_MasterConfigSynchronization
                0x00000000080008f8       0x94 build/stm32g4xx_hal_tim_ex.o
                0x00000000080008f8                HAL_TIMEx_MasterConfigSynchronization
 .text.LL_ADC_CommonInit
                0x000000000800098c       0x60 build/stm32g4xx_ll_adc.o
                0x000000000800098c                LL_ADC_CommonInit
 .text.LL_ADC_Init
                0x00000000080009ec       0x2e build/stm32g4xx_ll_adc.o
                0x00000000080009ec                LL_ADC_Init
 *fill*         0x0000000008000a1a        0x2 
 .text.LL_ADC_REG_Init
                0x0000000008000a1c       0x60 build/stm32g4xx_ll_adc.o
                0x0000000008000a1c                LL_ADC_REG_Init
 .text.LL_ADC_INJ_Init
                0x0000000008000a7c       0x4c build/stm32g4xx_ll_adc.o
                0x0000000008000a7c                LL_ADC_INJ_Init
 .text.LL_EXTI_Init
                0x0000000008000ac8      0x1a0 build/stm32g4xx_ll_exti.o
                0x0000000008000ac8                LL_EXTI_Init
 .text.LL_GPIO_Init
                0x0000000008000c68      0x172 build/stm32g4xx_ll_gpio.o
                0x0000000008000c68                LL_GPIO_Init
 .text.LL_OPAMP_Init
                0x0000000008000dda       0x50 build/stm32g4xx_ll_opamp.o
                0x0000000008000dda                LL_OPAMP_Init
 *fill*         0x0000000008000e2a        0x2 
 .text.RCC_GetHCLKClockFreq
                0x0000000008000e2c       0x1c build/stm32g4xx_ll_rcc.o
 .text.RCC_GetPCLK1ClockFreq
                0x0000000008000e48       0x1c build/stm32g4xx_ll_rcc.o
 .text.RCC_GetPCLK2ClockFreq
                0x0000000008000e64       0x1c build/stm32g4xx_ll_rcc.o
 .text.RCC_PLL_GetFreqDomain_SYS
                0x0000000008000e80       0x48 build/stm32g4xx_ll_rcc.o
 .text.RCC_GetSystemClockFreq
                0x0000000008000ec8       0x2c build/stm32g4xx_ll_rcc.o
 .text.LL_RCC_GetUSARTClockFreq
                0x0000000008000ef4      0x11c build/stm32g4xx_ll_rcc.o
                0x0000000008000ef4                LL_RCC_GetUSARTClockFreq
 .text.LL_RCC_GetUARTClockFreq
                0x0000000008001010       0x68 build/stm32g4xx_ll_rcc.o
                0x0000000008001010                LL_RCC_GetUARTClockFreq
 .text.OC1Config
                0x0000000008001078       0x8c build/stm32g4xx_ll_tim.o
 .text.OC2Config
                0x0000000008001104       0x94 build/stm32g4xx_ll_tim.o
 .text.OC3Config
                0x0000000008001198       0x94 build/stm32g4xx_ll_tim.o
 .text.OC4Config
                0x000000000800122c       0x94 build/stm32g4xx_ll_tim.o
 .text.OC5Config
                0x00000000080012c0       0x78 build/stm32g4xx_ll_tim.o
 .text.OC6Config
                0x0000000008001338       0x78 build/stm32g4xx_ll_tim.o
 .text.LL_TIM_Init
                0x00000000080013b0       0xb8 build/stm32g4xx_ll_tim.o
                0x00000000080013b0                LL_TIM_Init
 .text.LL_TIM_OC_Init
                0x0000000008001468       0x54 build/stm32g4xx_ll_tim.o
                0x0000000008001468                LL_TIM_OC_Init
 .text.LL_TIM_BDTR_Init
                0x00000000080014bc       0x8c build/stm32g4xx_ll_tim.o
                0x00000000080014bc                LL_TIM_BDTR_Init
 .text.LL_USART_Init
                0x0000000008001548      0x104 build/stm32g4xx_ll_usart.o
                0x0000000008001548                LL_USART_Init
 .text.LL_SetSystemCoreClock
                0x000000000800164c        0xc build/stm32g4xx_ll_utils.o
                0x000000000800164c                LL_SetSystemCoreClock
 .text.VBS_GetAvBusVoltage_d
                0x0000000008001658        0x4 build/bus_voltage_sensor.o
                0x0000000008001658                VBS_GetAvBusVoltage_d
 .text.VBS_GetAvBusVoltage_V
                0x000000000800165c        0xc build/bus_voltage_sensor.o
                0x000000000800165c                VBS_GetAvBusVoltage_V
 .text.Circle_Limitation
                0x0000000008001668       0x6e build/circle_limitation.o
                0x0000000008001668                Circle_Limitation
 *fill*         0x00000000080016d6        0x2 
 .text.MCP_ReceivedPacket
                0x00000000080016d8      0x1cc build/mcp.o
                0x00000000080016d8                MCP_ReceivedPacket
 .text.MCPA_stopDataLog
                0x00000000080018a4       0x36 build/mcpa.o
 *fill*         0x00000000080018da        0x2 
 .text.MCPA_dataLog
                0x00000000080018dc      0x170 build/mcpa.o
                0x00000000080018dc                MCPA_dataLog
 .text.MCPA_flushDataLog
                0x0000000008001a4c       0x60 build/mcpa.o
                0x0000000008001a4c                MCPA_flushDataLog
 .text.MCPA_cfgLog
                0x0000000008001aac       0xc2 build/mcpa.o
                0x0000000008001aac                MCPA_cfgLog
 .text.NTC_SetFaultState
                0x0000000008001b6e       0x1a build/ntc_temperature_sensor.o
                0x0000000008001b6e                NTC_SetFaultState
 .text.NTC_Clear
                0x0000000008001b88        0x6 build/ntc_temperature_sensor.o
                0x0000000008001b88                NTC_Clear
 .text.NTC_Init
                0x0000000008001b8e       0x24 build/ntc_temperature_sensor.o
                0x0000000008001b8e                NTC_Init
 .text.NTC_CalcAvTemp
                0x0000000008001bb2       0x3a build/ntc_temperature_sensor.o
                0x0000000008001bb2                NTC_CalcAvTemp
 .text.NTC_GetAvTemp_C
                0x0000000008001bec       0x20 build/ntc_temperature_sensor.o
                0x0000000008001bec                NTC_GetAvTemp_C
 .text.PID_HandleInit
                0x0000000008001c0c       0x1a build/pid_regulator.o
                0x0000000008001c0c                PID_HandleInit
 .text.PID_SetKP
                0x0000000008001c26        0x4 build/pid_regulator.o
                0x0000000008001c26                PID_SetKP
 .text.PID_SetKI
                0x0000000008001c2a        0x4 build/pid_regulator.o
                0x0000000008001c2a                PID_SetKI
 .text.PID_GetKP
                0x0000000008001c2e        0x6 build/pid_regulator.o
                0x0000000008001c2e                PID_GetKP
 .text.PID_GetKI
                0x0000000008001c34        0x6 build/pid_regulator.o
                0x0000000008001c34                PID_GetKI
 .text.PID_SetIntegralTerm
                0x0000000008001c3a        0x4 build/pid_regulator.o
                0x0000000008001c3a                PID_SetIntegralTerm
 .text.PID_GetKPDivisorPOW2
                0x0000000008001c3e        0x4 build/pid_regulator.o
                0x0000000008001c3e                PID_GetKPDivisorPOW2
 .text.PID_SetKPDivisorPOW2
                0x0000000008001c42        0xc build/pid_regulator.o
                0x0000000008001c42                PID_SetKPDivisorPOW2
 .text.PID_GetKIDivisor
                0x0000000008001c4e        0x4 build/pid_regulator.o
                0x0000000008001c4e                PID_GetKIDivisor
 .text.PID_GetKIDivisorPOW2
                0x0000000008001c52        0x4 build/pid_regulator.o
                0x0000000008001c52                PID_GetKIDivisorPOW2
 .text.PID_SetLowerIntegralTermLimit
                0x0000000008001c56        0x4 build/pid_regulator.o
                0x0000000008001c56                PID_SetLowerIntegralTermLimit
 .text.PID_SetUpperIntegralTermLimit
                0x0000000008001c5a        0x4 build/pid_regulator.o
                0x0000000008001c5a                PID_SetUpperIntegralTermLimit
 *fill*         0x0000000008001c5e        0x2 
 .text.PID_SetKIDivisorPOW2
                0x0000000008001c60       0x28 build/pid_regulator.o
                0x0000000008001c60                PID_SetKIDivisorPOW2
 .text.PID_SetKD
                0x0000000008001c88        0x4 build/pid_regulator.o
                0x0000000008001c88                PID_SetKD
 .text.PID_GetKD
                0x0000000008001c8c        0x6 build/pid_regulator.o
                0x0000000008001c8c                PID_GetKD
 .text.PID_GetKDDivisorPOW2
                0x0000000008001c92        0x4 build/pid_regulator.o
                0x0000000008001c92                PID_GetKDDivisorPOW2
 .text.PID_SetKDDivisorPOW2
                0x0000000008001c96        0xc build/pid_regulator.o
                0x0000000008001c96                PID_SetKDDivisorPOW2
 *fill*         0x0000000008001ca2        0x2 
 .text.PI_Controller
                0x0000000008001ca4       0x8c build/pid_regulator.o
                0x0000000008001ca4                PI_Controller
 .text.PQD_CalcElMotorPower
                0x0000000008001d30       0x44 build/pqd_motor_power_measurement.o
                0x0000000008001d30                PQD_CalcElMotorPower
 .text.PQD_Clear
                0x0000000008001d74        0x6 build/pqd_motor_power_measurement.o
                0x0000000008001d74                PQD_Clear
 .text.PQD_GetAvrgElMotorPowerW
                0x0000000008001d7a       0x24 build/pqd_motor_power_measurement.o
                0x0000000008001d7a                PQD_GetAvrgElMotorPowerW
 *fill*         0x0000000008001d9e        0x2 
 .text.startTimers
                0x0000000008001da0       0x7c build/pwm_common.o
                0x0000000008001da0                startTimers
 .text.waitForPolarizationEnd
                0x0000000008001e1c       0x3e build/pwm_common.o
                0x0000000008001e1c                waitForPolarizationEnd
 .text.RVBS_Clear
                0x0000000008001e5a       0x28 build/r_divider_bus_voltage_sensor.o
                0x0000000008001e5a                RVBS_Clear
 .text.RVBS_Init
                0x0000000008001e82       0x16 build/r_divider_bus_voltage_sensor.o
                0x0000000008001e82                RVBS_Init
 .text.RVBS_CheckFaultState
                0x0000000008001e98       0x1a build/r_divider_bus_voltage_sensor.o
                0x0000000008001e98                RVBS_CheckFaultState
 .text.RVBS_CalcAvVbus
                0x0000000008001eb2       0x62 build/r_divider_bus_voltage_sensor.o
                0x0000000008001eb2                RVBS_CalcAvVbus
 .text.REMNG_Init
                0x0000000008001f14       0x10 build/ramp_ext_mngr.o
                0x0000000008001f14                REMNG_Init
 .text.REMNG_Calc
                0x0000000008001f24       0x2c build/ramp_ext_mngr.o
                0x0000000008001f24                REMNG_Calc
 .text.REMNG_RampCompleted
                0x0000000008001f50        0xc build/ramp_ext_mngr.o
                0x0000000008001f50                REMNG_RampCompleted
 .text.getScalingFactor
                0x0000000008001f5c       0x28 build/ramp_ext_mngr.o
                0x0000000008001f5c                getScalingFactor
 .text.REMNG_ExecRamp
                0x0000000008001f84       0x88 build/ramp_ext_mngr.o
                0x0000000008001f84                REMNG_ExecRamp
 .text.RUC_Init
                0x000000000800200c       0x5c build/revup_ctrl.o
                0x000000000800200c                RUC_Init
 .text.RUC_Clear
                0x0000000008002068       0x90 build/revup_ctrl.o
                0x0000000008002068                RUC_Clear
 .text.RUC_Exec
                0x00000000080020f8       0x70 build/revup_ctrl.o
                0x00000000080020f8                RUC_Exec
 .text.RUC_FirstAccelerationStageReached
                0x0000000008002168       0x14 build/revup_ctrl.o
                0x0000000008002168                RUC_FirstAccelerationStageReached
 .text.RUC_SetPhase
                0x000000000800217c       0x2a build/revup_ctrl.o
                0x000000000800217c                RUC_SetPhase
 .text.RUC_GetNumberOfPhases
                0x00000000080021a6        0x6 build/revup_ctrl.o
                0x00000000080021a6                RUC_GetNumberOfPhases
 .text.RUC_GetPhase
                0x00000000080021ac       0x2a build/revup_ctrl.o
                0x00000000080021ac                RUC_GetPhase
 .text.SPD_GetElAngle
                0x00000000080021d6        0x6 build/speed_pos_fdbk.o
                0x00000000080021d6                SPD_GetElAngle
 .text.SPD_GetAvrgMecSpeedUnit
                0x00000000080021dc        0x6 build/speed_pos_fdbk.o
                0x00000000080021dc                SPD_GetAvrgMecSpeedUnit
 .text.SPD_GetInstElSpeedDpp
                0x00000000080021e2        0x6 build/speed_pos_fdbk.o
                0x00000000080021e2                SPD_GetInstElSpeedDpp
 .text.SPD_IsMecSpeedReliable
                0x00000000080021e8       0x68 build/speed_pos_fdbk.o
                0x00000000080021e8                SPD_IsMecSpeedReliable
 .text.SPD_GetS16Speed
                0x0000000008002250       0x14 build/speed_pos_fdbk.o
                0x0000000008002250                SPD_GetS16Speed
 .text.STC_Init
                0x0000000008002264       0x24 build/speed_torq_ctrl.o
                0x0000000008002264                STC_Init
 .text.STC_SetSpeedSensor
                0x0000000008002288        0x4 build/speed_torq_ctrl.o
                0x0000000008002288                STC_SetSpeedSensor
 .text.STC_GetSpeedSensor
                0x000000000800228c        0x4 build/speed_torq_ctrl.o
                0x000000000800228c                STC_GetSpeedSensor
 .text.STC_Clear
                0x0000000008002290       0x14 build/speed_torq_ctrl.o
                0x0000000008002290                STC_Clear
 .text.STC_GetMecSpeedRefUnit
                0x00000000080022a4        0x6 build/speed_torq_ctrl.o
                0x00000000080022a4                STC_GetMecSpeedRefUnit
 .text.STC_GetTorqueRef
                0x00000000080022aa        0x6 build/speed_torq_ctrl.o
                0x00000000080022aa                STC_GetTorqueRef
 .text.STC_SetControlMode
                0x00000000080022b0        0x8 build/speed_torq_ctrl.o
                0x00000000080022b0                STC_SetControlMode
 .text.STC_ExecRamp
                0x00000000080022b8       0xa0 build/speed_torq_ctrl.o
                0x00000000080022b8                STC_ExecRamp
 .text.STC_ExecSin
                0x0000000008002358      0x118 build/speed_torq_ctrl.o
                0x0000000008002358                STC_ExecSin
 .text.STC_StopRamp
                0x0000000008002470        0x8 build/speed_torq_ctrl.o
                0x0000000008002470                STC_StopRamp
 .text.STC_CalcTorqueReference
                0x0000000008002478       0x52 build/speed_torq_ctrl.o
                0x0000000008002478                STC_CalcTorqueReference
 .text.STC_GetMecSpeedRefUnitDefault
                0x00000000080024ca        0x6 build/speed_torq_ctrl.o
                0x00000000080024ca                STC_GetMecSpeedRefUnitDefault
 .text.STC_GetDefaultIqdref
                0x00000000080024d0       0x26 build/speed_torq_ctrl.o
                0x00000000080024d0                STC_GetDefaultIqdref
 .text.STC_ForceSpeedReferenceToCurrentSpeed
                0x00000000080024f6       0x10 build/speed_torq_ctrl.o
                0x00000000080024f6                STC_ForceSpeedReferenceToCurrentSpeed
 .text.STO_CR_InitSpeedBuffer
                0x0000000008002506       0x3a build/sto_cordic_speed_pos_fdbk.o
 .text.STO_CR_CalcElAngle
                0x0000000008002540      0x26c build/sto_cordic_speed_pos_fdbk.o
                0x0000000008002540                STO_CR_CalcElAngle
 .text.STO_CR_CalcAvrgMecSpeedUnit
                0x00000000080027ac      0x164 build/sto_cordic_speed_pos_fdbk.o
                0x00000000080027ac                STO_CR_CalcAvrgMecSpeedUnit
 .text.STO_CR_Clear
                0x0000000008002910       0x42 build/sto_cordic_speed_pos_fdbk.o
                0x0000000008002910                STO_CR_Clear
 *fill*         0x0000000008002952        0x2 
 .text.STO_CR_Init
                0x0000000008002954       0x60 build/sto_cordic_speed_pos_fdbk.o
                0x0000000008002954                STO_CR_Init
 .text.STO_CR_IsObserverConverged
                0x00000000080029b4       0xc8 build/sto_cordic_speed_pos_fdbk.o
                0x00000000080029b4                STO_CR_IsObserverConverged
 .text.STO_CR_GetEstimatedBemf
                0x0000000008002a7c       0x26 build/sto_cordic_speed_pos_fdbk.o
                0x0000000008002a7c                STO_CR_GetEstimatedBemf
 .text.STO_CR_GetEstimatedCurrent
                0x0000000008002aa2       0x2a build/sto_cordic_speed_pos_fdbk.o
                0x0000000008002aa2                STO_CR_GetEstimatedCurrent
 .text.STO_CR_GetObserverGains
                0x0000000008002acc        0xe build/sto_cordic_speed_pos_fdbk.o
                0x0000000008002acc                STO_CR_GetObserverGains
 .text.STO_CR_SetObserverGains
                0x0000000008002ada        0x6 build/sto_cordic_speed_pos_fdbk.o
                0x0000000008002ada                STO_CR_SetObserverGains
 .text.STO_CR_CalcAvrgElSpeedDpp
                0x0000000008002ae0       0x9c build/sto_cordic_speed_pos_fdbk.o
                0x0000000008002ae0                STO_CR_CalcAvrgElSpeedDpp
 .text.STO_CR_GetEstimatedBemfLevel
                0x0000000008002b7c        0x6 build/sto_cordic_speed_pos_fdbk.o
                0x0000000008002b7c                STO_CR_GetEstimatedBemfLevel
 .text.STO_CR_GetObservedBemfLevel
                0x0000000008002b82        0x6 build/sto_cordic_speed_pos_fdbk.o
                0x0000000008002b82                STO_CR_GetObservedBemfLevel
 .text.STO_CR_IsSpeedReliable
                0x0000000008002b88        0x8 build/sto_cordic_speed_pos_fdbk.o
                0x0000000008002b88                STO_CR_IsSpeedReliable
 .text.STO_CR_ForceConvergency1
                0x0000000008002b90        0xa build/sto_cordic_speed_pos_fdbk.o
                0x0000000008002b90                STO_CR_ForceConvergency1
 .text.STO_CR_ForceConvergency2
                0x0000000008002b9a        0xa build/sto_cordic_speed_pos_fdbk.o
                0x0000000008002b9a                STO_CR_ForceConvergency2
 .text.STO_InitSpeedBuffer
                0x0000000008002ba4       0x2e build/sto_pll_speed_pos_fdbk.o
 .text.STO_PLL_CalcElAngle
                0x0000000008002bd2      0x1f4 build/sto_pll_speed_pos_fdbk.o
                0x0000000008002bd2                STO_PLL_CalcElAngle
 .text.STO_PLL_CalcAvrgMecSpeedUnit
                0x0000000008002dc6      0x16c build/sto_pll_speed_pos_fdbk.o
                0x0000000008002dc6                STO_PLL_CalcAvrgMecSpeedUnit
 .text.STO_PLL_CalcAvrgElSpeedDpp
                0x0000000008002f32       0x68 build/sto_pll_speed_pos_fdbk.o
                0x0000000008002f32                STO_PLL_CalcAvrgElSpeedDpp
 .text.STO_PLL_Clear
                0x0000000008002f9a       0x46 build/sto_pll_speed_pos_fdbk.o
                0x0000000008002f9a                STO_PLL_Clear
 .text.STO_PLL_Init
                0x0000000008002fe0       0x68 build/sto_pll_speed_pos_fdbk.o
                0x0000000008002fe0                STO_PLL_Init
 .text.STO_PLL_GetEstimatedBemf
                0x0000000008003048       0x26 build/sto_pll_speed_pos_fdbk.o
                0x0000000008003048                STO_PLL_GetEstimatedBemf
 .text.STO_PLL_GetEstimatedCurrent
                0x000000000800306e       0x2a build/sto_pll_speed_pos_fdbk.o
                0x000000000800306e                STO_PLL_GetEstimatedCurrent
 .text.STO_PLL_GetObserverGains
                0x0000000008003098        0xe build/sto_pll_speed_pos_fdbk.o
                0x0000000008003098                STO_PLL_GetObserverGains
 .text.STO_PLL_SetObserverGains
                0x00000000080030a6        0x6 build/sto_pll_speed_pos_fdbk.o
                0x00000000080030a6                STO_PLL_SetObserverGains
 .text.STO_PLL_GetEstimatedBemfLevel
                0x00000000080030ac        0x6 build/sto_pll_speed_pos_fdbk.o
                0x00000000080030ac                STO_PLL_GetEstimatedBemfLevel
 .text.STO_PLL_GetObservedBemfLevel
                0x00000000080030b2        0x6 build/sto_pll_speed_pos_fdbk.o
                0x00000000080030b2                STO_PLL_GetObservedBemfLevel
 .text.VSS_Clear
                0x00000000080030b8       0x2e build/virtual_speed_sensor.o
                0x00000000080030b8                VSS_Clear
 .text.VSS_Init
                0x00000000080030e6        0x8 build/virtual_speed_sensor.o
                0x00000000080030e6                VSS_Init
 .text.VSS_CalcElAngle
                0x00000000080030ee       0xa0 build/virtual_speed_sensor.o
                0x00000000080030ee                VSS_CalcElAngle
 .text.VSS_CalcAvrgMecSpeedUnit
                0x000000000800318e       0x84 build/virtual_speed_sensor.o
                0x000000000800318e                VSS_CalcAvrgMecSpeedUnit
 .text.VSS_SetMecAngle
                0x0000000008003212        0xe build/virtual_speed_sensor.o
                0x0000000008003212                VSS_SetMecAngle
 .text.VSS_SetMecAcceleration
                0x0000000008003220       0x88 build/virtual_speed_sensor.o
                0x0000000008003220                VSS_SetMecAcceleration
 .text.VSS_SetStartTransition
                0x00000000080032a8       0x24 build/virtual_speed_sensor.o
                0x00000000080032a8                VSS_SetStartTransition
 .text.VSS_TransitionEnded
                0x00000000080032cc        0x6 build/virtual_speed_sensor.o
                0x00000000080032cc                VSS_TransitionEnded
 *fill*         0x00000000080032d2        0x2 
 .text.R3_2_ADCxInit
                0x00000000080032d4       0xc0 build/r3_2_g4xx_pwm_curr_fdbk.o
 .text.R3_2_TIMxInit
                0x0000000008003394       0xfa build/r3_2_g4xx_pwm_curr_fdbk.o
 .text.R3_2_GetPhaseCurrents
                0x000000000800348e      0x144 build/r3_2_g4xx_pwm_curr_fdbk.o
                0x000000000800348e                R3_2_GetPhaseCurrents
 *fill*         0x00000000080035d2        0x2 
 .text.R3_2_SetADCSampPointPolarization
                0x00000000080035d4       0x3c build/r3_2_g4xx_pwm_curr_fdbk.o
                0x00000000080035d4                R3_2_SetADCSampPointPolarization
 .text.R3_2_HFCurrentsPolarizationAB
                0x0000000008003610       0x60 build/r3_2_g4xx_pwm_curr_fdbk.o
 .text.R3_2_HFCurrentsPolarizationC
                0x0000000008003670       0x50 build/r3_2_g4xx_pwm_curr_fdbk.o
 .text.R3_2_TurnOnLowSides
                0x00000000080036c0       0x5c build/r3_2_g4xx_pwm_curr_fdbk.o
                0x00000000080036c0                R3_2_TurnOnLowSides
 .text.R3_2_SwitchOnPWM
                0x000000000800371c       0xc6 build/r3_2_g4xx_pwm_curr_fdbk.o
                0x000000000800371c                R3_2_SwitchOnPWM
 .text.R3_2_SwitchOffPWM
                0x00000000080037e2       0x6c build/r3_2_g4xx_pwm_curr_fdbk.o
                0x00000000080037e2                R3_2_SwitchOffPWM
 *fill*         0x000000000800384e        0x2 
 .text.R3_2_SetAOReferenceVoltage
                0x0000000008003850       0x88 build/r3_2_g4xx_pwm_curr_fdbk.o
 .text.R3_2_RLGetPhaseCurrents
                0x00000000080038d8       0x5c build/r3_2_g4xx_pwm_curr_fdbk.o
 .text.R3_2_RLTurnOnLowSides
                0x0000000008003934       0x56 build/r3_2_g4xx_pwm_curr_fdbk.o
 .text.R3_2_RLSwitchOnPWM
                0x000000000800398a       0xde build/r3_2_g4xx_pwm_curr_fdbk.o
 .text.R3_2_Init
                0x0000000008003a68      0x1cc build/r3_2_g4xx_pwm_curr_fdbk.o
                0x0000000008003a68                R3_2_Init
 .text.R3_2_SetOffsetCalib
                0x0000000008003c34       0x14 build/r3_2_g4xx_pwm_curr_fdbk.o
                0x0000000008003c34                R3_2_SetOffsetCalib
 .text.R3_2_GetOffsetCalib
                0x0000000008003c48        0xe build/r3_2_g4xx_pwm_curr_fdbk.o
                0x0000000008003c48                R3_2_GetOffsetCalib
 *fill*         0x0000000008003c56        0x2 
 .text.R3_2_CurrentReadingPolarization
                0x0000000008003c58      0x18c build/r3_2_g4xx_pwm_curr_fdbk.o
                0x0000000008003c58                R3_2_CurrentReadingPolarization
 .text.R3_2_SetADCSampPointSectX
                0x0000000008003de4       0x90 build/r3_2_g4xx_pwm_curr_fdbk.o
                0x0000000008003de4                R3_2_SetADCSampPointSectX
 .text.R3_2_TIMx_UP_IRQHandler
                0x0000000008003e74       0xae build/r3_2_g4xx_pwm_curr_fdbk.o
                0x0000000008003e74                R3_2_TIMx_UP_IRQHandler
 .text.R3_2_BRK2_IRQHandler
                0x0000000008003f22       0x46 build/r3_2_g4xx_pwm_curr_fdbk.o
                0x0000000008003f22                R3_2_BRK2_IRQHandler
 .text.R3_2_BRK_IRQHandler
                0x0000000008003f68       0x20 build/r3_2_g4xx_pwm_curr_fdbk.o
                0x0000000008003f68                R3_2_BRK_IRQHandler
 .text.R3_2_IsOverCurrentOccurred
                0x0000000008003f88       0x26 build/r3_2_g4xx_pwm_curr_fdbk.o
                0x0000000008003f88                R3_2_IsOverCurrentOccurred
 *fill*         0x0000000008003fae        0x2 
 .text.R3_2_RLDetectionModeEnable
                0x0000000008003fb0       0xd4 build/r3_2_g4xx_pwm_curr_fdbk.o
                0x0000000008003fb0                R3_2_RLDetectionModeEnable
 .text.R3_2_RLDetectionModeDisable
                0x0000000008004084      0x108 build/r3_2_g4xx_pwm_curr_fdbk.o
                0x0000000008004084                R3_2_RLDetectionModeDisable
 .text.R3_2_RLDetectionModeSetDuty
                0x000000000800418c       0x84 build/r3_2_g4xx_pwm_curr_fdbk.o
                0x000000000800418c                R3_2_RLDetectionModeSetDuty
 .text.ASPEP_ComputeHeaderCRC
                0x0000000008004210       0x38 build/aspep.o
 .text.ASPEP_CheckHeaderCRC
                0x0000000008004248       0x28 build/aspep.o
 .text.ASPEP_TXframeProcess
                0x0000000008004270       0xb2 build/aspep.o
 .text.ASPEP_sendNack
                0x0000000008004322       0x1c build/aspep.o
 .text.ASPEP_start
                0x000000000800433e       0x26 build/aspep.o
                0x000000000800433e                ASPEP_start
 .text.ASPEP_sendBeacon
                0x0000000008004364       0x32 build/aspep.o
                0x0000000008004364                ASPEP_sendBeacon
 .text.ASPEP_sendPing
                0x0000000008004396       0x3c build/aspep.o
                0x0000000008004396                ASPEP_sendPing
 .text.ASPEP_getBuffer
                0x00000000080043d2       0x70 build/aspep.o
                0x00000000080043d2                ASPEP_getBuffer
 .text.ASPEP_CheckBeacon
                0x0000000008004442       0x82 build/aspep.o
                0x0000000008004442                ASPEP_CheckBeacon
 .text.ASPEP_sendPacket
                0x00000000080044c4       0x50 build/aspep.o
                0x00000000080044c4                ASPEP_sendPacket
 .text.ASPEP_HWDataTransmittedIT
                0x0000000008004514       0xa2 build/aspep.o
                0x0000000008004514                ASPEP_HWDataTransmittedIT
 .text.ASPEP_RXframeProcess
                0x00000000080045b6      0x13e build/aspep.o
                0x00000000080045b6                ASPEP_RXframeProcess
 .text.ASPEP_HWDataReceivedIT
                0x00000000080046f4       0x8c build/aspep.o
                0x00000000080046f4                ASPEP_HWDataReceivedIT
 .text.ASPEP_HWDMAReset
                0x0000000008004780       0x16 build/aspep.o
                0x0000000008004780                ASPEP_HWDMAReset
 *fill*         0x0000000008004796        0x2 
 .text.getTickMSCounter
                0x0000000008004798        0xc build/debug_scope.o
                0x0000000008004798                getTickMSCounter
 .text.DebugScopeInsertData
                0x00000000080047a4       0xce build/debug_scope.o
                0x00000000080047a4                DebugScopeInsertData
 .text.DebugScopeStartWrite
                0x0000000008004872        0xa build/debug_scope.o
                0x0000000008004872                DebugScopeStartWrite
 .text.MX_NVIC_Init
                0x000000000800487c      0x164 build/main.o
 .text.MX_CORDIC_Init
                0x00000000080049e0       0x20 build/main.o
 .text.MX_DMA_Init
                0x0000000008004a00       0x30 build/main.o
 .text.MX_GPIO_Init
                0x0000000008004a30      0x1b0 build/main.o
 .text.MX_ADC1_Init
                0x0000000008004be0      0x244 build/main.o
 .text.MX_ADC2_Init
                0x0000000008004e24      0x194 build/main.o
 .text.MX_OPAMP1_Init
                0x0000000008004fb8       0xac build/main.o
 .text.MX_OPAMP2_Init
                0x0000000008005064       0xa8 build/main.o
 .text.MX_OPAMP3_Init
                0x000000000800510c       0xa8 build/main.o
 .text.MX_TIM1_Init
                0x00000000080051b4      0x268 build/main.o
 .text.MX_USART2_UART_Init
                0x000000000800541c      0x1b0 build/main.o
 .text.Error_Handler
                0x00000000080055cc        0x4 build/main.o
                0x00000000080055cc                Error_Handler
 .text.MX_TIM4_Init
                0x00000000080055d0       0x64 build/main.o
 .text.SystemClock_Config
                0x0000000008005634      0x114 build/main.o
                0x0000000008005634                SystemClock_Config
 .text.main     0x0000000008005748       0x40 build/main.o
                0x0000000008005748                main
 .text.MC_StartMotor1
                0x0000000008005788       0x20 build/mc_api.o
                0x0000000008005788                MC_StartMotor1
 .text.MC_StopMotor1
                0x00000000080057a8       0x10 build/mc_api.o
                0x00000000080057a8                MC_StopMotor1
 .text.MC_GetSTMStateMotor1
                0x00000000080057b8       0x10 build/mc_api.o
                0x00000000080057b8                MC_GetSTMStateMotor1
 .text.MCI_Init
                0x00000000080057c8       0x1e build/mc_interface.o
                0x00000000080057c8                MCI_Init
 .text.MCI_ExecSpeedRamp
                0x00000000080057e6       0x14 build/mc_interface.o
                0x00000000080057e6                MCI_ExecSpeedRamp
 .text.MCI_ExecSpeedSin
                0x00000000080057fa       0x1e build/mc_interface.o
                0x00000000080057fa                MCI_ExecSpeedSin
 .text.MCI_ExecTorqueRamp
                0x0000000008005818       0x16 build/mc_interface.o
                0x0000000008005818                MCI_ExecTorqueRamp
 .text.MCI_SetCurrentReferences
                0x000000000800582e       0x1c build/mc_interface.o
                0x000000000800582e                MCI_SetCurrentReferences
 .text.MCI_FaultProcessing
                0x000000000800584a       0x12 build/mc_interface.o
                0x000000000800584a                MCI_FaultProcessing
 .text.MCI_ExecBufferedCommands
                0x000000000800585c       0xa0 build/mc_interface.o
                0x000000000800585c                MCI_ExecBufferedCommands
 .text.MCI_GetSTMState
                0x00000000080058fc        0x4 build/mc_interface.o
                0x00000000080058fc                MCI_GetSTMState
 .text.MCI_GetOccurredFaults
                0x0000000008005900        0x4 build/mc_interface.o
                0x0000000008005900                MCI_GetOccurredFaults
 .text.MCI_GetCurrentFaults
                0x0000000008005904        0x4 build/mc_interface.o
                0x0000000008005904                MCI_GetCurrentFaults
 .text.MCI_StartMotor
                0x0000000008005908       0x30 build/mc_interface.o
                0x0000000008005908                MCI_StartMotor
 .text.MCI_StopMotor
                0x0000000008005938       0x3c build/mc_interface.o
                0x0000000008005938                MCI_StopMotor
 .text.MCI_FaultAcknowledged
                0x0000000008005974       0x28 build/mc_interface.o
                0x0000000008005974                MCI_FaultAcknowledged
 .text.MCI_GetFaultState
                0x000000000800599c        0xa build/mc_interface.o
                0x000000000800599c                MCI_GetFaultState
 .text.MCI_GetControlMode
                0x00000000080059a6        0x6 build/mc_interface.o
                0x00000000080059a6                MCI_GetControlMode
 .text.MCI_GetImposedMotorDirection
                0x00000000080059ac       0x4a build/mc_interface.o
                0x00000000080059ac                MCI_GetImposedMotorDirection
 .text.MCI_GetLastRampFinalSpeed
                0x00000000080059f6        0x6 build/mc_interface.o
                0x00000000080059f6                MCI_GetLastRampFinalSpeed
 .text.MCI_GetLastRampFinalTorque
                0x00000000080059fc        0x6 build/mc_interface.o
                0x00000000080059fc                MCI_GetLastRampFinalTorque
 .text.MCI_GetLastRampFinalDuration
                0x0000000008005a02        0x4 build/mc_interface.o
                0x0000000008005a02                MCI_GetLastRampFinalDuration
 .text.MCI_StopRamp
                0x0000000008005a06        0xa build/mc_interface.o
                0x0000000008005a06                MCI_StopRamp
 .text.MCI_GetAvrgMecSpeedUnit
                0x0000000008005a10        0xe build/mc_interface.o
                0x0000000008005a10                MCI_GetAvrgMecSpeedUnit
 .text.MCI_GetMecSpeedRefUnit
                0x0000000008005a1e        0xa build/mc_interface.o
                0x0000000008005a1e                MCI_GetMecSpeedRefUnit
 .text.MCI_GetIab
                0x0000000008005a28       0x1a build/mc_interface.o
                0x0000000008005a28                MCI_GetIab
 .text.MCI_GetIalphabeta
                0x0000000008005a42       0x1a build/mc_interface.o
                0x0000000008005a42                MCI_GetIalphabeta
 .text.MCI_GetIqd
                0x0000000008005a5c       0x1a build/mc_interface.o
                0x0000000008005a5c                MCI_GetIqd
 .text.MCI_GetIqdref
                0x0000000008005a76       0x1a build/mc_interface.o
                0x0000000008005a76                MCI_GetIqdref
 .text.MCI_GetVqd
                0x0000000008005a90       0x1c build/mc_interface.o
                0x0000000008005a90                MCI_GetVqd
 .text.MCI_GetValphabeta
                0x0000000008005aac       0x1c build/mc_interface.o
                0x0000000008005aac                MCI_GetValphabeta
 .text.MCI_GetTeref
                0x0000000008005ac8        0x8 build/mc_interface.o
                0x0000000008005ac8                MCI_GetTeref
 .text.MCI_Clear_Iqdref
                0x0000000008005ad0       0x14 build/mc_interface.o
                0x0000000008005ad0                MCI_Clear_Iqdref
 .text.MCM_Clarke
                0x0000000008005ae4       0x64 build/mc_math.o
                0x0000000008005ae4                MCM_Clarke
 .text.MCM_Trig_Functions
                0x0000000008005b48       0x2c build/mc_math.o
                0x0000000008005b48                MCM_Trig_Functions
 .text.MCM_Park
                0x0000000008005b74       0x9c build/mc_math.o
                0x0000000008005b74                MCM_Park
 .text.MCM_Rev_Park
                0x0000000008005c10       0x4c build/mc_math.o
                0x0000000008005c10                MCM_Rev_Park
 .text.MCM_Sqrt
                0x0000000008005c5c       0x20 build/mc_math.o
                0x0000000008005c5c                MCM_Sqrt
 .text.FOC_Clear
                0x0000000008005c7c       0x8c build/mc_tasks.o
                0x0000000008005c7c                FOC_Clear
 .text.MCboot   0x0000000008005d08      0x148 build/mc_tasks.o
                0x0000000008005d08                MCboot
 .text.FOC_InitAdditionalMethods
                0x0000000008005e50        0x2 build/mc_tasks.o
                0x0000000008005e50                FOC_InitAdditionalMethods
 *fill*         0x0000000008005e52        0x2 
 .text.FOC_CalcCurrRef
                0x0000000008005e54       0x34 build/mc_tasks.o
                0x0000000008005e54                FOC_CalcCurrRef
 .text.TSK_SetChargeBootCapDelayM1
                0x0000000008005e88        0xc build/mc_tasks.o
                0x0000000008005e88                TSK_SetChargeBootCapDelayM1
 .text.TSK_ChargeBootCapDelayHasElapsedM1
                0x0000000008005e94       0x14 build/mc_tasks.o
                0x0000000008005e94                TSK_ChargeBootCapDelayHasElapsedM1
 .text.TSK_SetStopPermanencyTimeM1
                0x0000000008005ea8        0xc build/mc_tasks.o
                0x0000000008005ea8                TSK_SetStopPermanencyTimeM1
 .text.TSK_MF_StopProcessing
                0x0000000008005eb4       0x44 build/mc_tasks.o
                0x0000000008005eb4                TSK_MF_StopProcessing
 .text.TSK_StopPermanencyTimeHasElapsedM1
                0x0000000008005ef8       0x14 build/mc_tasks.o
                0x0000000008005ef8                TSK_StopPermanencyTimeHasElapsedM1
 .text.TSK_MediumFrequencyTaskM1
                0x0000000008005f0c      0x3a4 build/mc_tasks.o
                0x0000000008005f0c                TSK_MediumFrequencyTaskM1
 .text.MC_Scheduler
                0x00000000080062b0       0x98 build/mc_tasks.o
                0x00000000080062b0                MC_Scheduler
 .text.TSK_HighFrequencyTask
                0x0000000008006348      0x1a0 build/mc_tasks.o
                0x0000000008006348                TSK_HighFrequencyTask
 .text.TSK_SafetyTask_PWMOFF
                0x00000000080064e8       0x94 build/mc_tasks.o
                0x00000000080064e8                TSK_SafetyTask_PWMOFF
 .text.TSK_SafetyTask
                0x000000000800657c       0x20 build/mc_tasks.o
                0x000000000800657c                TSK_SafetyTask
 .text.MC_RunMotorControlTasks
                0x000000000800659c       0x18 build/mc_tasks.o
                0x000000000800659c                MC_RunMotorControlTasks
 .text.TSK_HardwareFaultTask
                0x00000000080065b4       0x20 build/mc_tasks.o
                0x00000000080065b4                TSK_HardwareFaultTask
 .text.UI_HandleStartStopButton_cb
                0x00000000080065d4       0x14 build/mc_tasks.o
                0x00000000080065d4                UI_HandleStartStopButton_cb
 .text.mc_lock_pins
                0x00000000080065e8      0x190 build/mc_tasks.o
                0x00000000080065e8                mc_lock_pins
 .text.MX_MotorControl_Init
                0x0000000008006778       0x38 build/motorcontrol.o
                0x0000000008006778                MX_MotorControl_Init
 .text.PWMC_GetPhaseCurrents
                0x00000000080067b0        0x8 build/pwm_curr_fdbk.o
                0x00000000080067b0                PWMC_GetPhaseCurrents
 .text.PWMC_SetPhaseVoltage
                0x00000000080067b8      0x2ca build/pwm_curr_fdbk.o
                0x00000000080067b8                PWMC_SetPhaseVoltage
 .text.PWMC_SwitchOffPWM
                0x0000000008006a82        0x8 build/pwm_curr_fdbk.o
                0x0000000008006a82                PWMC_SwitchOffPWM
 .text.PWMC_SwitchOnPWM
                0x0000000008006a8a        0x8 build/pwm_curr_fdbk.o
                0x0000000008006a8a                PWMC_SwitchOnPWM
 .text.PWMC_CurrentReadingCalibr
                0x0000000008006a92       0x3c build/pwm_curr_fdbk.o
                0x0000000008006a92                PWMC_CurrentReadingCalibr
 .text.PWMC_CheckOverCurrent
                0x0000000008006ace        0x8 build/pwm_curr_fdbk.o
                0x0000000008006ace                PWMC_CheckOverCurrent
 .text.RI_MovString
                0x0000000008006ad6       0x2e build/register_interface.o
 .text.RI_SetReg
                0x0000000008006b04      0x79c build/register_interface.o
 .text.RI_GetReg
                0x00000000080072a0      0x888 build/register_interface.o
 .text.RI_SetRegCommandParser
                0x0000000008007b28       0x92 build/register_interface.o
                0x0000000008007b28                RI_SetRegCommandParser
 .text.RI_GetRegCommandParser
                0x0000000008007bba       0x5a build/register_interface.o
                0x0000000008007bba                RI_GetRegCommandParser
 .text.RI_GetIDSize
                0x0000000008007c14       0x20 build/register_interface.o
                0x0000000008007c14                RI_GetIDSize
 .text.RI_GetPtrReg
                0x0000000008007c34      0x1a0 build/register_interface.o
                0x0000000008007c34                RI_GetPtrReg
 .text.RCM_RegisterRegConv
                0x0000000008007dd4      0x130 build/regular_conversion_manager.o
                0x0000000008007dd4                RCM_RegisterRegConv
 .text.RCM_ExecRegularConv
                0x0000000008007f04      0x17c build/regular_conversion_manager.o
                0x0000000008007f04                RCM_ExecRegularConv
 .text.RCM_ExecUserConv
                0x0000000008008080       0x60 build/regular_conversion_manager.o
                0x0000000008008080                RCM_ExecUserConv
 .text.RCM_ExecNextConv
                0x00000000080080e0       0xa0 build/regular_conversion_manager.o
                0x00000000080080e0                RCM_ExecNextConv
 .text.RCM_ReadOngoingConv
                0x0000000008008180       0x5c build/regular_conversion_manager.o
                0x0000000008008180                RCM_ReadOngoingConv
 .text.HAL_MspInit
                0x00000000080081dc       0x40 build/stm32g4xx_hal_msp.o
                0x00000000080081dc                HAL_MspInit
 .text.HAL_TIM_Encoder_MspInit
                0x000000000800821c       0x68 build/stm32g4xx_hal_msp.o
                0x000000000800821c                HAL_TIM_Encoder_MspInit
 .text.ADC1_2_IRQHandler
                0x0000000008008284       0x10 build/stm32g4xx_mc_it.o
                0x0000000008008284                ADC1_2_IRQHandler
 .text.TIM1_UP_TIM16_IRQHandler
                0x0000000008008294       0x1c build/stm32g4xx_mc_it.o
                0x0000000008008294                TIM1_UP_TIM16_IRQHandler
 .text.TIM1_BRK_TIM15_IRQHandler
                0x00000000080082b0       0x40 build/stm32g4xx_mc_it.o
                0x00000000080082b0                TIM1_BRK_TIM15_IRQHandler
 .text.DMA2_Channel2_IRQHandler
                0x00000000080082f0       0x24 build/stm32g4xx_mc_it.o
                0x00000000080082f0                DMA2_Channel2_IRQHandler
 .text.USART2_IRQHandler
                0x0000000008008314      0x100 build/stm32g4xx_mc_it.o
                0x0000000008008314                USART2_IRQHandler
 .text.HardFault_Handler
                0x0000000008008414        0x8 build/stm32g4xx_mc_it.o
                0x0000000008008414                HardFault_Handler
 .text.SysTick_Handler
                0x000000000800841c       0x2c build/stm32g4xx_mc_it.o
                0x000000000800841c                SysTick_Handler
 .text.EXTI15_10_IRQHandler
                0x0000000008008448       0x20 build/stm32g4xx_mc_it.o
                0x0000000008008448                EXTI15_10_IRQHandler
 .text.SystemInit
                0x0000000008008468       0x14 build/system_stm32g4xx.o
                0x0000000008008468                SystemInit
 .text.UASPEP_DAMCONFIG_TX
                0x000000000800847c       0x54 build/usart_aspep_driver.o
                0x000000000800847c                UASPEP_DAMCONFIG_TX
 .text.UASPEP_DAMCONFIG_RX
                0x00000000080084d0       0x68 build/usart_aspep_driver.o
                0x00000000080084d0                UASPEP_DAMCONFIG_RX
 .text.UASPEP_INIT
                0x0000000008008538       0x10 build/usart_aspep_driver.o
                0x0000000008008538                UASPEP_INIT
 .text.UASPEP_SEND_PACKET
                0x0000000008008548       0x44 build/usart_aspep_driver.o
                0x0000000008008548                UASPEP_SEND_PACKET
 .text.UASPEP_RECEIVE_BUFFER
                0x000000000800858c       0x44 build/usart_aspep_driver.o
                0x000000000800858c                UASPEP_RECEIVE_BUFFER
 .text.UASPEP_IDLE_ENABLE
                0x00000000080085d0       0x1a build/usart_aspep_driver.o
                0x00000000080085d0                UASPEP_IDLE_ENABLE
 *fill*         0x00000000080085ea        0x2 
 .text.Reset_Handler
                0x00000000080085ec       0x50 build/startup_stm32g431xx.o
                0x00000000080085ec                Reset_Handler
 .text.Default_Handler
                0x000000000800863c        0x2 build/startup_stm32g431xx.o
                0x000000000800863c                RTC_Alarm_IRQHandler
                0x000000000800863c                EXTI2_IRQHandler
                0x000000000800863c                TIM8_TRG_COM_IRQHandler
                0x000000000800863c                TIM8_CC_IRQHandler
                0x000000000800863c                DebugMon_Handler
                0x000000000800863c                TIM1_CC_IRQHandler
                0x000000000800863c                USB_HP_IRQHandler
                0x000000000800863c                CORDIC_IRQHandler
                0x000000000800863c                PendSV_Handler
                0x000000000800863c                NMI_Handler
                0x000000000800863c                EXTI3_IRQHandler
                0x000000000800863c                I2C3_ER_IRQHandler
                0x000000000800863c                EXTI0_IRQHandler
                0x000000000800863c                I2C2_EV_IRQHandler
                0x000000000800863c                FPU_IRQHandler
                0x000000000800863c                FDCAN1_IT1_IRQHandler
                0x000000000800863c                UsageFault_Handler
                0x000000000800863c                SPI1_IRQHandler
                0x000000000800863c                TIM6_DAC_IRQHandler
                0x000000000800863c                TIM8_UP_IRQHandler
                0x000000000800863c                DMA1_Channel4_IRQHandler
                0x000000000800863c                USART3_IRQHandler
                0x000000000800863c                TIM4_IRQHandler
                0x000000000800863c                DMA2_Channel1_IRQHandler
                0x000000000800863c                I2C1_EV_IRQHandler
                0x000000000800863c                DMA1_Channel6_IRQHandler
                0x000000000800863c                UART4_IRQHandler
                0x000000000800863c                DMA2_Channel4_IRQHandler
                0x000000000800863c                TIM3_IRQHandler
                0x000000000800863c                RCC_IRQHandler
                0x000000000800863c                DMA1_Channel1_IRQHandler
                0x000000000800863c                Default_Handler
                0x000000000800863c                RTC_TAMP_LSECSS_IRQHandler
                0x000000000800863c                FMAC_IRQHandler
                0x000000000800863c                TIM7_IRQHandler
                0x000000000800863c                UCPD1_IRQHandler
                0x000000000800863c                I2C3_EV_IRQHandler
                0x000000000800863c                EXTI9_5_IRQHandler
                0x000000000800863c                RTC_WKUP_IRQHandler
                0x000000000800863c                PVD_PVM_IRQHandler
                0x000000000800863c                SPI2_IRQHandler
                0x000000000800863c                MemManage_Handler
                0x000000000800863c                SVC_Handler
                0x000000000800863c                DMA2_Channel5_IRQHandler
                0x000000000800863c                CRS_IRQHandler
                0x000000000800863c                DMA1_Channel5_IRQHandler
                0x000000000800863c                USB_LP_IRQHandler
                0x000000000800863c                EXTI4_IRQHandler
                0x000000000800863c                RNG_IRQHandler
                0x000000000800863c                TIM1_TRG_COM_TIM17_IRQHandler
                0x000000000800863c                DMA1_Channel3_IRQHandler
                0x000000000800863c                WWDG_IRQHandler
                0x000000000800863c                LPUART1_IRQHandler
                0x000000000800863c                DMA2_Channel6_IRQHandler
                0x000000000800863c                FDCAN1_IT0_IRQHandler
                0x000000000800863c                TIM2_IRQHandler
                0x000000000800863c                COMP1_2_3_IRQHandler
                0x000000000800863c                EXTI1_IRQHandler
                0x000000000800863c                I2C2_ER_IRQHandler
                0x000000000800863c                DMA1_Channel2_IRQHandler
                0x000000000800863c                TIM8_BRK_IRQHandler
                0x000000000800863c                FLASH_IRQHandler
                0x000000000800863c                BusFault_Handler
                0x000000000800863c                USART1_IRQHandler
                0x000000000800863c                SPI3_IRQHandler
                0x000000000800863c                I2C1_ER_IRQHandler
                0x000000000800863c                LPTIM1_IRQHandler
                0x000000000800863c                DMAMUX_OVR_IRQHandler
                0x000000000800863c                USBWakeUp_IRQHandler
                0x000000000800863c                SAI1_IRQHandler
                0x000000000800863c                DMA2_Channel3_IRQHandler
                0x000000000800863c                COMP4_IRQHandler
 *(.glue_7)
 .glue_7        0x000000000800863e        0x0 linker stubs
 *(.glue_7t)
 .glue_7t       0x000000000800863e        0x0 linker stubs
 *(.eh_frame)
 *fill*         0x000000000800863e        0x2 
 .eh_frame      0x0000000008008640        0x0 /usr/lib/gcc/arm-none-eabi/9.2.1/thumb/v7e-m+fp/hard/crtbegin.o
 *(.init)
 .init          0x0000000008008640        0x4 /usr/lib/gcc/arm-none-eabi/9.2.1/thumb/v7e-m+fp/hard/crti.o
                0x0000000008008640                _init
 .init          0x0000000008008644        0x8 /usr/lib/gcc/arm-none-eabi/9.2.1/thumb/v7e-m+fp/hard/crtn.o
 *(.fini)
 .fini          0x000000000800864c        0x4 /usr/lib/gcc/arm-none-eabi/9.2.1/thumb/v7e-m+fp/hard/crti.o
                0x000000000800864c                _fini
 .fini          0x0000000008008650        0x8 /usr/lib/gcc/arm-none-eabi/9.2.1/thumb/v7e-m+fp/hard/crtn.o
                0x0000000008008658                . = ALIGN (0x4)
                0x0000000008008658                _etext = .

.vfp11_veneer   0x0000000008008658        0x0
 .vfp11_veneer  0x0000000008008658        0x0 linker stubs

.v4_bx          0x0000000008008658        0x0
 .v4_bx         0x0000000008008658        0x0 linker stubs

.iplt           0x0000000008008658        0x0
 .iplt          0x0000000008008658        0x0 /usr/lib/gcc/arm-none-eabi/9.2.1/thumb/v7e-m+fp/hard/crtbegin.o

.rodata         0x0000000008008658      0x338
                0x0000000008008658                . = ALIGN (0x4)
 *(.rodata)
 *(.rodata*)
 .rodata.USART_PRESCALER_TAB
                0x0000000008008658       0x30 build/stm32g4xx_ll_usart.o
 .rodata.CRC4_Lookup4
                0x0000000008008688       0x10 build/aspep.o
 .rodata.CRC4_Lookup8
                0x0000000008008698      0x100 build/aspep.o
 .rodata.CTL_BOARD
                0x0000000008008798        0xd build/mc_configuration_registers.o
                0x0000000008008798                CTL_BOARD
 *fill*         0x00000000080087a5        0x3 
 .rodata.FIRMWARE_NAME
                0x00000000080087a8       0x18 build/mc_configuration_registers.o
                0x00000000080087a8                FIRMWARE_NAME
 .rodata.M1_ApplicationConfig_reg
                0x00000000080087c0        0xe build/mc_configuration_registers.o
 *fill*         0x00000000080087ce        0x2 
 .rodata.M1_FOCConfig_reg
                0x00000000080087d0        0xe build/mc_configuration_registers.o
 *fill*         0x00000000080087de        0x2 
 .rodata.M1_MotorConfig_reg
                0x00000000080087e0       0x3c build/mc_configuration_registers.o
                0x00000000080087e0                M1_MotorConfig_reg
 .rodata.M1_PWR_BOARD
                0x000000000800881c        0xd build/mc_configuration_registers.o
 *fill*         0x0000000008008829        0x3 
 .rodata.globalConfig_reg
                0x000000000800882c        0xa build/mc_configuration_registers.o
                0x000000000800882c                globalConfig_reg
 *fill*         0x0000000008008836        0x2 
 .rodata.R3_2_ParamsM1
                0x0000000008008838       0xcc build/mc_parameters.o
                0x0000000008008838                R3_2_ParamsM1
 .rodata.R3_3_OPAMPParamsM1
                0x0000000008008904       0x6c build/mc_parameters.o
                0x0000000008008904                R3_3_OPAMPParamsM1
 .rodata.AHBPrescTable
                0x0000000008008970       0x10 build/system_stm32g4xx.o
                0x0000000008008970                AHBPrescTable
 .rodata.APBPrescTable
                0x0000000008008980        0x8 build/system_stm32g4xx.o
                0x0000000008008980                APBPrescTable
 .rodata.CHANNEL_OFFSET_TAB
                0x0000000008008988        0x6 build/usart_aspep_driver.o
                0x0000000008008990                . = ALIGN (0x4)
 *fill*         0x000000000800898e        0x2 

.rel.dyn        0x0000000008008990        0x0
 .rel.iplt      0x0000000008008990        0x0 /usr/lib/gcc/arm-none-eabi/9.2.1/thumb/v7e-m+fp/hard/crtbegin.o

.ARM.extab      0x0000000008008990        0x0
                0x0000000008008990                . = ALIGN (0x4)
 *(.ARM.extab* .gnu.linkonce.armextab.*)
                0x0000000008008990                . = ALIGN (0x4)

.ARM            0x0000000008008990        0x0
                0x0000000008008990                . = ALIGN (0x4)
                0x0000000008008990                __exidx_start = .
 *(.ARM.exidx*)
                0x0000000008008990                __exidx_end = .
                0x0000000008008990                . = ALIGN (0x4)

.preinit_array  0x0000000008008990        0x0
                0x0000000008008990                . = ALIGN (0x4)
                0x0000000008008990                PROVIDE (__preinit_array_start = .)
 *(.preinit_array*)
                0x0000000008008990                PROVIDE (__preinit_array_end = .)
                0x0000000008008990                . = ALIGN (0x4)

.init_array     0x0000000008008990        0x4
                0x0000000008008990                . = ALIGN (0x4)
                0x0000000008008990                PROVIDE (__init_array_start = .)
 *(SORT_BY_NAME(.init_array.*))
 *(.init_array*)
 .init_array    0x0000000008008990        0x4 /usr/lib/gcc/arm-none-eabi/9.2.1/thumb/v7e-m+fp/hard/crtbegin.o
                0x0000000008008994                PROVIDE (__init_array_end = .)
                0x0000000008008994                . = ALIGN (0x4)

.fini_array     0x0000000008008994        0x4
                0x0000000008008994                . = ALIGN (0x4)
                0x0000000008008994                PROVIDE (__fini_array_start = .)
 *(SORT_BY_NAME(.fini_array.*))
 *(.fini_array*)
 .fini_array    0x0000000008008994        0x4 /usr/lib/gcc/arm-none-eabi/9.2.1/thumb/v7e-m+fp/hard/crtbegin.o
                0x0000000008008998                PROVIDE (__fini_array_end = .)
                0x0000000008008998                . = ALIGN (0x4)
                0x0000000008008998                _sidata = LOADADDR (.data)

.data           0x0000000020000000     0x1ef8 load address 0x0000000008008998
                0x0000000020000000                . = ALIGN (0x4)
                0x0000000020000000                _sdata = .
 *(.data)
 *(.data*)
 .data.uwTickFreq
                0x0000000020000000        0x4 build/stm32g4xx_hal.o
                0x0000000020000000                uwTickFreq
 .data.uwTickPrio
                0x0000000020000004        0x4 build/stm32g4xx_hal.o
                0x0000000020000004                uwTickPrio
 .data.startMotorTime
                0x0000000020000008        0x8 build/mc_api.o
 .data.BusVoltageSensor_M1
                0x0000000020000010       0x28 build/mc_config.o
                0x0000000020000010                BusVoltageSensor_M1
 .data.CircleLimitationM1
                0x0000000020000038       0xb4 build/mc_config.o
                0x0000000020000038                CircleLimitationM1
 .data.PIDIdHandle_M1
                0x00000000200000ec       0x2c build/mc_config.o
                0x00000000200000ec                PIDIdHandle_M1
 .data.PIDIqHandle_M1
                0x0000000020000118       0x2c build/mc_config.o
                0x0000000020000118                PIDIqHandle_M1
 .data.PIDSpeedHandle_M1
                0x0000000020000144       0x2c build/mc_config.o
                0x0000000020000144                PIDSpeedHandle_M1
 .data.PQD_MotorPowMeasM1
                0x0000000020000170       0x10 build/mc_config.o
                0x0000000020000170                PQD_MotorPowMeasM1
 .data.PWM_Handle_M1
                0x0000000020000180       0x90 build/mc_config.o
                0x0000000020000180                PWM_Handle_M1
 .data.RampExtMngrHFParamsM1
                0x0000000020000210       0x18 build/mc_config.o
                0x0000000020000210                RampExtMngrHFParamsM1
 .data.RevUpControlM1
                0x0000000020000228       0x78 build/mc_config.o
                0x0000000020000228                RevUpControlM1
 .data.STO_CR_M1
                0x00000000200002a0      0x184 build/mc_config.o
                0x00000000200002a0                STO_CR_M1
 .data.STO_M1   0x0000000020000424       0x14 build/mc_config.o
                0x0000000020000424                STO_M1
 .data.STO_PLL_M1
                0x0000000020000438      0x128 build/mc_config.o
                0x0000000020000438                STO_PLL_M1
 .data.SpeednTorqCtrlM1
                0x0000000020000560       0x34 build/mc_config.o
                0x0000000020000560                SpeednTorqCtrlM1
 .data.TempSensor_M1
                0x0000000020000594       0x28 build/mc_config.o
                0x0000000020000594                TempSensor_M1
 .data.VirtualSpeedSensorM1
                0x00000000200005bc       0x38 build/mc_config.o
                0x00000000200005bc                VirtualSpeedSensorM1
 .data.debugScopeM1
                0x00000000200005f4     0x1814 build/mc_config.o
                0x00000000200005f4                debugScopeM1
 .data.pMPM     0x0000000020001e08        0x4 build/mc_config.o
                0x0000000020001e08                pMPM
 .data.pPIDId   0x0000000020001e0c        0x4 build/mc_config.o
                0x0000000020001e0c                pPIDId
 .data.pPIDIq   0x0000000020001e10        0x4 build/mc_config.o
                0x0000000020001e10                pPIDIq
 .data.pSTC     0x0000000020001e14        0x4 build/mc_config.o
                0x0000000020001e14                pSTC
 .data.pTemperatureSensor
                0x0000000020001e18        0x4 build/mc_config.o
                0x0000000020001e18                pTemperatureSensor
 .data.ApplicationConfig_reg
                0x0000000020001e1c        0x4 build/mc_configuration_registers.o
                0x0000000020001e1c                ApplicationConfig_reg
 .data.FOCConfig_reg
                0x0000000020001e20        0x4 build/mc_configuration_registers.o
                0x0000000020001e20                FOCConfig_reg
 .data.MotorConfig_reg
                0x0000000020001e24        0x4 build/mc_configuration_registers.o
                0x0000000020001e24                MotorConfig_reg
 .data.PWR_BOARD_NAME
                0x0000000020001e28        0x4 build/mc_configuration_registers.o
                0x0000000020001e28                PWR_BOARD_NAME
 .data.MCPA_UART_A
                0x0000000020001e2c       0x2c build/mcp_config.o
                0x0000000020001e2c                MCPA_UART_A
 .data.MCP_Over_UartA
                0x0000000020001e58       0x10 build/mcp_config.o
                0x0000000020001e58                MCP_Over_UartA
 .data.UASPEP_A
                0x0000000020001e68       0x14 build/mcp_config.o
 .data.aspepOverUartA
                0x0000000020001e7c       0x74 build/mcp_config.o
                0x0000000020001e7c                aspepOverUartA
 .data.SystickDividerCounter.15134
                0x0000000020001ef0        0x1 build/stm32g4xx_mc_it.o
 *fill*         0x0000000020001ef1        0x3 
 .data.SystemCoreClock
                0x0000000020001ef4        0x4 build/system_stm32g4xx.o
                0x0000000020001ef4                SystemCoreClock
 *(.RamFunc)
 *(.RamFunc*)
                0x0000000020001ef8                . = ALIGN (0x4)
                0x0000000020001ef8                _edata = .

.tm_clone_table
                0x0000000020001ef8        0x0 load address 0x000000000800a890
 .tm_clone_table
                0x0000000020001ef8        0x0 /usr/lib/gcc/arm-none-eabi/9.2.1/thumb/v7e-m+fp/hard/crtbegin.o
 .tm_clone_table
                0x0000000020001ef8        0x0 /usr/lib/gcc/arm-none-eabi/9.2.1/thumb/v7e-m+fp/hard/crtend.o

.igot.plt       0x0000000020001ef8        0x0 load address 0x000000000800a890
 .igot.plt      0x0000000020001ef8        0x0 /usr/lib/gcc/arm-none-eabi/9.2.1/thumb/v7e-m+fp/hard/crtbegin.o
                0x0000000020001ef8                . = ALIGN (0x4)

.bss            0x0000000020001ef8     0x12cc load address 0x000000000800a890
                0x0000000020001ef8                _sbss = .
                0x0000000020001ef8                __bss_start__ = _sbss
 *(.bss)
 .bss           0x0000000020001ef8       0x1c /usr/lib/gcc/arm-none-eabi/9.2.1/thumb/v7e-m+fp/hard/crtbegin.o
 *(.bss*)
 .bss.GLOBAL_TIMESTAMP
                0x0000000020001f14        0x4 build/mcpa.o
                0x0000000020001f14                GLOBAL_TIMESTAMP
 .bss.prevAngle.13774
                0x0000000020001f18        0x2 build/speed_torq_ctrl.o
 .bss.sectionCounter.13775
                0x0000000020001f1a        0x2 build/speed_torq_ctrl.o
 *fill*         0x0000000020001f1c        0x4 
 .bss.TickMSCounter
                0x0000000020001f20        0x8 build/debug_scope.o
                0x0000000020001f20                TickMSCounter
 .bss.RealBusVoltageSensorFilterBufferM1
                0x0000000020001f28        0xc build/mc_config.o
 .bss.FOCVars   0x0000000020001f34       0x26 build/mc_tasks.o
 .bss.bMCBootCompleted
                0x0000000020001f5a        0x1 build/mc_tasks.o
 *fill*         0x0000000020001f5b        0x1 
 .bss.hBootCapDelayCounterM1
                0x0000000020001f5c        0x2 build/mc_tasks.o
 .bss.hMFTaskCounterM1
                0x0000000020001f5e        0x2 build/mc_tasks.o
 .bss.hStopPermanencyCounterM1
                0x0000000020001f60        0x2 build/mc_tasks.o
 *fill*         0x0000000020001f62        0x2 
 .bss.pCLM      0x0000000020001f64        0x4 build/mc_tasks.o
 .bss.pREMNG    0x0000000020001f68        0x4 build/mc_tasks.o
 .bss.pwmcHandle
                0x0000000020001f6c        0x4 build/mc_tasks.o
 .bss.MCPAsyncBuffUARTA_A
                0x0000000020001f70      0x806 build/mcp_config.o
 *fill*         0x0000000020002776        0x2 
 .bss.MCPAsyncBuffUARTA_B
                0x0000000020002778      0x806 build/mcp_config.o
 *fill*         0x0000000020002f7e        0x2 
 .bss.MCPSyncRXBuff
                0x0000000020002f80       0x82 build/mcp_config.o
 *fill*         0x0000000020003002        0x2 
 .bss.MCPSyncTxBuff
                0x0000000020003004       0x86 build/mcp_config.o
 .bss.nullData16.15666
                0x000000002000308a        0x2 build/register_interface.o
 .bss.RCM_CB_array
                0x000000002000308c       0x20 build/regular_conversion_manager.o
 .bss.RCM_NoInj_array
                0x00000000200030ac       0x18 build/regular_conversion_manager.o
 .bss.RCM_UserConvHandle
                0x00000000200030c4        0x1 build/regular_conversion_manager.o
 .bss.RCM_UserConvState
                0x00000000200030c5        0x1 build/regular_conversion_manager.o
 .bss.RCM_UserConvValue
                0x00000000200030c6        0x2 build/regular_conversion_manager.o
 .bss.RCM_currentHandle
                0x00000000200030c8        0x1 build/regular_conversion_manager.o
 *fill*         0x00000000200030c9        0x3 
 .bss.RCM_handle_array
                0x00000000200030cc       0x10 build/regular_conversion_manager.o
 *(COMMON)
 COMMON         0x00000000200030dc        0x4 build/stm32g4xx_hal.o
                0x00000000200030dc                uwTick
 COMMON         0x00000000200030e0       0x4c build/main.o
                0x00000000200030e0                htim4
 COMMON         0x000000002000312c       0x24 build/mc_config.o
                0x000000002000312c                Mci
 COMMON         0x0000000020003150       0x6e build/mcp_config.o
                0x0000000020003150                dataPtrTableBuffA
                0x0000000020003178                MCP_UserCallBack
                0x0000000020003180                dataSizeTableBuffA
                0x000000002000318c                dataPtrTableA
                0x00000000200031b4                dataSizeTableA
 *fill*         0x00000000200031be        0x2 
 COMMON         0x00000000200031c0        0x4 build/motorcontrol.o
                0x00000000200031c0                pMCI
                0x00000000200031c4                . = ALIGN (0x4)
                0x00000000200031c4                _ebss = .
                0x00000000200031c4                __bss_end__ = _ebss

._user_heap_stack
                0x00000000200031c4      0x604 load address 0x000000000800a890
                0x00000000200031c8                . = ALIGN (0x8)
 *fill*         0x00000000200031c4        0x4 
                [!provide]                        PROVIDE (end = .)
                [!provide]                        PROVIDE (_end = .)
                0x00000000200033c8                . = (. + _Min_Heap_Size)
 *fill*         0x00000000200031c8      0x200 
                0x00000000200037c8                . = (. + _Min_Stack_Size)
 *fill*         0x00000000200033c8      0x400 
                0x00000000200037c8                . = ALIGN (0x8)

/DISCARD/
 libc.a(*)
 libm.a(*)
 libgcc.a(*)

.ARM.attributes
                0x0000000000000000       0x30
 *(.ARM.attributes)
 .ARM.attributes
                0x0000000000000000       0x1e /usr/lib/gcc/arm-none-eabi/9.2.1/thumb/v7e-m+fp/hard/crti.o
 .ARM.attributes
                0x000000000000001e       0x34 /usr/lib/gcc/arm-none-eabi/9.2.1/thumb/v7e-m+fp/hard/crtbegin.o
 .ARM.attributes
                0x0000000000000052       0x34 build/stm32g4xx_hal.o
 .ARM.attributes
                0x0000000000000086       0x34 build/stm32g4xx_hal_cortex.o
 .ARM.attributes
                0x00000000000000ba       0x34 build/stm32g4xx_hal_gpio.o
 .ARM.attributes
                0x00000000000000ee       0x34 build/stm32g4xx_hal_pwr_ex.o
 .ARM.attributes
                0x0000000000000122       0x34 build/stm32g4xx_hal_rcc.o
 .ARM.attributes
                0x0000000000000156       0x34 build/stm32g4xx_hal_tim.o
 .ARM.attributes
                0x000000000000018a       0x34 build/stm32g4xx_hal_tim_ex.o
 .ARM.attributes
                0x00000000000001be       0x34 build/stm32g4xx_ll_adc.o
 .ARM.attributes
                0x00000000000001f2       0x34 build/stm32g4xx_ll_exti.o
 .ARM.attributes
                0x0000000000000226       0x34 build/stm32g4xx_ll_gpio.o
 .ARM.attributes
                0x000000000000025a       0x34 build/stm32g4xx_ll_opamp.o
 .ARM.attributes
                0x000000000000028e       0x34 build/stm32g4xx_ll_rcc.o
 .ARM.attributes
                0x00000000000002c2       0x34 build/stm32g4xx_ll_tim.o
 .ARM.attributes
                0x00000000000002f6       0x34 build/stm32g4xx_ll_usart.o
 .ARM.attributes
                0x000000000000032a       0x34 build/stm32g4xx_ll_utils.o
 .ARM.attributes
                0x000000000000035e       0x34 build/bus_voltage_sensor.o
 .ARM.attributes
                0x0000000000000392       0x34 build/circle_limitation.o
 .ARM.attributes
                0x00000000000003c6       0x34 build/mcp.o
 .ARM.attributes
                0x00000000000003fa       0x34 build/mcpa.o
 .ARM.attributes
                0x000000000000042e       0x34 build/ntc_temperature_sensor.o
 .ARM.attributes
                0x0000000000000462       0x34 build/pid_regulator.o
 .ARM.attributes
                0x0000000000000496       0x34 build/pqd_motor_power_measurement.o
 .ARM.attributes
                0x00000000000004ca       0x34 build/pwm_common.o
 .ARM.attributes
                0x00000000000004fe       0x34 build/r_divider_bus_voltage_sensor.o
 .ARM.attributes
                0x0000000000000532       0x34 build/ramp_ext_mngr.o
 .ARM.attributes
                0x0000000000000566       0x34 build/revup_ctrl.o
 .ARM.attributes
                0x000000000000059a       0x34 build/speed_pos_fdbk.o
 .ARM.attributes
                0x00000000000005ce       0x34 build/speed_torq_ctrl.o
 .ARM.attributes
                0x0000000000000602       0x34 build/sto_cordic_speed_pos_fdbk.o
 .ARM.attributes
                0x0000000000000636       0x34 build/sto_pll_speed_pos_fdbk.o
 .ARM.attributes
                0x000000000000066a       0x34 build/virtual_speed_sensor.o
 .ARM.attributes
                0x000000000000069e       0x34 build/r3_2_g4xx_pwm_curr_fdbk.o
 .ARM.attributes
                0x00000000000006d2       0x34 build/aspep.o
 .ARM.attributes
                0x0000000000000706       0x34 build/debug_scope.o
 .ARM.attributes
                0x000000000000073a       0x34 build/main.o
 .ARM.attributes
                0x000000000000076e       0x34 build/mc_api.o
 .ARM.attributes
                0x00000000000007a2       0x39 build/mc_config.o
 .ARM.attributes
                0x00000000000007db       0x39 build/mc_configuration_registers.o
 .ARM.attributes
                0x0000000000000814       0x34 build/mc_interface.o
 .ARM.attributes
                0x0000000000000848       0x34 build/mc_math.o
 .ARM.attributes
                0x000000000000087c       0x39 build/mc_parameters.o
 .ARM.attributes
                0x00000000000008b5       0x34 build/mc_tasks.o
 .ARM.attributes
                0x00000000000008e9       0x39 build/mcp_config.o
 .ARM.attributes
                0x0000000000000922       0x34 build/motorcontrol.o
 .ARM.attributes
                0x0000000000000956       0x34 build/pwm_curr_fdbk.o
 .ARM.attributes
                0x000000000000098a       0x34 build/register_interface.o
 .ARM.attributes
                0x00000000000009be       0x34 build/regular_conversion_manager.o
 .ARM.attributes
                0x00000000000009f2       0x34 build/stm32g4xx_hal_msp.o
 .ARM.attributes
                0x0000000000000a26       0x34 build/stm32g4xx_mc_it.o
 .ARM.attributes
                0x0000000000000a5a       0x34 build/system_stm32g4xx.o
 .ARM.attributes
                0x0000000000000a8e       0x34 build/usart_aspep_driver.o
 .ARM.attributes
                0x0000000000000ac2       0x21 build/startup_stm32g431xx.o
 .ARM.attributes
                0x0000000000000ae3       0x34 /usr/lib/gcc/arm-none-eabi/9.2.1/../../../arm-none-eabi/lib/thumb/v7e-m+fp/hard/libc_nano.a(lib_a-init.o)
 .ARM.attributes
                0x0000000000000b17       0x1c /usr/lib/gcc/arm-none-eabi/9.2.1/../../../arm-none-eabi/lib/thumb/v7e-m+fp/hard/libc_nano.a(lib_a-memcpy.o)
 .ARM.attributes
                0x0000000000000b33       0x34 /usr/lib/gcc/arm-none-eabi/9.2.1/../../../arm-none-eabi/lib/thumb/v7e-m+fp/hard/libc_nano.a(lib_a-memset.o)
 .ARM.attributes
                0x0000000000000b67       0x32 /usr/lib/gcc/arm-none-eabi/9.2.1/thumb/v7e-m+fp/hard/crtend.o
 .ARM.attributes
                0x0000000000000b99       0x1e /usr/lib/gcc/arm-none-eabi/9.2.1/thumb/v7e-m+fp/hard/crtn.o
OUTPUT(build/STM32_MCSDK_Project.elf elf32-littlearm)
LOAD linker stubs
LOAD /usr/lib/gcc/arm-none-eabi/9.2.1/../../../arm-none-eabi/lib/thumb/v7e-m+fp/hard/libc.a
LOAD /usr/lib/gcc/arm-none-eabi/9.2.1/../../../arm-none-eabi/lib/thumb/v7e-m+fp/hard/libm.a
LOAD /usr/lib/gcc/arm-none-eabi/9.2.1/thumb/v7e-m+fp/hard/libgcc.a

.comment        0x0000000000000000       0xa7
 .comment       0x0000000000000000       0x59 /usr/lib/gcc/arm-none-eabi/9.2.1/thumb/v7e-m+fp/hard/crtbegin.o
                                         0x5a (size before relaxing)
 .comment       0x0000000000000059       0x5a build/stm32g4xx_hal.o
 .comment       0x0000000000000059       0x5a build/stm32g4xx_hal_cortex.o
 .comment       0x0000000000000059       0x5a build/stm32g4xx_hal_gpio.o
 .comment       0x0000000000000059       0x5a build/stm32g4xx_hal_pwr_ex.o
 .comment       0x0000000000000059       0x5a build/stm32g4xx_hal_rcc.o
 .comment       0x0000000000000059       0x5a build/stm32g4xx_hal_tim.o
 .comment       0x0000000000000059       0x5a build/stm32g4xx_hal_tim_ex.o
 .comment       0x0000000000000059       0x5a build/stm32g4xx_ll_adc.o
 .comment       0x0000000000000059       0x5a build/stm32g4xx_ll_exti.o
 .comment       0x0000000000000059       0x5a build/stm32g4xx_ll_gpio.o
 .comment       0x0000000000000059       0x5a build/stm32g4xx_ll_opamp.o
 .comment       0x0000000000000059       0x5a build/stm32g4xx_ll_rcc.o
 .comment       0x0000000000000059       0x5a build/stm32g4xx_ll_tim.o
 .comment       0x0000000000000059       0x5a build/stm32g4xx_ll_usart.o
 .comment       0x0000000000000059       0x5a build/stm32g4xx_ll_utils.o
 .comment       0x0000000000000059       0x5a build/bus_voltage_sensor.o
 .comment       0x0000000000000059       0x5a build/circle_limitation.o
 .comment       0x0000000000000059       0x5a build/mcp.o
 .comment       0x0000000000000059       0x5a build/mcpa.o
 .comment       0x0000000000000059       0x5a build/ntc_temperature_sensor.o
 .comment       0x0000000000000059       0x5a build/pid_regulator.o
 .comment       0x0000000000000059       0x5a build/pqd_motor_power_measurement.o
 .comment       0x0000000000000059       0x5a build/pwm_common.o
 .comment       0x0000000000000059       0x5a build/r_divider_bus_voltage_sensor.o
 .comment       0x0000000000000059       0x5a build/ramp_ext_mngr.o
 .comment       0x0000000000000059       0x5a build/revup_ctrl.o
 .comment       0x0000000000000059       0x5a build/speed_pos_fdbk.o
 .comment       0x0000000000000059       0x5a build/speed_torq_ctrl.o
 .comment       0x0000000000000059       0x5a build/sto_cordic_speed_pos_fdbk.o
 .comment       0x0000000000000059       0x5a build/sto_pll_speed_pos_fdbk.o
 .comment       0x0000000000000059       0x5a build/virtual_speed_sensor.o
 .comment       0x0000000000000059       0x5a build/r3_2_g4xx_pwm_curr_fdbk.o
 .comment       0x0000000000000059       0x5a build/aspep.o
 .comment       0x0000000000000059       0x5a build/debug_scope.o
 .comment       0x0000000000000059       0x5a build/main.o
 .comment       0x0000000000000059       0x5a build/mc_api.o
 .comment       0x0000000000000059       0x5a build/mc_config.o
 .comment       0x0000000000000059       0x5a build/mc_configuration_registers.o
 .comment       0x0000000000000059       0x5a build/mc_interface.o
 .comment       0x0000000000000059       0x5a build/mc_math.o
 .comment       0x0000000000000059       0x5a build/mc_parameters.o
 .comment       0x0000000000000059       0x5a build/mc_tasks.o
 .comment       0x0000000000000059       0x5a build/mcp_config.o
 .comment       0x0000000000000059       0x5a build/motorcontrol.o
 .comment       0x0000000000000059       0x5a build/pwm_curr_fdbk.o
 .comment       0x0000000000000059       0x5a build/register_interface.o
 .comment       0x0000000000000059       0x5a build/regular_conversion_manager.o
 .comment       0x0000000000000059       0x5a build/stm32g4xx_hal_msp.o
 .comment       0x0000000000000059       0x5a build/stm32g4xx_mc_it.o
 .comment       0x0000000000000059       0x5a build/system_stm32g4xx.o
 .comment       0x0000000000000059       0x5a build/usart_aspep_driver.o
 .comment       0x0000000000000059       0x4e /usr/lib/gcc/arm-none-eabi/9.2.1/../../../arm-none-eabi/lib/thumb/v7e-m+fp/hard/libc_nano.a(lib_a-init.o)
                                         0x4f (size before relaxing)
 .comment       0x00000000000000a7       0x4f /usr/lib/gcc/arm-none-eabi/9.2.1/../../../arm-none-eabi/lib/thumb/v7e-m+fp/hard/libc_nano.a(lib_a-memset.o)
 .comment       0x00000000000000a7       0x5a /usr/lib/gcc/arm-none-eabi/9.2.1/thumb/v7e-m+fp/hard/crtend.o

.debug_info     0x0000000000000000    0x56b79
 .debug_info    0x0000000000000000      0xd00 build/stm32g4xx_hal.o
 .debug_info    0x0000000000000d00     0x11d1 build/stm32g4xx_hal_cortex.o
 .debug_info    0x0000000000001ed1      0xa19 build/stm32g4xx_hal_gpio.o
 .debug_info    0x00000000000028ea      0xba3 build/stm32g4xx_hal_pwr_ex.o
 .debug_info    0x000000000000348d      0xfde build/stm32g4xx_hal_rcc.o
 .debug_info    0x000000000000446b     0x4225 build/stm32g4xx_hal_tim.o
 .debug_info    0x0000000000008690     0x269f build/stm32g4xx_hal_tim_ex.o
 .debug_info    0x000000000000ad2f     0x109e build/stm32g4xx_ll_adc.o
 .debug_info    0x000000000000bdcd      0xa21 build/stm32g4xx_ll_exti.o
 .debug_info    0x000000000000c7ee      0xfab build/stm32g4xx_ll_gpio.o
 .debug_info    0x000000000000d799      0x48c build/stm32g4xx_ll_opamp.o
 .debug_info    0x000000000000dc25     0x15ae build/stm32g4xx_ll_rcc.o
 .debug_info    0x000000000000f1d3     0x1992 build/stm32g4xx_ll_tim.o
 .debug_info    0x0000000000010b65      0xc40 build/stm32g4xx_ll_usart.o
 .debug_info    0x00000000000117a5     0x1103 build/stm32g4xx_ll_utils.o
 .debug_info    0x00000000000128a8      0x4bf build/bus_voltage_sensor.o
 .debug_info    0x0000000000012d67      0x526 build/circle_limitation.o
 .debug_info    0x000000000001328d     0x32af build/mcp.o
 .debug_info    0x000000000001653c     0x10da build/mcpa.o
 .debug_info    0x0000000000017616      0x901 build/ntc_temperature_sensor.o
 .debug_info    0x0000000000017f17      0xb47 build/pid_regulator.o
 .debug_info    0x0000000000018a5e      0x6a3 build/pqd_motor_power_measurement.o
 .debug_info    0x0000000000019101      0xaf0 build/pwm_common.o
 .debug_info    0x0000000000019bf1      0x9db build/r_divider_bus_voltage_sensor.o
 .debug_info    0x000000000001a5cc      0x6b6 build/ramp_ext_mngr.o
 .debug_info    0x000000000001ac82     0x1675 build/revup_ctrl.o
 .debug_info    0x000000000001c2f7      0x73a build/speed_pos_fdbk.o
 .debug_info    0x000000000001ca31     0x109a build/speed_torq_ctrl.o
 .debug_info    0x000000000001dacb     0x13dd build/sto_cordic_speed_pos_fdbk.o
 .debug_info    0x000000000001eea8     0x170b build/sto_pll_speed_pos_fdbk.o
 .debug_info    0x00000000000205b3      0x958 build/virtual_speed_sensor.o
 .debug_info    0x0000000000020f0b     0x5117 build/r3_2_g4xx_pwm_curr_fdbk.o
 .debug_info    0x0000000000026022      0xffb build/aspep.o
 .debug_info    0x000000000002701d      0x25d build/debug_scope.o
 .debug_info    0x000000000002727a     0x7ad0 build/main.o
 .debug_info    0x000000000002ed4a     0x33ec build/mc_api.o
 .debug_info    0x0000000000032136     0x2b03 build/mc_config.o
 .debug_info    0x0000000000034c39      0x71d build/mc_configuration_registers.o
 .debug_info    0x0000000000035356     0x3d80 build/mc_interface.o
 .debug_info    0x00000000000390d6      0x8d7 build/mc_math.o
 .debug_info    0x00000000000399ad     0x28d6 build/mc_parameters.o
 .debug_info    0x000000000003c283     0x45fc build/mc_tasks.o
 .debug_info    0x000000000004087f      0xc4d build/mcp_config.o
 .debug_info    0x00000000000414cc     0x2b3e build/motorcontrol.o
 .debug_info    0x000000000004400a     0x1138 build/pwm_curr_fdbk.o
 .debug_info    0x0000000000045142     0x4dc0 build/register_interface.o
 .debug_info    0x0000000000049f02     0x3340 build/regular_conversion_manager.o
 .debug_info    0x000000000004d242     0x3212 build/stm32g4xx_hal_msp.o
 .debug_info    0x0000000000050454     0x3e82 build/stm32g4xx_mc_it.o
 .debug_info    0x00000000000542d6      0x709 build/system_stm32g4xx.o
 .debug_info    0x00000000000549df     0x1117 build/usart_aspep_driver.o
 .debug_info    0x0000000000055af6       0x22 build/startup_stm32g431xx.o
 .debug_info    0x0000000000055b18      0x11a /usr/lib/gcc/arm-none-eabi/9.2.1/../../../arm-none-eabi/lib/thumb/v7e-m+fp/hard/libc_nano.a(lib_a-init.o)
 .debug_info    0x0000000000055c32       0x26 /usr/lib/gcc/arm-none-eabi/9.2.1/../../../arm-none-eabi/lib/thumb/v7e-m+fp/hard/libc_nano.a(lib_a-memcpy.o)
 .debug_info    0x0000000000055c58      0xf21 /usr/lib/gcc/arm-none-eabi/9.2.1/../../../arm-none-eabi/lib/thumb/v7e-m+fp/hard/libc_nano.a(lib_a-memset.o)

.debug_abbrev   0x0000000000000000     0x8717
 .debug_abbrev  0x0000000000000000      0x25e build/stm32g4xx_hal.o
 .debug_abbrev  0x000000000000025e      0x387 build/stm32g4xx_hal_cortex.o
 .debug_abbrev  0x00000000000005e5      0x213 build/stm32g4xx_hal_gpio.o
 .debug_abbrev  0x00000000000007f8      0x258 build/stm32g4xx_hal_pwr_ex.o
 .debug_abbrev  0x0000000000000a50      0x26f build/stm32g4xx_hal_rcc.o
 .debug_abbrev  0x0000000000000cbf      0x289 build/stm32g4xx_hal_tim.o
 .debug_abbrev  0x0000000000000f48      0x29f build/stm32g4xx_hal_tim_ex.o
 .debug_abbrev  0x00000000000011e7      0x224 build/stm32g4xx_ll_adc.o
 .debug_abbrev  0x000000000000140b      0x216 build/stm32g4xx_ll_exti.o
 .debug_abbrev  0x0000000000001621      0x2c1 build/stm32g4xx_ll_gpio.o
 .debug_abbrev  0x00000000000018e2      0x1e8 build/stm32g4xx_ll_opamp.o
 .debug_abbrev  0x0000000000001aca      0x2d6 build/stm32g4xx_ll_rcc.o
 .debug_abbrev  0x0000000000001da0      0x30d build/stm32g4xx_ll_tim.o
 .debug_abbrev  0x00000000000020ad      0x2f9 build/stm32g4xx_ll_usart.o
 .debug_abbrev  0x00000000000023a6      0x2cf build/stm32g4xx_ll_utils.o
 .debug_abbrev  0x0000000000002675      0x137 build/bus_voltage_sensor.o
 .debug_abbrev  0x00000000000027ac      0x16c build/circle_limitation.o
 .debug_abbrev  0x0000000000002918      0x2d3 build/mcp.o
 .debug_abbrev  0x0000000000002beb      0x2f2 build/mcpa.o
 .debug_abbrev  0x0000000000002edd      0x1e1 build/ntc_temperature_sensor.o
 .debug_abbrev  0x00000000000030be      0x1e5 build/pid_regulator.o
 .debug_abbrev  0x00000000000032a3      0x1b9 build/pqd_motor_power_measurement.o
 .debug_abbrev  0x000000000000345c      0x252 build/pwm_common.o
 .debug_abbrev  0x00000000000036ae      0x211 build/r_divider_bus_voltage_sensor.o
 .debug_abbrev  0x00000000000038bf      0x24a build/ramp_ext_mngr.o
 .debug_abbrev  0x0000000000003b09      0x266 build/revup_ctrl.o
 .debug_abbrev  0x0000000000003d6f      0x1bb build/speed_pos_fdbk.o
 .debug_abbrev  0x0000000000003f2a      0x28b build/speed_torq_ctrl.o
 .debug_abbrev  0x00000000000041b5      0x362 build/sto_cordic_speed_pos_fdbk.o
 .debug_abbrev  0x0000000000004517      0x333 build/sto_pll_speed_pos_fdbk.o
 .debug_abbrev  0x000000000000484a      0x1f9 build/virtual_speed_sensor.o
 .debug_abbrev  0x0000000000004a43      0x3ed build/r3_2_g4xx_pwm_curr_fdbk.o
 .debug_abbrev  0x0000000000004e30      0x34b build/aspep.o
 .debug_abbrev  0x000000000000517b      0x15f build/debug_scope.o
 .debug_abbrev  0x00000000000052da      0x526 build/main.o
 .debug_abbrev  0x0000000000005800      0x2eb build/mc_api.o
 .debug_abbrev  0x0000000000005aeb      0x236 build/mc_config.o
 .debug_abbrev  0x0000000000005d21      0x12b build/mc_configuration_registers.o
 .debug_abbrev  0x0000000000005e4c      0x447 build/mc_interface.o
 .debug_abbrev  0x0000000000006293      0x2c0 build/mc_math.o
 .debug_abbrev  0x0000000000006553      0x1fc build/mc_parameters.o
 .debug_abbrev  0x000000000000674f      0x3d8 build/mc_tasks.o
 .debug_abbrev  0x0000000000006b27      0x194 build/mcp_config.o
 .debug_abbrev  0x0000000000006cbb      0x25c build/motorcontrol.o
 .debug_abbrev  0x0000000000006f17      0x2f2 build/pwm_curr_fdbk.o
 .debug_abbrev  0x0000000000007209      0x441 build/register_interface.o
 .debug_abbrev  0x000000000000764a      0x3be build/regular_conversion_manager.o
 .debug_abbrev  0x0000000000007a08      0x26c build/stm32g4xx_hal_msp.o
 .debug_abbrev  0x0000000000007c74      0x396 build/stm32g4xx_mc_it.o
 .debug_abbrev  0x000000000000800a      0x168 build/system_stm32g4xx.o
 .debug_abbrev  0x0000000000008172      0x2da build/usart_aspep_driver.o
 .debug_abbrev  0x000000000000844c       0x12 build/startup_stm32g431xx.o
 .debug_abbrev  0x000000000000845e       0xcc /usr/lib/gcc/arm-none-eabi/9.2.1/../../../arm-none-eabi/lib/thumb/v7e-m+fp/hard/libc_nano.a(lib_a-init.o)
 .debug_abbrev  0x000000000000852a       0x14 /usr/lib/gcc/arm-none-eabi/9.2.1/../../../arm-none-eabi/lib/thumb/v7e-m+fp/hard/libc_nano.a(lib_a-memcpy.o)
 .debug_abbrev  0x000000000000853e      0x1d9 /usr/lib/gcc/arm-none-eabi/9.2.1/../../../arm-none-eabi/lib/thumb/v7e-m+fp/hard/libc_nano.a(lib_a-memset.o)

.debug_loc      0x0000000000000000    0x2437c
 .debug_loc     0x0000000000000000      0x1ef build/stm32g4xx_hal.o
 .debug_loc     0x00000000000001ef      0x736 build/stm32g4xx_hal_cortex.o
 .debug_loc     0x0000000000000925      0x32c build/stm32g4xx_hal_gpio.o
 .debug_loc     0x0000000000000c51      0xa06 build/stm32g4xx_hal_pwr_ex.o
 .debug_loc     0x0000000000001657      0x86c build/stm32g4xx_hal_rcc.o
 .debug_loc     0x0000000000001ec3     0x56d1 build/stm32g4xx_hal_tim.o
 .debug_loc     0x0000000000007594     0x2ac8 build/stm32g4xx_hal_tim_ex.o
 .debug_loc     0x000000000000a05c      0x58b build/stm32g4xx_ll_adc.o
 .debug_loc     0x000000000000a5e7      0x44f build/stm32g4xx_ll_exti.o
 .debug_loc     0x000000000000aa36      0x810 build/stm32g4xx_ll_gpio.o
 .debug_loc     0x000000000000b246      0x1dc build/stm32g4xx_ll_opamp.o
 .debug_loc     0x000000000000b422      0xba1 build/stm32g4xx_ll_rcc.o
 .debug_loc     0x000000000000bfc3     0x1636 build/stm32g4xx_ll_tim.o
 .debug_loc     0x000000000000d5f9      0x64a build/stm32g4xx_ll_usart.o
 .debug_loc     0x000000000000dc43      0x7ae build/stm32g4xx_ll_utils.o
 .debug_loc     0x000000000000e3f1       0xd4 build/bus_voltage_sensor.o
 .debug_loc     0x000000000000e4c5      0x2c4 build/circle_limitation.o
 .debug_loc     0x000000000000e789      0x3ba build/mcp.o
 .debug_loc     0x000000000000eb43      0x43b build/mcpa.o
 .debug_loc     0x000000000000ef7e      0x228 build/ntc_temperature_sensor.o
 .debug_loc     0x000000000000f1a6      0x616 build/pid_regulator.o
 .debug_loc     0x000000000000f7bc       0x99 build/pqd_motor_power_measurement.o
 .debug_loc     0x000000000000f855      0x1bd build/pwm_common.o
 .debug_loc     0x000000000000fa12      0x388 build/r_divider_bus_voltage_sensor.o
 .debug_loc     0x000000000000fd9a      0x38c build/ramp_ext_mngr.o
 .debug_loc     0x0000000000010126      0x9b5 build/revup_ctrl.o
 .debug_loc     0x0000000000010adb      0x398 build/speed_pos_fdbk.o
 .debug_loc     0x0000000000010e73      0x7aa build/speed_torq_ctrl.o
 .debug_loc     0x000000000001161d     0x159d build/sto_cordic_speed_pos_fdbk.o
 .debug_loc     0x0000000000012bba     0x139e build/sto_pll_speed_pos_fdbk.o
 .debug_loc     0x0000000000013f58      0x5a6 build/virtual_speed_sensor.o
 .debug_loc     0x00000000000144fe     0x33c8 build/r3_2_g4xx_pwm_curr_fdbk.o
 .debug_loc     0x00000000000178c6      0xf34 build/aspep.o
 .debug_loc     0x00000000000187fa      0x227 build/debug_scope.o
 .debug_loc     0x0000000000018a21     0x23bf build/main.o
 .debug_loc     0x000000000001ade0      0x201 build/mc_api.o
 .debug_loc     0x000000000001afe1      0xe38 build/mc_interface.o
 .debug_loc     0x000000000001be19      0x5a4 build/mc_math.o
 .debug_loc     0x000000000001c3bd      0x73d build/mc_tasks.o
 .debug_loc     0x000000000001cafa      0xade build/pwm_curr_fdbk.o
 .debug_loc     0x000000000001d5d8     0x519b build/register_interface.o
 .debug_loc     0x0000000000022773      0x7a1 build/regular_conversion_manager.o
 .debug_loc     0x0000000000022f14       0x84 build/stm32g4xx_hal_msp.o
 .debug_loc     0x0000000000022f98      0x626 build/stm32g4xx_mc_it.o
 .debug_loc     0x00000000000235be       0x90 build/system_stm32g4xx.o
 .debug_loc     0x000000000002364e      0xa43 build/usart_aspep_driver.o
 .debug_loc     0x0000000000024091       0xba /usr/lib/gcc/arm-none-eabi/9.2.1/../../../arm-none-eabi/lib/thumb/v7e-m+fp/hard/libc_nano.a(lib_a-init.o)
 .debug_loc     0x000000000002414b      0x231 /usr/lib/gcc/arm-none-eabi/9.2.1/../../../arm-none-eabi/lib/thumb/v7e-m+fp/hard/libc_nano.a(lib_a-memset.o)

.debug_aranges  0x0000000000000000     0x1e98
 .debug_aranges
                0x0000000000000000      0x130 build/stm32g4xx_hal.o
 .debug_aranges
                0x0000000000000130       0xa8 build/stm32g4xx_hal_cortex.o
 .debug_aranges
                0x00000000000001d8       0x58 build/stm32g4xx_hal_gpio.o
 .debug_aranges
                0x0000000000000230      0x140 build/stm32g4xx_hal_pwr_ex.o
 .debug_aranges
                0x0000000000000370       0x98 build/stm32g4xx_hal_rcc.o
 .debug_aranges
                0x0000000000000408      0x3e0 build/stm32g4xx_hal_tim.o
 .debug_aranges
                0x00000000000007e8      0x240 build/stm32g4xx_hal_tim_ex.o
 .debug_aranges
                0x0000000000000a28       0x68 build/stm32g4xx_ll_adc.o
 .debug_aranges
                0x0000000000000a90       0x30 build/stm32g4xx_ll_exti.o
 .debug_aranges
                0x0000000000000ac0       0x30 build/stm32g4xx_ll_gpio.o
 .debug_aranges
                0x0000000000000af0       0x30 build/stm32g4xx_ll_opamp.o
 .debug_aranges
                0x0000000000000b20       0xb8 build/stm32g4xx_ll_rcc.o
 .debug_aranges
                0x0000000000000bd8       0xd0 build/stm32g4xx_ll_tim.o
 .debug_aranges
                0x0000000000000ca8       0x40 build/stm32g4xx_ll_usart.o
 .debug_aranges
                0x0000000000000ce8       0x60 build/stm32g4xx_ll_utils.o
 .debug_aranges
                0x0000000000000d48       0x38 build/bus_voltage_sensor.o
 .debug_aranges
                0x0000000000000d80       0x20 build/circle_limitation.o
 .debug_aranges
                0x0000000000000da0       0x28 build/mcp.o
 .debug_aranges
                0x0000000000000dc8       0x38 build/mcpa.o
 .debug_aranges
                0x0000000000000e00       0x50 build/ntc_temperature_sensor.o
 .debug_aranges
                0x0000000000000e50       0xe8 build/pid_regulator.o
 .debug_aranges
                0x0000000000000f38       0x30 build/pqd_motor_power_measurement.o
 .debug_aranges
                0x0000000000000f68       0x28 build/pwm_common.o
 .debug_aranges
                0x0000000000000f90       0x48 build/r_divider_bus_voltage_sensor.o
 .debug_aranges
                0x0000000000000fd8       0x50 build/ramp_ext_mngr.o
 .debug_aranges
                0x0000000000001028       0xb0 build/revup_ctrl.o
 .debug_aranges
                0x00000000000010d8       0x68 build/speed_pos_fdbk.o
 .debug_aranges
                0x0000000000001140       0xb8 build/speed_torq_ctrl.o
 .debug_aranges
                0x00000000000011f8       0xa8 build/sto_cordic_speed_pos_fdbk.o
 .debug_aranges
                0x00000000000012a0       0xf0 build/sto_pll_speed_pos_fdbk.o
 .debug_aranges
                0x0000000000001390       0x80 build/virtual_speed_sensor.o
 .debug_aranges
                0x0000000000001410       0xf8 build/r3_2_g4xx_pwm_curr_fdbk.o
 .debug_aranges
                0x0000000000001508       0x88 build/aspep.o
 .debug_aranges
                0x0000000000001590       0x30 build/debug_scope.o
 .debug_aranges
                0x00000000000015c0       0x90 build/main.o
 .debug_aranges
                0x0000000000001650      0x1b0 build/mc_api.o
 .debug_aranges
                0x0000000000001800       0x18 build/mc_config.o
 .debug_aranges
                0x0000000000001818       0x18 build/mc_configuration_registers.o
 .debug_aranges
                0x0000000000001830      0x1d8 build/mc_interface.o
 .debug_aranges
                0x0000000000001a08       0x48 build/mc_math.o
 .debug_aranges
                0x0000000000001a50       0x18 build/mc_parameters.o
 .debug_aranges
                0x0000000000001a68       0xb0 build/mc_tasks.o
 .debug_aranges
                0x0000000000001b18       0x18 build/mcp_config.o
 .debug_aranges
                0x0000000000001b30       0x20 build/motorcontrol.o
 .debug_aranges
                0x0000000000001b50      0x110 build/pwm_curr_fdbk.o
 .debug_aranges
                0x0000000000001c60       0x50 build/register_interface.o
 .debug_aranges
                0x0000000000001cb0       0x68 build/regular_conversion_manager.o
 .debug_aranges
                0x0000000000001d18       0x30 build/stm32g4xx_hal_msp.o
 .debug_aranges
                0x0000000000001d48       0x58 build/stm32g4xx_mc_it.o
 .debug_aranges
                0x0000000000001da0       0x28 build/system_stm32g4xx.o
 .debug_aranges
                0x0000000000001dc8       0x48 build/usart_aspep_driver.o
 .debug_aranges
                0x0000000000001e10       0x28 build/startup_stm32g431xx.o
 .debug_aranges
                0x0000000000001e38       0x20 /usr/lib/gcc/arm-none-eabi/9.2.1/../../../arm-none-eabi/lib/thumb/v7e-m+fp/hard/libc_nano.a(lib_a-init.o)
 .debug_aranges
                0x0000000000001e58       0x20 /usr/lib/gcc/arm-none-eabi/9.2.1/../../../arm-none-eabi/lib/thumb/v7e-m+fp/hard/libc_nano.a(lib_a-memcpy.o)
 .debug_aranges
                0x0000000000001e78       0x20 /usr/lib/gcc/arm-none-eabi/9.2.1/../../../arm-none-eabi/lib/thumb/v7e-m+fp/hard/libc_nano.a(lib_a-memset.o)

.debug_ranges   0x0000000000000000     0x27b0
 .debug_ranges  0x0000000000000000      0x120 build/stm32g4xx_hal.o
 .debug_ranges  0x0000000000000120       0xf8 build/stm32g4xx_hal_cortex.o
 .debug_ranges  0x0000000000000218       0x48 build/stm32g4xx_hal_gpio.o
 .debug_ranges  0x0000000000000260      0x130 build/stm32g4xx_hal_pwr_ex.o
 .debug_ranges  0x0000000000000390       0xa0 build/stm32g4xx_hal_rcc.o
 .debug_ranges  0x0000000000000430      0x3d0 build/stm32g4xx_hal_tim.o
 .debug_ranges  0x0000000000000800      0x230 build/stm32g4xx_hal_tim_ex.o
 .debug_ranges  0x0000000000000a30       0x58 build/stm32g4xx_ll_adc.o
 .debug_ranges  0x0000000000000a88       0x68 build/stm32g4xx_ll_exti.o
 .debug_ranges  0x0000000000000af0      0x200 build/stm32g4xx_ll_gpio.o
 .debug_ranges  0x0000000000000cf0       0x20 build/stm32g4xx_ll_opamp.o
 .debug_ranges  0x0000000000000d10       0xc0 build/stm32g4xx_ll_rcc.o
 .debug_ranges  0x0000000000000dd0      0x1b0 build/stm32g4xx_ll_tim.o
 .debug_ranges  0x0000000000000f80       0xa8 build/stm32g4xx_ll_usart.o
 .debug_ranges  0x0000000000001028       0x50 build/stm32g4xx_ll_utils.o
 .debug_ranges  0x0000000000001078       0x28 build/bus_voltage_sensor.o
 .debug_ranges  0x00000000000010a0       0x10 build/circle_limitation.o
 .debug_ranges  0x00000000000010b0       0x18 build/mcp.o
 .debug_ranges  0x00000000000010c8       0x28 build/mcpa.o
 .debug_ranges  0x00000000000010f0       0x40 build/ntc_temperature_sensor.o
 .debug_ranges  0x0000000000001130       0xd8 build/pid_regulator.o
 .debug_ranges  0x0000000000001208       0x20 build/pqd_motor_power_measurement.o
 .debug_ranges  0x0000000000001228       0x18 build/pwm_common.o
 .debug_ranges  0x0000000000001240       0x38 build/r_divider_bus_voltage_sensor.o
 .debug_ranges  0x0000000000001278       0x40 build/ramp_ext_mngr.o
 .debug_ranges  0x00000000000012b8       0xb8 build/revup_ctrl.o
 .debug_ranges  0x0000000000001370       0x58 build/speed_pos_fdbk.o
 .debug_ranges  0x00000000000013c8       0xa8 build/speed_torq_ctrl.o
 .debug_ranges  0x0000000000001470       0xb0 build/sto_cordic_speed_pos_fdbk.o
 .debug_ranges  0x0000000000001520      0x110 build/sto_pll_speed_pos_fdbk.o
 .debug_ranges  0x0000000000001630       0x70 build/virtual_speed_sensor.o
 .debug_ranges  0x00000000000016a0      0x1e8 build/r3_2_g4xx_pwm_curr_fdbk.o
 .debug_ranges  0x0000000000001888       0x78 build/aspep.o
 .debug_ranges  0x0000000000001900       0x20 build/debug_scope.o
 .debug_ranges  0x0000000000001920      0x250 build/main.o
 .debug_ranges  0x0000000000001b70      0x1a0 build/mc_api.o
 .debug_ranges  0x0000000000001d10      0x1e0 build/mc_interface.o
 .debug_ranges  0x0000000000001ef0       0x38 build/mc_math.o
 .debug_ranges  0x0000000000001f28       0xe8 build/mc_tasks.o
 .debug_ranges  0x0000000000002010       0x10 build/motorcontrol.o
 .debug_ranges  0x0000000000002020      0x100 build/pwm_curr_fdbk.o
 .debug_ranges  0x0000000000002120      0x4d0 build/register_interface.o
 .debug_ranges  0x00000000000025f0       0x58 build/regular_conversion_manager.o
 .debug_ranges  0x0000000000002648       0x20 build/stm32g4xx_hal_msp.o
 .debug_ranges  0x0000000000002668       0x60 build/stm32g4xx_mc_it.o
 .debug_ranges  0x00000000000026c8       0x18 build/system_stm32g4xx.o
 .debug_ranges  0x00000000000026e0       0xb0 build/usart_aspep_driver.o
 .debug_ranges  0x0000000000002790       0x20 build/startup_stm32g431xx.o

.debug_line     0x0000000000000000    0x232c7
 .debug_line    0x0000000000000000      0x60d build/stm32g4xx_hal.o
 .debug_line    0x000000000000060d      0x72e build/stm32g4xx_hal_cortex.o
 .debug_line    0x0000000000000d3b      0x665 build/stm32g4xx_hal_gpio.o
 .debug_line    0x00000000000013a0      0xa0e build/stm32g4xx_hal_pwr_ex.o
 .debug_line    0x0000000000001dae      0xd93 build/stm32g4xx_hal_rcc.o
 .debug_line    0x0000000000002b41     0x5336 build/stm32g4xx_hal_tim.o
 .debug_line    0x0000000000007e77     0x256c build/stm32g4xx_hal_tim_ex.o
 .debug_line    0x000000000000a3e3      0x6af build/stm32g4xx_ll_adc.o
 .debug_line    0x000000000000aa92      0x55f build/stm32g4xx_ll_exti.o
 .debug_line    0x000000000000aff1      0x76b build/stm32g4xx_ll_gpio.o
 .debug_line    0x000000000000b75c      0x2b3 build/stm32g4xx_ll_opamp.o
 .debug_line    0x000000000000ba0f      0xec2 build/stm32g4xx_ll_rcc.o
 .debug_line    0x000000000000c8d1      0xe34 build/stm32g4xx_ll_tim.o
 .debug_line    0x000000000000d705      0x53e build/stm32g4xx_ll_usart.o
 .debug_line    0x000000000000dc43      0x847 build/stm32g4xx_ll_utils.o
 .debug_line    0x000000000000e48a      0x289 build/bus_voltage_sensor.o
 .debug_line    0x000000000000e713      0x2ec build/circle_limitation.o
 .debug_line    0x000000000000e9ff      0x672 build/mcp.o
 .debug_line    0x000000000000f071      0x8a6 build/mcpa.o
 .debug_line    0x000000000000f917      0x409 build/ntc_temperature_sensor.o
 .debug_line    0x000000000000fd20      0x6bd build/pid_regulator.o
 .debug_line    0x00000000000103dd      0x2dd build/pqd_motor_power_measurement.o
 .debug_line    0x00000000000106ba      0x35b build/pwm_common.o
 .debug_line    0x0000000000010a15      0x612 build/r_divider_bus_voltage_sensor.o
 .debug_line    0x0000000000011027      0x497 build/ramp_ext_mngr.o
 .debug_line    0x00000000000114be      0xa31 build/revup_ctrl.o
 .debug_line    0x0000000000011eef      0x406 build/speed_pos_fdbk.o
 .debug_line    0x00000000000122f5      0x86c build/speed_torq_ctrl.o
 .debug_line    0x0000000000012b61      0xefe build/sto_cordic_speed_pos_fdbk.o
 .debug_line    0x0000000000013a5f      0xefd build/sto_pll_speed_pos_fdbk.o
 .debug_line    0x000000000001495c      0x763 build/virtual_speed_sensor.o
 .debug_line    0x00000000000150bf     0x2a04 build/r3_2_g4xx_pwm_curr_fdbk.o
 .debug_line    0x0000000000017ac3      0xb49 build/aspep.o
 .debug_line    0x000000000001860c      0x1af build/debug_scope.o
 .debug_line    0x00000000000187bb     0x1f3a build/main.o
 .debug_line    0x000000000001a6f5      0x99c build/mc_api.o
 .debug_line    0x000000000001b091      0x409 build/mc_config.o
 .debug_line    0x000000000001b49a      0x1e6 build/mc_configuration_registers.o
 .debug_line    0x000000000001b680     0x10fa build/mc_interface.o
 .debug_line    0x000000000001c77a      0x4ce build/mc_math.o
 .debug_line    0x000000000001cc48      0x3fc build/mc_parameters.o
 .debug_line    0x000000000001d044      0xfaf build/mc_tasks.o
 .debug_line    0x000000000001dff3      0x20b build/mcp_config.o
 .debug_line    0x000000000001e1fe      0x44c build/motorcontrol.o
 .debug_line    0x000000000001e64a      0xa23 build/pwm_curr_fdbk.o
 .debug_line    0x000000000001f06d     0x1bab build/register_interface.o
 .debug_line    0x0000000000020c18      0xbea build/regular_conversion_manager.o
 .debug_line    0x0000000000021802      0x527 build/stm32g4xx_hal_msp.o
 .debug_line    0x0000000000021d29      0x952 build/stm32g4xx_mc_it.o
 .debug_line    0x000000000002267b      0x212 build/system_stm32g4xx.o
 .debug_line    0x000000000002288d      0x58d build/usart_aspep_driver.o
 .debug_line    0x0000000000022e1a       0x77 build/startup_stm32g431xx.o
 .debug_line    0x0000000000022e91      0x10d /usr/lib/gcc/arm-none-eabi/9.2.1/../../../arm-none-eabi/lib/thumb/v7e-m+fp/hard/libc_nano.a(lib_a-init.o)
 .debug_line    0x0000000000022f9e       0xbe /usr/lib/gcc/arm-none-eabi/9.2.1/../../../arm-none-eabi/lib/thumb/v7e-m+fp/hard/libc_nano.a(lib_a-memcpy.o)
 .debug_line    0x000000000002305c      0x26b /usr/lib/gcc/arm-none-eabi/9.2.1/../../../arm-none-eabi/lib/thumb/v7e-m+fp/hard/libc_nano.a(lib_a-memset.o)

.debug_str      0x0000000000000000     0xc8f4
 .debug_str     0x0000000000000000      0xd75 build/stm32g4xx_hal.o
                                        0xe09 (size before relaxing)
 .debug_str     0x0000000000000d75      0x495 build/stm32g4xx_hal_cortex.o
                                        0xd66 (size before relaxing)
 .debug_str     0x000000000000120a      0x1b4 build/stm32g4xx_hal_gpio.o
                                        0x735 (size before relaxing)
 .debug_str     0x00000000000013be      0x524 build/stm32g4xx_hal_pwr_ex.o
                                        0x9c0 (size before relaxing)
 .debug_str     0x00000000000018e2      0x3b5 build/stm32g4xx_hal_rcc.o
                                        0x9e6 (size before relaxing)
 .debug_str     0x0000000000001c97     0x14e8 build/stm32g4xx_hal_tim.o
                                       0x1a1d (size before relaxing)
 .debug_str     0x000000000000317f      0x997 build/stm32g4xx_hal_tim_ex.o
                                       0x1685 (size before relaxing)
 .debug_str     0x0000000000003b16      0x490 build/stm32g4xx_ll_adc.o
                                        0x9c2 (size before relaxing)
 .debug_str     0x0000000000003fa6      0x272 build/stm32g4xx_ll_exti.o
                                        0x68b (size before relaxing)
 .debug_str     0x0000000000004218      0x12d build/stm32g4xx_ll_gpio.o
                                        0x6cf (size before relaxing)
 .debug_str     0x0000000000004345      0x104 build/stm32g4xx_ll_opamp.o
                                        0x4c3 (size before relaxing)
 .debug_str     0x0000000000004449      0x6a2 build/stm32g4xx_ll_rcc.o
                                        0xbd9 (size before relaxing)
 .debug_str     0x0000000000004aeb      0x4f8 build/stm32g4xx_ll_tim.o
                                        0xc1f (size before relaxing)
 .debug_str     0x0000000000004fe3      0x224 build/stm32g4xx_ll_usart.o
                                        0x7f8 (size before relaxing)
 .debug_str     0x0000000000005207      0x2f6 build/stm32g4xx_ll_utils.o
                                        0x9b4 (size before relaxing)
 .debug_str     0x00000000000054fd      0x10d build/bus_voltage_sensor.o
                                        0x534 (size before relaxing)
 .debug_str     0x000000000000560a      0x109 build/circle_limitation.o
                                        0x534 (size before relaxing)
 .debug_str     0x0000000000005713     0x1eff build/mcp.o
                                       0x27fd (size before relaxing)
 .debug_str     0x0000000000007612      0x467 build/mcpa.o
                                        0xaaf (size before relaxing)
 .debug_str     0x0000000000007a79       0xfa build/ntc_temperature_sensor.o
                                        0x701 (size before relaxing)
 .debug_str     0x0000000000007b73      0x2e1 build/pid_regulator.o
                                        0x80e (size before relaxing)
 .debug_str     0x0000000000007e54       0x89 build/pqd_motor_power_measurement.o
                                        0x631 (size before relaxing)
 .debug_str     0x0000000000007edd      0x155 build/pwm_common.o
                                        0x75b (size before relaxing)
 .debug_str     0x0000000000008032       0xcb build/r_divider_bus_voltage_sensor.o
                                        0x72d (size before relaxing)
 .debug_str     0x00000000000080fd      0x11d build/ramp_ext_mngr.o
                                        0x59b (size before relaxing)
 .debug_str     0x000000000000821a      0x373 build/revup_ctrl.o
                                       0x12b5 (size before relaxing)
 .debug_str     0x000000000000858d      0x137 build/speed_pos_fdbk.o
                                        0x6b3 (size before relaxing)
 .debug_str     0x00000000000086c4      0x31f build/speed_torq_ctrl.o
                                        0xe29 (size before relaxing)
 .debug_str     0x00000000000089e3      0x590 build/sto_cordic_speed_pos_fdbk.o
                                        0xefb (size before relaxing)
 .debug_str     0x0000000000008f73      0x371 build/sto_pll_speed_pos_fdbk.o
                                       0x1095 (size before relaxing)
 .debug_str     0x00000000000092e4      0x187 build/virtual_speed_sensor.o
                                        0x85d (size before relaxing)
 .debug_str     0x000000000000946b      0x7c6 build/r3_2_g4xx_pwm_curr_fdbk.o
                                       0x1768 (size before relaxing)
 .debug_str     0x0000000000009c31      0x21b build/aspep.o
                                        0x9bb (size before relaxing)
 .debug_str     0x0000000000009e4c       0x95 build/debug_scope.o
                                        0x288 (size before relaxing)
 .debug_str     0x0000000000009ee1      0x736 build/main.o
                                       0x3f71 (size before relaxing)
 .debug_str     0x000000000000a617      0x8b9 build/mc_api.o
                                       0x2b13 (size before relaxing)
 .debug_str     0x000000000000aed0       0x41 build/mc_config.o
                                       0x2207 (size before relaxing)
 .debug_str     0x000000000000af11       0x6b build/mc_configuration_registers.o
                                        0x6ce (size before relaxing)
 .debug_str     0x000000000000af7c      0x1cc build/mc_interface.o
                                       0x28d9 (size before relaxing)
 .debug_str     0x000000000000b148      0x119 build/mc_math.o
                                        0x620 (size before relaxing)
 .debug_str     0x000000000000b261       0x27 build/mc_parameters.o
                                       0x21c5 (size before relaxing)
 .debug_str     0x000000000000b288      0x38a build/mc_tasks.o
                                       0x2f5a (size before relaxing)
 .debug_str     0x000000000000b612       0xd0 build/mcp_config.o
                                        0xa06 (size before relaxing)
 .debug_str     0x000000000000b6e2       0x13 build/motorcontrol.o
                                       0x264f (size before relaxing)
 .debug_str     0x000000000000b6f5      0x349 build/pwm_curr_fdbk.o
                                        0xbfb (size before relaxing)
 .debug_str     0x000000000000ba3e      0x240 build/register_interface.o
                                       0x3168 (size before relaxing)
 .debug_str     0x000000000000bc7e      0x1fd build/regular_conversion_manager.o
                                       0x2599 (size before relaxing)
 .debug_str     0x000000000000be7b       0x25 build/stm32g4xx_hal_msp.o
                                       0x28b7 (size before relaxing)
 .debug_str     0x000000000000bea0      0x2df build/stm32g4xx_mc_it.o
                                       0x2bb6 (size before relaxing)
 .debug_str     0x000000000000c17f       0x38 build/system_stm32g4xx.o
                                        0x584 (size before relaxing)
 .debug_str     0x000000000000c1b7      0x152 build/usart_aspep_driver.o
                                        0x6e7 (size before relaxing)
 .debug_str     0x000000000000c309       0x22 build/startup_stm32g431xx.o
                                         0x4e (size before relaxing)
 .debug_str     0x000000000000c32b      0x18e /usr/lib/gcc/arm-none-eabi/9.2.1/../../../arm-none-eabi/lib/thumb/v7e-m+fp/hard/libc_nano.a(lib_a-init.o)
                                        0x229 (size before relaxing)
 .debug_str     0x000000000000c4b9       0xaa /usr/lib/gcc/arm-none-eabi/9.2.1/../../../arm-none-eabi/lib/thumb/v7e-m+fp/hard/libc_nano.a(lib_a-memcpy.o)
                                         0xb6 (size before relaxing)
 .debug_str     0x000000000000c563      0x391 /usr/lib/gcc/arm-none-eabi/9.2.1/../../../arm-none-eabi/lib/thumb/v7e-m+fp/hard/libc_nano.a(lib_a-memset.o)
                                        0x90f (size before relaxing)

.debug_frame    0x0000000000000000     0x4aec
 .debug_frame   0x0000000000000000      0x274 build/stm32g4xx_hal.o
 .debug_frame   0x0000000000000274      0x15c build/stm32g4xx_hal_cortex.o
 .debug_frame   0x00000000000003d0       0xd8 build/stm32g4xx_hal_gpio.o
 .debug_frame   0x00000000000004a8      0x268 build/stm32g4xx_hal_pwr_ex.o
 .debug_frame   0x0000000000000710      0x198 build/stm32g4xx_hal_rcc.o
 .debug_frame   0x00000000000008a8      0xb60 build/stm32g4xx_hal_tim.o
 .debug_frame   0x0000000000001408      0x628 build/stm32g4xx_hal_tim_ex.o
 .debug_frame   0x0000000000001a30       0xfc build/stm32g4xx_ll_adc.o
 .debug_frame   0x0000000000001b2c       0x54 build/stm32g4xx_ll_exti.o
 .debug_frame   0x0000000000001b80       0x54 build/stm32g4xx_ll_gpio.o
 .debug_frame   0x0000000000001bd4       0x4c build/stm32g4xx_ll_opamp.o
 .debug_frame   0x0000000000001c20      0x1b8 build/stm32g4xx_ll_rcc.o
 .debug_frame   0x0000000000001dd8      0x234 build/stm32g4xx_ll_tim.o
 .debug_frame   0x000000000000200c       0x78 build/stm32g4xx_ll_usart.o
 .debug_frame   0x0000000000002084       0xd4 build/stm32g4xx_ll_utils.o
 .debug_frame   0x0000000000002158       0x50 build/bus_voltage_sensor.o
 .debug_frame   0x00000000000021a8       0x34 build/circle_limitation.o
 .debug_frame   0x00000000000021dc       0x48 build/mcp.o
 .debug_frame   0x0000000000002224       0x88 build/mcpa.o
 .debug_frame   0x00000000000022ac       0x90 build/ntc_temperature_sensor.o
 .debug_frame   0x000000000000233c      0x1dc build/pid_regulator.o
 .debug_frame   0x0000000000002518       0x64 build/pqd_motor_power_measurement.o
 .debug_frame   0x000000000000257c       0x44 build/pwm_common.o
 .debug_frame   0x00000000000025c0       0xa0 build/r_divider_bus_voltage_sensor.o
 .debug_frame   0x0000000000002660       0x94 build/ramp_ext_mngr.o
 .debug_frame   0x00000000000026f4      0x1a0 build/revup_ctrl.o
 .debug_frame   0x0000000000002894       0xc0 build/speed_pos_fdbk.o
 .debug_frame   0x0000000000002954      0x198 build/speed_torq_ctrl.o
 .debug_frame   0x0000000000002aec      0x1c0 build/sto_cordic_speed_pos_fdbk.o
 .debug_frame   0x0000000000002cac      0x2a8 build/sto_pll_speed_pos_fdbk.o
 .debug_frame   0x0000000000002f54      0x118 build/virtual_speed_sensor.o
 .debug_frame   0x000000000000306c      0x314 build/r3_2_g4xx_pwm_curr_fdbk.o
 .debug_frame   0x0000000000003380      0x178 build/aspep.o
 .debug_frame   0x00000000000034f8       0x40 build/debug_scope.o
 .debug_frame   0x0000000000003538      0x1d4 build/main.o
 .debug_frame   0x000000000000370c      0x4fc build/mc_api.o
 .debug_frame   0x0000000000003c08      0x4f8 build/mc_interface.o
 .debug_frame   0x0000000000004100       0xb0 build/mc_math.o
 .debug_frame   0x00000000000041b0      0x204 build/mc_tasks.o
 .debug_frame   0x00000000000043b4       0x28 build/motorcontrol.o
 .debug_frame   0x00000000000043dc      0x290 build/pwm_curr_fdbk.o
 .debug_frame   0x000000000000466c       0xf8 build/register_interface.o
 .debug_frame   0x0000000000004764      0x10c build/regular_conversion_manager.o
 .debug_frame   0x0000000000004870       0x64 build/stm32g4xx_hal_msp.o
 .debug_frame   0x00000000000048d4       0xd0 build/stm32g4xx_mc_it.o
 .debug_frame   0x00000000000049a4       0x30 build/system_stm32g4xx.o
 .debug_frame   0x00000000000049d4       0xb4 build/usart_aspep_driver.o
 .debug_frame   0x0000000000004a88       0x2c /usr/lib/gcc/arm-none-eabi/9.2.1/../../../arm-none-eabi/lib/thumb/v7e-m+fp/hard/libc_nano.a(lib_a-init.o)
 .debug_frame   0x0000000000004ab4       0x38 /usr/lib/gcc/arm-none-eabi/9.2.1/../../../arm-none-eabi/lib/thumb/v7e-m+fp/hard/libc_nano.a(lib_a-memset.o)

Cross Reference Table

Symbol                                            File
ADC1_2_IRQHandler                                 build/stm32g4xx_mc_it.o
AHBPrescTable                                     build/system_stm32g4xx.o
                                                  build/stm32g4xx_ll_utils.o
                                                  build/stm32g4xx_ll_rcc.o
                                                  build/stm32g4xx_hal_rcc.o
APBPrescTable                                     build/system_stm32g4xx.o
                                                  build/stm32g4xx_ll_rcc.o
                                                  build/stm32g4xx_hal_rcc.o
ASPEP_CheckBeacon                                 build/aspep.o
ASPEP_HWDMAReset                                  build/aspep.o
                                                  build/stm32g4xx_mc_it.o
ASPEP_HWDataReceivedIT                            build/aspep.o
                                                  build/stm32g4xx_mc_it.o
ASPEP_HWDataTransmittedIT                         build/aspep.o
                                                  build/stm32g4xx_mc_it.o
ASPEP_RXframeProcess                              build/aspep.o
                                                  build/mcp_config.o
ASPEP_getBuffer                                   build/aspep.o
                                                  build/mcp_config.o
ASPEP_sendBeacon                                  build/aspep.o
ASPEP_sendPacket                                  build/aspep.o
                                                  build/mcp_config.o
ASPEP_sendPing                                    build/aspep.o
ASPEP_start                                       build/aspep.o
                                                  build/mc_tasks.o
ApplicationConfig_reg                             build/mc_configuration_registers.o
                                                  build/register_interface.o
BusFault_Handler                                  build/startup_stm32g431xx.o
BusVoltageSensor_M1                               build/mc_config.o
                                                  build/register_interface.o
                                                  build/mc_tasks.o
COMP1_2_3_IRQHandler                              build/startup_stm32g431xx.o
COMP4_IRQHandler                                  build/startup_stm32g431xx.o
CORDIC_IRQHandler                                 build/startup_stm32g431xx.o
CRS_IRQHandler                                    build/startup_stm32g431xx.o
CTL_BOARD                                         build/mc_configuration_registers.o
                                                  build/register_interface.o
CircleLimitationM1                                build/mc_config.o
                                                  build/mc_tasks.o
Circle_Limitation                                 build/circle_limitation.o
                                                  build/mc_tasks.o
DMA1_Channel1_IRQHandler                          build/startup_stm32g431xx.o
DMA1_Channel2_IRQHandler                          build/startup_stm32g431xx.o
DMA1_Channel3_IRQHandler                          build/startup_stm32g431xx.o
DMA1_Channel4_IRQHandler                          build/startup_stm32g431xx.o
DMA1_Channel5_IRQHandler                          build/startup_stm32g431xx.o
DMA1_Channel6_IRQHandler                          build/startup_stm32g431xx.o
DMA2_Channel1_IRQHandler                          build/startup_stm32g431xx.o
DMA2_Channel2_IRQHandler                          build/stm32g4xx_mc_it.o
DMA2_Channel3_IRQHandler                          build/startup_stm32g431xx.o
DMA2_Channel4_IRQHandler                          build/startup_stm32g431xx.o
DMA2_Channel5_IRQHandler                          build/startup_stm32g431xx.o
DMA2_Channel6_IRQHandler                          build/startup_stm32g431xx.o
DMAMUX_OVR_IRQHandler                             build/startup_stm32g431xx.o
DOUT_GetOutputState                               build/digital_output.o
DOUT_SetOutputState                               build/digital_output.o
DebugMon_Handler                                  build/startup_stm32g431xx.o
DebugScopeInsertData                              build/debug_scope.o
                                                  build/speed_torq_ctrl.o
DebugScopeStartWrite                              build/debug_scope.o
                                                  build/register_interface.o
Default_Handler                                   build/startup_stm32g431xx.o
EXTI0_IRQHandler                                  build/startup_stm32g431xx.o
EXTI15_10_IRQHandler                              build/stm32g4xx_mc_it.o
EXTI1_IRQHandler                                  build/startup_stm32g431xx.o
EXTI2_IRQHandler                                  build/startup_stm32g431xx.o
EXTI3_IRQHandler                                  build/startup_stm32g431xx.o
EXTI4_IRQHandler                                  build/startup_stm32g431xx.o
EXTI9_5_IRQHandler                                build/startup_stm32g431xx.o
Error_Handler                                     build/main.o
FDCAN1_IT0_IRQHandler                             build/startup_stm32g431xx.o
FDCAN1_IT1_IRQHandler                             build/startup_stm32g431xx.o
FIRMWARE_NAME                                     build/mc_configuration_registers.o
                                                  build/register_interface.o
FLASH_FlushCaches                                 build/stm32g4xx_hal_flash_ex.o
                                                  build/stm32g4xx_hal_flash.o
FLASH_IRQHandler                                  build/startup_stm32g431xx.o
FLASH_PageErase                                   build/stm32g4xx_hal_flash_ex.o
                                                  build/stm32g4xx_hal_flash.o
FLASH_WaitForLastOperation                        build/stm32g4xx_hal_flash.o
                                                  build/stm32g4xx_hal_flash_ex.o
FMAC_IRQHandler                                   build/startup_stm32g431xx.o
FOCConfig_reg                                     build/mc_configuration_registers.o
                                                  build/register_interface.o
FOC_CalcCurrRef                                   build/mc_tasks.o
FOC_Clear                                         build/mc_tasks.o
FOC_InitAdditionalMethods                         build/mc_tasks.o
FPU_IRQHandler                                    build/startup_stm32g431xx.o
GLOBAL_TIMESTAMP                                  build/mcpa.o
                                                  build/mc_tasks.o
GetMCI                                            build/mc_tasks.o
HAL_DBGMCU_DisableDBGSleepMode                    build/stm32g4xx_hal.o
HAL_DBGMCU_DisableDBGStandbyMode                  build/stm32g4xx_hal.o
HAL_DBGMCU_DisableDBGStopMode                     build/stm32g4xx_hal.o
HAL_DBGMCU_EnableDBGSleepMode                     build/stm32g4xx_hal.o
HAL_DBGMCU_EnableDBGStandbyMode                   build/stm32g4xx_hal.o
HAL_DBGMCU_EnableDBGStopMode                      build/stm32g4xx_hal.o
HAL_DMAEx_ConfigMuxRequestGenerator               build/stm32g4xx_hal_dma_ex.o
HAL_DMAEx_ConfigMuxSync                           build/stm32g4xx_hal_dma_ex.o
HAL_DMAEx_DisableMuxRequestGenerator              build/stm32g4xx_hal_dma_ex.o
HAL_DMAEx_EnableMuxRequestGenerator               build/stm32g4xx_hal_dma_ex.o
HAL_DMAEx_MUX_IRQHandler                          build/stm32g4xx_hal_dma_ex.o
HAL_DMA_Abort                                     build/stm32g4xx_hal_dma.o
HAL_DMA_Abort_IT                                  build/stm32g4xx_hal_dma.o
                                                  build/stm32g4xx_hal_tim_ex.o
                                                  build/stm32g4xx_hal_tim.o
HAL_DMA_DeInit                                    build/stm32g4xx_hal_dma.o
HAL_DMA_GetError                                  build/stm32g4xx_hal_dma.o
HAL_DMA_GetState                                  build/stm32g4xx_hal_dma.o
HAL_DMA_IRQHandler                                build/stm32g4xx_hal_dma.o
HAL_DMA_Init                                      build/stm32g4xx_hal_dma.o
HAL_DMA_PollForTransfer                           build/stm32g4xx_hal_dma.o
HAL_DMA_RegisterCallback                          build/stm32g4xx_hal_dma.o
HAL_DMA_Start                                     build/stm32g4xx_hal_dma.o
HAL_DMA_Start_IT                                  build/stm32g4xx_hal_dma.o
                                                  build/stm32g4xx_hal_tim_ex.o
                                                  build/stm32g4xx_hal_tim.o
HAL_DMA_UnRegisterCallback                        build/stm32g4xx_hal_dma.o
HAL_DeInit                                        build/stm32g4xx_hal.o
HAL_Delay                                         build/stm32g4xx_hal.o
HAL_EXTI_ClearConfigLine                          build/stm32g4xx_hal_exti.o
HAL_EXTI_ClearPending                             build/stm32g4xx_hal_exti.o
HAL_EXTI_GenerateSWI                              build/stm32g4xx_hal_exti.o
HAL_EXTI_GetConfigLine                            build/stm32g4xx_hal_exti.o
HAL_EXTI_GetHandle                                build/stm32g4xx_hal_exti.o
HAL_EXTI_GetPending                               build/stm32g4xx_hal_exti.o
HAL_EXTI_IRQHandler                               build/stm32g4xx_hal_exti.o
HAL_EXTI_RegisterCallback                         build/stm32g4xx_hal_exti.o
HAL_EXTI_SetConfigLine                            build/stm32g4xx_hal_exti.o
HAL_FLASHEx_DisableDebugger                       build/stm32g4xx_hal_flash_ex.o
HAL_FLASHEx_DisableRunPowerDown                   build/stm32g4xx_hal_flash_ramfunc.o
HAL_FLASHEx_EnableDebugger                        build/stm32g4xx_hal_flash_ex.o
HAL_FLASHEx_EnableRunPowerDown                    build/stm32g4xx_hal_flash_ramfunc.o
HAL_FLASHEx_EnableSecMemProtection                build/stm32g4xx_hal_flash_ex.o
HAL_FLASHEx_Erase                                 build/stm32g4xx_hal_flash_ex.o
HAL_FLASHEx_Erase_IT                              build/stm32g4xx_hal_flash_ex.o
HAL_FLASHEx_OBGetConfig                           build/stm32g4xx_hal_flash_ex.o
HAL_FLASHEx_OBProgram                             build/stm32g4xx_hal_flash_ex.o
HAL_FLASH_EndOfOperationCallback                  build/stm32g4xx_hal_flash.o
HAL_FLASH_GetError                                build/stm32g4xx_hal_flash.o
HAL_FLASH_IRQHandler                              build/stm32g4xx_hal_flash.o
HAL_FLASH_Lock                                    build/stm32g4xx_hal_flash.o
HAL_FLASH_OB_Launch                               build/stm32g4xx_hal_flash.o
HAL_FLASH_OB_Lock                                 build/stm32g4xx_hal_flash.o
HAL_FLASH_OB_Unlock                               build/stm32g4xx_hal_flash.o
HAL_FLASH_OperationErrorCallback                  build/stm32g4xx_hal_flash.o
HAL_FLASH_Program                                 build/stm32g4xx_hal_flash.o
HAL_FLASH_Program_IT                              build/stm32g4xx_hal_flash.o
HAL_FLASH_Unlock                                  build/stm32g4xx_hal_flash.o
HAL_GPIO_DeInit                                   build/stm32g4xx_hal_gpio.o
                                                  build/stm32g4xx_hal_msp.o
HAL_GPIO_EXTI_Callback                            build/stm32g4xx_hal_gpio.o
HAL_GPIO_EXTI_IRQHandler                          build/stm32g4xx_hal_gpio.o
HAL_GPIO_Init                                     build/stm32g4xx_hal_gpio.o
                                                  build/stm32g4xx_hal_msp.o
                                                  build/stm32g4xx_hal_rcc_ex.o
                                                  build/stm32g4xx_hal_rcc.o
HAL_GPIO_LockPin                                  build/stm32g4xx_hal_gpio.o
HAL_GPIO_ReadPin                                  build/stm32g4xx_hal_gpio.o
HAL_GPIO_TogglePin                                build/stm32g4xx_hal_gpio.o
HAL_GPIO_WritePin                                 build/stm32g4xx_hal_gpio.o
HAL_GetDEVID                                      build/stm32g4xx_hal.o
HAL_GetHalVersion                                 build/stm32g4xx_hal.o
HAL_GetREVID                                      build/stm32g4xx_hal.o
HAL_GetTick                                       build/stm32g4xx_hal.o
                                                  build/stm32g4xx_hal_tim_ex.o
                                                  build/stm32g4xx_hal_rcc_ex.o
                                                  build/stm32g4xx_hal_rcc.o
                                                  build/stm32g4xx_hal_flash.o
                                                  build/stm32g4xx_hal_dma.o
HAL_GetTickFreq                                   build/stm32g4xx_hal.o
HAL_GetTickPrio                                   build/stm32g4xx_hal.o
HAL_IncTick                                       build/stm32g4xx_hal.o
                                                  build/stm32g4xx_mc_it.o
HAL_Init                                          build/stm32g4xx_hal.o
                                                  build/main.o
HAL_InitTick                                      build/stm32g4xx_hal.o
                                                  build/main.o
                                                  build/stm32g4xx_hal_rcc.o
HAL_MPU_ConfigRegion                              build/stm32g4xx_hal_cortex.o
HAL_MPU_Disable                                   build/stm32g4xx_hal_cortex.o
HAL_MPU_Enable                                    build/stm32g4xx_hal_cortex.o
HAL_MspDeInit                                     build/stm32g4xx_hal.o
HAL_MspInit                                       build/stm32g4xx_hal_msp.o
                                                  build/stm32g4xx_hal.o
HAL_NVIC_ClearPendingIRQ                          build/stm32g4xx_hal_cortex.o
HAL_NVIC_DisableIRQ                               build/stm32g4xx_hal_cortex.o
HAL_NVIC_EnableIRQ                                build/stm32g4xx_hal_cortex.o
HAL_NVIC_GetActive                                build/stm32g4xx_hal_cortex.o
HAL_NVIC_GetPendingIRQ                            build/stm32g4xx_hal_cortex.o
HAL_NVIC_GetPriority                              build/stm32g4xx_hal_cortex.o
HAL_NVIC_GetPriorityGrouping                      build/stm32g4xx_hal_cortex.o
HAL_NVIC_SetPendingIRQ                            build/stm32g4xx_hal_cortex.o
HAL_NVIC_SetPriority                              build/stm32g4xx_hal_cortex.o
                                                  build/motorcontrol.o
                                                  build/stm32g4xx_hal.o
HAL_NVIC_SetPriorityGrouping                      build/stm32g4xx_hal_cortex.o
                                                  build/stm32g4xx_hal_msp.o
                                                  build/stm32g4xx_hal.o
HAL_NVIC_SystemReset                              build/stm32g4xx_hal_cortex.o
HAL_PWREx_ConfigPVM                               build/stm32g4xx_hal_pwr_ex.o
HAL_PWREx_ControlVoltageScaling                   build/stm32g4xx_hal_pwr_ex.o
HAL_PWREx_DisableBatteryCharging                  build/stm32g4xx_hal_pwr_ex.o
HAL_PWREx_DisableGPIOPullDown                     build/stm32g4xx_hal_pwr_ex.o
HAL_PWREx_DisableGPIOPullUp                       build/stm32g4xx_hal_pwr_ex.o
HAL_PWREx_DisableInternalWakeUpLine               build/stm32g4xx_hal_pwr_ex.o
HAL_PWREx_DisableLowPowerRunMode                  build/stm32g4xx_hal_pwr_ex.o
                                                  build/stm32g4xx_hal_pwr.o
HAL_PWREx_DisablePVM1                             build/stm32g4xx_hal_pwr_ex.o
HAL_PWREx_DisablePVM2                             build/stm32g4xx_hal_pwr_ex.o
HAL_PWREx_DisablePVM3                             build/stm32g4xx_hal_pwr_ex.o
HAL_PWREx_DisablePVM4                             build/stm32g4xx_hal_pwr_ex.o
HAL_PWREx_DisablePullUpPullDownConfig             build/stm32g4xx_hal_pwr_ex.o
HAL_PWREx_DisableSRAM2ContentRetention            build/stm32g4xx_hal_pwr_ex.o
HAL_PWREx_DisableUCPDDeadBattery                  build/stm32g4xx_hal_pwr_ex.o
                                                  build/stm32g4xx_hal_msp.o
HAL_PWREx_DisableUCPDStandbyMode                  build/stm32g4xx_hal_pwr_ex.o
HAL_PWREx_EnableBatteryCharging                   build/stm32g4xx_hal_pwr_ex.o
HAL_PWREx_EnableGPIOPullDown                      build/stm32g4xx_hal_pwr_ex.o
HAL_PWREx_EnableGPIOPullUp                        build/stm32g4xx_hal_pwr_ex.o
HAL_PWREx_EnableInternalWakeUpLine                build/stm32g4xx_hal_pwr_ex.o
HAL_PWREx_EnableLowPowerRunMode                   build/stm32g4xx_hal_pwr_ex.o
                                                  build/stm32g4xx_hal_pwr.o
HAL_PWREx_EnablePVM1                              build/stm32g4xx_hal_pwr_ex.o
HAL_PWREx_EnablePVM2                              build/stm32g4xx_hal_pwr_ex.o
HAL_PWREx_EnablePVM3                              build/stm32g4xx_hal_pwr_ex.o
HAL_PWREx_EnablePVM4                              build/stm32g4xx_hal_pwr_ex.o
HAL_PWREx_EnablePullUpPullDownConfig              build/stm32g4xx_hal_pwr_ex.o
HAL_PWREx_EnableSRAM2ContentRetention             build/stm32g4xx_hal_pwr_ex.o
HAL_PWREx_EnableUCPDDeadBattery                   build/stm32g4xx_hal_pwr_ex.o
HAL_PWREx_EnableUCPDStandbyMode                   build/stm32g4xx_hal_pwr_ex.o
HAL_PWREx_EnterSHUTDOWNMode                       build/stm32g4xx_hal_pwr_ex.o
HAL_PWREx_EnterSTOP0Mode                          build/stm32g4xx_hal_pwr_ex.o
                                                  build/stm32g4xx_hal_pwr.o
HAL_PWREx_EnterSTOP1Mode                          build/stm32g4xx_hal_pwr_ex.o
                                                  build/stm32g4xx_hal_pwr.o
HAL_PWREx_GetVoltageRange                         build/stm32g4xx_hal_pwr_ex.o
HAL_PWREx_PVD_PVM_IRQHandler                      build/stm32g4xx_hal_pwr_ex.o
HAL_PWREx_PVM1Callback                            build/stm32g4xx_hal_pwr_ex.o
HAL_PWREx_PVM2Callback                            build/stm32g4xx_hal_pwr_ex.o
HAL_PWREx_PVM3Callback                            build/stm32g4xx_hal_pwr_ex.o
HAL_PWREx_PVM4Callback                            build/stm32g4xx_hal_pwr_ex.o
HAL_PWR_ConfigPVD                                 build/stm32g4xx_hal_pwr.o
HAL_PWR_DeInit                                    build/stm32g4xx_hal_pwr.o
HAL_PWR_DisableBkUpAccess                         build/stm32g4xx_hal_pwr.o
                                                  build/stm32g4xx_hal_rcc_ex.o
HAL_PWR_DisablePVD                                build/stm32g4xx_hal_pwr.o
HAL_PWR_DisableSEVOnPend                          build/stm32g4xx_hal_pwr.o
HAL_PWR_DisableSleepOnExit                        build/stm32g4xx_hal_pwr.o
HAL_PWR_DisableWakeUpPin                          build/stm32g4xx_hal_pwr.o
HAL_PWR_EnableBkUpAccess                          build/stm32g4xx_hal_pwr.o
                                                  build/stm32g4xx_hal_rcc_ex.o
HAL_PWR_EnablePVD                                 build/stm32g4xx_hal_pwr.o
HAL_PWR_EnableSEVOnPend                           build/stm32g4xx_hal_pwr.o
HAL_PWR_EnableSleepOnExit                         build/stm32g4xx_hal_pwr.o
HAL_PWR_EnableWakeUpPin                           build/stm32g4xx_hal_pwr.o
HAL_PWR_EnterSLEEPMode                            build/stm32g4xx_hal_pwr.o
HAL_PWR_EnterSTANDBYMode                          build/stm32g4xx_hal_pwr.o
HAL_PWR_EnterSTOPMode                             build/stm32g4xx_hal_pwr.o
HAL_PWR_PVDCallback                               build/stm32g4xx_hal_pwr.o
                                                  build/stm32g4xx_hal_pwr_ex.o
HAL_RCCEx_CRSConfig                               build/stm32g4xx_hal_rcc_ex.o
HAL_RCCEx_CRSGetSynchronizationInfo               build/stm32g4xx_hal_rcc_ex.o
HAL_RCCEx_CRSSoftwareSynchronizationGenerate      build/stm32g4xx_hal_rcc_ex.o
HAL_RCCEx_CRSWaitSynchronization                  build/stm32g4xx_hal_rcc_ex.o
HAL_RCCEx_CRS_ErrorCallback                       build/stm32g4xx_hal_rcc_ex.o
HAL_RCCEx_CRS_ExpectedSyncCallback                build/stm32g4xx_hal_rcc_ex.o
HAL_RCCEx_CRS_IRQHandler                          build/stm32g4xx_hal_rcc_ex.o
HAL_RCCEx_CRS_SyncOkCallback                      build/stm32g4xx_hal_rcc_ex.o
HAL_RCCEx_CRS_SyncWarnCallback                    build/stm32g4xx_hal_rcc_ex.o
HAL_RCCEx_DisableLSCO                             build/stm32g4xx_hal_rcc_ex.o
HAL_RCCEx_DisableLSECSS                           build/stm32g4xx_hal_rcc_ex.o
HAL_RCCEx_EnableLSCO                              build/stm32g4xx_hal_rcc_ex.o
HAL_RCCEx_EnableLSECSS                            build/stm32g4xx_hal_rcc_ex.o
HAL_RCCEx_EnableLSECSS_IT                         build/stm32g4xx_hal_rcc_ex.o
HAL_RCCEx_GetPeriphCLKConfig                      build/stm32g4xx_hal_rcc_ex.o
HAL_RCCEx_GetPeriphCLKFreq                        build/stm32g4xx_hal_rcc_ex.o
HAL_RCCEx_LSECSS_Callback                         build/stm32g4xx_hal_rcc_ex.o
HAL_RCCEx_LSECSS_IRQHandler                       build/stm32g4xx_hal_rcc_ex.o
HAL_RCCEx_PeriphCLKConfig                         build/stm32g4xx_hal_rcc_ex.o
HAL_RCC_CSSCallback                               build/stm32g4xx_hal_rcc.o
HAL_RCC_ClockConfig                               build/stm32g4xx_hal_rcc.o
HAL_RCC_DeInit                                    build/stm32g4xx_hal_rcc.o
HAL_RCC_DisableLSECSS                             build/stm32g4xx_hal_rcc.o
HAL_RCC_EnableCSS                                 build/stm32g4xx_hal_rcc.o
HAL_RCC_EnableLSECSS                              build/stm32g4xx_hal_rcc.o
HAL_RCC_GetClockConfig                            build/stm32g4xx_hal_rcc.o
HAL_RCC_GetHCLKFreq                               build/stm32g4xx_hal_rcc.o
                                                  build/motorcontrol.o
HAL_RCC_GetOscConfig                              build/stm32g4xx_hal_rcc.o
HAL_RCC_GetPCLK1Freq                              build/stm32g4xx_hal_rcc.o
                                                  build/stm32g4xx_hal_rcc_ex.o
HAL_RCC_GetPCLK2Freq                              build/stm32g4xx_hal_rcc.o
                                                  build/stm32g4xx_hal_rcc_ex.o
HAL_RCC_GetSysClockFreq                           build/stm32g4xx_hal_rcc.o
                                                  build/stm32g4xx_hal_rcc_ex.o
HAL_RCC_MCOConfig                                 build/stm32g4xx_hal_rcc.o
HAL_RCC_NMI_IRQHandler                            build/stm32g4xx_hal_rcc.o
HAL_RCC_OscConfig                                 build/stm32g4xx_hal_rcc.o
HAL_ResumeTick                                    build/stm32g4xx_hal.o
HAL_SYSCFG_CCMSRAMErase                           build/stm32g4xx_hal.o
HAL_SYSCFG_CCMSRAM_WriteProtectionEnable          build/stm32g4xx_hal.o
HAL_SYSCFG_DisableIOSwitchBooster                 build/stm32g4xx_hal.o
HAL_SYSCFG_DisableIOSwitchVDD                     build/stm32g4xx_hal.o
HAL_SYSCFG_DisableMemorySwappingBank              build/stm32g4xx_hal.o
HAL_SYSCFG_DisableVREFBUF                         build/stm32g4xx_hal.o
HAL_SYSCFG_EnableIOSwitchBooster                  build/stm32g4xx_hal.o
HAL_SYSCFG_EnableIOSwitchVDD                      build/stm32g4xx_hal.o
HAL_SYSCFG_EnableMemorySwappingBank               build/stm32g4xx_hal.o
HAL_SYSCFG_EnableVREFBUF                          build/stm32g4xx_hal.o
HAL_SYSCFG_VREFBUF_HighImpedanceConfig            build/stm32g4xx_hal.o
HAL_SYSCFG_VREFBUF_TrimmingConfig                 build/stm32g4xx_hal.o
HAL_SYSCFG_VREFBUF_VoltageScalingConfig           build/stm32g4xx_hal.o
HAL_SYSTICK_CLKSourceConfig                       build/stm32g4xx_hal_cortex.o
HAL_SYSTICK_Callback                              build/stm32g4xx_hal_cortex.o
HAL_SYSTICK_Config                                build/stm32g4xx_hal_cortex.o
                                                  build/motorcontrol.o
                                                  build/stm32g4xx_hal.o
HAL_SYSTICK_IRQHandler                            build/stm32g4xx_hal_cortex.o
                                                  build/stm32g4xx_mc_it.o
HAL_SetTickFreq                                   build/stm32g4xx_hal.o
HAL_SuspendTick                                   build/stm32g4xx_hal.o
HAL_TIMEx_Break2Callback                          build/stm32g4xx_hal_tim_ex.o
                                                  build/stm32g4xx_hal_tim.o
HAL_TIMEx_BreakCallback                           build/stm32g4xx_hal_tim_ex.o
                                                  build/stm32g4xx_hal_tim.o
HAL_TIMEx_CommutCallback                          build/stm32g4xx_hal_tim_ex.o
                                                  build/stm32g4xx_hal_tim.o
HAL_TIMEx_CommutHalfCpltCallback                  build/stm32g4xx_hal_tim_ex.o
HAL_TIMEx_ConfigAsymmetricalDeadTime              build/stm32g4xx_hal_tim_ex.o
HAL_TIMEx_ConfigBreakDeadTime                     build/stm32g4xx_hal_tim_ex.o
HAL_TIMEx_ConfigBreakInput                        build/stm32g4xx_hal_tim_ex.o
HAL_TIMEx_ConfigCommutEvent                       build/stm32g4xx_hal_tim_ex.o
HAL_TIMEx_ConfigCommutEvent_DMA                   build/stm32g4xx_hal_tim_ex.o
HAL_TIMEx_ConfigCommutEvent_IT                    build/stm32g4xx_hal_tim_ex.o
HAL_TIMEx_ConfigDeadTime                          build/stm32g4xx_hal_tim_ex.o
HAL_TIMEx_ConfigEncoderIndex                      build/stm32g4xx_hal_tim_ex.o
HAL_TIMEx_ConfigSlaveModePreload                  build/stm32g4xx_hal_tim_ex.o
HAL_TIMEx_DirectionChangeCallback                 build/stm32g4xx_hal_tim_ex.o
                                                  build/stm32g4xx_hal_tim.o
HAL_TIMEx_DisableAsymmetricalDeadTime             build/stm32g4xx_hal_tim_ex.o
HAL_TIMEx_DisableDeadTimePreload                  build/stm32g4xx_hal_tim_ex.o
HAL_TIMEx_DisableEncoderFirstIndex                build/stm32g4xx_hal_tim_ex.o
HAL_TIMEx_DisableEncoderIndex                     build/stm32g4xx_hal_tim_ex.o
HAL_TIMEx_DisableSlaveModePreload                 build/stm32g4xx_hal_tim_ex.o
HAL_TIMEx_DisarmBreakInput                        build/stm32g4xx_hal_tim_ex.o
HAL_TIMEx_DitheringDisable                        build/stm32g4xx_hal_tim_ex.o
HAL_TIMEx_DitheringEnable                         build/stm32g4xx_hal_tim_ex.o
HAL_TIMEx_EnableAsymmetricalDeadTime              build/stm32g4xx_hal_tim_ex.o
HAL_TIMEx_EnableDeadTimePreload                   build/stm32g4xx_hal_tim_ex.o
HAL_TIMEx_EnableEncoderFirstIndex                 build/stm32g4xx_hal_tim_ex.o
HAL_TIMEx_EnableEncoderIndex                      build/stm32g4xx_hal_tim_ex.o
HAL_TIMEx_EnableSlaveModePreload                  build/stm32g4xx_hal_tim_ex.o
HAL_TIMEx_EncoderIndexCallback                    build/stm32g4xx_hal_tim_ex.o
                                                  build/stm32g4xx_hal_tim.o
HAL_TIMEx_GetChannelNState                        build/stm32g4xx_hal_tim_ex.o
HAL_TIMEx_GroupChannel5                           build/stm32g4xx_hal_tim_ex.o
HAL_TIMEx_HallSensor_DeInit                       build/stm32g4xx_hal_tim_ex.o
HAL_TIMEx_HallSensor_GetState                     build/stm32g4xx_hal_tim_ex.o
HAL_TIMEx_HallSensor_Init                         build/stm32g4xx_hal_tim_ex.o
HAL_TIMEx_HallSensor_MspDeInit                    build/stm32g4xx_hal_tim_ex.o
HAL_TIMEx_HallSensor_MspInit                      build/stm32g4xx_hal_tim_ex.o
HAL_TIMEx_HallSensor_Start                        build/stm32g4xx_hal_tim_ex.o
HAL_TIMEx_HallSensor_Start_DMA                    build/stm32g4xx_hal_tim_ex.o
HAL_TIMEx_HallSensor_Start_IT                     build/stm32g4xx_hal_tim_ex.o
HAL_TIMEx_HallSensor_Stop                         build/stm32g4xx_hal_tim_ex.o
HAL_TIMEx_HallSensor_Stop_DMA                     build/stm32g4xx_hal_tim_ex.o
HAL_TIMEx_HallSensor_Stop_IT                      build/stm32g4xx_hal_tim_ex.o
HAL_TIMEx_IndexErrorCallback                      build/stm32g4xx_hal_tim_ex.o
                                                  build/stm32g4xx_hal_tim.o
HAL_TIMEx_MasterConfigSynchronization             build/stm32g4xx_hal_tim_ex.o
                                                  build/main.o
HAL_TIMEx_OCN_Start                               build/stm32g4xx_hal_tim_ex.o
HAL_TIMEx_OCN_Start_DMA                           build/stm32g4xx_hal_tim_ex.o
HAL_TIMEx_OCN_Start_IT                            build/stm32g4xx_hal_tim_ex.o
HAL_TIMEx_OCN_Stop                                build/stm32g4xx_hal_tim_ex.o
HAL_TIMEx_OCN_Stop_DMA                            build/stm32g4xx_hal_tim_ex.o
HAL_TIMEx_OCN_Stop_IT                             build/stm32g4xx_hal_tim_ex.o
HAL_TIMEx_OC_ConfigPulseOnCompare                 build/stm32g4xx_hal_tim_ex.o
HAL_TIMEx_OnePulseN_Start                         build/stm32g4xx_hal_tim_ex.o
HAL_TIMEx_OnePulseN_Start_IT                      build/stm32g4xx_hal_tim_ex.o
HAL_TIMEx_OnePulseN_Stop                          build/stm32g4xx_hal_tim_ex.o
HAL_TIMEx_OnePulseN_Stop_IT                       build/stm32g4xx_hal_tim_ex.o
HAL_TIMEx_PWMN_Start                              build/stm32g4xx_hal_tim_ex.o
HAL_TIMEx_PWMN_Start_DMA                          build/stm32g4xx_hal_tim_ex.o
HAL_TIMEx_PWMN_Start_IT                           build/stm32g4xx_hal_tim_ex.o
HAL_TIMEx_PWMN_Stop                               build/stm32g4xx_hal_tim_ex.o
HAL_TIMEx_PWMN_Stop_DMA                           build/stm32g4xx_hal_tim_ex.o
HAL_TIMEx_PWMN_Stop_IT                            build/stm32g4xx_hal_tim_ex.o
HAL_TIMEx_ReArmBreakInput                         build/stm32g4xx_hal_tim_ex.o
HAL_TIMEx_RemapConfig                             build/stm32g4xx_hal_tim_ex.o
HAL_TIMEx_TISelection                             build/stm32g4xx_hal_tim_ex.o
HAL_TIMEx_TransitionErrorCallback                 build/stm32g4xx_hal_tim_ex.o
                                                  build/stm32g4xx_hal_tim.o
HAL_TIM_Base_DeInit                               build/stm32g4xx_hal_tim.o
HAL_TIM_Base_GetState                             build/stm32g4xx_hal_tim.o
HAL_TIM_Base_Init                                 build/stm32g4xx_hal_tim.o
HAL_TIM_Base_MspDeInit                            build/stm32g4xx_hal_tim.o
HAL_TIM_Base_MspInit                              build/stm32g4xx_hal_tim.o
HAL_TIM_Base_Start                                build/stm32g4xx_hal_tim.o
HAL_TIM_Base_Start_DMA                            build/stm32g4xx_hal_tim.o
HAL_TIM_Base_Start_IT                             build/stm32g4xx_hal_tim.o
HAL_TIM_Base_Stop                                 build/stm32g4xx_hal_tim.o
HAL_TIM_Base_Stop_DMA                             build/stm32g4xx_hal_tim.o
HAL_TIM_Base_Stop_IT                              build/stm32g4xx_hal_tim.o
HAL_TIM_ConfigClockSource                         build/stm32g4xx_hal_tim.o
HAL_TIM_ConfigOCrefClear                          build/stm32g4xx_hal_tim.o
HAL_TIM_ConfigTI1Input                            build/stm32g4xx_hal_tim.o
HAL_TIM_DMABurstState                             build/stm32g4xx_hal_tim.o
HAL_TIM_DMABurst_MultiReadStart                   build/stm32g4xx_hal_tim.o
HAL_TIM_DMABurst_MultiWriteStart                  build/stm32g4xx_hal_tim.o
HAL_TIM_DMABurst_ReadStart                        build/stm32g4xx_hal_tim.o
HAL_TIM_DMABurst_ReadStop                         build/stm32g4xx_hal_tim.o
HAL_TIM_DMABurst_WriteStart                       build/stm32g4xx_hal_tim.o
HAL_TIM_DMABurst_WriteStop                        build/stm32g4xx_hal_tim.o
HAL_TIM_Encoder_DeInit                            build/stm32g4xx_hal_tim.o
HAL_TIM_Encoder_GetState                          build/stm32g4xx_hal_tim.o
HAL_TIM_Encoder_Init                              build/stm32g4xx_hal_tim.o
                                                  build/main.o
HAL_TIM_Encoder_MspDeInit                         build/stm32g4xx_hal_msp.o
                                                  build/stm32g4xx_hal_tim.o
HAL_TIM_Encoder_MspInit                           build/stm32g4xx_hal_msp.o
                                                  build/stm32g4xx_hal_tim.o
HAL_TIM_Encoder_Start                             build/stm32g4xx_hal_tim.o
HAL_TIM_Encoder_Start_DMA                         build/stm32g4xx_hal_tim.o
HAL_TIM_Encoder_Start_IT                          build/stm32g4xx_hal_tim.o
HAL_TIM_Encoder_Stop                              build/stm32g4xx_hal_tim.o
HAL_TIM_Encoder_Stop_DMA                          build/stm32g4xx_hal_tim.o
HAL_TIM_Encoder_Stop_IT                           build/stm32g4xx_hal_tim.o
HAL_TIM_ErrorCallback                             build/stm32g4xx_hal_tim.o
                                                  build/stm32g4xx_hal_tim_ex.o
HAL_TIM_GenerateEvent                             build/stm32g4xx_hal_tim.o
HAL_TIM_GetActiveChannel                          build/stm32g4xx_hal_tim.o
HAL_TIM_GetChannelState                           build/stm32g4xx_hal_tim.o
HAL_TIM_IC_CaptureCallback                        build/stm32g4xx_hal_tim.o
HAL_TIM_IC_CaptureHalfCpltCallback                build/stm32g4xx_hal_tim.o
HAL_TIM_IC_ConfigChannel                          build/stm32g4xx_hal_tim.o
HAL_TIM_IC_DeInit                                 build/stm32g4xx_hal_tim.o
HAL_TIM_IC_GetState                               build/stm32g4xx_hal_tim.o
HAL_TIM_IC_Init                                   build/stm32g4xx_hal_tim.o
HAL_TIM_IC_MspDeInit                              build/stm32g4xx_hal_tim.o
HAL_TIM_IC_MspInit                                build/stm32g4xx_hal_tim.o
HAL_TIM_IC_Start                                  build/stm32g4xx_hal_tim.o
HAL_TIM_IC_Start_DMA                              build/stm32g4xx_hal_tim.o
HAL_TIM_IC_Start_IT                               build/stm32g4xx_hal_tim.o
HAL_TIM_IC_Stop                                   build/stm32g4xx_hal_tim.o
HAL_TIM_IC_Stop_DMA                               build/stm32g4xx_hal_tim.o
HAL_TIM_IC_Stop_IT                                build/stm32g4xx_hal_tim.o
HAL_TIM_IRQHandler                                build/stm32g4xx_hal_tim.o
HAL_TIM_OC_ConfigChannel                          build/stm32g4xx_hal_tim.o
HAL_TIM_OC_DeInit                                 build/stm32g4xx_hal_tim.o
HAL_TIM_OC_DelayElapsedCallback                   build/stm32g4xx_hal_tim.o
HAL_TIM_OC_GetState                               build/stm32g4xx_hal_tim.o
HAL_TIM_OC_Init                                   build/stm32g4xx_hal_tim.o
HAL_TIM_OC_MspDeInit                              build/stm32g4xx_hal_tim.o
HAL_TIM_OC_MspInit                                build/stm32g4xx_hal_tim.o
HAL_TIM_OC_Start                                  build/stm32g4xx_hal_tim.o
HAL_TIM_OC_Start_DMA                              build/stm32g4xx_hal_tim.o
HAL_TIM_OC_Start_IT                               build/stm32g4xx_hal_tim.o
HAL_TIM_OC_Stop                                   build/stm32g4xx_hal_tim.o
HAL_TIM_OC_Stop_DMA                               build/stm32g4xx_hal_tim.o
HAL_TIM_OC_Stop_IT                                build/stm32g4xx_hal_tim.o
HAL_TIM_OnePulse_ConfigChannel                    build/stm32g4xx_hal_tim.o
HAL_TIM_OnePulse_DeInit                           build/stm32g4xx_hal_tim.o
HAL_TIM_OnePulse_GetState                         build/stm32g4xx_hal_tim.o
HAL_TIM_OnePulse_Init                             build/stm32g4xx_hal_tim.o
HAL_TIM_OnePulse_MspDeInit                        build/stm32g4xx_hal_tim.o
HAL_TIM_OnePulse_MspInit                          build/stm32g4xx_hal_tim.o
HAL_TIM_OnePulse_Start                            build/stm32g4xx_hal_tim.o
HAL_TIM_OnePulse_Start_IT                         build/stm32g4xx_hal_tim.o
HAL_TIM_OnePulse_Stop                             build/stm32g4xx_hal_tim.o
HAL_TIM_OnePulse_Stop_IT                          build/stm32g4xx_hal_tim.o
HAL_TIM_PWM_ConfigChannel                         build/stm32g4xx_hal_tim.o
HAL_TIM_PWM_DeInit                                build/stm32g4xx_hal_tim.o
HAL_TIM_PWM_GetState                              build/stm32g4xx_hal_tim.o
HAL_TIM_PWM_Init                                  build/stm32g4xx_hal_tim.o
HAL_TIM_PWM_MspDeInit                             build/stm32g4xx_hal_tim.o
HAL_TIM_PWM_MspInit                               build/stm32g4xx_hal_tim.o
HAL_TIM_PWM_PulseFinishedCallback                 build/stm32g4xx_hal_tim.o
                                                  build/stm32g4xx_hal_tim_ex.o
HAL_TIM_PWM_PulseFinishedHalfCpltCallback         build/stm32g4xx_hal_tim.o
HAL_TIM_PWM_Start                                 build/stm32g4xx_hal_tim.o
HAL_TIM_PWM_Start_DMA                             build/stm32g4xx_hal_tim.o
HAL_TIM_PWM_Start_IT                              build/stm32g4xx_hal_tim.o
HAL_TIM_PWM_Stop                                  build/stm32g4xx_hal_tim.o
HAL_TIM_PWM_Stop_DMA                              build/stm32g4xx_hal_tim.o
HAL_TIM_PWM_Stop_IT                               build/stm32g4xx_hal_tim.o
HAL_TIM_PeriodElapsedCallback                     build/stm32g4xx_hal_tim.o
HAL_TIM_PeriodElapsedHalfCpltCallback             build/stm32g4xx_hal_tim.o
HAL_TIM_ReadCapturedValue                         build/stm32g4xx_hal_tim.o
HAL_TIM_SlaveConfigSynchro                        build/stm32g4xx_hal_tim.o
HAL_TIM_SlaveConfigSynchro_IT                     build/stm32g4xx_hal_tim.o
HAL_TIM_TriggerCallback                           build/stm32g4xx_hal_tim.o
HAL_TIM_TriggerHalfCpltCallback                   build/stm32g4xx_hal_tim.o
HardFault_Handler                                 build/stm32g4xx_mc_it.o
I2C1_ER_IRQHandler                                build/startup_stm32g431xx.o
I2C1_EV_IRQHandler                                build/startup_stm32g431xx.o
I2C2_ER_IRQHandler                                build/startup_stm32g431xx.o
I2C2_EV_IRQHandler                                build/startup_stm32g431xx.o
I2C3_ER_IRQHandler                                build/startup_stm32g431xx.o
I2C3_EV_IRQHandler                                build/startup_stm32g431xx.o
LL_ADC_CommonDeInit                               build/stm32g4xx_ll_adc.o
LL_ADC_CommonInit                                 build/stm32g4xx_ll_adc.o
                                                  build/main.o
LL_ADC_CommonStructInit                           build/stm32g4xx_ll_adc.o
LL_ADC_DeInit                                     build/stm32g4xx_ll_adc.o
LL_ADC_INJ_Init                                   build/stm32g4xx_ll_adc.o
                                                  build/main.o
LL_ADC_INJ_StructInit                             build/stm32g4xx_ll_adc.o
LL_ADC_Init                                       build/stm32g4xx_ll_adc.o
                                                  build/main.o
LL_ADC_REG_Init                                   build/stm32g4xx_ll_adc.o
                                                  build/main.o
LL_ADC_REG_StructInit                             build/stm32g4xx_ll_adc.o
LL_ADC_StructInit                                 build/stm32g4xx_ll_adc.o
LL_CORDIC_DeInit                                  build/stm32g4xx_ll_cordic.o
LL_DMA_DeInit                                     build/stm32g4xx_ll_dma.o
LL_DMA_Init                                       build/stm32g4xx_ll_dma.o
LL_DMA_StructInit                                 build/stm32g4xx_ll_dma.o
LL_EXTI_DeInit                                    build/stm32g4xx_ll_exti.o
LL_EXTI_Init                                      build/stm32g4xx_ll_exti.o
                                                  build/main.o
LL_EXTI_StructInit                                build/stm32g4xx_ll_exti.o
LL_GPIO_DeInit                                    build/stm32g4xx_ll_gpio.o
LL_GPIO_Init                                      build/stm32g4xx_ll_gpio.o
                                                  build/main.o
LL_GPIO_StructInit                                build/stm32g4xx_ll_gpio.o
LL_Init1msTick                                    build/stm32g4xx_ll_utils.o
LL_OPAMP_DeInit                                   build/stm32g4xx_ll_opamp.o
LL_OPAMP_Init                                     build/stm32g4xx_ll_opamp.o
                                                  build/main.o
LL_OPAMP_StructInit                               build/stm32g4xx_ll_opamp.o
LL_PLL_ConfigSystemClock_HSE                      build/stm32g4xx_ll_utils.o
LL_PLL_ConfigSystemClock_HSI                      build/stm32g4xx_ll_utils.o
LL_RCC_DeInit                                     build/stm32g4xx_ll_rcc.o
LL_RCC_GetADCClockFreq                            build/stm32g4xx_ll_rcc.o
LL_RCC_GetFDCANClockFreq                          build/stm32g4xx_ll_rcc.o
LL_RCC_GetI2CClockFreq                            build/stm32g4xx_ll_rcc.o
LL_RCC_GetI2SClockFreq                            build/stm32g4xx_ll_rcc.o
LL_RCC_GetLPTIMClockFreq                          build/stm32g4xx_ll_rcc.o
LL_RCC_GetLPUARTClockFreq                         build/stm32g4xx_ll_rcc.o
LL_RCC_GetRNGClockFreq                            build/stm32g4xx_ll_rcc.o
LL_RCC_GetSAIClockFreq                            build/stm32g4xx_ll_rcc.o
LL_RCC_GetSystemClocksFreq                        build/stm32g4xx_ll_rcc.o
LL_RCC_GetUARTClockFreq                           build/stm32g4xx_ll_rcc.o
                                                  build/stm32g4xx_ll_usart.o
LL_RCC_GetUSARTClockFreq                          build/stm32g4xx_ll_rcc.o
                                                  build/stm32g4xx_ll_usart.o
LL_RCC_GetUSBClockFreq                            build/stm32g4xx_ll_rcc.o
LL_SetFlashLatency                                build/stm32g4xx_ll_utils.o
LL_SetSystemCoreClock                             build/stm32g4xx_ll_utils.o
                                                  build/main.o
LL_TIM_BDTR_Init                                  build/stm32g4xx_ll_tim.o
                                                  build/main.o
LL_TIM_BDTR_StructInit                            build/stm32g4xx_ll_tim.o
LL_TIM_DeInit                                     build/stm32g4xx_ll_tim.o
LL_TIM_ENCODER_Init                               build/stm32g4xx_ll_tim.o
LL_TIM_ENCODER_StructInit                         build/stm32g4xx_ll_tim.o
LL_TIM_HALLSENSOR_Init                            build/stm32g4xx_ll_tim.o
LL_TIM_HALLSENSOR_StructInit                      build/stm32g4xx_ll_tim.o
LL_TIM_IC_Init                                    build/stm32g4xx_ll_tim.o
LL_TIM_IC_StructInit                              build/stm32g4xx_ll_tim.o
LL_TIM_Init                                       build/stm32g4xx_ll_tim.o
                                                  build/main.o
LL_TIM_OC_Init                                    build/stm32g4xx_ll_tim.o
                                                  build/main.o
LL_TIM_OC_StructInit                              build/stm32g4xx_ll_tim.o
LL_TIM_StructInit                                 build/stm32g4xx_ll_tim.o
LL_USART_ClockInit                                build/stm32g4xx_ll_usart.o
LL_USART_ClockStructInit                          build/stm32g4xx_ll_usart.o
LL_USART_DeInit                                   build/stm32g4xx_ll_usart.o
LL_USART_Init                                     build/stm32g4xx_ll_usart.o
                                                  build/main.o
LL_USART_StructInit                               build/stm32g4xx_ll_usart.o
LL_mDelay                                         build/stm32g4xx_ll_utils.o
LPTIM1_IRQHandler                                 build/startup_stm32g431xx.o
LPUART1_IRQHandler                                build/startup_stm32g431xx.o
M1_MotorConfig_reg                                build/mc_configuration_registers.o
MCI_Clear_Iqdref                                  build/mc_interface.o
                                                  build/mc_api.o
                                                  build/mcp.o
MCI_ExecBufferedCommands                          build/mc_interface.o
                                                  build/mc_tasks.o
MCI_ExecSpeedRamp                                 build/mc_interface.o
                                                  build/register_interface.o
                                                  build/mc_tasks.o
                                                  build/mc_api.o
MCI_ExecSpeedRamp_F                               build/mc_interface.o
                                                  build/mc_api.o
MCI_ExecSpeedSin                                  build/mc_interface.o
                                                  build/register_interface.o
                                                  build/mc_api.o
MCI_ExecTorqueRamp                                build/mc_interface.o
                                                  build/register_interface.o
                                                  build/mc_api.o
MCI_ExecTorqueRamp_F                              build/mc_interface.o
                                                  build/mc_api.o
MCI_FaultAcknowledged                             build/mc_interface.o
                                                  build/mc_api.o
                                                  build/mcp.o
MCI_FaultProcessing                               build/mc_interface.o
                                                  build/mc_tasks.o
MCI_GetAvrgMecSpeedUnit                           build/mc_interface.o
                                                  build/register_interface.o
                                                  build/mc_api.o
MCI_GetAvrgMecSpeed_F                             build/mc_interface.o
                                                  build/mc_api.o
MCI_GetCalibratedOffsetsMotor                     build/mc_interface.o
                                                  build/mc_api.o
MCI_GetControlMode                                build/mc_interface.o
                                                  build/register_interface.o
                                                  build/mc_api.o
MCI_GetCurrentFaults                              build/mc_interface.o
                                                  build/mc_tasks.o
                                                  build/mc_api.o
MCI_GetElAngledpp                                 build/mc_interface.o
                                                  build/mc_api.o
MCI_GetFaultState                                 build/mc_interface.o
                                                  build/register_interface.o
                                                  build/mc_tasks.o
MCI_GetIab                                        build/mc_interface.o
                                                  build/register_interface.o
                                                  build/mc_api.o
MCI_GetIab_F                                      build/mc_interface.o
                                                  build/mc_api.o
MCI_GetIalphabeta                                 build/mc_interface.o
                                                  build/register_interface.o
                                                  build/mc_api.o
MCI_GetImposedMotorDirection                      build/mc_interface.o
                                                  build/mc_tasks.o
                                                  build/mc_api.o
MCI_GetIqd                                        build/mc_interface.o
                                                  build/register_interface.o
                                                  build/mc_api.o
MCI_GetIqdHF                                      build/mc_interface.o
MCI_GetIqd_F                                      build/mc_interface.o
                                                  build/mc_api.o
MCI_GetIqdref                                     build/mc_interface.o
                                                  build/register_interface.o
                                                  build/mc_api.o
MCI_GetIqdref_F                                   build/mc_interface.o
                                                  build/mc_api.o
MCI_GetLastCommand                                build/mc_interface.o
                                                  build/mc_api.o
MCI_GetLastRampFinalDuration                      build/mc_interface.o
                                                  build/register_interface.o
MCI_GetLastRampFinalSpeed                         build/mc_interface.o
                                                  build/register_interface.o
                                                  build/mc_api.o
MCI_GetLastRampFinalSpeed_F                       build/mc_interface.o
                                                  build/mc_api.o
MCI_GetLastRampFinalTorque                        build/mc_interface.o
                                                  build/register_interface.o
MCI_GetMecSpeedRefUnit                            build/mc_interface.o
                                                  build/register_interface.o
                                                  build/mc_api.o
MCI_GetMecSpeedRef_F                              build/mc_interface.o
                                                  build/mc_api.o
MCI_GetOccurredFaults                             build/mc_interface.o
                                                  build/mc_tasks.o
                                                  build/mc_api.o
MCI_GetPhaseCurrentAmplitude                      build/mc_interface.o
                                                  build/mc_api.o
MCI_GetPhaseVoltageAmplitude                      build/mc_interface.o
                                                  build/mc_api.o
MCI_GetSTMState                                   build/mc_interface.o
                                                  build/register_interface.o
                                                  build/mc_api.o
                                                  build/mcp.o
MCI_GetSpdSensorReliability                       build/mc_interface.o
                                                  build/mc_api.o
MCI_GetTeref                                      build/mc_interface.o
                                                  build/register_interface.o
                                                  build/mc_api.o
MCI_GetTeref_F                                    build/mc_interface.o
                                                  build/mc_api.o
MCI_GetValphabeta                                 build/mc_interface.o
                                                  build/register_interface.o
                                                  build/mc_api.o
MCI_GetVqd                                        build/mc_interface.o
                                                  build/register_interface.o
                                                  build/mc_api.o
MCI_Init                                          build/mc_interface.o
                                                  build/mc_tasks.o
MCI_IsCommandAcknowledged                         build/mc_interface.o
                                                  build/mc_api.o
MCI_RampCompleted                                 build/mc_interface.o
                                                  build/mc_api.o
MCI_SetCalibratedOffsetsMotor                     build/mc_interface.o
                                                  build/mc_api.o
MCI_SetCurrentReferences                          build/mc_interface.o
                                                  build/register_interface.o
                                                  build/mc_api.o
MCI_SetCurrentReferences_F                        build/mc_interface.o
                                                  build/mc_api.o
MCI_SetOpenLoopCurrent                            build/mc_interface.o
MCI_SetOpenLoopVoltage                            build/mc_interface.o
MCI_SetSpeedMode                                  build/mc_interface.o
MCI_StartMotor                                    build/mc_interface.o
                                                  build/mc_api.o
                                                  build/mcp.o
MCI_StartOffsetMeasurments                        build/mc_interface.o
                                                  build/mc_api.o
MCI_StartWithMeasurementOffset                    build/mc_interface.o
MCI_StopMotor                                     build/mc_interface.o
                                                  build/mc_api.o
                                                  build/mcp.o
MCI_StopRamp                                      build/mc_interface.o
                                                  build/mc_api.o
                                                  build/mcp.o
MCI_StopSpeedRamp                                 build/mc_interface.o
                                                  build/mc_api.o
MCM_Clarke                                        build/mc_math.o
                                                  build/mc_tasks.o
MCM_Park                                          build/mc_math.o
                                                  build/mc_tasks.o
MCM_Rev_Park                                      build/mc_math.o
                                                  build/pwm_curr_fdbk.o
                                                  build/mc_tasks.o
MCM_Sqrt                                          build/mc_math.o
                                                  build/mc_interface.o
                                                  build/circle_limitation.o
MCM_Trig_Functions                                build/mc_math.o
                                                  build/sto_pll_speed_pos_fdbk.o
                                                  build/speed_torq_ctrl.o
MCM_floatToIntBit                                 build/mc_math.o
MCPA_UART_A                                       build/mcp_config.o
                                                  build/register_interface.o
                                                  build/mc_tasks.o
MCPA_cfgLog                                       build/mcpa.o
                                                  build/register_interface.o
MCPA_dataLog                                      build/mcpa.o
                                                  build/mc_tasks.o
MCPA_flushDataLog                                 build/mcpa.o
                                                  build/mc_tasks.o
MCP_Over_UartA                                    build/mcp_config.o
                                                  build/mc_tasks.o
MCP_ReceivedPacket                                build/mcp.o
                                                  build/mc_tasks.o
MCP_RegisterCallBack                              build/mcp.o
MCP_UserCallBack                                  build/mcp_config.o
                                                  build/mcp.o
MC_AcknowledgeFaultMotor1                         build/mc_api.o
MC_BG_Perf_Measure_Start                          build/mc_perf.o
MC_BG_Perf_Measure_Stop                           build/mc_perf.o
MC_Clear_IqdrefMotor1                             build/mc_api.o
MC_GetAuxiliaryElAngleMotor1_F                    build/mc_api.o
MC_GetAuxiliaryElAngledppMotor1                   build/mc_api.o
MC_GetAverageMecSpeedMotor1_F                     build/mc_api.o
MC_GetAveragePowerMotor1_F                        build/mc_api.o
MC_GetCommandStateMotor1                          build/mc_api.o
MC_GetControlModeMotor1                           build/mc_api.o
MC_GetCurrentFaultsMotor1                         build/mc_api.o
MC_GetElAngledppMotor1                            build/mc_api.o
MC_GetIabMotor1                                   build/mc_api.o
MC_GetIabMotor1_F                                 build/mc_api.o
MC_GetIalphabetaMotor1                            build/mc_api.o
MC_GetImposedDirectionMotor1                      build/mc_api.o
MC_GetIqdMotor1                                   build/mc_api.o
MC_GetIqdMotor1_F                                 build/mc_api.o
MC_GetIqdrefMotor1                                build/mc_api.o
MC_GetIqdrefMotor1_F                              build/mc_api.o
MC_GetLastCommandMotor1                           build/mc_api.o
MC_GetLastRampFinalSpeedMotor1                    build/mc_api.o
MC_GetLastRampFinalSpeedMotor1_F                  build/mc_api.o
MC_GetMecAuxiliarySpeedAverageMotor1              build/mc_api.o
MC_GetMecAuxiliarySpeedAverageMotor1_F            build/mc_api.o
MC_GetMecSpeedAverageMotor1                       build/mc_api.o
MC_GetMecSpeedReferenceMotor1                     build/mc_api.o
MC_GetMecSpeedReferenceMotor1_F                   build/mc_api.o
MC_GetOccurredFaultsMotor1                        build/mc_api.o
MC_GetPhaseCurrentAmplitudeMotor1                 build/mc_api.o
MC_GetPhaseVoltageAmplitudeMotor1                 build/mc_api.o
MC_GetPolarizationOffsetsMotor1                   build/mc_api.o
MC_GetSTMStateMotor1                              build/mc_api.o
                                                  build/mc_tasks.o
MC_GetSpeedSensorReliabilityMotor1                build/mc_api.o
MC_GetTerefMotor1                                 build/mc_api.o
MC_GetTerefMotor1_F                               build/mc_api.o
MC_GetValphabetaMotor1                            build/mc_api.o
MC_GetVqdMotor1                                   build/mc_api.o
MC_HasRampCompletedMotor1                         build/mc_api.o
MC_Perf_Clear                                     build/mc_perf.o
MC_Perf_GetCPU_Load                               build/mc_perf.o
MC_Perf_GetMaxCPU_Load                            build/mc_perf.o
MC_Perf_GetMinCPU_Load                            build/mc_perf.o
MC_Perf_Measure_Init                              build/mc_perf.o
MC_Perf_Measure_Start                             build/mc_perf.o
MC_Perf_Measure_Stop                              build/mc_perf.o
MC_ProgramSpeedRampMotor1                         build/mc_api.o
MC_ProgramSpeedRampMotor1_F                       build/mc_api.o
MC_ProgramSpeedSinMotor1                          build/mc_api.o
MC_ProgramTorqueRampMotor1                        build/mc_api.o
MC_ProgramTorqueRampMotor1_F                      build/mc_api.o
MC_RunMotorControlTasks                           build/mc_tasks.o
                                                  build/stm32g4xx_mc_it.o
MC_Scheduler                                      build/mc_tasks.o
                                                  build/stm32g4xx_mc_it.o
MC_SetCurrentReferenceMotor1                      build/mc_api.o
MC_SetCurrentReferenceMotor1_F                    build/mc_api.o
MC_SetPolarizationOffsetsMotor1                   build/mc_api.o
MC_StartMotor1                                    build/mc_api.o
                                                  build/mc_tasks.o
MC_StartPolarizationOffsetsMeasurementMotor1      build/mc_api.o
MC_StopMotor1                                     build/mc_api.o
                                                  build/mc_tasks.o
MC_StopRampMotor1                                 build/mc_api.o
MC_StopSpeedRampMotor1                            build/mc_api.o
MCboot                                            build/mc_tasks.o
                                                  build/motorcontrol.o
MX_MotorControl_Init                              build/motorcontrol.o
                                                  build/main.o
Mci                                               build/mc_config.o
                                                  build/register_interface.o
                                                  build/mc_tasks.o
                                                  build/mcp.o
MemManage_Handler                                 build/startup_stm32g431xx.o
MotorConfig_reg                                   build/mc_configuration_registers.o
                                                  build/register_interface.o
NMI_Handler                                       build/startup_stm32g431xx.o
NTC_CalcAvTemp                                    build/ntc_temperature_sensor.o
                                                  build/mc_tasks.o
NTC_CheckTemp                                     build/ntc_temperature_sensor.o
NTC_Clear                                         build/ntc_temperature_sensor.o
NTC_GetAvTemp_C                                   build/ntc_temperature_sensor.o
                                                  build/register_interface.o
NTC_GetAvTemp_d                                   build/ntc_temperature_sensor.o
NTC_Init                                          build/ntc_temperature_sensor.o
                                                  build/mc_tasks.o
NTC_SetFaultState                                 build/ntc_temperature_sensor.o
OL_Calc                                           build/open_loop.o
OL_GetVoltage                                     build/open_loop.o
OL_Init                                           build/open_loop.o
OL_UpdateVoltage                                  build/open_loop.o
OL_VF                                             build/open_loop.o
OL_VqdConditioning                                build/open_loop.o
PIDIdHandle_M1                                    build/mc_config.o
                                                  build/mc_tasks.o
PIDIqHandle_M1                                    build/mc_config.o
                                                  build/mc_tasks.o
PIDSpeedHandle_M1                                 build/mc_config.o
                                                  build/register_interface.o
                                                  build/mc_tasks.o
PID_Controller                                    build/pid_regulator.o
PID_GetDefaultKI                                  build/pid_regulator.o
PID_GetDefaultKP                                  build/pid_regulator.o
PID_GetKD                                         build/pid_regulator.o
                                                  build/register_interface.o
PID_GetKDDivisor                                  build/pid_regulator.o
PID_GetKDDivisorPOW2                              build/pid_regulator.o
                                                  build/register_interface.o
PID_GetKI                                         build/pid_regulator.o
                                                  build/register_interface.o
                                                  build/sto_pll_speed_pos_fdbk.o
PID_GetKIDivisor                                  build/pid_regulator.o
                                                  build/mc_tasks.o
                                                  build/sto_pll_speed_pos_fdbk.o
PID_GetKIDivisorPOW2                              build/pid_regulator.o
                                                  build/register_interface.o
PID_GetKP                                         build/pid_regulator.o
                                                  build/register_interface.o
                                                  build/sto_pll_speed_pos_fdbk.o
PID_GetKPDivisor                                  build/pid_regulator.o
PID_GetKPDivisorPOW2                              build/pid_regulator.o
                                                  build/register_interface.o
PID_HandleInit                                    build/pid_regulator.o
                                                  build/mc_tasks.o
                                                  build/sto_pll_speed_pos_fdbk.o
PID_SetIntegralTerm                               build/pid_regulator.o
                                                  build/mc_tasks.o
                                                  build/sto_pll_speed_pos_fdbk.o
                                                  build/speed_torq_ctrl.o
PID_SetKD                                         build/pid_regulator.o
                                                  build/register_interface.o
PID_SetKDDivisorPOW2                              build/pid_regulator.o
                                                  build/register_interface.o
PID_SetKI                                         build/pid_regulator.o
                                                  build/register_interface.o
                                                  build/sto_pll_speed_pos_fdbk.o
PID_SetKIDivisorPOW2                              build/pid_regulator.o
                                                  build/register_interface.o
PID_SetKP                                         build/pid_regulator.o
                                                  build/register_interface.o
                                                  build/sto_pll_speed_pos_fdbk.o
PID_SetKPDivisorPOW2                              build/pid_regulator.o
                                                  build/register_interface.o
PID_SetLowerIntegralTermLimit                     build/pid_regulator.o
PID_SetLowerOutputLimit                           build/pid_regulator.o
PID_SetPrevError                                  build/pid_regulator.o
PID_SetUpperIntegralTermLimit                     build/pid_regulator.o
PID_SetUpperOutputLimit                           build/pid_regulator.o
PI_Controller                                     build/pid_regulator.o
                                                  build/mc_tasks.o
                                                  build/sto_pll_speed_pos_fdbk.o
                                                  build/speed_torq_ctrl.o
PQD_CalcElMotorPower                              build/pqd_motor_power_measurement.o
                                                  build/mc_tasks.o
PQD_Clear                                         build/pqd_motor_power_measurement.o
                                                  build/mc_tasks.o
PQD_GetAvrgElMotorPowerW                          build/pqd_motor_power_measurement.o
                                                  build/register_interface.o
                                                  build/mc_api.o
PQD_MotorPowMeasM1                                build/mc_config.o
PVD_PVM_IRQHandler                                build/startup_stm32g431xx.o
PWMC_CalcPhaseCurrentsEst                         build/pwm_curr_fdbk.o
PWMC_CheckOverCurrent                             build/pwm_curr_fdbk.o
                                                  build/mc_tasks.o
PWMC_Clear                                        build/pwm_curr_fdbk.o
PWMC_CurrentReadingCalibr                         build/pwm_curr_fdbk.o
                                                  build/mc_tasks.o
PWMC_DPWM_ModeDisable                             build/pwm_curr_fdbk.o
PWMC_DPWM_ModeEnable                              build/pwm_curr_fdbk.o
PWMC_GetDPWM_Mode                                 build/pwm_curr_fdbk.o
PWMC_GetOffsetCalib                               build/pwm_curr_fdbk.o
                                                  build/mc_interface.o
PWMC_GetPhaseCurrents                             build/pwm_curr_fdbk.o
                                                  build/mc_tasks.o
PWMC_GetTurnOnLowSidesAction                      build/pwm_curr_fdbk.o
PWMC_OCPSetReferenceVoltage                       build/pwm_curr_fdbk.o
PWMC_RLDetectionModeDisable                       build/pwm_curr_fdbk.o
PWMC_RLDetectionModeEnable                        build/pwm_curr_fdbk.o
PWMC_RLDetectionModeSetDuty                       build/pwm_curr_fdbk.o
PWMC_RegisterGetPhaseCurrentsCallBack             build/pwm_curr_fdbk.o
PWMC_RegisterIsOverCurrentOccurredCallBack        build/pwm_curr_fdbk.o
PWMC_RegisterOCPSetRefVoltageCallBack             build/pwm_curr_fdbk.o
PWMC_RegisterRLDetectionModeDisableCallBack       build/pwm_curr_fdbk.o
PWMC_RegisterRLDetectionModeEnableCallBack        build/pwm_curr_fdbk.o
PWMC_RegisterRLDetectionModeSetDutyCallBack       build/pwm_curr_fdbk.o
PWMC_RegisterReadingCalibrationCallBack           build/pwm_curr_fdbk.o
PWMC_RegisterSampPointSectXCallBack               build/pwm_curr_fdbk.o
PWMC_RegisterSwitchOffPwmCallBack                 build/pwm_curr_fdbk.o
PWMC_RegisterSwitchonPwmCallBack                  build/pwm_curr_fdbk.o
PWMC_RegisterTurnOnLowSidesCallBack               build/pwm_curr_fdbk.o
PWMC_SetAlignFlag                                 build/pwm_curr_fdbk.o
PWMC_SetOffsetCalib                               build/pwm_curr_fdbk.o
                                                  build/mc_interface.o
PWMC_SetPhaseVoltage                              build/pwm_curr_fdbk.o
                                                  build/mc_tasks.o
PWMC_SwitchOffPWM                                 build/pwm_curr_fdbk.o
                                                  build/mc_tasks.o
                                                  build/revup_ctrl.o
PWMC_SwitchOnPWM                                  build/pwm_curr_fdbk.o
                                                  build/mc_tasks.o
                                                  build/revup_ctrl.o
PWMC_TurnOnLowSides                               build/pwm_curr_fdbk.o
                                                  build/revup_ctrl.o
PWM_Handle_M1                                     build/mc_config.o
                                                  build/stm32g4xx_mc_it.o
                                                  build/regular_conversion_manager.o
                                                  build/mc_tasks.o
PWR_BOARD_NAME                                    build/mc_configuration_registers.o
                                                  build/register_interface.o
PendSV_Handler                                    build/startup_stm32g431xx.o
R3_2_BRK2_IRQHandler                              build/r3_2_g4xx_pwm_curr_fdbk.o
                                                  build/stm32g4xx_mc_it.o
R3_2_BRK_IRQHandler                               build/r3_2_g4xx_pwm_curr_fdbk.o
                                                  build/stm32g4xx_mc_it.o
R3_2_CurrentReadingPolarization                   build/r3_2_g4xx_pwm_curr_fdbk.o
                                                  build/mc_config.o
R3_2_GetOffsetCalib                               build/r3_2_g4xx_pwm_curr_fdbk.o
                                                  build/mc_config.o
R3_2_GetPhaseCurrents                             build/r3_2_g4xx_pwm_curr_fdbk.o
                                                  build/mc_config.o
R3_2_GetPhaseCurrents_OVM                         build/r3_2_g4xx_pwm_curr_fdbk.o
R3_2_Init                                         build/r3_2_g4xx_pwm_curr_fdbk.o
                                                  build/mc_tasks.o
R3_2_IsOverCurrentOccurred                        build/r3_2_g4xx_pwm_curr_fdbk.o
                                                  build/mc_config.o
R3_2_ParamsM1                                     build/mc_parameters.o
                                                  build/mc_config.o
R3_2_RLDetectionModeDisable                       build/r3_2_g4xx_pwm_curr_fdbk.o
                                                  build/mc_config.o
R3_2_RLDetectionModeEnable                        build/r3_2_g4xx_pwm_curr_fdbk.o
                                                  build/mc_config.o
R3_2_RLDetectionModeSetDuty                       build/r3_2_g4xx_pwm_curr_fdbk.o
                                                  build/mc_config.o
R3_2_SetADCSampPointPolarization                  build/r3_2_g4xx_pwm_curr_fdbk.o
R3_2_SetADCSampPointSectX                         build/r3_2_g4xx_pwm_curr_fdbk.o
                                                  build/mc_config.o
R3_2_SetADCSampPointSectX_OVM                     build/r3_2_g4xx_pwm_curr_fdbk.o
R3_2_SetOffsetCalib                               build/r3_2_g4xx_pwm_curr_fdbk.o
                                                  build/mc_config.o
R3_2_SwitchOffPWM                                 build/r3_2_g4xx_pwm_curr_fdbk.o
                                                  build/mc_tasks.o
                                                  build/mc_config.o
R3_2_SwitchOnPWM                                  build/r3_2_g4xx_pwm_curr_fdbk.o
                                                  build/mc_config.o
R3_2_TIMx_UP_IRQHandler                           build/r3_2_g4xx_pwm_curr_fdbk.o
                                                  build/stm32g4xx_mc_it.o
R3_2_TurnOnLowSides                               build/r3_2_g4xx_pwm_curr_fdbk.o
                                                  build/mc_tasks.o
                                                  build/mc_config.o
R3_3_OPAMPParamsM1                                build/mc_parameters.o
RCC_IRQHandler                                    build/startup_stm32g431xx.o
RCM_ExecNextConv                                  build/regular_conversion_manager.o
                                                  build/mc_tasks.o
RCM_ExecRegularConv                               build/regular_conversion_manager.o
                                                  build/r_divider_bus_voltage_sensor.o
                                                  build/ntc_temperature_sensor.o
RCM_ExecUserConv                                  build/regular_conversion_manager.o
                                                  build/mc_tasks.o
RCM_GetUserConv                                   build/regular_conversion_manager.o
RCM_GetUserConvState                              build/regular_conversion_manager.o
RCM_PauseRegularConv                              build/regular_conversion_manager.o
RCM_ReadOngoingConv                               build/regular_conversion_manager.o
                                                  build/mc_tasks.o
RCM_RegisterRegConv                               build/regular_conversion_manager.o
                                                  build/r_divider_bus_voltage_sensor.o
                                                  build/ntc_temperature_sensor.o
RCM_RegisterRegConv_WithCB                        build/regular_conversion_manager.o
RCM_RequestUserConv                               build/regular_conversion_manager.o
REMNG_Calc                                        build/ramp_ext_mngr.o
                                                  build/mc_tasks.o
REMNG_ExecRamp                                    build/ramp_ext_mngr.o
                                                  build/mc_tasks.o
REMNG_GetValue                                    build/ramp_ext_mngr.o
REMNG_Init                                        build/ramp_ext_mngr.o
                                                  build/mc_tasks.o
REMNG_RampCompleted                               build/ramp_ext_mngr.o
                                                  build/mc_tasks.o
REMNG_StopRamp                                    build/ramp_ext_mngr.o
RI_GetIDSize                                      build/register_interface.o
                                                  build/mcpa.o
RI_GetPtrReg                                      build/register_interface.o
                                                  build/mcpa.o
RI_GetRegCommandParser                            build/register_interface.o
                                                  build/mcp.o
RI_SetRegCommandParser                            build/register_interface.o
                                                  build/mcp.o
RLTurnOnLowSidesAndStart                          build/r3_2_g4xx_pwm_curr_fdbk.o
RNG_IRQHandler                                    build/startup_stm32g431xx.o
RTC_Alarm_IRQHandler                              build/startup_stm32g431xx.o
RTC_TAMP_LSECSS_IRQHandler                        build/startup_stm32g431xx.o
RTC_WKUP_IRQHandler                               build/startup_stm32g431xx.o
RUC_Clear                                         build/revup_ctrl.o
                                                  build/mc_tasks.o
RUC_Completed                                     build/revup_ctrl.o
RUC_Exec                                          build/revup_ctrl.o
                                                  build/mc_tasks.o
RUC_FirstAccelerationStageReached                 build/revup_ctrl.o
                                                  build/mc_tasks.o
RUC_GetNumberOfPhases                             build/revup_ctrl.o
                                                  build/register_interface.o
RUC_GetPhase                                      build/revup_ctrl.o
                                                  build/register_interface.o
RUC_GetPhaseDurationms                            build/revup_ctrl.o
RUC_GetPhaseFinalMecSpeed01Hz                     build/revup_ctrl.o
RUC_GetPhaseFinalMecSpeedUnit                     build/revup_ctrl.o
RUC_GetPhaseFinalTorque                           build/revup_ctrl.o
RUC_Get_SCLowsideOTF_Status                       build/revup_ctrl.o
RUC_Init                                          build/revup_ctrl.o
                                                  build/mc_tasks.o
RUC_IsAlignStageNow                               build/revup_ctrl.o
RUC_OTF_Exec                                      build/revup_ctrl.o
RUC_SetPhase                                      build/revup_ctrl.o
                                                  build/register_interface.o
RUC_SetPhaseDurationms                            build/revup_ctrl.o
RUC_SetPhaseFinalMecSpeedUnit                     build/revup_ctrl.o
RUC_SetPhaseFinalTorque                           build/revup_ctrl.o
RUC_Stop                                          build/revup_ctrl.o
RVBS_CalcAvVbus                                   build/r_divider_bus_voltage_sensor.o
                                                  build/mc_tasks.o
RVBS_CalcAvVbusFilt                               build/r_divider_bus_voltage_sensor.o
RVBS_CheckFaultState                              build/r_divider_bus_voltage_sensor.o
RVBS_Clear                                        build/r_divider_bus_voltage_sensor.o
RVBS_Init                                         build/r_divider_bus_voltage_sensor.o
                                                  build/mc_tasks.o
RampExtMngrHFParamsM1                             build/mc_config.o
                                                  build/mc_tasks.o
Reset_Handler                                     build/startup_stm32g431xx.o
RevUpControlM1                                    build/mc_config.o
                                                  build/register_interface.o
                                                  build/mc_tasks.o
SAI1_IRQHandler                                   build/startup_stm32g431xx.o
SPD_Check                                         build/speed_pos_fdbk.o
                                                  build/mc_interface.o
SPD_GetAvrgMecSpeedUnit                           build/speed_pos_fdbk.o
                                                  build/mc_interface.o
                                                  build/mc_api.o
                                                  build/speed_torq_ctrl.o
                                                  build/revup_ctrl.o
SPD_GetElAngle                                    build/speed_pos_fdbk.o
                                                  build/register_interface.o
                                                  build/mc_tasks.o
                                                  build/mc_api.o
SPD_GetElSpeedDpp                                 build/speed_pos_fdbk.o
SPD_GetElToMecRatio                               build/speed_pos_fdbk.o
SPD_GetInstElSpeedDpp                             build/speed_pos_fdbk.o
                                                  build/mc_tasks.o
SPD_GetMecAngle                                   build/speed_pos_fdbk.o
SPD_GetS16Speed                                   build/speed_pos_fdbk.o
                                                  build/register_interface.o
SPD_IsMecSpeedReliable                            build/speed_pos_fdbk.o
                                                  build/virtual_speed_sensor.o
                                                  build/sto_pll_speed_pos_fdbk.o
                                                  build/sto_cordic_speed_pos_fdbk.o
SPD_SetElToMecRatio                               build/speed_pos_fdbk.o
SPI1_IRQHandler                                   build/startup_stm32g431xx.o
SPI2_IRQHandler                                   build/startup_stm32g431xx.o
SPI3_IRQHandler                                   build/startup_stm32g431xx.o
STC_CalcTorqueReference                           build/speed_torq_ctrl.o
                                                  build/mc_tasks.o
STC_Clear                                         build/speed_torq_ctrl.o
                                                  build/mc_tasks.o
STC_ExecRamp                                      build/speed_torq_ctrl.o
                                                  build/mc_interface.o
                                                  build/revup_ctrl.o
STC_ExecSin                                       build/speed_torq_ctrl.o
                                                  build/mc_interface.o
STC_ForceSpeedReferenceToCurrentSpeed             build/speed_torq_ctrl.o
                                                  build/mc_tasks.o
STC_GetControlMode                                build/speed_torq_ctrl.o
STC_GetDefaultIqdref                              build/speed_torq_ctrl.o
                                                  build/mc_tasks.o
                                                  build/mc_interface.o
STC_GetMaxAppPositiveMecSpeedUnit                 build/speed_torq_ctrl.o
STC_GetMecSpeedRefUnit                            build/speed_torq_ctrl.o
                                                  build/mc_interface.o
STC_GetMecSpeedRefUnitDefault                     build/speed_torq_ctrl.o
                                                  build/mc_tasks.o
STC_GetMinAppNegativeMecSpeedUnit                 build/speed_torq_ctrl.o
STC_GetSpeedSensor                                build/speed_torq_ctrl.o
                                                  build/mc_tasks.o
                                                  build/mc_interface.o
STC_GetTorqueRef                                  build/speed_torq_ctrl.o
STC_Init                                          build/speed_torq_ctrl.o
                                                  build/mc_tasks.o
STC_RampCompleted                                 build/speed_torq_ctrl.o
                                                  build/mc_interface.o
STC_SetControlMode                                build/speed_torq_ctrl.o
                                                  build/mc_interface.o
                                                  build/revup_ctrl.o
STC_SetNominalCurrent                             build/speed_torq_ctrl.o
STC_SetSpeedSensor                                build/speed_torq_ctrl.o
                                                  build/mc_tasks.o
STC_StopRamp                                      build/speed_torq_ctrl.o
                                                  build/mc_interface.o
STC_StopSpeedRamp                                 build/speed_torq_ctrl.o
                                                  build/mc_interface.o
STO_CR_BemfConsistencyCheckSwitch                 build/sto_cordic_speed_pos_fdbk.o
STO_CR_CalcAvrgElSpeedDpp                         build/sto_cordic_speed_pos_fdbk.o
                                                  build/mc_tasks.o
STO_CR_CalcAvrgMecSpeedUnit                       build/sto_cordic_speed_pos_fdbk.o
                                                  build/mc_tasks.o
STO_CR_CalcElAngle                                build/sto_cordic_speed_pos_fdbk.o
                                                  build/mc_tasks.o
STO_CR_Clear                                      build/sto_cordic_speed_pos_fdbk.o
                                                  build/mc_tasks.o
STO_CR_ForceConvergency1                          build/sto_cordic_speed_pos_fdbk.o
                                                  build/mc_config.o
STO_CR_ForceConvergency2                          build/sto_cordic_speed_pos_fdbk.o
                                                  build/mc_config.o
STO_CR_GetEstimatedBemf                           build/sto_cordic_speed_pos_fdbk.o
                                                  build/register_interface.o
STO_CR_GetEstimatedBemfLevel                      build/sto_cordic_speed_pos_fdbk.o
                                                  build/register_interface.o
STO_CR_GetEstimatedCurrent                        build/sto_cordic_speed_pos_fdbk.o
                                                  build/register_interface.o
STO_CR_GetObservedBemfLevel                       build/sto_cordic_speed_pos_fdbk.o
                                                  build/register_interface.o
STO_CR_GetObserverGains                           build/sto_cordic_speed_pos_fdbk.o
                                                  build/register_interface.o
STO_CR_Init                                       build/sto_cordic_speed_pos_fdbk.o
                                                  build/mc_tasks.o
STO_CR_IsBemfConsistent                           build/sto_cordic_speed_pos_fdbk.o
STO_CR_IsObserverConverged                        build/sto_cordic_speed_pos_fdbk.o
                                                  build/mc_tasks.o
STO_CR_IsSpeedReliable                            build/sto_cordic_speed_pos_fdbk.o
                                                  build/mc_config.o
STO_CR_M1                                         build/mc_config.o
                                                  build/register_interface.o
                                                  build/mc_tasks.o
STO_CR_SetObserverGains                           build/sto_cordic_speed_pos_fdbk.o
                                                  build/register_interface.o
STO_GetPLLGains                                   build/sto_pll_speed_pos_fdbk.o
STO_M1                                            build/mc_config.o
                                                  build/mc_tasks.o
                                                  build/speed_torq_ctrl.o
STO_OTF_ResetPLL                                  build/sto_pll_speed_pos_fdbk.o
STO_PLL_BemfConsistencyCheckSwitch                build/sto_pll_speed_pos_fdbk.o
STO_PLL_CalcAvrgElSpeedDpp                        build/sto_pll_speed_pos_fdbk.o
                                                  build/mc_tasks.o
STO_PLL_CalcAvrgMecSpeedUnit                      build/sto_pll_speed_pos_fdbk.o
                                                  build/mc_tasks.o
STO_PLL_CalcElAngle                               build/sto_pll_speed_pos_fdbk.o
                                                  build/mc_tasks.o
STO_PLL_Clear                                     build/sto_pll_speed_pos_fdbk.o
                                                  build/mc_tasks.o
STO_PLL_ForceConvergency1                         build/sto_pll_speed_pos_fdbk.o
STO_PLL_ForceConvergency2                         build/sto_pll_speed_pos_fdbk.o
STO_PLL_GetEstimatedBemf                          build/sto_pll_speed_pos_fdbk.o
                                                  build/register_interface.o
STO_PLL_GetEstimatedBemfLevel                     build/sto_pll_speed_pos_fdbk.o
                                                  build/register_interface.o
STO_PLL_GetEstimatedCurrent                       build/sto_pll_speed_pos_fdbk.o
                                                  build/register_interface.o
STO_PLL_GetObservedBemfLevel                      build/sto_pll_speed_pos_fdbk.o
                                                  build/register_interface.o
STO_PLL_GetObserverGains                          build/sto_pll_speed_pos_fdbk.o
                                                  build/register_interface.o
STO_PLL_Init                                      build/sto_pll_speed_pos_fdbk.o
                                                  build/mc_tasks.o
STO_PLL_IsBemfConsistent                          build/sto_pll_speed_pos_fdbk.o
STO_PLL_IsObserverConverged                       build/sto_pll_speed_pos_fdbk.o
STO_PLL_IsVarianceTight                           build/sto_pll_speed_pos_fdbk.o
STO_PLL_M1                                        build/mc_config.o
                                                  build/register_interface.o
                                                  build/mc_tasks.o
                                                  build/mc_api.o
STO_PLL_Return                                    build/sto_pll_speed_pos_fdbk.o
STO_PLL_SetMecAngle                               build/sto_pll_speed_pos_fdbk.o
STO_PLL_SetObserverGains                          build/sto_pll_speed_pos_fdbk.o
                                                  build/register_interface.o
STO_ResetPLL                                      build/sto_pll_speed_pos_fdbk.o
STO_SetDirection                                  build/sto_pll_speed_pos_fdbk.o
STO_SetMinStartUpValidSpeedUnit                   build/sto_pll_speed_pos_fdbk.o
STO_SetPLL                                        build/sto_pll_speed_pos_fdbk.o
STO_SetPLLGains                                   build/sto_pll_speed_pos_fdbk.o
SVC_Handler                                       build/startup_stm32g431xx.o
SpeednTorqCtrlM1                                  build/mc_config.o
SysTick_Handler                                   build/stm32g4xx_mc_it.o
SystemClock_Config                                build/main.o
SystemCoreClock                                   build/system_stm32g4xx.o
                                                  build/main.o
                                                  build/r3_2_g4xx_pwm_curr_fdbk.o
                                                  build/stm32g4xx_ll_utils.o
                                                  build/stm32g4xx_hal_rcc.o
                                                  build/stm32g4xx_hal_pwr_ex.o
                                                  build/stm32g4xx_hal.o
SystemCoreClockUpdate                             build/system_stm32g4xx.o
SystemInit                                        build/system_stm32g4xx.o
                                                  build/startup_stm32g431xx.o
TIM1_BRK_TIM15_IRQHandler                         build/stm32g4xx_mc_it.o
TIM1_CC_IRQHandler                                build/startup_stm32g431xx.o
TIM1_TRG_COM_TIM17_IRQHandler                     build/startup_stm32g431xx.o
TIM1_UP_TIM16_IRQHandler                          build/stm32g4xx_mc_it.o
TIM2_IRQHandler                                   build/startup_stm32g431xx.o
TIM3_IRQHandler                                   build/startup_stm32g431xx.o
TIM4_IRQHandler                                   build/startup_stm32g431xx.o
TIM6_DAC_IRQHandler                               build/startup_stm32g431xx.o
TIM7_IRQHandler                                   build/startup_stm32g431xx.o
TIM8_BRK_IRQHandler                               build/startup_stm32g431xx.o
TIM8_CC_IRQHandler                                build/startup_stm32g431xx.o
TIM8_TRG_COM_IRQHandler                           build/startup_stm32g431xx.o
TIM8_UP_IRQHandler                                build/startup_stm32g431xx.o
TIMEx_DMACommutationCplt                          build/stm32g4xx_hal_tim_ex.o
                                                  build/stm32g4xx_hal_tim.o
TIMEx_DMACommutationHalfCplt                      build/stm32g4xx_hal_tim_ex.o
                                                  build/stm32g4xx_hal_tim.o
TIM_Base_SetConfig                                build/stm32g4xx_hal_tim.o
                                                  build/stm32g4xx_hal_tim_ex.o
TIM_CCxChannelCmd                                 build/stm32g4xx_hal_tim.o
                                                  build/stm32g4xx_hal_tim_ex.o
TIM_DMACaptureCplt                                build/stm32g4xx_hal_tim.o
                                                  build/stm32g4xx_hal_tim_ex.o
TIM_DMACaptureHalfCplt                            build/stm32g4xx_hal_tim.o
                                                  build/stm32g4xx_hal_tim_ex.o
TIM_DMADelayPulseHalfCplt                         build/stm32g4xx_hal_tim.o
                                                  build/stm32g4xx_hal_tim_ex.o
TIM_DMAError                                      build/stm32g4xx_hal_tim.o
                                                  build/stm32g4xx_hal_tim_ex.o
TIM_ETR_SetConfig                                 build/stm32g4xx_hal_tim.o
                                                  build/stm32g4xx_hal_tim_ex.o
TIM_OC2_SetConfig                                 build/stm32g4xx_hal_tim.o
                                                  build/stm32g4xx_hal_tim_ex.o
TIM_TI1_SetConfig                                 build/stm32g4xx_hal_tim.o
                                                  build/stm32g4xx_hal_tim_ex.o
TSK_ChargeBootCapDelayHasElapsedM1                build/mc_tasks.o
TSK_HardwareFaultTask                             build/mc_tasks.o
                                                  build/stm32g4xx_mc_it.o
TSK_HighFrequencyTask                             build/mc_tasks.o
                                                  build/stm32g4xx_mc_it.o
TSK_MF_StopProcessing                             build/mc_tasks.o
TSK_MediumFrequencyTaskM1                         build/mc_tasks.o
TSK_SafetyTask                                    build/mc_tasks.o
TSK_SafetyTask_PWMOFF                             build/mc_tasks.o
TSK_SetChargeBootCapDelayM1                       build/mc_tasks.o
TSK_SetStopPermanencyTimeM1                       build/mc_tasks.o
TSK_StopPermanencyTimeHasElapsedM1                build/mc_tasks.o
TempSensor_M1                                     build/mc_config.o
                                                  build/mc_tasks.o
TickMSCounter                                     build/debug_scope.o
UART4_IRQHandler                                  build/startup_stm32g431xx.o
UASPEP_DAMCONFIG_RX                               build/usart_aspep_driver.o
UASPEP_DAMCONFIG_TX                               build/usart_aspep_driver.o
UASPEP_IDLE_ENABLE                                build/usart_aspep_driver.o
                                                  build/mcp_config.o
UASPEP_INIT                                       build/usart_aspep_driver.o
                                                  build/mcp_config.o
UASPEP_RECEIVE_BUFFER                             build/usart_aspep_driver.o
                                                  build/mcp_config.o
UASPEP_SEND_PACKET                                build/usart_aspep_driver.o
                                                  build/mcp_config.o
                                                  build/mcp.o
UCPD1_IRQHandler                                  build/startup_stm32g431xx.o
UI_HandleStartStopButton_cb                       build/mc_tasks.o
                                                  build/stm32g4xx_mc_it.o
USART1_IRQHandler                                 build/startup_stm32g431xx.o
USART2_IRQHandler                                 build/stm32g4xx_mc_it.o
USART3_IRQHandler                                 build/startup_stm32g431xx.o
USBWakeUp_IRQHandler                              build/startup_stm32g431xx.o
USB_HP_IRQHandler                                 build/startup_stm32g431xx.o
USB_LP_IRQHandler                                 build/startup_stm32g431xx.o
UsageFault_Handler                                build/startup_stm32g431xx.o
VBS_CheckVbus                                     build/bus_voltage_sensor.o
VBS_GetAvBusVoltage_V                             build/bus_voltage_sensor.o
                                                  build/register_interface.o
                                                  build/pqd_motor_power_measurement.o
VBS_GetAvBusVoltage_d                             build/bus_voltage_sensor.o
                                                  build/mc_tasks.o
VBS_GetBusVoltage_d                               build/bus_voltage_sensor.o
VSS_CalcAvrgMecSpeedUnit                          build/virtual_speed_sensor.o
                                                  build/mc_tasks.o
VSS_CalcElAngle                                   build/virtual_speed_sensor.o
                                                  build/mc_tasks.o
VSS_Clear                                         build/virtual_speed_sensor.o
                                                  build/mc_tasks.o
                                                  build/revup_ctrl.o
VSS_GetLastRampFinalSpeed                         build/virtual_speed_sensor.o
VSS_Init                                          build/virtual_speed_sensor.o
                                                  build/mc_tasks.o
VSS_IsTransitionOngoing                           build/virtual_speed_sensor.o
VSS_RampCompleted                                 build/virtual_speed_sensor.o
VSS_SetCopyObserver                               build/virtual_speed_sensor.o
                                                  build/revup_ctrl.o
VSS_SetElAngle                                    build/virtual_speed_sensor.o
VSS_SetMecAcceleration                            build/virtual_speed_sensor.o
                                                  build/revup_ctrl.o
VSS_SetMecAngle                                   build/virtual_speed_sensor.o
                                                  build/revup_ctrl.o
VSS_SetStartTransition                            build/virtual_speed_sensor.o
                                                  build/mc_tasks.o
VSS_TransitionEnded                               build/virtual_speed_sensor.o
                                                  build/mc_tasks.o
VirtualSpeedSensorM1                              build/mc_config.o
                                                  build/mc_tasks.o
WWDG_IRQHandler                                   build/startup_stm32g431xx.o
_ITM_deregisterTMCloneTable                       /usr/lib/gcc/arm-none-eabi/9.2.1/thumb/v7e-m+fp/hard/crtbegin.o
_ITM_registerTMCloneTable                         /usr/lib/gcc/arm-none-eabi/9.2.1/thumb/v7e-m+fp/hard/crtbegin.o
__TMC_END__                                       /usr/lib/gcc/arm-none-eabi/9.2.1/thumb/v7e-m+fp/hard/crtend.o
                                                  /usr/lib/gcc/arm-none-eabi/9.2.1/thumb/v7e-m+fp/hard/crtbegin.o
__adddf3                                          /usr/lib/gcc/arm-none-eabi/9.2.1/thumb/v7e-m+fp/hard/libgcc.a(_arm_addsubdf3.o)
__aeabi_d2f                                       /usr/lib/gcc/arm-none-eabi/9.2.1/thumb/v7e-m+fp/hard/libgcc.a(_arm_truncdfsf2.o)
                                                  build/mc_interface.o
__aeabi_d2iz                                      /usr/lib/gcc/arm-none-eabi/9.2.1/thumb/v7e-m+fp/hard/libgcc.a(_arm_fixdfsi.o)
                                                  build/mc_interface.o
__aeabi_dadd                                      /usr/lib/gcc/arm-none-eabi/9.2.1/thumb/v7e-m+fp/hard/libgcc.a(_arm_addsubdf3.o)
__aeabi_dmul                                      /usr/lib/gcc/arm-none-eabi/9.2.1/thumb/v7e-m+fp/hard/libgcc.a(_arm_muldf3.o)
                                                  build/mc_interface.o
__aeabi_drsub                                     /usr/lib/gcc/arm-none-eabi/9.2.1/thumb/v7e-m+fp/hard/libgcc.a(_arm_addsubdf3.o)
__aeabi_dsub                                      /usr/lib/gcc/arm-none-eabi/9.2.1/thumb/v7e-m+fp/hard/libgcc.a(_arm_addsubdf3.o)
__aeabi_f2d                                       /usr/lib/gcc/arm-none-eabi/9.2.1/thumb/v7e-m+fp/hard/libgcc.a(_arm_addsubdf3.o)
                                                  build/mc_interface.o
__aeabi_i2d                                       /usr/lib/gcc/arm-none-eabi/9.2.1/thumb/v7e-m+fp/hard/libgcc.a(_arm_addsubdf3.o)
                                                  build/mc_interface.o
__aeabi_l2d                                       /usr/lib/gcc/arm-none-eabi/9.2.1/thumb/v7e-m+fp/hard/libgcc.a(_arm_addsubdf3.o)
__aeabi_ui2d                                      /usr/lib/gcc/arm-none-eabi/9.2.1/thumb/v7e-m+fp/hard/libgcc.a(_arm_addsubdf3.o)
__aeabi_ul2d                                      /usr/lib/gcc/arm-none-eabi/9.2.1/thumb/v7e-m+fp/hard/libgcc.a(_arm_addsubdf3.o)
__atexit_dummy                                    /usr/lib/gcc/arm-none-eabi/9.2.1/../../../arm-none-eabi/lib/thumb/v7e-m+fp/hard/libc_nano.a(lib_a-__atexit.o)
__bss_end__                                       /usr/lib/gcc/arm-none-eabi/9.2.1/../../../arm-none-eabi/lib/thumb/v7e-m+fp/hard/crt0.o
__bss_start__                                     /usr/lib/gcc/arm-none-eabi/9.2.1/../../../arm-none-eabi/lib/thumb/v7e-m+fp/hard/crt0.o
__call_exitprocs                                  /usr/lib/gcc/arm-none-eabi/9.2.1/../../../arm-none-eabi/lib/thumb/v7e-m+fp/hard/libc_nano.a(lib_a-__call_atexit.o)
                                                  /usr/lib/gcc/arm-none-eabi/9.2.1/../../../arm-none-eabi/lib/thumb/v7e-m+fp/hard/libc_nano.a(lib_a-__atexit.o)
                                                  /usr/lib/gcc/arm-none-eabi/9.2.1/../../../arm-none-eabi/lib/thumb/v7e-m+fp/hard/libc_nano.a(lib_a-exit.o)
__deregister_frame_info                           /usr/lib/gcc/arm-none-eabi/9.2.1/thumb/v7e-m+fp/hard/crtbegin.o
__dso_handle                                      /usr/lib/gcc/arm-none-eabi/9.2.1/thumb/v7e-m+fp/hard/crtbegin.o
__extendsfdf2                                     /usr/lib/gcc/arm-none-eabi/9.2.1/thumb/v7e-m+fp/hard/libgcc.a(_arm_addsubdf3.o)
__fini_array_end                                  /usr/lib/gcc/arm-none-eabi/9.2.1/../../../arm-none-eabi/lib/thumb/v7e-m+fp/hard/libc_nano.a(lib_a-fini.o)
__fini_array_start                                /usr/lib/gcc/arm-none-eabi/9.2.1/../../../arm-none-eabi/lib/thumb/v7e-m+fp/hard/libc_nano.a(lib_a-fini.o)
__fixdfsi                                         /usr/lib/gcc/arm-none-eabi/9.2.1/thumb/v7e-m+fp/hard/libgcc.a(_arm_fixdfsi.o)
__floatdidf                                       /usr/lib/gcc/arm-none-eabi/9.2.1/thumb/v7e-m+fp/hard/libgcc.a(_arm_addsubdf3.o)
__floatsidf                                       /usr/lib/gcc/arm-none-eabi/9.2.1/thumb/v7e-m+fp/hard/libgcc.a(_arm_addsubdf3.o)
__floatundidf                                     /usr/lib/gcc/arm-none-eabi/9.2.1/thumb/v7e-m+fp/hard/libgcc.a(_arm_addsubdf3.o)
__floatunsidf                                     /usr/lib/gcc/arm-none-eabi/9.2.1/thumb/v7e-m+fp/hard/libgcc.a(_arm_addsubdf3.o)
__init_array_end                                  /usr/lib/gcc/arm-none-eabi/9.2.1/../../../arm-none-eabi/lib/thumb/v7e-m+fp/hard/libc_nano.a(lib_a-init.o)
__init_array_start                                /usr/lib/gcc/arm-none-eabi/9.2.1/../../../arm-none-eabi/lib/thumb/v7e-m+fp/hard/libc_nano.a(lib_a-init.o)
__libc_fini_array                                 /usr/lib/gcc/arm-none-eabi/9.2.1/../../../arm-none-eabi/lib/thumb/v7e-m+fp/hard/libc_nano.a(lib_a-fini.o)
                                                  /usr/lib/gcc/arm-none-eabi/9.2.1/../../../arm-none-eabi/lib/thumb/v7e-m+fp/hard/crt0.o
__libc_init_array                                 /usr/lib/gcc/arm-none-eabi/9.2.1/../../../arm-none-eabi/lib/thumb/v7e-m+fp/hard/libc_nano.a(lib_a-init.o)
                                                  build/startup_stm32g431xx.o
                                                  /usr/lib/gcc/arm-none-eabi/9.2.1/../../../arm-none-eabi/lib/thumb/v7e-m+fp/hard/crt0.o
__muldf3                                          /usr/lib/gcc/arm-none-eabi/9.2.1/thumb/v7e-m+fp/hard/libgcc.a(_arm_muldf3.o)
__on_exit_args                                    /usr/lib/gcc/arm-none-eabi/9.2.1/../../../arm-none-eabi/lib/thumb/v7e-m+fp/hard/libc_nano.a(lib_a-__atexit.o)
__preinit_array_end                               /usr/lib/gcc/arm-none-eabi/9.2.1/../../../arm-none-eabi/lib/thumb/v7e-m+fp/hard/libc_nano.a(lib_a-init.o)
__preinit_array_start                             /usr/lib/gcc/arm-none-eabi/9.2.1/../../../arm-none-eabi/lib/thumb/v7e-m+fp/hard/libc_nano.a(lib_a-init.o)
__register_exitproc                               /usr/lib/gcc/arm-none-eabi/9.2.1/../../../arm-none-eabi/lib/thumb/v7e-m+fp/hard/libc_nano.a(lib_a-__atexit.o)
                                                  /usr/lib/gcc/arm-none-eabi/9.2.1/../../../arm-none-eabi/lib/thumb/v7e-m+fp/hard/libc_nano.a(lib_a-atexit.o)
__register_frame_info                             /usr/lib/gcc/arm-none-eabi/9.2.1/thumb/v7e-m+fp/hard/crtbegin.o
__sf_fake_stderr                                  /usr/lib/gcc/arm-none-eabi/9.2.1/../../../arm-none-eabi/lib/thumb/v7e-m+fp/hard/libc_nano.a(lib_a-impure.o)
__sf_fake_stdin                                   /usr/lib/gcc/arm-none-eabi/9.2.1/../../../arm-none-eabi/lib/thumb/v7e-m+fp/hard/libc_nano.a(lib_a-impure.o)
__sf_fake_stdout                                  /usr/lib/gcc/arm-none-eabi/9.2.1/../../../arm-none-eabi/lib/thumb/v7e-m+fp/hard/libc_nano.a(lib_a-impure.o)
__stack                                           /usr/lib/gcc/arm-none-eabi/9.2.1/../../../arm-none-eabi/lib/thumb/v7e-m+fp/hard/crt0.o
__subdf3                                          /usr/lib/gcc/arm-none-eabi/9.2.1/thumb/v7e-m+fp/hard/libgcc.a(_arm_addsubdf3.o)
__truncdfsf2                                      /usr/lib/gcc/arm-none-eabi/9.2.1/thumb/v7e-m+fp/hard/libgcc.a(_arm_truncdfsf2.o)
_ebss                                             build/startup_stm32g431xx.o
_edata                                            build/startup_stm32g431xx.o
_estack                                           build/startup_stm32g431xx.o
_exit                                             /usr/lib/gcc/arm-none-eabi/9.2.1/../../../arm-none-eabi/lib/thumb/v7e-m+fp/hard/libnosys.a(_exit.o)
                                                  /usr/lib/gcc/arm-none-eabi/9.2.1/../../../arm-none-eabi/lib/thumb/v7e-m+fp/hard/libc_nano.a(lib_a-exit.o)
_fini                                             /usr/lib/gcc/arm-none-eabi/9.2.1/thumb/v7e-m+fp/hard/crti.o
                                                  /usr/lib/gcc/arm-none-eabi/9.2.1/../../../arm-none-eabi/lib/thumb/v7e-m+fp/hard/libc_nano.a(lib_a-fini.o)
_global_atexit                                    /usr/lib/gcc/arm-none-eabi/9.2.1/../../../arm-none-eabi/lib/thumb/v7e-m+fp/hard/libc_nano.a(lib_a-__call_atexit.o)
                                                  /usr/lib/gcc/arm-none-eabi/9.2.1/../../../arm-none-eabi/lib/thumb/v7e-m+fp/hard/libc_nano.a(lib_a-__atexit.o)
_global_impure_ptr                                /usr/lib/gcc/arm-none-eabi/9.2.1/../../../arm-none-eabi/lib/thumb/v7e-m+fp/hard/libc_nano.a(lib_a-impure.o)
                                                  /usr/lib/gcc/arm-none-eabi/9.2.1/../../../arm-none-eabi/lib/thumb/v7e-m+fp/hard/libc_nano.a(lib_a-exit.o)
_impure_ptr                                       /usr/lib/gcc/arm-none-eabi/9.2.1/../../../arm-none-eabi/lib/thumb/v7e-m+fp/hard/libc_nano.a(lib_a-impure.o)
_init                                             /usr/lib/gcc/arm-none-eabi/9.2.1/thumb/v7e-m+fp/hard/crti.o
                                                  /usr/lib/gcc/arm-none-eabi/9.2.1/../../../arm-none-eabi/lib/thumb/v7e-m+fp/hard/libc_nano.a(lib_a-init.o)
_mainCRTStartup                                   /usr/lib/gcc/arm-none-eabi/9.2.1/../../../arm-none-eabi/lib/thumb/v7e-m+fp/hard/crt0.o
_sbss                                             build/startup_stm32g431xx.o
_sdata                                            build/startup_stm32g431xx.o
_sidata                                           build/startup_stm32g431xx.o
_stack_init                                       /usr/lib/gcc/arm-none-eabi/9.2.1/../../../arm-none-eabi/lib/thumb/v7e-m+fp/hard/crt0.o
_start                                            /usr/lib/gcc/arm-none-eabi/9.2.1/../../../arm-none-eabi/lib/thumb/v7e-m+fp/hard/crt0.o
aspepOverUartA                                    build/mcp_config.o
                                                  build/stm32g4xx_mc_it.o
                                                  build/mc_tasks.o
                                                  build/mcp.o
atexit                                            /usr/lib/gcc/arm-none-eabi/9.2.1/../../../arm-none-eabi/lib/thumb/v7e-m+fp/hard/libc_nano.a(lib_a-atexit.o)
                                                  /usr/lib/gcc/arm-none-eabi/9.2.1/../../../arm-none-eabi/lib/thumb/v7e-m+fp/hard/crt0.o
dataPtrTableA                                     build/mcp_config.o
dataPtrTableBuffA                                 build/mcp_config.o
dataSizeTableA                                    build/mcp_config.o
dataSizeTableBuffA                                build/mcp_config.o
debugScopeM1                                      build/mc_config.o
                                                  build/register_interface.o
                                                  build/speed_torq_ctrl.o
                                                  build/mcp.o
exit                                              /usr/lib/gcc/arm-none-eabi/9.2.1/../../../arm-none-eabi/lib/thumb/v7e-m+fp/hard/libc_nano.a(lib_a-exit.o)
                                                  /usr/lib/gcc/arm-none-eabi/9.2.1/../../../arm-none-eabi/lib/thumb/v7e-m+fp/hard/crt0.o
g_pfnVectors                                      build/startup_stm32g431xx.o
getScalingFactor                                  build/ramp_ext_mngr.o
getStartMotorTick                                 build/mc_api.o
getTickMSCounter                                  build/debug_scope.o
                                                  build/mc_api.o
globalConfig_reg                                  build/mc_configuration_registers.o
                                                  build/register_interface.o
hardware_init_hook                                /usr/lib/gcc/arm-none-eabi/9.2.1/../../../arm-none-eabi/lib/thumb/v7e-m+fp/hard/crt0.o
htim4                                             build/main.o
main                                              build/main.o
                                                  build/startup_stm32g431xx.o
                                                  /usr/lib/gcc/arm-none-eabi/9.2.1/../../../arm-none-eabi/lib/thumb/v7e-m+fp/hard/crt0.o
malloc                                            /usr/lib/gcc/arm-none-eabi/9.2.1/../../../arm-none-eabi/lib/thumb/v7e-m+fp/hard/libc_nano.a(lib_a-__atexit.o)
mc_lock_pins                                      build/mc_tasks.o
                                                  build/motorcontrol.o
memcpy                                            /usr/lib/gcc/arm-none-eabi/9.2.1/../../../arm-none-eabi/lib/thumb/v7e-m+fp/hard/libc_nano.a(lib_a-memcpy.o)
                                                  build/mcpa.o
memset                                            /usr/lib/gcc/arm-none-eabi/9.2.1/../../../arm-none-eabi/lib/thumb/v7e-m+fp/hard/libc_nano.a(lib_a-memset.o)
                                                  build/main.o
                                                  /usr/lib/gcc/arm-none-eabi/9.2.1/../../../arm-none-eabi/lib/thumb/v7e-m+fp/hard/crt0.o
pFlash                                            build/stm32g4xx_hal_flash.o
                                                  build/stm32g4xx_hal_flash_ex.o
pMCI                                              build/motorcontrol.o
                                                  build/mc_api.o
pMPM                                              build/mc_config.o
                                                  build/register_interface.o
                                                  build/mc_tasks.o
                                                  build/mc_api.o
pPIDId                                            build/mc_config.o
                                                  build/register_interface.o
                                                  build/mc_tasks.o
pPIDIq                                            build/mc_config.o
                                                  build/register_interface.o
                                                  build/mc_tasks.o
pSTC                                              build/mc_config.o
                                                  build/mc_tasks.o
pTemperatureSensor                                build/mc_config.o
                                                  build/register_interface.o
                                                  build/mc_tasks.o
software_init_hook                                /usr/lib/gcc/arm-none-eabi/9.2.1/../../../arm-none-eabi/lib/thumb/v7e-m+fp/hard/crt0.o
startTimers                                       build/pwm_common.o
                                                  build/mc_tasks.o
uwTick                                            build/stm32g4xx_hal.o
uwTickFreq                                        build/stm32g4xx_hal.o
uwTickPrio                                        build/stm32g4xx_hal.o
                                                  build/motorcontrol.o
                                                  build/stm32g4xx_hal_rcc.o
waitForPolarizationEnd                            build/pwm_common.o
                                                  build/r3_2_g4xx_pwm_curr_fdbk.o
