ARM GAS  /tmp/cc2NWssJ.s 			page 1


   1              		.cpu cortex-m4
   2              		.eabi_attribute 27, 1
   3              		.eabi_attribute 28, 1
   4              		.eabi_attribute 20, 1
   5              		.eabi_attribute 21, 1
   6              		.eabi_attribute 23, 3
   7              		.eabi_attribute 24, 1
   8              		.eabi_attribute 25, 1
   9              		.eabi_attribute 26, 1
  10              		.eabi_attribute 30, 1
  11              		.eabi_attribute 34, 1
  12              		.eabi_attribute 18, 4
  13              		.file	"stm32g4xx_hal_exti.c"
  14              		.text
  15              	.Ltext0:
  16              		.cfi_sections	.debug_frame
  17              		.section	.text.HAL_EXTI_SetConfigLine,"ax",%progbits
  18              		.align	1
  19              		.global	HAL_EXTI_SetConfigLine
  20              		.arch armv7e-m
  21              		.syntax unified
  22              		.thumb
  23              		.thumb_func
  24              		.fpu fpv4-sp-d16
  26              	HAL_EXTI_SetConfigLine:
  27              	.LVL0:
  28              	.LFB132:
  29              		.file 1 "Drivers/STM32G4xx_HAL_Driver/Src/stm32g4xx_hal_exti.c"
   1:Drivers/STM32G4xx_HAL_Driver/Src/stm32g4xx_hal_exti.c **** /**
   2:Drivers/STM32G4xx_HAL_Driver/Src/stm32g4xx_hal_exti.c ****   ******************************************************************************
   3:Drivers/STM32G4xx_HAL_Driver/Src/stm32g4xx_hal_exti.c ****   * @file    stm32g4xx_hal_exti.c
   4:Drivers/STM32G4xx_HAL_Driver/Src/stm32g4xx_hal_exti.c ****   * @author  MCD Application Team
   5:Drivers/STM32G4xx_HAL_Driver/Src/stm32g4xx_hal_exti.c ****   * @brief   EXTI HAL module driver.
   6:Drivers/STM32G4xx_HAL_Driver/Src/stm32g4xx_hal_exti.c ****   *          This file provides firmware functions to manage the following
   7:Drivers/STM32G4xx_HAL_Driver/Src/stm32g4xx_hal_exti.c ****   *          functionalities of the Extended Interrupts and events controller (EXTI) peripheral:
   8:Drivers/STM32G4xx_HAL_Driver/Src/stm32g4xx_hal_exti.c ****   *          functionalities of the General Purpose Input/Output (EXTI) peripheral:
   9:Drivers/STM32G4xx_HAL_Driver/Src/stm32g4xx_hal_exti.c ****   *           + Initialization and de-initialization functions
  10:Drivers/STM32G4xx_HAL_Driver/Src/stm32g4xx_hal_exti.c ****   *           + IO operation functions
  11:Drivers/STM32G4xx_HAL_Driver/Src/stm32g4xx_hal_exti.c ****   *
  12:Drivers/STM32G4xx_HAL_Driver/Src/stm32g4xx_hal_exti.c ****   ******************************************************************************
  13:Drivers/STM32G4xx_HAL_Driver/Src/stm32g4xx_hal_exti.c ****   * @attention
  14:Drivers/STM32G4xx_HAL_Driver/Src/stm32g4xx_hal_exti.c ****   *
  15:Drivers/STM32G4xx_HAL_Driver/Src/stm32g4xx_hal_exti.c ****   * Copyright (c) 2019 STMicroelectronics.
  16:Drivers/STM32G4xx_HAL_Driver/Src/stm32g4xx_hal_exti.c ****   * All rights reserved.
  17:Drivers/STM32G4xx_HAL_Driver/Src/stm32g4xx_hal_exti.c ****   *
  18:Drivers/STM32G4xx_HAL_Driver/Src/stm32g4xx_hal_exti.c ****   * This software is licensed under terms that can be found in the LICENSE file
  19:Drivers/STM32G4xx_HAL_Driver/Src/stm32g4xx_hal_exti.c ****   * in the root directory of this software component.
  20:Drivers/STM32G4xx_HAL_Driver/Src/stm32g4xx_hal_exti.c ****   * If no LICENSE file comes with this software, it is provided AS-IS.
  21:Drivers/STM32G4xx_HAL_Driver/Src/stm32g4xx_hal_exti.c ****   *
  22:Drivers/STM32G4xx_HAL_Driver/Src/stm32g4xx_hal_exti.c ****   ******************************************************************************
  23:Drivers/STM32G4xx_HAL_Driver/Src/stm32g4xx_hal_exti.c ****   @verbatim
  24:Drivers/STM32G4xx_HAL_Driver/Src/stm32g4xx_hal_exti.c ****   ==============================================================================
  25:Drivers/STM32G4xx_HAL_Driver/Src/stm32g4xx_hal_exti.c ****                     ##### EXTI Peripheral features #####
  26:Drivers/STM32G4xx_HAL_Driver/Src/stm32g4xx_hal_exti.c ****   ==============================================================================
  27:Drivers/STM32G4xx_HAL_Driver/Src/stm32g4xx_hal_exti.c ****   [..]
  28:Drivers/STM32G4xx_HAL_Driver/Src/stm32g4xx_hal_exti.c ****     (+) Each Exti line can be configured within this driver.
  29:Drivers/STM32G4xx_HAL_Driver/Src/stm32g4xx_hal_exti.c **** 
ARM GAS  /tmp/cc2NWssJ.s 			page 2


  30:Drivers/STM32G4xx_HAL_Driver/Src/stm32g4xx_hal_exti.c ****     (+) Exti line can be configured in 3 different modes
  31:Drivers/STM32G4xx_HAL_Driver/Src/stm32g4xx_hal_exti.c ****         (++) Interrupt
  32:Drivers/STM32G4xx_HAL_Driver/Src/stm32g4xx_hal_exti.c ****         (++) Event
  33:Drivers/STM32G4xx_HAL_Driver/Src/stm32g4xx_hal_exti.c ****         (++) Both of them
  34:Drivers/STM32G4xx_HAL_Driver/Src/stm32g4xx_hal_exti.c **** 
  35:Drivers/STM32G4xx_HAL_Driver/Src/stm32g4xx_hal_exti.c ****     (+) Configurable Exti lines can be configured with 3 different triggers
  36:Drivers/STM32G4xx_HAL_Driver/Src/stm32g4xx_hal_exti.c ****         (++) Rising
  37:Drivers/STM32G4xx_HAL_Driver/Src/stm32g4xx_hal_exti.c ****         (++) Falling
  38:Drivers/STM32G4xx_HAL_Driver/Src/stm32g4xx_hal_exti.c ****         (++) Both of them
  39:Drivers/STM32G4xx_HAL_Driver/Src/stm32g4xx_hal_exti.c **** 
  40:Drivers/STM32G4xx_HAL_Driver/Src/stm32g4xx_hal_exti.c ****     (+) When set in interrupt mode, configurable Exti lines have two different
  41:Drivers/STM32G4xx_HAL_Driver/Src/stm32g4xx_hal_exti.c ****         interrupt pending registers which allow to distinguish which transition
  42:Drivers/STM32G4xx_HAL_Driver/Src/stm32g4xx_hal_exti.c ****         occurs:
  43:Drivers/STM32G4xx_HAL_Driver/Src/stm32g4xx_hal_exti.c ****         (++) Rising edge pending interrupt
  44:Drivers/STM32G4xx_HAL_Driver/Src/stm32g4xx_hal_exti.c ****         (++) Falling
  45:Drivers/STM32G4xx_HAL_Driver/Src/stm32g4xx_hal_exti.c **** 
  46:Drivers/STM32G4xx_HAL_Driver/Src/stm32g4xx_hal_exti.c ****     (+) Exti lines 0 to 15 are linked to gpio pin number 0 to 15. Gpio port can
  47:Drivers/STM32G4xx_HAL_Driver/Src/stm32g4xx_hal_exti.c ****         be selected through multiplexer.
  48:Drivers/STM32G4xx_HAL_Driver/Src/stm32g4xx_hal_exti.c **** 
  49:Drivers/STM32G4xx_HAL_Driver/Src/stm32g4xx_hal_exti.c ****                      ##### How to use this driver #####
  50:Drivers/STM32G4xx_HAL_Driver/Src/stm32g4xx_hal_exti.c ****   ==============================================================================
  51:Drivers/STM32G4xx_HAL_Driver/Src/stm32g4xx_hal_exti.c ****   [..]
  52:Drivers/STM32G4xx_HAL_Driver/Src/stm32g4xx_hal_exti.c **** 
  53:Drivers/STM32G4xx_HAL_Driver/Src/stm32g4xx_hal_exti.c ****     (#) Configure the EXTI line using HAL_EXTI_SetConfigLine().
  54:Drivers/STM32G4xx_HAL_Driver/Src/stm32g4xx_hal_exti.c ****         (++) Choose the interrupt line number by setting "Line" member from
  55:Drivers/STM32G4xx_HAL_Driver/Src/stm32g4xx_hal_exti.c ****              EXTI_ConfigTypeDef structure.
  56:Drivers/STM32G4xx_HAL_Driver/Src/stm32g4xx_hal_exti.c ****         (++) Configure the interrupt and/or event mode using "Mode" member from
  57:Drivers/STM32G4xx_HAL_Driver/Src/stm32g4xx_hal_exti.c ****              EXTI_ConfigTypeDef structure.
  58:Drivers/STM32G4xx_HAL_Driver/Src/stm32g4xx_hal_exti.c ****         (++) For configurable lines, configure rising and/or falling trigger
  59:Drivers/STM32G4xx_HAL_Driver/Src/stm32g4xx_hal_exti.c ****              "Trigger" member from EXTI_ConfigTypeDef structure.
  60:Drivers/STM32G4xx_HAL_Driver/Src/stm32g4xx_hal_exti.c ****         (++) For Exti lines linked to gpio, choose gpio port using "GPIOSel"
  61:Drivers/STM32G4xx_HAL_Driver/Src/stm32g4xx_hal_exti.c ****              member from GPIO_InitTypeDef structure.
  62:Drivers/STM32G4xx_HAL_Driver/Src/stm32g4xx_hal_exti.c **** 
  63:Drivers/STM32G4xx_HAL_Driver/Src/stm32g4xx_hal_exti.c ****     (#) Get current Exti configuration of a dedicated line using
  64:Drivers/STM32G4xx_HAL_Driver/Src/stm32g4xx_hal_exti.c ****         HAL_EXTI_GetConfigLine().
  65:Drivers/STM32G4xx_HAL_Driver/Src/stm32g4xx_hal_exti.c ****         (++) Provide exiting handle as parameter.
  66:Drivers/STM32G4xx_HAL_Driver/Src/stm32g4xx_hal_exti.c ****         (++) Provide pointer on EXTI_ConfigTypeDef structure as second parameter.
  67:Drivers/STM32G4xx_HAL_Driver/Src/stm32g4xx_hal_exti.c **** 
  68:Drivers/STM32G4xx_HAL_Driver/Src/stm32g4xx_hal_exti.c ****     (#) Clear Exti configuration of a dedicated line using HAL_EXTI_GetConfigLine().
  69:Drivers/STM32G4xx_HAL_Driver/Src/stm32g4xx_hal_exti.c ****         (++) Provide exiting handle as parameter.
  70:Drivers/STM32G4xx_HAL_Driver/Src/stm32g4xx_hal_exti.c **** 
  71:Drivers/STM32G4xx_HAL_Driver/Src/stm32g4xx_hal_exti.c ****     (#) Register callback to treat Exti interrupts using HAL_EXTI_RegisterCallback().
  72:Drivers/STM32G4xx_HAL_Driver/Src/stm32g4xx_hal_exti.c ****         (++) Provide exiting handle as first parameter.
  73:Drivers/STM32G4xx_HAL_Driver/Src/stm32g4xx_hal_exti.c ****         (++) Provide which callback will be registered using one value from
  74:Drivers/STM32G4xx_HAL_Driver/Src/stm32g4xx_hal_exti.c ****              EXTI_CallbackIDTypeDef.
  75:Drivers/STM32G4xx_HAL_Driver/Src/stm32g4xx_hal_exti.c ****         (++) Provide callback function pointer.
  76:Drivers/STM32G4xx_HAL_Driver/Src/stm32g4xx_hal_exti.c **** 
  77:Drivers/STM32G4xx_HAL_Driver/Src/stm32g4xx_hal_exti.c ****     (#) Get interrupt pending bit using HAL_EXTI_GetPending().
  78:Drivers/STM32G4xx_HAL_Driver/Src/stm32g4xx_hal_exti.c **** 
  79:Drivers/STM32G4xx_HAL_Driver/Src/stm32g4xx_hal_exti.c ****     (#) Clear interrupt pending bit using HAL_EXTI_ClearPending().
  80:Drivers/STM32G4xx_HAL_Driver/Src/stm32g4xx_hal_exti.c **** 
  81:Drivers/STM32G4xx_HAL_Driver/Src/stm32g4xx_hal_exti.c ****     (#) Generate software interrupt using HAL_EXTI_GenerateSWI().
  82:Drivers/STM32G4xx_HAL_Driver/Src/stm32g4xx_hal_exti.c **** 
  83:Drivers/STM32G4xx_HAL_Driver/Src/stm32g4xx_hal_exti.c ****   @endverbatim
  84:Drivers/STM32G4xx_HAL_Driver/Src/stm32g4xx_hal_exti.c ****   */
  85:Drivers/STM32G4xx_HAL_Driver/Src/stm32g4xx_hal_exti.c **** 
  86:Drivers/STM32G4xx_HAL_Driver/Src/stm32g4xx_hal_exti.c **** /* Includes ------------------------------------------------------------------*/
ARM GAS  /tmp/cc2NWssJ.s 			page 3


  87:Drivers/STM32G4xx_HAL_Driver/Src/stm32g4xx_hal_exti.c **** #include "stm32g4xx_hal.h"
  88:Drivers/STM32G4xx_HAL_Driver/Src/stm32g4xx_hal_exti.c **** 
  89:Drivers/STM32G4xx_HAL_Driver/Src/stm32g4xx_hal_exti.c **** /** @addtogroup STM32G4xx_HAL_Driver
  90:Drivers/STM32G4xx_HAL_Driver/Src/stm32g4xx_hal_exti.c ****   * @{
  91:Drivers/STM32G4xx_HAL_Driver/Src/stm32g4xx_hal_exti.c ****   */
  92:Drivers/STM32G4xx_HAL_Driver/Src/stm32g4xx_hal_exti.c **** 
  93:Drivers/STM32G4xx_HAL_Driver/Src/stm32g4xx_hal_exti.c **** /** @addtogroup EXTI
  94:Drivers/STM32G4xx_HAL_Driver/Src/stm32g4xx_hal_exti.c ****   * @{
  95:Drivers/STM32G4xx_HAL_Driver/Src/stm32g4xx_hal_exti.c ****   */
  96:Drivers/STM32G4xx_HAL_Driver/Src/stm32g4xx_hal_exti.c **** /** MISRA C:2012 deviation rule has been granted for following rule:
  97:Drivers/STM32G4xx_HAL_Driver/Src/stm32g4xx_hal_exti.c ****   * Rule-18.1_b - Medium: Array `EXTICR' 1st subscript interval [0,7] may be out
  98:Drivers/STM32G4xx_HAL_Driver/Src/stm32g4xx_hal_exti.c ****   * of bounds [0,3] in following API :
  99:Drivers/STM32G4xx_HAL_Driver/Src/stm32g4xx_hal_exti.c ****   * HAL_EXTI_SetConfigLine
 100:Drivers/STM32G4xx_HAL_Driver/Src/stm32g4xx_hal_exti.c ****   * HAL_EXTI_GetConfigLine
 101:Drivers/STM32G4xx_HAL_Driver/Src/stm32g4xx_hal_exti.c ****   * HAL_EXTI_ClearConfigLine
 102:Drivers/STM32G4xx_HAL_Driver/Src/stm32g4xx_hal_exti.c ****   */
 103:Drivers/STM32G4xx_HAL_Driver/Src/stm32g4xx_hal_exti.c **** 
 104:Drivers/STM32G4xx_HAL_Driver/Src/stm32g4xx_hal_exti.c **** #ifdef HAL_EXTI_MODULE_ENABLED
 105:Drivers/STM32G4xx_HAL_Driver/Src/stm32g4xx_hal_exti.c **** 
 106:Drivers/STM32G4xx_HAL_Driver/Src/stm32g4xx_hal_exti.c **** /* Private typedef -----------------------------------------------------------*/
 107:Drivers/STM32G4xx_HAL_Driver/Src/stm32g4xx_hal_exti.c **** /* Private defines ------------------------------------------------------------*/
 108:Drivers/STM32G4xx_HAL_Driver/Src/stm32g4xx_hal_exti.c **** /** @defgroup EXTI_Private_Constants EXTI Private Constants
 109:Drivers/STM32G4xx_HAL_Driver/Src/stm32g4xx_hal_exti.c ****   * @{
 110:Drivers/STM32G4xx_HAL_Driver/Src/stm32g4xx_hal_exti.c ****   */
 111:Drivers/STM32G4xx_HAL_Driver/Src/stm32g4xx_hal_exti.c **** #define EXTI_MODE_OFFSET                    0x08U   /* 0x20: offset between MCU IMR/EMR registers *
 112:Drivers/STM32G4xx_HAL_Driver/Src/stm32g4xx_hal_exti.c **** #define EXTI_CONFIG_OFFSET                  0x08U   /* 0x20: offset between MCU Rising/Falling conf
 113:Drivers/STM32G4xx_HAL_Driver/Src/stm32g4xx_hal_exti.c **** /**
 114:Drivers/STM32G4xx_HAL_Driver/Src/stm32g4xx_hal_exti.c ****   * @}
 115:Drivers/STM32G4xx_HAL_Driver/Src/stm32g4xx_hal_exti.c ****   */
 116:Drivers/STM32G4xx_HAL_Driver/Src/stm32g4xx_hal_exti.c **** 
 117:Drivers/STM32G4xx_HAL_Driver/Src/stm32g4xx_hal_exti.c **** /* Private macros ------------------------------------------------------------*/
 118:Drivers/STM32G4xx_HAL_Driver/Src/stm32g4xx_hal_exti.c **** /* Private variables ---------------------------------------------------------*/
 119:Drivers/STM32G4xx_HAL_Driver/Src/stm32g4xx_hal_exti.c **** /* Private function prototypes -----------------------------------------------*/
 120:Drivers/STM32G4xx_HAL_Driver/Src/stm32g4xx_hal_exti.c **** /* Exported functions --------------------------------------------------------*/
 121:Drivers/STM32G4xx_HAL_Driver/Src/stm32g4xx_hal_exti.c **** 
 122:Drivers/STM32G4xx_HAL_Driver/Src/stm32g4xx_hal_exti.c **** /** @addtogroup EXTI_Exported_Functions
 123:Drivers/STM32G4xx_HAL_Driver/Src/stm32g4xx_hal_exti.c ****   * @{
 124:Drivers/STM32G4xx_HAL_Driver/Src/stm32g4xx_hal_exti.c ****   */
 125:Drivers/STM32G4xx_HAL_Driver/Src/stm32g4xx_hal_exti.c **** 
 126:Drivers/STM32G4xx_HAL_Driver/Src/stm32g4xx_hal_exti.c **** /** @addtogroup EXTI_Exported_Functions_Group1
 127:Drivers/STM32G4xx_HAL_Driver/Src/stm32g4xx_hal_exti.c ****   *  @brief    Configuration functions
 128:Drivers/STM32G4xx_HAL_Driver/Src/stm32g4xx_hal_exti.c ****   *
 129:Drivers/STM32G4xx_HAL_Driver/Src/stm32g4xx_hal_exti.c **** @verbatim
 130:Drivers/STM32G4xx_HAL_Driver/Src/stm32g4xx_hal_exti.c ****  ===============================================================================
 131:Drivers/STM32G4xx_HAL_Driver/Src/stm32g4xx_hal_exti.c ****               ##### Configuration functions #####
 132:Drivers/STM32G4xx_HAL_Driver/Src/stm32g4xx_hal_exti.c ****  ===============================================================================
 133:Drivers/STM32G4xx_HAL_Driver/Src/stm32g4xx_hal_exti.c **** 
 134:Drivers/STM32G4xx_HAL_Driver/Src/stm32g4xx_hal_exti.c **** @endverbatim
 135:Drivers/STM32G4xx_HAL_Driver/Src/stm32g4xx_hal_exti.c ****   * @{
 136:Drivers/STM32G4xx_HAL_Driver/Src/stm32g4xx_hal_exti.c ****   */
 137:Drivers/STM32G4xx_HAL_Driver/Src/stm32g4xx_hal_exti.c **** 
 138:Drivers/STM32G4xx_HAL_Driver/Src/stm32g4xx_hal_exti.c **** /**
 139:Drivers/STM32G4xx_HAL_Driver/Src/stm32g4xx_hal_exti.c ****   * @brief  Set configuration of a dedicated Exti line.
 140:Drivers/STM32G4xx_HAL_Driver/Src/stm32g4xx_hal_exti.c ****   * @param  hexti Exti handle.
 141:Drivers/STM32G4xx_HAL_Driver/Src/stm32g4xx_hal_exti.c ****   * @param  pExtiConfig Pointer on EXTI configuration to be set.
 142:Drivers/STM32G4xx_HAL_Driver/Src/stm32g4xx_hal_exti.c ****   * @retval HAL Status.
 143:Drivers/STM32G4xx_HAL_Driver/Src/stm32g4xx_hal_exti.c ****   */
ARM GAS  /tmp/cc2NWssJ.s 			page 4


 144:Drivers/STM32G4xx_HAL_Driver/Src/stm32g4xx_hal_exti.c **** HAL_StatusTypeDef HAL_EXTI_SetConfigLine(EXTI_HandleTypeDef *hexti, EXTI_ConfigTypeDef *pExtiConfig
 145:Drivers/STM32G4xx_HAL_Driver/Src/stm32g4xx_hal_exti.c **** {
  30              		.loc 1 145 1 view -0
  31              		.cfi_startproc
  32              		@ args = 0, pretend = 0, frame = 0
  33              		@ frame_needed = 0, uses_anonymous_args = 0
  34              		@ link register save eliminated.
 146:Drivers/STM32G4xx_HAL_Driver/Src/stm32g4xx_hal_exti.c ****   __IO uint32_t *regaddr;
  35              		.loc 1 146 3 view .LVU1
 147:Drivers/STM32G4xx_HAL_Driver/Src/stm32g4xx_hal_exti.c ****   uint32_t regval;
  36              		.loc 1 147 3 view .LVU2
 148:Drivers/STM32G4xx_HAL_Driver/Src/stm32g4xx_hal_exti.c ****   uint32_t linepos;
  37              		.loc 1 148 3 view .LVU3
 149:Drivers/STM32G4xx_HAL_Driver/Src/stm32g4xx_hal_exti.c ****   uint32_t maskline;
  38              		.loc 1 149 3 view .LVU4
 150:Drivers/STM32G4xx_HAL_Driver/Src/stm32g4xx_hal_exti.c ****   uint32_t offset;
  39              		.loc 1 150 3 view .LVU5
 151:Drivers/STM32G4xx_HAL_Driver/Src/stm32g4xx_hal_exti.c **** 
 152:Drivers/STM32G4xx_HAL_Driver/Src/stm32g4xx_hal_exti.c ****   /* Check null pointer */
 153:Drivers/STM32G4xx_HAL_Driver/Src/stm32g4xx_hal_exti.c ****   if ((hexti == NULL) || (pExtiConfig == NULL))
  40              		.loc 1 153 3 view .LVU6
  41              		.loc 1 153 6 is_stmt 0 view .LVU7
  42 0000 0028     		cmp	r0, #0
  43 0002 5ED0     		beq	.L12
  44              		.loc 1 153 23 discriminator 1 view .LVU8
  45 0004 0029     		cmp	r1, #0
  46 0006 5ED0     		beq	.L13
 145:Drivers/STM32G4xx_HAL_Driver/Src/stm32g4xx_hal_exti.c ****   __IO uint32_t *regaddr;
  47              		.loc 1 145 1 view .LVU9
  48 0008 F0B4     		push	{r4, r5, r6, r7}
  49              		.cfi_def_cfa_offset 16
  50              		.cfi_offset 4, -16
  51              		.cfi_offset 5, -12
  52              		.cfi_offset 6, -8
  53              		.cfi_offset 7, -4
 154:Drivers/STM32G4xx_HAL_Driver/Src/stm32g4xx_hal_exti.c ****   {
 155:Drivers/STM32G4xx_HAL_Driver/Src/stm32g4xx_hal_exti.c ****     return HAL_ERROR;
 156:Drivers/STM32G4xx_HAL_Driver/Src/stm32g4xx_hal_exti.c ****   }
 157:Drivers/STM32G4xx_HAL_Driver/Src/stm32g4xx_hal_exti.c **** 
 158:Drivers/STM32G4xx_HAL_Driver/Src/stm32g4xx_hal_exti.c ****   /* Check parameters */
 159:Drivers/STM32G4xx_HAL_Driver/Src/stm32g4xx_hal_exti.c ****   assert_param(IS_EXTI_LINE(pExtiConfig->Line));
  54              		.loc 1 159 3 is_stmt 1 view .LVU10
 160:Drivers/STM32G4xx_HAL_Driver/Src/stm32g4xx_hal_exti.c ****   assert_param(IS_EXTI_MODE(pExtiConfig->Mode));
  55              		.loc 1 160 3 view .LVU11
 161:Drivers/STM32G4xx_HAL_Driver/Src/stm32g4xx_hal_exti.c **** 
 162:Drivers/STM32G4xx_HAL_Driver/Src/stm32g4xx_hal_exti.c ****   /* Assign line number to handle */
 163:Drivers/STM32G4xx_HAL_Driver/Src/stm32g4xx_hal_exti.c ****   hexti->Line = pExtiConfig->Line;
  56              		.loc 1 163 3 view .LVU12
  57              		.loc 1 163 28 is_stmt 0 view .LVU13
  58 000a 0A68     		ldr	r2, [r1]
  59              		.loc 1 163 15 view .LVU14
  60 000c 0260     		str	r2, [r0]
 164:Drivers/STM32G4xx_HAL_Driver/Src/stm32g4xx_hal_exti.c **** 
 165:Drivers/STM32G4xx_HAL_Driver/Src/stm32g4xx_hal_exti.c ****   /* Compute line register offset */
 166:Drivers/STM32G4xx_HAL_Driver/Src/stm32g4xx_hal_exti.c ****   offset = ((pExtiConfig->Line & EXTI_REG_MASK) >> EXTI_REG_SHIFT);
  61              		.loc 1 166 3 is_stmt 1 view .LVU15
  62              		.loc 1 166 10 is_stmt 0 view .LVU16
ARM GAS  /tmp/cc2NWssJ.s 			page 5


  63 000e C2F30043 		ubfx	r3, r2, #16, #1
  64              	.LVL1:
 167:Drivers/STM32G4xx_HAL_Driver/Src/stm32g4xx_hal_exti.c ****   /* Compute line position */
 168:Drivers/STM32G4xx_HAL_Driver/Src/stm32g4xx_hal_exti.c ****   linepos = (pExtiConfig->Line & EXTI_PIN_MASK);
  65              		.loc 1 168 3 is_stmt 1 view .LVU17
  66              		.loc 1 168 11 is_stmt 0 view .LVU18
  67 0012 02F01F04 		and	r4, r2, #31
  68              	.LVL2:
 169:Drivers/STM32G4xx_HAL_Driver/Src/stm32g4xx_hal_exti.c ****   /* Compute line mask */
 170:Drivers/STM32G4xx_HAL_Driver/Src/stm32g4xx_hal_exti.c ****   maskline = (1uL << linepos);
  69              		.loc 1 170 3 is_stmt 1 view .LVU19
  70              		.loc 1 170 12 is_stmt 0 view .LVU20
  71 0016 0120     		movs	r0, #1
  72              	.LVL3:
  73              		.loc 1 170 12 view .LVU21
  74 0018 A040     		lsls	r0, r0, r4
  75              	.LVL4:
 171:Drivers/STM32G4xx_HAL_Driver/Src/stm32g4xx_hal_exti.c **** 
 172:Drivers/STM32G4xx_HAL_Driver/Src/stm32g4xx_hal_exti.c ****   /* Configure triggers for configurable lines */
 173:Drivers/STM32G4xx_HAL_Driver/Src/stm32g4xx_hal_exti.c ****   if ((pExtiConfig->Line & EXTI_CONFIG) != 0x00u)
  76              		.loc 1 173 3 is_stmt 1 view .LVU22
  77              		.loc 1 173 6 is_stmt 0 view .LVU23
  78 001a 12F0007F 		tst	r2, #33554432
  79 001e 1AD0     		beq	.L3
 174:Drivers/STM32G4xx_HAL_Driver/Src/stm32g4xx_hal_exti.c ****   {
 175:Drivers/STM32G4xx_HAL_Driver/Src/stm32g4xx_hal_exti.c ****     assert_param(IS_EXTI_TRIGGER(pExtiConfig->Trigger));
  80              		.loc 1 175 5 is_stmt 1 view .LVU24
 176:Drivers/STM32G4xx_HAL_Driver/Src/stm32g4xx_hal_exti.c **** 
 177:Drivers/STM32G4xx_HAL_Driver/Src/stm32g4xx_hal_exti.c ****     /* Configure rising trigger */
 178:Drivers/STM32G4xx_HAL_Driver/Src/stm32g4xx_hal_exti.c ****     regaddr = (&EXTI->RTSR1 + (EXTI_CONFIG_OFFSET * offset));
  81              		.loc 1 178 5 view .LVU25
  82              		.loc 1 178 29 is_stmt 0 view .LVU26
  83 0020 5D01     		lsls	r5, r3, #5
  84              		.loc 1 178 13 view .LVU27
  85 0022 2A4F     		ldr	r7, .L19
  86              	.LVL5:
 179:Drivers/STM32G4xx_HAL_Driver/Src/stm32g4xx_hal_exti.c ****     regval = *regaddr;
  87              		.loc 1 179 5 is_stmt 1 view .LVU28
  88              		.loc 1 179 12 is_stmt 0 view .LVU29
  89 0024 55F807C0 		ldr	ip, [r5, r7]
  90              	.LVL6:
 180:Drivers/STM32G4xx_HAL_Driver/Src/stm32g4xx_hal_exti.c **** 
 181:Drivers/STM32G4xx_HAL_Driver/Src/stm32g4xx_hal_exti.c ****     /* Mask or set line */
 182:Drivers/STM32G4xx_HAL_Driver/Src/stm32g4xx_hal_exti.c ****     if ((pExtiConfig->Trigger & EXTI_TRIGGER_RISING) != 0x00u)
  91              		.loc 1 182 5 is_stmt 1 view .LVU30
  92              		.loc 1 182 8 is_stmt 0 view .LVU31
  93 0028 8E68     		ldr	r6, [r1, #8]
  94 002a 16F0010F 		tst	r6, #1
  95 002e 29D0     		beq	.L4
 183:Drivers/STM32G4xx_HAL_Driver/Src/stm32g4xx_hal_exti.c ****     {
 184:Drivers/STM32G4xx_HAL_Driver/Src/stm32g4xx_hal_exti.c ****       regval |= maskline;
  96              		.loc 1 184 7 is_stmt 1 view .LVU32
  97              		.loc 1 184 14 is_stmt 0 view .LVU33
  98 0030 4CEA0006 		orr	r6, ip, r0
  99              	.LVL7:
 100              	.L5:
 185:Drivers/STM32G4xx_HAL_Driver/Src/stm32g4xx_hal_exti.c ****     }
ARM GAS  /tmp/cc2NWssJ.s 			page 6


 186:Drivers/STM32G4xx_HAL_Driver/Src/stm32g4xx_hal_exti.c ****     else
 187:Drivers/STM32G4xx_HAL_Driver/Src/stm32g4xx_hal_exti.c ****     {
 188:Drivers/STM32G4xx_HAL_Driver/Src/stm32g4xx_hal_exti.c ****       regval &= ~maskline;
 189:Drivers/STM32G4xx_HAL_Driver/Src/stm32g4xx_hal_exti.c ****     }
 190:Drivers/STM32G4xx_HAL_Driver/Src/stm32g4xx_hal_exti.c **** 
 191:Drivers/STM32G4xx_HAL_Driver/Src/stm32g4xx_hal_exti.c ****     /* Store rising trigger mode */
 192:Drivers/STM32G4xx_HAL_Driver/Src/stm32g4xx_hal_exti.c ****     *regaddr = regval;
 101              		.loc 1 192 5 is_stmt 1 view .LVU34
 102              		.loc 1 192 14 is_stmt 0 view .LVU35
 103 0034 EE51     		str	r6, [r5, r7]
 193:Drivers/STM32G4xx_HAL_Driver/Src/stm32g4xx_hal_exti.c **** 
 194:Drivers/STM32G4xx_HAL_Driver/Src/stm32g4xx_hal_exti.c ****     /* Configure falling trigger */
 195:Drivers/STM32G4xx_HAL_Driver/Src/stm32g4xx_hal_exti.c ****     regaddr = (&EXTI->FTSR1 + (EXTI_CONFIG_OFFSET * offset));
 104              		.loc 1 195 5 is_stmt 1 view .LVU36
 105              		.loc 1 195 13 is_stmt 0 view .LVU37
 106 0036 264F     		ldr	r7, .L19+4
 107              	.LVL8:
 196:Drivers/STM32G4xx_HAL_Driver/Src/stm32g4xx_hal_exti.c ****     regval = *regaddr;
 108              		.loc 1 196 5 is_stmt 1 view .LVU38
 109              		.loc 1 196 12 is_stmt 0 view .LVU39
 110 0038 55F807C0 		ldr	ip, [r5, r7]
 111              	.LVL9:
 197:Drivers/STM32G4xx_HAL_Driver/Src/stm32g4xx_hal_exti.c **** 
 198:Drivers/STM32G4xx_HAL_Driver/Src/stm32g4xx_hal_exti.c ****     /* Mask or set line */
 199:Drivers/STM32G4xx_HAL_Driver/Src/stm32g4xx_hal_exti.c ****     if ((pExtiConfig->Trigger & EXTI_TRIGGER_FALLING) != 0x00u)
 112              		.loc 1 199 5 is_stmt 1 view .LVU40
 113              		.loc 1 199 8 is_stmt 0 view .LVU41
 114 003c 8E68     		ldr	r6, [r1, #8]
 115 003e 16F0020F 		tst	r6, #2
 116 0042 22D0     		beq	.L6
 200:Drivers/STM32G4xx_HAL_Driver/Src/stm32g4xx_hal_exti.c ****     {
 201:Drivers/STM32G4xx_HAL_Driver/Src/stm32g4xx_hal_exti.c ****       regval |= maskline;
 117              		.loc 1 201 7 is_stmt 1 view .LVU42
 118              		.loc 1 201 14 is_stmt 0 view .LVU43
 119 0044 4CEA0006 		orr	r6, ip, r0
 120              	.LVL10:
 121              	.L7:
 202:Drivers/STM32G4xx_HAL_Driver/Src/stm32g4xx_hal_exti.c ****     }
 203:Drivers/STM32G4xx_HAL_Driver/Src/stm32g4xx_hal_exti.c ****     else
 204:Drivers/STM32G4xx_HAL_Driver/Src/stm32g4xx_hal_exti.c ****     {
 205:Drivers/STM32G4xx_HAL_Driver/Src/stm32g4xx_hal_exti.c ****       regval &= ~maskline;
 206:Drivers/STM32G4xx_HAL_Driver/Src/stm32g4xx_hal_exti.c ****     }
 207:Drivers/STM32G4xx_HAL_Driver/Src/stm32g4xx_hal_exti.c **** 
 208:Drivers/STM32G4xx_HAL_Driver/Src/stm32g4xx_hal_exti.c ****     /* Store falling trigger mode */
 209:Drivers/STM32G4xx_HAL_Driver/Src/stm32g4xx_hal_exti.c ****     *regaddr = regval;
 122              		.loc 1 209 5 is_stmt 1 view .LVU44
 123              		.loc 1 209 14 is_stmt 0 view .LVU45
 124 0048 EE51     		str	r6, [r5, r7]
 210:Drivers/STM32G4xx_HAL_Driver/Src/stm32g4xx_hal_exti.c **** 
 211:Drivers/STM32G4xx_HAL_Driver/Src/stm32g4xx_hal_exti.c ****     /* Configure gpio port selection in case of gpio exti line */
 212:Drivers/STM32G4xx_HAL_Driver/Src/stm32g4xx_hal_exti.c ****     if ((pExtiConfig->Line & EXTI_GPIO) == EXTI_GPIO)
 125              		.loc 1 212 5 is_stmt 1 view .LVU46
 126              		.loc 1 212 21 is_stmt 0 view .LVU47
 127 004a 0D68     		ldr	r5, [r1]
 128              	.LVL11:
 129              		.loc 1 212 28 view .LVU48
 130 004c 05F0C065 		and	r5, r5, #100663296
ARM GAS  /tmp/cc2NWssJ.s 			page 7


 131              		.loc 1 212 8 view .LVU49
 132 0050 B5F1C06F 		cmp	r5, #100663296
 133 0054 1CD0     		beq	.L18
 134              	.LVL12:
 135              	.L3:
 213:Drivers/STM32G4xx_HAL_Driver/Src/stm32g4xx_hal_exti.c ****     {
 214:Drivers/STM32G4xx_HAL_Driver/Src/stm32g4xx_hal_exti.c ****       assert_param(IS_EXTI_GPIO_PORT(pExtiConfig->GPIOSel));
 215:Drivers/STM32G4xx_HAL_Driver/Src/stm32g4xx_hal_exti.c ****       assert_param(IS_EXTI_GPIO_PIN(linepos));
 216:Drivers/STM32G4xx_HAL_Driver/Src/stm32g4xx_hal_exti.c **** 
 217:Drivers/STM32G4xx_HAL_Driver/Src/stm32g4xx_hal_exti.c ****       regval = SYSCFG->EXTICR[linepos >> 2u];
 218:Drivers/STM32G4xx_HAL_Driver/Src/stm32g4xx_hal_exti.c ****       regval &= ~(SYSCFG_EXTICR1_EXTI0 << (SYSCFG_EXTICR1_EXTI1_Pos * (linepos & 0x03u)));
 219:Drivers/STM32G4xx_HAL_Driver/Src/stm32g4xx_hal_exti.c ****       regval |= (pExtiConfig->GPIOSel << (SYSCFG_EXTICR1_EXTI1_Pos * (linepos & 0x03u)));
 220:Drivers/STM32G4xx_HAL_Driver/Src/stm32g4xx_hal_exti.c ****       SYSCFG->EXTICR[linepos >> 2u] = regval;
 221:Drivers/STM32G4xx_HAL_Driver/Src/stm32g4xx_hal_exti.c ****     }
 222:Drivers/STM32G4xx_HAL_Driver/Src/stm32g4xx_hal_exti.c ****   }
 223:Drivers/STM32G4xx_HAL_Driver/Src/stm32g4xx_hal_exti.c **** 
 224:Drivers/STM32G4xx_HAL_Driver/Src/stm32g4xx_hal_exti.c ****   /* Configure interrupt mode : read current mode */
 225:Drivers/STM32G4xx_HAL_Driver/Src/stm32g4xx_hal_exti.c ****   regaddr = (&EXTI->IMR1 + (EXTI_MODE_OFFSET * offset));
 136              		.loc 1 225 3 is_stmt 1 view .LVU50
 137              		.loc 1 225 26 is_stmt 0 view .LVU51
 138 0056 5B01     		lsls	r3, r3, #5
 139              	.LVL13:
 140              		.loc 1 225 11 view .LVU52
 141 0058 03F18042 		add	r2, r3, #1073741824
 142 005c 02F58232 		add	r2, r2, #66560
 143              	.LVL14:
 226:Drivers/STM32G4xx_HAL_Driver/Src/stm32g4xx_hal_exti.c ****   regval = *regaddr;
 144              		.loc 1 226 3 is_stmt 1 view .LVU53
 145              		.loc 1 226 10 is_stmt 0 view .LVU54
 146 0060 1468     		ldr	r4, [r2]
 147              	.LVL15:
 227:Drivers/STM32G4xx_HAL_Driver/Src/stm32g4xx_hal_exti.c **** 
 228:Drivers/STM32G4xx_HAL_Driver/Src/stm32g4xx_hal_exti.c ****   /* Mask or set line */
 229:Drivers/STM32G4xx_HAL_Driver/Src/stm32g4xx_hal_exti.c ****   if ((pExtiConfig->Mode & EXTI_MODE_INTERRUPT) != 0x00u)
 148              		.loc 1 229 3 is_stmt 1 view .LVU55
 149              		.loc 1 229 19 is_stmt 0 view .LVU56
 150 0062 4D68     		ldr	r5, [r1, #4]
 151              		.loc 1 229 6 view .LVU57
 152 0064 15F0010F 		tst	r5, #1
 153 0068 25D0     		beq	.L8
 230:Drivers/STM32G4xx_HAL_Driver/Src/stm32g4xx_hal_exti.c ****   {
 231:Drivers/STM32G4xx_HAL_Driver/Src/stm32g4xx_hal_exti.c ****     regval |= maskline;
 154              		.loc 1 231 5 is_stmt 1 view .LVU58
 155              		.loc 1 231 12 is_stmt 0 view .LVU59
 156 006a 0443     		orrs	r4, r4, r0
 157              	.LVL16:
 158              	.L9:
 232:Drivers/STM32G4xx_HAL_Driver/Src/stm32g4xx_hal_exti.c ****   }
 233:Drivers/STM32G4xx_HAL_Driver/Src/stm32g4xx_hal_exti.c ****   else
 234:Drivers/STM32G4xx_HAL_Driver/Src/stm32g4xx_hal_exti.c ****   {
 235:Drivers/STM32G4xx_HAL_Driver/Src/stm32g4xx_hal_exti.c ****     regval &= ~maskline;
 236:Drivers/STM32G4xx_HAL_Driver/Src/stm32g4xx_hal_exti.c ****   }
 237:Drivers/STM32G4xx_HAL_Driver/Src/stm32g4xx_hal_exti.c **** 
 238:Drivers/STM32G4xx_HAL_Driver/Src/stm32g4xx_hal_exti.c ****   /* Store interrupt mode */
 239:Drivers/STM32G4xx_HAL_Driver/Src/stm32g4xx_hal_exti.c ****   *regaddr = regval;
 159              		.loc 1 239 3 is_stmt 1 view .LVU60
 160              		.loc 1 239 12 is_stmt 0 view .LVU61
ARM GAS  /tmp/cc2NWssJ.s 			page 8


 161 006c 1460     		str	r4, [r2]
 240:Drivers/STM32G4xx_HAL_Driver/Src/stm32g4xx_hal_exti.c **** 
 241:Drivers/STM32G4xx_HAL_Driver/Src/stm32g4xx_hal_exti.c ****   /* Configure event mode : read current mode */
 242:Drivers/STM32G4xx_HAL_Driver/Src/stm32g4xx_hal_exti.c ****   regaddr = (&EXTI->EMR1 + (EXTI_MODE_OFFSET * offset));
 162              		.loc 1 242 3 is_stmt 1 view .LVU62
 163              		.loc 1 242 11 is_stmt 0 view .LVU63
 164 006e 194C     		ldr	r4, .L19+8
 165              	.LVL17:
 243:Drivers/STM32G4xx_HAL_Driver/Src/stm32g4xx_hal_exti.c ****   regval = *regaddr;
 166              		.loc 1 243 3 is_stmt 1 view .LVU64
 167              		.loc 1 243 10 is_stmt 0 view .LVU65
 168 0070 1A59     		ldr	r2, [r3, r4]
 169              	.LVL18:
 244:Drivers/STM32G4xx_HAL_Driver/Src/stm32g4xx_hal_exti.c **** 
 245:Drivers/STM32G4xx_HAL_Driver/Src/stm32g4xx_hal_exti.c ****   /* Mask or set line */
 246:Drivers/STM32G4xx_HAL_Driver/Src/stm32g4xx_hal_exti.c ****   if ((pExtiConfig->Mode & EXTI_MODE_EVENT) != 0x00u)
 170              		.loc 1 246 3 is_stmt 1 view .LVU66
 171              		.loc 1 246 19 is_stmt 0 view .LVU67
 172 0072 4968     		ldr	r1, [r1, #4]
 173              	.LVL19:
 174              		.loc 1 246 6 view .LVU68
 175 0074 11F0020F 		tst	r1, #2
 176 0078 20D0     		beq	.L10
 247:Drivers/STM32G4xx_HAL_Driver/Src/stm32g4xx_hal_exti.c ****   {
 248:Drivers/STM32G4xx_HAL_Driver/Src/stm32g4xx_hal_exti.c ****     regval |= maskline;
 177              		.loc 1 248 5 is_stmt 1 view .LVU69
 178              		.loc 1 248 12 is_stmt 0 view .LVU70
 179 007a 1043     		orrs	r0, r0, r2
 180              	.LVL20:
 181              	.L11:
 249:Drivers/STM32G4xx_HAL_Driver/Src/stm32g4xx_hal_exti.c ****   }
 250:Drivers/STM32G4xx_HAL_Driver/Src/stm32g4xx_hal_exti.c ****   else
 251:Drivers/STM32G4xx_HAL_Driver/Src/stm32g4xx_hal_exti.c ****   {
 252:Drivers/STM32G4xx_HAL_Driver/Src/stm32g4xx_hal_exti.c ****     regval &= ~maskline;
 253:Drivers/STM32G4xx_HAL_Driver/Src/stm32g4xx_hal_exti.c ****   }
 254:Drivers/STM32G4xx_HAL_Driver/Src/stm32g4xx_hal_exti.c **** 
 255:Drivers/STM32G4xx_HAL_Driver/Src/stm32g4xx_hal_exti.c ****   /* Store event mode */
 256:Drivers/STM32G4xx_HAL_Driver/Src/stm32g4xx_hal_exti.c ****   *regaddr = regval;
 182              		.loc 1 256 3 is_stmt 1 view .LVU71
 183              		.loc 1 256 12 is_stmt 0 view .LVU72
 184 007c 1851     		str	r0, [r3, r4]
 257:Drivers/STM32G4xx_HAL_Driver/Src/stm32g4xx_hal_exti.c **** 
 258:Drivers/STM32G4xx_HAL_Driver/Src/stm32g4xx_hal_exti.c ****   return HAL_OK;
 185              		.loc 1 258 3 is_stmt 1 view .LVU73
 186              		.loc 1 258 10 is_stmt 0 view .LVU74
 187 007e 0020     		movs	r0, #0
 188              	.LVL21:
 259:Drivers/STM32G4xx_HAL_Driver/Src/stm32g4xx_hal_exti.c **** }
 189              		.loc 1 259 1 view .LVU75
 190 0080 F0BC     		pop	{r4, r5, r6, r7}
 191              		.cfi_remember_state
 192              		.cfi_restore 7
 193              		.cfi_restore 6
 194              		.cfi_restore 5
 195              		.cfi_restore 4
 196              		.cfi_def_cfa_offset 0
 197              	.LVL22:
ARM GAS  /tmp/cc2NWssJ.s 			page 9


 198              		.loc 1 259 1 view .LVU76
 199 0082 7047     		bx	lr
 200              	.LVL23:
 201              	.L4:
 202              		.cfi_restore_state
 188:Drivers/STM32G4xx_HAL_Driver/Src/stm32g4xx_hal_exti.c ****     }
 203              		.loc 1 188 7 is_stmt 1 view .LVU77
 188:Drivers/STM32G4xx_HAL_Driver/Src/stm32g4xx_hal_exti.c ****     }
 204              		.loc 1 188 14 is_stmt 0 view .LVU78
 205 0084 2CEA0006 		bic	r6, ip, r0
 206              	.LVL24:
 188:Drivers/STM32G4xx_HAL_Driver/Src/stm32g4xx_hal_exti.c ****     }
 207              		.loc 1 188 14 view .LVU79
 208 0088 D4E7     		b	.L5
 209              	.LVL25:
 210              	.L6:
 205:Drivers/STM32G4xx_HAL_Driver/Src/stm32g4xx_hal_exti.c ****     }
 211              		.loc 1 205 7 is_stmt 1 view .LVU80
 205:Drivers/STM32G4xx_HAL_Driver/Src/stm32g4xx_hal_exti.c ****     }
 212              		.loc 1 205 14 is_stmt 0 view .LVU81
 213 008a 2CEA0006 		bic	r6, ip, r0
 214              	.LVL26:
 205:Drivers/STM32G4xx_HAL_Driver/Src/stm32g4xx_hal_exti.c ****     }
 215              		.loc 1 205 14 view .LVU82
 216 008e DBE7     		b	.L7
 217              	.LVL27:
 218              	.L18:
 214:Drivers/STM32G4xx_HAL_Driver/Src/stm32g4xx_hal_exti.c ****       assert_param(IS_EXTI_GPIO_PIN(linepos));
 219              		.loc 1 214 7 is_stmt 1 view .LVU83
 215:Drivers/STM32G4xx_HAL_Driver/Src/stm32g4xx_hal_exti.c **** 
 220              		.loc 1 215 7 view .LVU84
 217:Drivers/STM32G4xx_HAL_Driver/Src/stm32g4xx_hal_exti.c ****       regval &= ~(SYSCFG_EXTICR1_EXTI0 << (SYSCFG_EXTICR1_EXTI1_Pos * (linepos & 0x03u)));
 221              		.loc 1 217 7 view .LVU85
 217:Drivers/STM32G4xx_HAL_Driver/Src/stm32g4xx_hal_exti.c ****       regval &= ~(SYSCFG_EXTICR1_EXTI0 << (SYSCFG_EXTICR1_EXTI1_Pos * (linepos & 0x03u)));
 222              		.loc 1 217 39 is_stmt 0 view .LVU86
 223 0090 A408     		lsrs	r4, r4, #2
 224              	.LVL28:
 217:Drivers/STM32G4xx_HAL_Driver/Src/stm32g4xx_hal_exti.c ****       regval &= ~(SYSCFG_EXTICR1_EXTI0 << (SYSCFG_EXTICR1_EXTI1_Pos * (linepos & 0x03u)));
 225              		.loc 1 217 14 view .LVU87
 226 0092 114F     		ldr	r7, .L19+12
 227              	.LVL29:
 217:Drivers/STM32G4xx_HAL_Driver/Src/stm32g4xx_hal_exti.c ****       regval &= ~(SYSCFG_EXTICR1_EXTI0 << (SYSCFG_EXTICR1_EXTI1_Pos * (linepos & 0x03u)));
 228              		.loc 1 217 14 view .LVU88
 229 0094 0234     		adds	r4, r4, #2
 230 0096 57F82460 		ldr	r6, [r7, r4, lsl #2]
 231              	.LVL30:
 218:Drivers/STM32G4xx_HAL_Driver/Src/stm32g4xx_hal_exti.c ****       regval |= (pExtiConfig->GPIOSel << (SYSCFG_EXTICR1_EXTI1_Pos * (linepos & 0x03u)));
 232              		.loc 1 218 7 is_stmt 1 view .LVU89
 218:Drivers/STM32G4xx_HAL_Driver/Src/stm32g4xx_hal_exti.c ****       regval |= (pExtiConfig->GPIOSel << (SYSCFG_EXTICR1_EXTI1_Pos * (linepos & 0x03u)));
 233              		.loc 1 218 80 is_stmt 0 view .LVU90
 234 009a 02F00302 		and	r2, r2, #3
 235              	.LVL31:
 218:Drivers/STM32G4xx_HAL_Driver/Src/stm32g4xx_hal_exti.c ****       regval |= (pExtiConfig->GPIOSel << (SYSCFG_EXTICR1_EXTI1_Pos * (linepos & 0x03u)));
 236              		.loc 1 218 69 view .LVU91
 237 009e 9200     		lsls	r2, r2, #2
 218:Drivers/STM32G4xx_HAL_Driver/Src/stm32g4xx_hal_exti.c ****       regval |= (pExtiConfig->GPIOSel << (SYSCFG_EXTICR1_EXTI1_Pos * (linepos & 0x03u)));
 238              		.loc 1 218 40 view .LVU92
ARM GAS  /tmp/cc2NWssJ.s 			page 10


 239 00a0 0725     		movs	r5, #7
 240 00a2 9540     		lsls	r5, r5, r2
 218:Drivers/STM32G4xx_HAL_Driver/Src/stm32g4xx_hal_exti.c ****       regval |= (pExtiConfig->GPIOSel << (SYSCFG_EXTICR1_EXTI1_Pos * (linepos & 0x03u)));
 241              		.loc 1 218 14 view .LVU93
 242 00a4 26EA0506 		bic	r6, r6, r5
 243              	.LVL32:
 219:Drivers/STM32G4xx_HAL_Driver/Src/stm32g4xx_hal_exti.c ****       SYSCFG->EXTICR[linepos >> 2u] = regval;
 244              		.loc 1 219 7 is_stmt 1 view .LVU94
 219:Drivers/STM32G4xx_HAL_Driver/Src/stm32g4xx_hal_exti.c ****       SYSCFG->EXTICR[linepos >> 2u] = regval;
 245              		.loc 1 219 29 is_stmt 0 view .LVU95
 246 00a8 CD68     		ldr	r5, [r1, #12]
 219:Drivers/STM32G4xx_HAL_Driver/Src/stm32g4xx_hal_exti.c ****       SYSCFG->EXTICR[linepos >> 2u] = regval;
 247              		.loc 1 219 39 view .LVU96
 248 00aa 05FA02F2 		lsl	r2, r5, r2
 219:Drivers/STM32G4xx_HAL_Driver/Src/stm32g4xx_hal_exti.c ****       SYSCFG->EXTICR[linepos >> 2u] = regval;
 249              		.loc 1 219 14 view .LVU97
 250 00ae 3243     		orrs	r2, r2, r6
 251              	.LVL33:
 220:Drivers/STM32G4xx_HAL_Driver/Src/stm32g4xx_hal_exti.c ****     }
 252              		.loc 1 220 7 is_stmt 1 view .LVU98
 220:Drivers/STM32G4xx_HAL_Driver/Src/stm32g4xx_hal_exti.c ****     }
 253              		.loc 1 220 37 is_stmt 0 view .LVU99
 254 00b0 47F82420 		str	r2, [r7, r4, lsl #2]
 255 00b4 CFE7     		b	.L3
 256              	.LVL34:
 257              	.L8:
 235:Drivers/STM32G4xx_HAL_Driver/Src/stm32g4xx_hal_exti.c ****   }
 258              		.loc 1 235 5 is_stmt 1 view .LVU100
 235:Drivers/STM32G4xx_HAL_Driver/Src/stm32g4xx_hal_exti.c ****   }
 259              		.loc 1 235 12 is_stmt 0 view .LVU101
 260 00b6 24EA0004 		bic	r4, r4, r0
 261              	.LVL35:
 235:Drivers/STM32G4xx_HAL_Driver/Src/stm32g4xx_hal_exti.c ****   }
 262              		.loc 1 235 12 view .LVU102
 263 00ba D7E7     		b	.L9
 264              	.LVL36:
 265              	.L10:
 252:Drivers/STM32G4xx_HAL_Driver/Src/stm32g4xx_hal_exti.c ****   }
 266              		.loc 1 252 5 is_stmt 1 view .LVU103
 252:Drivers/STM32G4xx_HAL_Driver/Src/stm32g4xx_hal_exti.c ****   }
 267              		.loc 1 252 12 is_stmt 0 view .LVU104
 268 00bc 22EA0000 		bic	r0, r2, r0
 269              	.LVL37:
 252:Drivers/STM32G4xx_HAL_Driver/Src/stm32g4xx_hal_exti.c ****   }
 270              		.loc 1 252 12 view .LVU105
 271 00c0 DCE7     		b	.L11
 272              	.LVL38:
 273              	.L12:
 274              		.cfi_def_cfa_offset 0
 275              		.cfi_restore 4
 276              		.cfi_restore 5
 277              		.cfi_restore 6
 278              		.cfi_restore 7
 155:Drivers/STM32G4xx_HAL_Driver/Src/stm32g4xx_hal_exti.c ****   }
 279              		.loc 1 155 12 view .LVU106
 280 00c2 0120     		movs	r0, #1
 281              	.LVL39:
ARM GAS  /tmp/cc2NWssJ.s 			page 11


 155:Drivers/STM32G4xx_HAL_Driver/Src/stm32g4xx_hal_exti.c ****   }
 282              		.loc 1 155 12 view .LVU107
 283 00c4 7047     		bx	lr
 284              	.LVL40:
 285              	.L13:
 155:Drivers/STM32G4xx_HAL_Driver/Src/stm32g4xx_hal_exti.c ****   }
 286              		.loc 1 155 12 view .LVU108
 287 00c6 0120     		movs	r0, #1
 288              	.LVL41:
 289              		.loc 1 259 1 view .LVU109
 290 00c8 7047     		bx	lr
 291              	.L20:
 292 00ca 00BF     		.align	2
 293              	.L19:
 294 00cc 08040140 		.word	1073808392
 295 00d0 0C040140 		.word	1073808396
 296 00d4 04040140 		.word	1073808388
 297 00d8 00000140 		.word	1073807360
 298              		.cfi_endproc
 299              	.LFE132:
 301              		.section	.text.HAL_EXTI_GetConfigLine,"ax",%progbits
 302              		.align	1
 303              		.global	HAL_EXTI_GetConfigLine
 304              		.syntax unified
 305              		.thumb
 306              		.thumb_func
 307              		.fpu fpv4-sp-d16
 309              	HAL_EXTI_GetConfigLine:
 310              	.LVL42:
 311              	.LFB133:
 260:Drivers/STM32G4xx_HAL_Driver/Src/stm32g4xx_hal_exti.c **** 
 261:Drivers/STM32G4xx_HAL_Driver/Src/stm32g4xx_hal_exti.c **** 
 262:Drivers/STM32G4xx_HAL_Driver/Src/stm32g4xx_hal_exti.c **** /**
 263:Drivers/STM32G4xx_HAL_Driver/Src/stm32g4xx_hal_exti.c ****   * @brief  Get configuration of a dedicated Exti line.
 264:Drivers/STM32G4xx_HAL_Driver/Src/stm32g4xx_hal_exti.c ****   * @param  hexti Exti handle.
 265:Drivers/STM32G4xx_HAL_Driver/Src/stm32g4xx_hal_exti.c ****   * @param  pExtiConfig Pointer on structure to store Exti configuration.
 266:Drivers/STM32G4xx_HAL_Driver/Src/stm32g4xx_hal_exti.c ****   * @retval HAL Status.
 267:Drivers/STM32G4xx_HAL_Driver/Src/stm32g4xx_hal_exti.c ****   */
 268:Drivers/STM32G4xx_HAL_Driver/Src/stm32g4xx_hal_exti.c **** HAL_StatusTypeDef HAL_EXTI_GetConfigLine(EXTI_HandleTypeDef *hexti, EXTI_ConfigTypeDef *pExtiConfig
 269:Drivers/STM32G4xx_HAL_Driver/Src/stm32g4xx_hal_exti.c **** {
 312              		.loc 1 269 1 is_stmt 1 view -0
 313              		.cfi_startproc
 314              		@ args = 0, pretend = 0, frame = 0
 315              		@ frame_needed = 0, uses_anonymous_args = 0
 316              		@ link register save eliminated.
 270:Drivers/STM32G4xx_HAL_Driver/Src/stm32g4xx_hal_exti.c ****   __IO uint32_t *regaddr;
 317              		.loc 1 270 3 view .LVU111
 271:Drivers/STM32G4xx_HAL_Driver/Src/stm32g4xx_hal_exti.c ****   uint32_t regval;
 318              		.loc 1 271 3 view .LVU112
 272:Drivers/STM32G4xx_HAL_Driver/Src/stm32g4xx_hal_exti.c ****   uint32_t linepos;
 319              		.loc 1 272 3 view .LVU113
 273:Drivers/STM32G4xx_HAL_Driver/Src/stm32g4xx_hal_exti.c ****   uint32_t maskline;
 320              		.loc 1 273 3 view .LVU114
 274:Drivers/STM32G4xx_HAL_Driver/Src/stm32g4xx_hal_exti.c ****   uint32_t offset;
 321              		.loc 1 274 3 view .LVU115
 275:Drivers/STM32G4xx_HAL_Driver/Src/stm32g4xx_hal_exti.c **** 
 276:Drivers/STM32G4xx_HAL_Driver/Src/stm32g4xx_hal_exti.c ****   /* Check null pointer */
ARM GAS  /tmp/cc2NWssJ.s 			page 12


 277:Drivers/STM32G4xx_HAL_Driver/Src/stm32g4xx_hal_exti.c ****   if ((hexti == NULL) || (pExtiConfig == NULL))
 322              		.loc 1 277 3 view .LVU116
 323              		.loc 1 277 6 is_stmt 0 view .LVU117
 324 0000 0028     		cmp	r0, #0
 325 0002 47D0     		beq	.L28
 326              		.loc 1 277 23 discriminator 1 view .LVU118
 327 0004 0029     		cmp	r1, #0
 328 0006 47D0     		beq	.L29
 269:Drivers/STM32G4xx_HAL_Driver/Src/stm32g4xx_hal_exti.c ****   __IO uint32_t *regaddr;
 329              		.loc 1 269 1 view .LVU119
 330 0008 30B4     		push	{r4, r5}
 331              		.cfi_def_cfa_offset 8
 332              		.cfi_offset 4, -8
 333              		.cfi_offset 5, -4
 278:Drivers/STM32G4xx_HAL_Driver/Src/stm32g4xx_hal_exti.c ****   {
 279:Drivers/STM32G4xx_HAL_Driver/Src/stm32g4xx_hal_exti.c ****     return HAL_ERROR;
 280:Drivers/STM32G4xx_HAL_Driver/Src/stm32g4xx_hal_exti.c ****   }
 281:Drivers/STM32G4xx_HAL_Driver/Src/stm32g4xx_hal_exti.c **** 
 282:Drivers/STM32G4xx_HAL_Driver/Src/stm32g4xx_hal_exti.c ****   /* Check the parameter */
 283:Drivers/STM32G4xx_HAL_Driver/Src/stm32g4xx_hal_exti.c ****   assert_param(IS_EXTI_LINE(hexti->Line));
 334              		.loc 1 283 3 is_stmt 1 view .LVU120
 284:Drivers/STM32G4xx_HAL_Driver/Src/stm32g4xx_hal_exti.c **** 
 285:Drivers/STM32G4xx_HAL_Driver/Src/stm32g4xx_hal_exti.c ****   /* Store handle line number to configuration structure */
 286:Drivers/STM32G4xx_HAL_Driver/Src/stm32g4xx_hal_exti.c ****   pExtiConfig->Line = hexti->Line;
 335              		.loc 1 286 3 view .LVU121
 336              		.loc 1 286 28 is_stmt 0 view .LVU122
 337 000a 0368     		ldr	r3, [r0]
 338              		.loc 1 286 21 view .LVU123
 339 000c 0B60     		str	r3, [r1]
 287:Drivers/STM32G4xx_HAL_Driver/Src/stm32g4xx_hal_exti.c **** 
 288:Drivers/STM32G4xx_HAL_Driver/Src/stm32g4xx_hal_exti.c ****   /* Compute line register offset and line mask */
 289:Drivers/STM32G4xx_HAL_Driver/Src/stm32g4xx_hal_exti.c ****   offset = ((pExtiConfig->Line & EXTI_REG_MASK) >> EXTI_REG_SHIFT);
 340              		.loc 1 289 3 is_stmt 1 view .LVU124
 341              		.loc 1 289 10 is_stmt 0 view .LVU125
 342 000e C3F30040 		ubfx	r0, r3, #16, #1
 343              	.LVL43:
 290:Drivers/STM32G4xx_HAL_Driver/Src/stm32g4xx_hal_exti.c ****   /* Compute line position */
 291:Drivers/STM32G4xx_HAL_Driver/Src/stm32g4xx_hal_exti.c ****   linepos = (pExtiConfig->Line & EXTI_PIN_MASK);
 344              		.loc 1 291 3 is_stmt 1 view .LVU126
 345              		.loc 1 291 11 is_stmt 0 view .LVU127
 346 0012 03F01F05 		and	r5, r3, #31
 347              	.LVL44:
 292:Drivers/STM32G4xx_HAL_Driver/Src/stm32g4xx_hal_exti.c ****   /* Compute mask */
 293:Drivers/STM32G4xx_HAL_Driver/Src/stm32g4xx_hal_exti.c ****   maskline = (1uL << linepos);
 348              		.loc 1 293 3 is_stmt 1 view .LVU128
 349              		.loc 1 293 12 is_stmt 0 view .LVU129
 350 0016 0122     		movs	r2, #1
 351 0018 AA40     		lsls	r2, r2, r5
 352              	.LVL45:
 294:Drivers/STM32G4xx_HAL_Driver/Src/stm32g4xx_hal_exti.c **** 
 295:Drivers/STM32G4xx_HAL_Driver/Src/stm32g4xx_hal_exti.c ****   /* 1] Get core mode : interrupt */
 296:Drivers/STM32G4xx_HAL_Driver/Src/stm32g4xx_hal_exti.c ****   regaddr = (&EXTI->IMR1 + (EXTI_MODE_OFFSET * offset));
 353              		.loc 1 296 3 is_stmt 1 view .LVU130
 354              		.loc 1 296 26 is_stmt 0 view .LVU131
 355 001a 4001     		lsls	r0, r0, #5
 356              	.LVL46:
 357              		.loc 1 296 11 view .LVU132
ARM GAS  /tmp/cc2NWssJ.s 			page 13


 358 001c 00F18044 		add	r4, r0, #1073741824
 359 0020 04F58234 		add	r4, r4, #66560
 360              	.LVL47:
 297:Drivers/STM32G4xx_HAL_Driver/Src/stm32g4xx_hal_exti.c ****   regval = *regaddr;
 361              		.loc 1 297 3 is_stmt 1 view .LVU133
 362              		.loc 1 297 10 is_stmt 0 view .LVU134
 363 0024 2468     		ldr	r4, [r4]
 364              	.LVL48:
 298:Drivers/STM32G4xx_HAL_Driver/Src/stm32g4xx_hal_exti.c **** 
 299:Drivers/STM32G4xx_HAL_Driver/Src/stm32g4xx_hal_exti.c ****   /* Check if selected line is enable */
 300:Drivers/STM32G4xx_HAL_Driver/Src/stm32g4xx_hal_exti.c ****   if ((regval & maskline) != 0x00u)
 365              		.loc 1 300 3 is_stmt 1 view .LVU135
 366              		.loc 1 300 6 is_stmt 0 view .LVU136
 367 0026 2242     		tst	r2, r4
 368 0028 24D0     		beq	.L23
 301:Drivers/STM32G4xx_HAL_Driver/Src/stm32g4xx_hal_exti.c ****   {
 302:Drivers/STM32G4xx_HAL_Driver/Src/stm32g4xx_hal_exti.c ****     pExtiConfig->Mode = EXTI_MODE_INTERRUPT;
 369              		.loc 1 302 5 is_stmt 1 view .LVU137
 370              		.loc 1 302 23 is_stmt 0 view .LVU138
 371 002a 0124     		movs	r4, #1
 372              	.LVL49:
 373              		.loc 1 302 23 view .LVU139
 374 002c 4C60     		str	r4, [r1, #4]
 375              	.L24:
 303:Drivers/STM32G4xx_HAL_Driver/Src/stm32g4xx_hal_exti.c ****   }
 304:Drivers/STM32G4xx_HAL_Driver/Src/stm32g4xx_hal_exti.c ****   else
 305:Drivers/STM32G4xx_HAL_Driver/Src/stm32g4xx_hal_exti.c ****   {
 306:Drivers/STM32G4xx_HAL_Driver/Src/stm32g4xx_hal_exti.c ****     pExtiConfig->Mode = EXTI_MODE_NONE;
 307:Drivers/STM32G4xx_HAL_Driver/Src/stm32g4xx_hal_exti.c ****   }
 308:Drivers/STM32G4xx_HAL_Driver/Src/stm32g4xx_hal_exti.c **** 
 309:Drivers/STM32G4xx_HAL_Driver/Src/stm32g4xx_hal_exti.c ****   /* Get event mode */
 310:Drivers/STM32G4xx_HAL_Driver/Src/stm32g4xx_hal_exti.c ****   regaddr = (&EXTI->EMR1 + (EXTI_MODE_OFFSET * offset));
 376              		.loc 1 310 3 is_stmt 1 view .LVU140
 377              		.loc 1 310 11 is_stmt 0 view .LVU141
 378 002e 1D4C     		ldr	r4, .L37
 379              	.LVL50:
 311:Drivers/STM32G4xx_HAL_Driver/Src/stm32g4xx_hal_exti.c ****   regval = *regaddr;
 380              		.loc 1 311 3 is_stmt 1 view .LVU142
 381              		.loc 1 311 10 is_stmt 0 view .LVU143
 382 0030 0459     		ldr	r4, [r0, r4]
 383              	.LVL51:
 312:Drivers/STM32G4xx_HAL_Driver/Src/stm32g4xx_hal_exti.c **** 
 313:Drivers/STM32G4xx_HAL_Driver/Src/stm32g4xx_hal_exti.c ****   /* Check if selected line is enable */
 314:Drivers/STM32G4xx_HAL_Driver/Src/stm32g4xx_hal_exti.c ****   if ((regval & maskline) != 0x00u)
 384              		.loc 1 314 3 is_stmt 1 view .LVU144
 385              		.loc 1 314 6 is_stmt 0 view .LVU145
 386 0032 2242     		tst	r2, r4
 387 0034 03D0     		beq	.L25
 315:Drivers/STM32G4xx_HAL_Driver/Src/stm32g4xx_hal_exti.c ****   {
 316:Drivers/STM32G4xx_HAL_Driver/Src/stm32g4xx_hal_exti.c ****     pExtiConfig->Mode |= EXTI_MODE_EVENT;
 388              		.loc 1 316 5 is_stmt 1 view .LVU146
 389              		.loc 1 316 23 is_stmt 0 view .LVU147
 390 0036 4C68     		ldr	r4, [r1, #4]
 391              	.LVL52:
 392              		.loc 1 316 23 view .LVU148
 393 0038 44F00204 		orr	r4, r4, #2
 394 003c 4C60     		str	r4, [r1, #4]
ARM GAS  /tmp/cc2NWssJ.s 			page 14


 395              	.L25:
 317:Drivers/STM32G4xx_HAL_Driver/Src/stm32g4xx_hal_exti.c ****   }
 318:Drivers/STM32G4xx_HAL_Driver/Src/stm32g4xx_hal_exti.c **** 
 319:Drivers/STM32G4xx_HAL_Driver/Src/stm32g4xx_hal_exti.c ****   /* Get default Trigger and GPIOSel configuration */
 320:Drivers/STM32G4xx_HAL_Driver/Src/stm32g4xx_hal_exti.c ****   pExtiConfig->Trigger = EXTI_TRIGGER_NONE;
 396              		.loc 1 320 3 is_stmt 1 view .LVU149
 397              		.loc 1 320 24 is_stmt 0 view .LVU150
 398 003e 0024     		movs	r4, #0
 399 0040 8C60     		str	r4, [r1, #8]
 321:Drivers/STM32G4xx_HAL_Driver/Src/stm32g4xx_hal_exti.c ****   pExtiConfig->GPIOSel = 0x00u;
 400              		.loc 1 321 3 is_stmt 1 view .LVU151
 401              		.loc 1 321 24 is_stmt 0 view .LVU152
 402 0042 CC60     		str	r4, [r1, #12]
 322:Drivers/STM32G4xx_HAL_Driver/Src/stm32g4xx_hal_exti.c **** 
 323:Drivers/STM32G4xx_HAL_Driver/Src/stm32g4xx_hal_exti.c ****   /* 2] Get trigger for configurable lines : rising */
 324:Drivers/STM32G4xx_HAL_Driver/Src/stm32g4xx_hal_exti.c ****   if ((pExtiConfig->Line & EXTI_CONFIG) != 0x00u)
 403              		.loc 1 324 3 is_stmt 1 view .LVU153
 404              		.loc 1 324 6 is_stmt 0 view .LVU154
 405 0044 13F0007F 		tst	r3, #33554432
 406 0048 28D0     		beq	.L30
 325:Drivers/STM32G4xx_HAL_Driver/Src/stm32g4xx_hal_exti.c ****   {
 326:Drivers/STM32G4xx_HAL_Driver/Src/stm32g4xx_hal_exti.c ****     regaddr = (&EXTI->RTSR1 + (EXTI_CONFIG_OFFSET * offset));
 407              		.loc 1 326 5 is_stmt 1 view .LVU155
 408              		.loc 1 326 13 is_stmt 0 view .LVU156
 409 004a 174C     		ldr	r4, .L37+4
 410              	.LVL53:
 327:Drivers/STM32G4xx_HAL_Driver/Src/stm32g4xx_hal_exti.c ****     regval = *regaddr;
 411              		.loc 1 327 5 is_stmt 1 view .LVU157
 412              		.loc 1 327 12 is_stmt 0 view .LVU158
 413 004c 0459     		ldr	r4, [r0, r4]
 414              	.LVL54:
 328:Drivers/STM32G4xx_HAL_Driver/Src/stm32g4xx_hal_exti.c **** 
 329:Drivers/STM32G4xx_HAL_Driver/Src/stm32g4xx_hal_exti.c ****     /* Check if configuration of selected line is enable */
 330:Drivers/STM32G4xx_HAL_Driver/Src/stm32g4xx_hal_exti.c ****     if ((regval & maskline) != 0x00u)
 415              		.loc 1 330 5 is_stmt 1 view .LVU159
 416              		.loc 1 330 8 is_stmt 0 view .LVU160
 417 004e 2242     		tst	r2, r4
 418 0050 01D0     		beq	.L26
 331:Drivers/STM32G4xx_HAL_Driver/Src/stm32g4xx_hal_exti.c ****     {
 332:Drivers/STM32G4xx_HAL_Driver/Src/stm32g4xx_hal_exti.c ****       pExtiConfig->Trigger = EXTI_TRIGGER_RISING;
 419              		.loc 1 332 7 is_stmt 1 view .LVU161
 420              		.loc 1 332 28 is_stmt 0 view .LVU162
 421 0052 0124     		movs	r4, #1
 422              	.LVL55:
 423              		.loc 1 332 28 view .LVU163
 424 0054 8C60     		str	r4, [r1, #8]
 425              	.L26:
 333:Drivers/STM32G4xx_HAL_Driver/Src/stm32g4xx_hal_exti.c ****     }
 334:Drivers/STM32G4xx_HAL_Driver/Src/stm32g4xx_hal_exti.c **** 
 335:Drivers/STM32G4xx_HAL_Driver/Src/stm32g4xx_hal_exti.c ****     /* Get falling configuration */
 336:Drivers/STM32G4xx_HAL_Driver/Src/stm32g4xx_hal_exti.c ****     regaddr = (&EXTI->FTSR1 + (EXTI_CONFIG_OFFSET * offset));
 426              		.loc 1 336 5 is_stmt 1 view .LVU164
 427              		.loc 1 336 13 is_stmt 0 view .LVU165
 428 0056 154C     		ldr	r4, .L37+8
 429              	.LVL56:
 337:Drivers/STM32G4xx_HAL_Driver/Src/stm32g4xx_hal_exti.c ****     regval = *regaddr;
 430              		.loc 1 337 5 is_stmt 1 view .LVU166
ARM GAS  /tmp/cc2NWssJ.s 			page 15


 431              		.loc 1 337 12 is_stmt 0 view .LVU167
 432 0058 0059     		ldr	r0, [r0, r4]
 433              	.LVL57:
 338:Drivers/STM32G4xx_HAL_Driver/Src/stm32g4xx_hal_exti.c **** 
 339:Drivers/STM32G4xx_HAL_Driver/Src/stm32g4xx_hal_exti.c ****     /* Check if configuration of selected line is enable */
 340:Drivers/STM32G4xx_HAL_Driver/Src/stm32g4xx_hal_exti.c ****     if ((regval & maskline) != 0x00u)
 434              		.loc 1 340 5 is_stmt 1 view .LVU168
 435              		.loc 1 340 8 is_stmt 0 view .LVU169
 436 005a 0242     		tst	r2, r0
 437 005c 03D0     		beq	.L27
 341:Drivers/STM32G4xx_HAL_Driver/Src/stm32g4xx_hal_exti.c ****     {
 342:Drivers/STM32G4xx_HAL_Driver/Src/stm32g4xx_hal_exti.c ****       pExtiConfig->Trigger |= EXTI_TRIGGER_FALLING;
 438              		.loc 1 342 7 is_stmt 1 view .LVU170
 439              		.loc 1 342 28 is_stmt 0 view .LVU171
 440 005e 8A68     		ldr	r2, [r1, #8]
 441              	.LVL58:
 442              		.loc 1 342 28 view .LVU172
 443 0060 42F00202 		orr	r2, r2, #2
 444 0064 8A60     		str	r2, [r1, #8]
 445              	.L27:
 343:Drivers/STM32G4xx_HAL_Driver/Src/stm32g4xx_hal_exti.c ****     }
 344:Drivers/STM32G4xx_HAL_Driver/Src/stm32g4xx_hal_exti.c **** 
 345:Drivers/STM32G4xx_HAL_Driver/Src/stm32g4xx_hal_exti.c ****     /* Get Gpio port selection for gpio lines */
 346:Drivers/STM32G4xx_HAL_Driver/Src/stm32g4xx_hal_exti.c ****     if ((pExtiConfig->Line & EXTI_GPIO) == EXTI_GPIO)
 446              		.loc 1 346 5 is_stmt 1 view .LVU173
 447              		.loc 1 346 28 is_stmt 0 view .LVU174
 448 0066 03F0C062 		and	r2, r3, #100663296
 449              		.loc 1 346 8 view .LVU175
 450 006a B2F1C06F 		cmp	r2, #100663296
 451 006e 04D0     		beq	.L36
 347:Drivers/STM32G4xx_HAL_Driver/Src/stm32g4xx_hal_exti.c ****     {
 348:Drivers/STM32G4xx_HAL_Driver/Src/stm32g4xx_hal_exti.c ****       assert_param(IS_EXTI_GPIO_PIN(linepos));
 349:Drivers/STM32G4xx_HAL_Driver/Src/stm32g4xx_hal_exti.c **** 
 350:Drivers/STM32G4xx_HAL_Driver/Src/stm32g4xx_hal_exti.c ****       regval = SYSCFG->EXTICR[linepos >> 2u];
 351:Drivers/STM32G4xx_HAL_Driver/Src/stm32g4xx_hal_exti.c ****       pExtiConfig->GPIOSel = ((regval >> (SYSCFG_EXTICR1_EXTI1_Pos * ((linepos & 0x03u)))));
 352:Drivers/STM32G4xx_HAL_Driver/Src/stm32g4xx_hal_exti.c ****     }
 353:Drivers/STM32G4xx_HAL_Driver/Src/stm32g4xx_hal_exti.c ****   }
 354:Drivers/STM32G4xx_HAL_Driver/Src/stm32g4xx_hal_exti.c **** 
 355:Drivers/STM32G4xx_HAL_Driver/Src/stm32g4xx_hal_exti.c ****   return HAL_OK;
 452              		.loc 1 355 10 view .LVU176
 453 0070 0020     		movs	r0, #0
 454              	.LVL59:
 455              		.loc 1 355 10 view .LVU177
 456 0072 14E0     		b	.L22
 457              	.LVL60:
 458              	.L23:
 306:Drivers/STM32G4xx_HAL_Driver/Src/stm32g4xx_hal_exti.c ****   }
 459              		.loc 1 306 5 is_stmt 1 view .LVU178
 306:Drivers/STM32G4xx_HAL_Driver/Src/stm32g4xx_hal_exti.c ****   }
 460              		.loc 1 306 23 is_stmt 0 view .LVU179
 461 0074 0024     		movs	r4, #0
 462              	.LVL61:
 306:Drivers/STM32G4xx_HAL_Driver/Src/stm32g4xx_hal_exti.c ****   }
 463              		.loc 1 306 23 view .LVU180
 464 0076 4C60     		str	r4, [r1, #4]
 465 0078 D9E7     		b	.L24
 466              	.LVL62:
ARM GAS  /tmp/cc2NWssJ.s 			page 16


 467              	.L36:
 348:Drivers/STM32G4xx_HAL_Driver/Src/stm32g4xx_hal_exti.c **** 
 468              		.loc 1 348 7 is_stmt 1 view .LVU181
 350:Drivers/STM32G4xx_HAL_Driver/Src/stm32g4xx_hal_exti.c ****       pExtiConfig->GPIOSel = ((regval >> (SYSCFG_EXTICR1_EXTI1_Pos * ((linepos & 0x03u)))));
 469              		.loc 1 350 7 view .LVU182
 350:Drivers/STM32G4xx_HAL_Driver/Src/stm32g4xx_hal_exti.c ****       pExtiConfig->GPIOSel = ((regval >> (SYSCFG_EXTICR1_EXTI1_Pos * ((linepos & 0x03u)))));
 470              		.loc 1 350 39 is_stmt 0 view .LVU183
 471 007a AA08     		lsrs	r2, r5, #2
 350:Drivers/STM32G4xx_HAL_Driver/Src/stm32g4xx_hal_exti.c ****       pExtiConfig->GPIOSel = ((regval >> (SYSCFG_EXTICR1_EXTI1_Pos * ((linepos & 0x03u)))));
 472              		.loc 1 350 14 view .LVU184
 473 007c 0232     		adds	r2, r2, #2
 474 007e 0C48     		ldr	r0, .L37+12
 475              	.LVL63:
 350:Drivers/STM32G4xx_HAL_Driver/Src/stm32g4xx_hal_exti.c ****       pExtiConfig->GPIOSel = ((regval >> (SYSCFG_EXTICR1_EXTI1_Pos * ((linepos & 0x03u)))));
 476              		.loc 1 350 14 view .LVU185
 477 0080 50F82220 		ldr	r2, [r0, r2, lsl #2]
 478              	.LVL64:
 351:Drivers/STM32G4xx_HAL_Driver/Src/stm32g4xx_hal_exti.c ****     }
 479              		.loc 1 351 7 is_stmt 1 view .LVU186
 351:Drivers/STM32G4xx_HAL_Driver/Src/stm32g4xx_hal_exti.c ****     }
 480              		.loc 1 351 80 is_stmt 0 view .LVU187
 481 0084 03F00303 		and	r3, r3, #3
 482              	.LVL65:
 351:Drivers/STM32G4xx_HAL_Driver/Src/stm32g4xx_hal_exti.c ****     }
 483              		.loc 1 351 68 view .LVU188
 484 0088 9B00     		lsls	r3, r3, #2
 351:Drivers/STM32G4xx_HAL_Driver/Src/stm32g4xx_hal_exti.c ****     }
 485              		.loc 1 351 39 view .LVU189
 486 008a 22FA03F3 		lsr	r3, r2, r3
 351:Drivers/STM32G4xx_HAL_Driver/Src/stm32g4xx_hal_exti.c ****     }
 487              		.loc 1 351 28 view .LVU190
 488 008e CB60     		str	r3, [r1, #12]
 489              		.loc 1 355 10 view .LVU191
 490 0090 0020     		movs	r0, #0
 491 0092 04E0     		b	.L22
 492              	.LVL66:
 493              	.L28:
 494              		.cfi_def_cfa_offset 0
 495              		.cfi_restore 4
 496              		.cfi_restore 5
 279:Drivers/STM32G4xx_HAL_Driver/Src/stm32g4xx_hal_exti.c ****   }
 497              		.loc 1 279 12 view .LVU192
 498 0094 0120     		movs	r0, #1
 499              	.LVL67:
 279:Drivers/STM32G4xx_HAL_Driver/Src/stm32g4xx_hal_exti.c ****   }
 500              		.loc 1 279 12 view .LVU193
 501 0096 7047     		bx	lr
 502              	.LVL68:
 503              	.L29:
 279:Drivers/STM32G4xx_HAL_Driver/Src/stm32g4xx_hal_exti.c ****   }
 504              		.loc 1 279 12 view .LVU194
 505 0098 0120     		movs	r0, #1
 506              	.LVL69:
 356:Drivers/STM32G4xx_HAL_Driver/Src/stm32g4xx_hal_exti.c **** }
 507              		.loc 1 356 1 view .LVU195
 508 009a 7047     		bx	lr
 509              	.LVL70:
ARM GAS  /tmp/cc2NWssJ.s 			page 17


 510              	.L30:
 511              		.cfi_def_cfa_offset 8
 512              		.cfi_offset 4, -8
 513              		.cfi_offset 5, -4
 355:Drivers/STM32G4xx_HAL_Driver/Src/stm32g4xx_hal_exti.c **** }
 514              		.loc 1 355 10 view .LVU196
 515 009c 0020     		movs	r0, #0
 516              	.LVL71:
 517              	.L22:
 518              		.loc 1 356 1 view .LVU197
 519 009e 30BC     		pop	{r4, r5}
 520              		.cfi_restore 5
 521              		.cfi_restore 4
 522              		.cfi_def_cfa_offset 0
 523              	.LVL72:
 524              		.loc 1 356 1 view .LVU198
 525 00a0 7047     		bx	lr
 526              	.L38:
 527 00a2 00BF     		.align	2
 528              	.L37:
 529 00a4 04040140 		.word	1073808388
 530 00a8 08040140 		.word	1073808392
 531 00ac 0C040140 		.word	1073808396
 532 00b0 00000140 		.word	1073807360
 533              		.cfi_endproc
 534              	.LFE133:
 536              		.section	.text.HAL_EXTI_ClearConfigLine,"ax",%progbits
 537              		.align	1
 538              		.global	HAL_EXTI_ClearConfigLine
 539              		.syntax unified
 540              		.thumb
 541              		.thumb_func
 542              		.fpu fpv4-sp-d16
 544              	HAL_EXTI_ClearConfigLine:
 545              	.LVL73:
 546              	.LFB134:
 357:Drivers/STM32G4xx_HAL_Driver/Src/stm32g4xx_hal_exti.c **** 
 358:Drivers/STM32G4xx_HAL_Driver/Src/stm32g4xx_hal_exti.c **** 
 359:Drivers/STM32G4xx_HAL_Driver/Src/stm32g4xx_hal_exti.c **** /**
 360:Drivers/STM32G4xx_HAL_Driver/Src/stm32g4xx_hal_exti.c ****   * @brief  Clear whole configuration of a dedicated Exti line.
 361:Drivers/STM32G4xx_HAL_Driver/Src/stm32g4xx_hal_exti.c ****   * @param  hexti Exti handle.
 362:Drivers/STM32G4xx_HAL_Driver/Src/stm32g4xx_hal_exti.c ****   * @retval HAL Status.
 363:Drivers/STM32G4xx_HAL_Driver/Src/stm32g4xx_hal_exti.c ****   */
 364:Drivers/STM32G4xx_HAL_Driver/Src/stm32g4xx_hal_exti.c **** HAL_StatusTypeDef HAL_EXTI_ClearConfigLine(EXTI_HandleTypeDef *hexti)
 365:Drivers/STM32G4xx_HAL_Driver/Src/stm32g4xx_hal_exti.c **** {
 547              		.loc 1 365 1 is_stmt 1 view -0
 548              		.cfi_startproc
 549              		@ args = 0, pretend = 0, frame = 0
 550              		@ frame_needed = 0, uses_anonymous_args = 0
 551              		@ link register save eliminated.
 366:Drivers/STM32G4xx_HAL_Driver/Src/stm32g4xx_hal_exti.c ****   __IO uint32_t *regaddr;
 552              		.loc 1 366 3 view .LVU200
 367:Drivers/STM32G4xx_HAL_Driver/Src/stm32g4xx_hal_exti.c ****   uint32_t regval;
 553              		.loc 1 367 3 view .LVU201
 368:Drivers/STM32G4xx_HAL_Driver/Src/stm32g4xx_hal_exti.c ****   uint32_t linepos;
 554              		.loc 1 368 3 view .LVU202
 369:Drivers/STM32G4xx_HAL_Driver/Src/stm32g4xx_hal_exti.c ****   uint32_t maskline;
ARM GAS  /tmp/cc2NWssJ.s 			page 18


 555              		.loc 1 369 3 view .LVU203
 370:Drivers/STM32G4xx_HAL_Driver/Src/stm32g4xx_hal_exti.c ****   uint32_t offset;
 556              		.loc 1 370 3 view .LVU204
 371:Drivers/STM32G4xx_HAL_Driver/Src/stm32g4xx_hal_exti.c **** 
 372:Drivers/STM32G4xx_HAL_Driver/Src/stm32g4xx_hal_exti.c ****   /* Check null pointer */
 373:Drivers/STM32G4xx_HAL_Driver/Src/stm32g4xx_hal_exti.c ****   if (hexti == NULL)
 557              		.loc 1 373 3 view .LVU205
 558              		.loc 1 373 6 is_stmt 0 view .LVU206
 559 0000 0028     		cmp	r0, #0
 560 0002 3CD0     		beq	.L41
 365:Drivers/STM32G4xx_HAL_Driver/Src/stm32g4xx_hal_exti.c ****   __IO uint32_t *regaddr;
 561              		.loc 1 365 1 view .LVU207
 562 0004 F0B4     		push	{r4, r5, r6, r7}
 563              		.cfi_def_cfa_offset 16
 564              		.cfi_offset 4, -16
 565              		.cfi_offset 5, -12
 566              		.cfi_offset 6, -8
 567              		.cfi_offset 7, -4
 568 0006 0546     		mov	r5, r0
 374:Drivers/STM32G4xx_HAL_Driver/Src/stm32g4xx_hal_exti.c ****   {
 375:Drivers/STM32G4xx_HAL_Driver/Src/stm32g4xx_hal_exti.c ****     return HAL_ERROR;
 376:Drivers/STM32G4xx_HAL_Driver/Src/stm32g4xx_hal_exti.c ****   }
 377:Drivers/STM32G4xx_HAL_Driver/Src/stm32g4xx_hal_exti.c **** 
 378:Drivers/STM32G4xx_HAL_Driver/Src/stm32g4xx_hal_exti.c ****   /* Check the parameter */
 379:Drivers/STM32G4xx_HAL_Driver/Src/stm32g4xx_hal_exti.c ****   assert_param(IS_EXTI_LINE(hexti->Line));
 569              		.loc 1 379 3 is_stmt 1 view .LVU208
 380:Drivers/STM32G4xx_HAL_Driver/Src/stm32g4xx_hal_exti.c **** 
 381:Drivers/STM32G4xx_HAL_Driver/Src/stm32g4xx_hal_exti.c ****   /* compute line register offset and line mask */
 382:Drivers/STM32G4xx_HAL_Driver/Src/stm32g4xx_hal_exti.c ****   offset = ((hexti->Line & EXTI_REG_MASK) >> EXTI_REG_SHIFT);
 570              		.loc 1 382 3 view .LVU209
 571              		.loc 1 382 19 is_stmt 0 view .LVU210
 572 0008 0468     		ldr	r4, [r0]
 573              		.loc 1 382 10 view .LVU211
 574 000a C4F30043 		ubfx	r3, r4, #16, #1
 575              	.LVL74:
 383:Drivers/STM32G4xx_HAL_Driver/Src/stm32g4xx_hal_exti.c ****   /* compute line position */
 384:Drivers/STM32G4xx_HAL_Driver/Src/stm32g4xx_hal_exti.c ****   linepos = (hexti->Line & EXTI_PIN_MASK);
 576              		.loc 1 384 3 is_stmt 1 view .LVU212
 577              		.loc 1 384 11 is_stmt 0 view .LVU213
 578 000e 04F01F06 		and	r6, r4, #31
 579              	.LVL75:
 385:Drivers/STM32G4xx_HAL_Driver/Src/stm32g4xx_hal_exti.c ****   /* compute line mask */
 386:Drivers/STM32G4xx_HAL_Driver/Src/stm32g4xx_hal_exti.c ****   maskline = (1uL << linepos);
 580              		.loc 1 386 3 is_stmt 1 view .LVU214
 581              		.loc 1 386 12 is_stmt 0 view .LVU215
 582 0012 0122     		movs	r2, #1
 583 0014 B240     		lsls	r2, r2, r6
 584              	.LVL76:
 387:Drivers/STM32G4xx_HAL_Driver/Src/stm32g4xx_hal_exti.c **** 
 388:Drivers/STM32G4xx_HAL_Driver/Src/stm32g4xx_hal_exti.c ****   /* 1] Clear interrupt mode */
 389:Drivers/STM32G4xx_HAL_Driver/Src/stm32g4xx_hal_exti.c ****   regaddr = (&EXTI->IMR1 + (EXTI_MODE_OFFSET * offset));
 585              		.loc 1 389 3 is_stmt 1 view .LVU216
 586              		.loc 1 389 26 is_stmt 0 view .LVU217
 587 0016 5B01     		lsls	r3, r3, #5
 588              	.LVL77:
 589              		.loc 1 389 11 view .LVU218
 590 0018 03F18041 		add	r1, r3, #1073741824
ARM GAS  /tmp/cc2NWssJ.s 			page 19


 591 001c 01F58231 		add	r1, r1, #66560
 592              	.LVL78:
 390:Drivers/STM32G4xx_HAL_Driver/Src/stm32g4xx_hal_exti.c ****   regval = (*regaddr & ~maskline);
 593              		.loc 1 390 3 is_stmt 1 view .LVU219
 594              		.loc 1 390 13 is_stmt 0 view .LVU220
 595 0020 0868     		ldr	r0, [r1]
 596              	.LVL79:
 597              		.loc 1 390 24 view .LVU221
 598 0022 D743     		mvns	r7, r2
 599              		.loc 1 390 10 view .LVU222
 600 0024 20EA0200 		bic	r0, r0, r2
 601              	.LVL80:
 391:Drivers/STM32G4xx_HAL_Driver/Src/stm32g4xx_hal_exti.c ****   *regaddr = regval;
 602              		.loc 1 391 3 is_stmt 1 view .LVU223
 603              		.loc 1 391 12 is_stmt 0 view .LVU224
 604 0028 0860     		str	r0, [r1]
 392:Drivers/STM32G4xx_HAL_Driver/Src/stm32g4xx_hal_exti.c **** 
 393:Drivers/STM32G4xx_HAL_Driver/Src/stm32g4xx_hal_exti.c ****   /* 2] Clear event mode */
 394:Drivers/STM32G4xx_HAL_Driver/Src/stm32g4xx_hal_exti.c ****   regaddr = (&EXTI->EMR1 + (EXTI_MODE_OFFSET * offset));
 605              		.loc 1 394 3 is_stmt 1 view .LVU225
 606              		.loc 1 394 11 is_stmt 0 view .LVU226
 607 002a 1748     		ldr	r0, .L49
 608              	.LVL81:
 395:Drivers/STM32G4xx_HAL_Driver/Src/stm32g4xx_hal_exti.c ****   regval = (*regaddr & ~maskline);
 609              		.loc 1 395 3 is_stmt 1 view .LVU227
 610              		.loc 1 395 13 is_stmt 0 view .LVU228
 611 002c 1958     		ldr	r1, [r3, r0]
 612              	.LVL82:
 613              		.loc 1 395 10 view .LVU229
 614 002e 21EA0202 		bic	r2, r1, r2
 615              	.LVL83:
 396:Drivers/STM32G4xx_HAL_Driver/Src/stm32g4xx_hal_exti.c ****   *regaddr = regval;
 616              		.loc 1 396 3 is_stmt 1 view .LVU230
 617              		.loc 1 396 12 is_stmt 0 view .LVU231
 618 0032 1A50     		str	r2, [r3, r0]
 397:Drivers/STM32G4xx_HAL_Driver/Src/stm32g4xx_hal_exti.c **** 
 398:Drivers/STM32G4xx_HAL_Driver/Src/stm32g4xx_hal_exti.c ****   /* 3] Clear triggers in case of configurable lines */
 399:Drivers/STM32G4xx_HAL_Driver/Src/stm32g4xx_hal_exti.c ****   if ((hexti->Line & EXTI_CONFIG) != 0x00u)
 619              		.loc 1 399 3 is_stmt 1 view .LVU232
 620              		.loc 1 399 13 is_stmt 0 view .LVU233
 621 0034 2A68     		ldr	r2, [r5]
 622              	.LVL84:
 623              		.loc 1 399 6 view .LVU234
 624 0036 12F0007F 		tst	r2, #33554432
 625 003a 22D0     		beq	.L42
 400:Drivers/STM32G4xx_HAL_Driver/Src/stm32g4xx_hal_exti.c ****   {
 401:Drivers/STM32G4xx_HAL_Driver/Src/stm32g4xx_hal_exti.c ****     regaddr = (&EXTI->RTSR1 + (EXTI_CONFIG_OFFSET * offset));
 626              		.loc 1 401 5 is_stmt 1 view .LVU235
 627              		.loc 1 401 13 is_stmt 0 view .LVU236
 628 003c 1349     		ldr	r1, .L49+4
 629              	.LVL85:
 402:Drivers/STM32G4xx_HAL_Driver/Src/stm32g4xx_hal_exti.c ****     regval = (*regaddr & ~maskline);
 630              		.loc 1 402 5 is_stmt 1 view .LVU237
 631              		.loc 1 402 15 is_stmt 0 view .LVU238
 632 003e 5A58     		ldr	r2, [r3, r1]
 633              		.loc 1 402 12 view .LVU239
 634 0040 3A40     		ands	r2, r2, r7
ARM GAS  /tmp/cc2NWssJ.s 			page 20


 635              	.LVL86:
 403:Drivers/STM32G4xx_HAL_Driver/Src/stm32g4xx_hal_exti.c ****     *regaddr = regval;
 636              		.loc 1 403 5 is_stmt 1 view .LVU240
 637              		.loc 1 403 14 is_stmt 0 view .LVU241
 638 0042 5A50     		str	r2, [r3, r1]
 404:Drivers/STM32G4xx_HAL_Driver/Src/stm32g4xx_hal_exti.c **** 
 405:Drivers/STM32G4xx_HAL_Driver/Src/stm32g4xx_hal_exti.c ****     regaddr = (&EXTI->FTSR1 + (EXTI_CONFIG_OFFSET * offset));
 639              		.loc 1 405 5 is_stmt 1 view .LVU242
 640              		.loc 1 405 13 is_stmt 0 view .LVU243
 641 0044 124A     		ldr	r2, .L49+8
 642              	.LVL87:
 406:Drivers/STM32G4xx_HAL_Driver/Src/stm32g4xx_hal_exti.c ****     regval = (*regaddr & ~maskline);
 643              		.loc 1 406 5 is_stmt 1 view .LVU244
 644              		.loc 1 406 15 is_stmt 0 view .LVU245
 645 0046 9958     		ldr	r1, [r3, r2]
 646              	.LVL88:
 647              		.loc 1 406 12 view .LVU246
 648 0048 0F40     		ands	r7, r7, r1
 649              	.LVL89:
 407:Drivers/STM32G4xx_HAL_Driver/Src/stm32g4xx_hal_exti.c ****     *regaddr = regval;
 650              		.loc 1 407 5 is_stmt 1 view .LVU247
 651              		.loc 1 407 14 is_stmt 0 view .LVU248
 652 004a 9F50     		str	r7, [r3, r2]
 408:Drivers/STM32G4xx_HAL_Driver/Src/stm32g4xx_hal_exti.c **** 
 409:Drivers/STM32G4xx_HAL_Driver/Src/stm32g4xx_hal_exti.c ****     /* Get Gpio port selection for gpio lines */
 410:Drivers/STM32G4xx_HAL_Driver/Src/stm32g4xx_hal_exti.c ****     if ((hexti->Line & EXTI_GPIO) == EXTI_GPIO)
 653              		.loc 1 410 5 is_stmt 1 view .LVU249
 654              		.loc 1 410 15 is_stmt 0 view .LVU250
 655 004c 2B68     		ldr	r3, [r5]
 656              	.LVL90:
 657              		.loc 1 410 22 view .LVU251
 658 004e 03F0C063 		and	r3, r3, #100663296
 659              		.loc 1 410 8 view .LVU252
 660 0052 B3F1C06F 		cmp	r3, #100663296
 661 0056 01D0     		beq	.L48
 411:Drivers/STM32G4xx_HAL_Driver/Src/stm32g4xx_hal_exti.c ****     {
 412:Drivers/STM32G4xx_HAL_Driver/Src/stm32g4xx_hal_exti.c ****       assert_param(IS_EXTI_GPIO_PIN(linepos));
 413:Drivers/STM32G4xx_HAL_Driver/Src/stm32g4xx_hal_exti.c **** 
 414:Drivers/STM32G4xx_HAL_Driver/Src/stm32g4xx_hal_exti.c ****       regval = SYSCFG->EXTICR[linepos >> 2u];
 415:Drivers/STM32G4xx_HAL_Driver/Src/stm32g4xx_hal_exti.c ****       regval &= ~(SYSCFG_EXTICR1_EXTI0 << (SYSCFG_EXTICR1_EXTI1_Pos * (linepos & 0x03u)));
 416:Drivers/STM32G4xx_HAL_Driver/Src/stm32g4xx_hal_exti.c ****       SYSCFG->EXTICR[linepos >> 2u] = regval;
 417:Drivers/STM32G4xx_HAL_Driver/Src/stm32g4xx_hal_exti.c ****     }
 418:Drivers/STM32G4xx_HAL_Driver/Src/stm32g4xx_hal_exti.c ****   }
 419:Drivers/STM32G4xx_HAL_Driver/Src/stm32g4xx_hal_exti.c **** 
 420:Drivers/STM32G4xx_HAL_Driver/Src/stm32g4xx_hal_exti.c ****   return HAL_OK;
 662              		.loc 1 420 10 view .LVU253
 663 0058 0020     		movs	r0, #0
 664 005a 13E0     		b	.L40
 665              	.L48:
 412:Drivers/STM32G4xx_HAL_Driver/Src/stm32g4xx_hal_exti.c **** 
 666              		.loc 1 412 7 is_stmt 1 view .LVU254
 414:Drivers/STM32G4xx_HAL_Driver/Src/stm32g4xx_hal_exti.c ****       regval &= ~(SYSCFG_EXTICR1_EXTI0 << (SYSCFG_EXTICR1_EXTI1_Pos * (linepos & 0x03u)));
 667              		.loc 1 414 7 view .LVU255
 414:Drivers/STM32G4xx_HAL_Driver/Src/stm32g4xx_hal_exti.c ****       regval &= ~(SYSCFG_EXTICR1_EXTI0 << (SYSCFG_EXTICR1_EXTI1_Pos * (linepos & 0x03u)));
 668              		.loc 1 414 39 is_stmt 0 view .LVU256
 669 005c B608     		lsrs	r6, r6, #2
 670              	.LVL91:
ARM GAS  /tmp/cc2NWssJ.s 			page 21


 414:Drivers/STM32G4xx_HAL_Driver/Src/stm32g4xx_hal_exti.c ****       regval &= ~(SYSCFG_EXTICR1_EXTI0 << (SYSCFG_EXTICR1_EXTI1_Pos * (linepos & 0x03u)));
 671              		.loc 1 414 14 view .LVU257
 672 005e 0D49     		ldr	r1, .L49+12
 673 0060 0236     		adds	r6, r6, #2
 674 0062 51F82630 		ldr	r3, [r1, r6, lsl #2]
 675              	.LVL92:
 415:Drivers/STM32G4xx_HAL_Driver/Src/stm32g4xx_hal_exti.c ****       SYSCFG->EXTICR[linepos >> 2u] = regval;
 676              		.loc 1 415 7 is_stmt 1 view .LVU258
 415:Drivers/STM32G4xx_HAL_Driver/Src/stm32g4xx_hal_exti.c ****       SYSCFG->EXTICR[linepos >> 2u] = regval;
 677              		.loc 1 415 80 is_stmt 0 view .LVU259
 678 0066 04F00304 		and	r4, r4, #3
 679              	.LVL93:
 415:Drivers/STM32G4xx_HAL_Driver/Src/stm32g4xx_hal_exti.c ****       SYSCFG->EXTICR[linepos >> 2u] = regval;
 680              		.loc 1 415 69 view .LVU260
 681 006a A400     		lsls	r4, r4, #2
 415:Drivers/STM32G4xx_HAL_Driver/Src/stm32g4xx_hal_exti.c ****       SYSCFG->EXTICR[linepos >> 2u] = regval;
 682              		.loc 1 415 40 view .LVU261
 683 006c 0722     		movs	r2, #7
 684 006e 02FA04F4 		lsl	r4, r2, r4
 415:Drivers/STM32G4xx_HAL_Driver/Src/stm32g4xx_hal_exti.c ****       SYSCFG->EXTICR[linepos >> 2u] = regval;
 685              		.loc 1 415 14 view .LVU262
 686 0072 23EA0404 		bic	r4, r3, r4
 687              	.LVL94:
 416:Drivers/STM32G4xx_HAL_Driver/Src/stm32g4xx_hal_exti.c ****     }
 688              		.loc 1 416 7 is_stmt 1 view .LVU263
 416:Drivers/STM32G4xx_HAL_Driver/Src/stm32g4xx_hal_exti.c ****     }
 689              		.loc 1 416 37 is_stmt 0 view .LVU264
 690 0076 41F82640 		str	r4, [r1, r6, lsl #2]
 691              		.loc 1 420 10 view .LVU265
 692 007a 0020     		movs	r0, #0
 693 007c 02E0     		b	.L40
 694              	.LVL95:
 695              	.L41:
 696              		.cfi_def_cfa_offset 0
 697              		.cfi_restore 4
 698              		.cfi_restore 5
 699              		.cfi_restore 6
 700              		.cfi_restore 7
 375:Drivers/STM32G4xx_HAL_Driver/Src/stm32g4xx_hal_exti.c ****   }
 701              		.loc 1 375 12 view .LVU266
 702 007e 0120     		movs	r0, #1
 703              	.LVL96:
 421:Drivers/STM32G4xx_HAL_Driver/Src/stm32g4xx_hal_exti.c **** }
 704              		.loc 1 421 1 view .LVU267
 705 0080 7047     		bx	lr
 706              	.LVL97:
 707              	.L42:
 708              		.cfi_def_cfa_offset 16
 709              		.cfi_offset 4, -16
 710              		.cfi_offset 5, -12
 711              		.cfi_offset 6, -8
 712              		.cfi_offset 7, -4
 420:Drivers/STM32G4xx_HAL_Driver/Src/stm32g4xx_hal_exti.c **** }
 713              		.loc 1 420 10 view .LVU268
 714 0082 0020     		movs	r0, #0
 715              	.LVL98:
 716              	.L40:
ARM GAS  /tmp/cc2NWssJ.s 			page 22


 717              		.loc 1 421 1 view .LVU269
 718 0084 F0BC     		pop	{r4, r5, r6, r7}
 719              		.cfi_restore 7
 720              		.cfi_restore 6
 721              		.cfi_restore 5
 722              		.cfi_restore 4
 723              		.cfi_def_cfa_offset 0
 724              	.LVL99:
 725              		.loc 1 421 1 view .LVU270
 726 0086 7047     		bx	lr
 727              	.L50:
 728              		.align	2
 729              	.L49:
 730 0088 04040140 		.word	1073808388
 731 008c 08040140 		.word	1073808392
 732 0090 0C040140 		.word	1073808396
 733 0094 00000140 		.word	1073807360
 734              		.cfi_endproc
 735              	.LFE134:
 737              		.section	.text.HAL_EXTI_RegisterCallback,"ax",%progbits
 738              		.align	1
 739              		.global	HAL_EXTI_RegisterCallback
 740              		.syntax unified
 741              		.thumb
 742              		.thumb_func
 743              		.fpu fpv4-sp-d16
 745              	HAL_EXTI_RegisterCallback:
 746              	.LVL100:
 747              	.LFB135:
 422:Drivers/STM32G4xx_HAL_Driver/Src/stm32g4xx_hal_exti.c **** 
 423:Drivers/STM32G4xx_HAL_Driver/Src/stm32g4xx_hal_exti.c **** 
 424:Drivers/STM32G4xx_HAL_Driver/Src/stm32g4xx_hal_exti.c **** /**
 425:Drivers/STM32G4xx_HAL_Driver/Src/stm32g4xx_hal_exti.c ****   * @brief  Register callback for a dedicated Exti line.
 426:Drivers/STM32G4xx_HAL_Driver/Src/stm32g4xx_hal_exti.c ****   * @param  hexti Exti handle.
 427:Drivers/STM32G4xx_HAL_Driver/Src/stm32g4xx_hal_exti.c ****   * @param  CallbackID User callback identifier.
 428:Drivers/STM32G4xx_HAL_Driver/Src/stm32g4xx_hal_exti.c ****   *         This parameter can be one of @arg @ref EXTI_CallbackIDTypeDef values.
 429:Drivers/STM32G4xx_HAL_Driver/Src/stm32g4xx_hal_exti.c ****   * @param  pPendingCbfn function pointer to be stored as callback.
 430:Drivers/STM32G4xx_HAL_Driver/Src/stm32g4xx_hal_exti.c ****   * @retval HAL Status.
 431:Drivers/STM32G4xx_HAL_Driver/Src/stm32g4xx_hal_exti.c ****   */
 432:Drivers/STM32G4xx_HAL_Driver/Src/stm32g4xx_hal_exti.c **** HAL_StatusTypeDef HAL_EXTI_RegisterCallback(EXTI_HandleTypeDef *hexti, EXTI_CallbackIDTypeDef Callb
 433:Drivers/STM32G4xx_HAL_Driver/Src/stm32g4xx_hal_exti.c **** {
 748              		.loc 1 433 1 is_stmt 1 view -0
 749              		.cfi_startproc
 750              		@ args = 0, pretend = 0, frame = 0
 751              		@ frame_needed = 0, uses_anonymous_args = 0
 752              		@ link register save eliminated.
 434:Drivers/STM32G4xx_HAL_Driver/Src/stm32g4xx_hal_exti.c ****   HAL_StatusTypeDef status = HAL_OK;
 753              		.loc 1 434 3 view .LVU272
 435:Drivers/STM32G4xx_HAL_Driver/Src/stm32g4xx_hal_exti.c **** 
 436:Drivers/STM32G4xx_HAL_Driver/Src/stm32g4xx_hal_exti.c ****   /* Check the parameters */
 437:Drivers/STM32G4xx_HAL_Driver/Src/stm32g4xx_hal_exti.c ****   assert_param(IS_EXTI_CB(CallbackID));
 754              		.loc 1 437 3 view .LVU273
 438:Drivers/STM32G4xx_HAL_Driver/Src/stm32g4xx_hal_exti.c **** 
 439:Drivers/STM32G4xx_HAL_Driver/Src/stm32g4xx_hal_exti.c ****   switch (CallbackID)
 755              		.loc 1 439 3 view .LVU274
 756 0000 11B9     		cbnz	r1, .L52
 440:Drivers/STM32G4xx_HAL_Driver/Src/stm32g4xx_hal_exti.c ****   {
ARM GAS  /tmp/cc2NWssJ.s 			page 23


 441:Drivers/STM32G4xx_HAL_Driver/Src/stm32g4xx_hal_exti.c ****     /* set common callback */
 442:Drivers/STM32G4xx_HAL_Driver/Src/stm32g4xx_hal_exti.c ****     case  HAL_EXTI_COMMON_CB_ID:
 443:Drivers/STM32G4xx_HAL_Driver/Src/stm32g4xx_hal_exti.c ****       hexti->PendingCallback = pPendingCbfn;
 757              		.loc 1 443 7 view .LVU275
 758              		.loc 1 443 30 is_stmt 0 view .LVU276
 759 0002 4260     		str	r2, [r0, #4]
 444:Drivers/STM32G4xx_HAL_Driver/Src/stm32g4xx_hal_exti.c ****       break;
 760              		.loc 1 444 7 is_stmt 1 view .LVU277
 434:Drivers/STM32G4xx_HAL_Driver/Src/stm32g4xx_hal_exti.c **** 
 761              		.loc 1 434 21 is_stmt 0 view .LVU278
 762 0004 0846     		mov	r0, r1
 763              	.LVL101:
 764              		.loc 1 444 7 view .LVU279
 765 0006 7047     		bx	lr
 766              	.LVL102:
 767              	.L52:
 445:Drivers/STM32G4xx_HAL_Driver/Src/stm32g4xx_hal_exti.c **** 
 446:Drivers/STM32G4xx_HAL_Driver/Src/stm32g4xx_hal_exti.c ****     default:
 447:Drivers/STM32G4xx_HAL_Driver/Src/stm32g4xx_hal_exti.c ****       hexti->PendingCallback = NULL;
 768              		.loc 1 447 7 is_stmt 1 view .LVU280
 769              		.loc 1 447 30 is_stmt 0 view .LVU281
 770 0008 0023     		movs	r3, #0
 771 000a 4360     		str	r3, [r0, #4]
 448:Drivers/STM32G4xx_HAL_Driver/Src/stm32g4xx_hal_exti.c ****       status = HAL_ERROR;
 772              		.loc 1 448 7 is_stmt 1 view .LVU282
 773              	.LVL103:
 449:Drivers/STM32G4xx_HAL_Driver/Src/stm32g4xx_hal_exti.c ****       break;
 774              		.loc 1 449 7 view .LVU283
 448:Drivers/STM32G4xx_HAL_Driver/Src/stm32g4xx_hal_exti.c ****       status = HAL_ERROR;
 775              		.loc 1 448 14 is_stmt 0 view .LVU284
 776 000c 0120     		movs	r0, #1
 777              	.LVL104:
 450:Drivers/STM32G4xx_HAL_Driver/Src/stm32g4xx_hal_exti.c ****   }
 451:Drivers/STM32G4xx_HAL_Driver/Src/stm32g4xx_hal_exti.c **** 
 452:Drivers/STM32G4xx_HAL_Driver/Src/stm32g4xx_hal_exti.c ****   return status;
 778              		.loc 1 452 3 is_stmt 1 view .LVU285
 453:Drivers/STM32G4xx_HAL_Driver/Src/stm32g4xx_hal_exti.c **** }
 779              		.loc 1 453 1 is_stmt 0 view .LVU286
 780 000e 7047     		bx	lr
 781              		.cfi_endproc
 782              	.LFE135:
 784              		.section	.text.HAL_EXTI_GetHandle,"ax",%progbits
 785              		.align	1
 786              		.global	HAL_EXTI_GetHandle
 787              		.syntax unified
 788              		.thumb
 789              		.thumb_func
 790              		.fpu fpv4-sp-d16
 792              	HAL_EXTI_GetHandle:
 793              	.LVL105:
 794              	.LFB136:
 454:Drivers/STM32G4xx_HAL_Driver/Src/stm32g4xx_hal_exti.c **** 
 455:Drivers/STM32G4xx_HAL_Driver/Src/stm32g4xx_hal_exti.c **** 
 456:Drivers/STM32G4xx_HAL_Driver/Src/stm32g4xx_hal_exti.c **** /**
 457:Drivers/STM32G4xx_HAL_Driver/Src/stm32g4xx_hal_exti.c ****   * @brief  Store line number as handle private field.
 458:Drivers/STM32G4xx_HAL_Driver/Src/stm32g4xx_hal_exti.c ****   * @param  hexti Exti handle.
 459:Drivers/STM32G4xx_HAL_Driver/Src/stm32g4xx_hal_exti.c ****   * @param  ExtiLine Exti line number.
ARM GAS  /tmp/cc2NWssJ.s 			page 24


 460:Drivers/STM32G4xx_HAL_Driver/Src/stm32g4xx_hal_exti.c ****   *         This parameter can be from 0 to @ref EXTI_LINE_NB.
 461:Drivers/STM32G4xx_HAL_Driver/Src/stm32g4xx_hal_exti.c ****   * @retval HAL Status.
 462:Drivers/STM32G4xx_HAL_Driver/Src/stm32g4xx_hal_exti.c ****   */
 463:Drivers/STM32G4xx_HAL_Driver/Src/stm32g4xx_hal_exti.c **** HAL_StatusTypeDef HAL_EXTI_GetHandle(EXTI_HandleTypeDef *hexti, uint32_t ExtiLine)
 464:Drivers/STM32G4xx_HAL_Driver/Src/stm32g4xx_hal_exti.c **** {
 795              		.loc 1 464 1 is_stmt 1 view -0
 796              		.cfi_startproc
 797              		@ args = 0, pretend = 0, frame = 0
 798              		@ frame_needed = 0, uses_anonymous_args = 0
 799              		@ link register save eliminated.
 465:Drivers/STM32G4xx_HAL_Driver/Src/stm32g4xx_hal_exti.c ****   /* Check the parameters */
 466:Drivers/STM32G4xx_HAL_Driver/Src/stm32g4xx_hal_exti.c ****   assert_param(IS_EXTI_LINE(ExtiLine));
 800              		.loc 1 466 3 view .LVU288
 467:Drivers/STM32G4xx_HAL_Driver/Src/stm32g4xx_hal_exti.c **** 
 468:Drivers/STM32G4xx_HAL_Driver/Src/stm32g4xx_hal_exti.c ****   /* Check null pointer */
 469:Drivers/STM32G4xx_HAL_Driver/Src/stm32g4xx_hal_exti.c ****   if (hexti == NULL)
 801              		.loc 1 469 3 view .LVU289
 802              		.loc 1 469 6 is_stmt 0 view .LVU290
 803 0000 10B1     		cbz	r0, .L56
 470:Drivers/STM32G4xx_HAL_Driver/Src/stm32g4xx_hal_exti.c ****   {
 471:Drivers/STM32G4xx_HAL_Driver/Src/stm32g4xx_hal_exti.c ****     return HAL_ERROR;
 472:Drivers/STM32G4xx_HAL_Driver/Src/stm32g4xx_hal_exti.c ****   }
 473:Drivers/STM32G4xx_HAL_Driver/Src/stm32g4xx_hal_exti.c ****   else
 474:Drivers/STM32G4xx_HAL_Driver/Src/stm32g4xx_hal_exti.c ****   {
 475:Drivers/STM32G4xx_HAL_Driver/Src/stm32g4xx_hal_exti.c ****     /* Store line number as handle private field */
 476:Drivers/STM32G4xx_HAL_Driver/Src/stm32g4xx_hal_exti.c ****     hexti->Line = ExtiLine;
 804              		.loc 1 476 5 is_stmt 1 view .LVU291
 805              		.loc 1 476 17 is_stmt 0 view .LVU292
 806 0002 0160     		str	r1, [r0]
 477:Drivers/STM32G4xx_HAL_Driver/Src/stm32g4xx_hal_exti.c **** 
 478:Drivers/STM32G4xx_HAL_Driver/Src/stm32g4xx_hal_exti.c ****     return HAL_OK;
 807              		.loc 1 478 5 is_stmt 1 view .LVU293
 808              		.loc 1 478 12 is_stmt 0 view .LVU294
 809 0004 0020     		movs	r0, #0
 810              	.LVL106:
 811              		.loc 1 478 12 view .LVU295
 812 0006 7047     		bx	lr
 813              	.LVL107:
 814              	.L56:
 471:Drivers/STM32G4xx_HAL_Driver/Src/stm32g4xx_hal_exti.c ****   }
 815              		.loc 1 471 12 view .LVU296
 816 0008 0120     		movs	r0, #1
 817              	.LVL108:
 479:Drivers/STM32G4xx_HAL_Driver/Src/stm32g4xx_hal_exti.c ****   }
 480:Drivers/STM32G4xx_HAL_Driver/Src/stm32g4xx_hal_exti.c **** }
 818              		.loc 1 480 1 view .LVU297
 819 000a 7047     		bx	lr
 820              		.cfi_endproc
 821              	.LFE136:
 823              		.section	.text.HAL_EXTI_IRQHandler,"ax",%progbits
 824              		.align	1
 825              		.global	HAL_EXTI_IRQHandler
 826              		.syntax unified
 827              		.thumb
 828              		.thumb_func
 829              		.fpu fpv4-sp-d16
 831              	HAL_EXTI_IRQHandler:
ARM GAS  /tmp/cc2NWssJ.s 			page 25


 832              	.LVL109:
 833              	.LFB137:
 481:Drivers/STM32G4xx_HAL_Driver/Src/stm32g4xx_hal_exti.c **** 
 482:Drivers/STM32G4xx_HAL_Driver/Src/stm32g4xx_hal_exti.c **** 
 483:Drivers/STM32G4xx_HAL_Driver/Src/stm32g4xx_hal_exti.c **** /**
 484:Drivers/STM32G4xx_HAL_Driver/Src/stm32g4xx_hal_exti.c ****   * @}
 485:Drivers/STM32G4xx_HAL_Driver/Src/stm32g4xx_hal_exti.c ****   */
 486:Drivers/STM32G4xx_HAL_Driver/Src/stm32g4xx_hal_exti.c **** 
 487:Drivers/STM32G4xx_HAL_Driver/Src/stm32g4xx_hal_exti.c **** /** @addtogroup EXTI_Exported_Functions_Group2
 488:Drivers/STM32G4xx_HAL_Driver/Src/stm32g4xx_hal_exti.c ****   *  @brief EXTI IO functions.
 489:Drivers/STM32G4xx_HAL_Driver/Src/stm32g4xx_hal_exti.c ****   *
 490:Drivers/STM32G4xx_HAL_Driver/Src/stm32g4xx_hal_exti.c **** @verbatim
 491:Drivers/STM32G4xx_HAL_Driver/Src/stm32g4xx_hal_exti.c ****  ===============================================================================
 492:Drivers/STM32G4xx_HAL_Driver/Src/stm32g4xx_hal_exti.c ****                        ##### IO operation functions #####
 493:Drivers/STM32G4xx_HAL_Driver/Src/stm32g4xx_hal_exti.c ****  ===============================================================================
 494:Drivers/STM32G4xx_HAL_Driver/Src/stm32g4xx_hal_exti.c **** 
 495:Drivers/STM32G4xx_HAL_Driver/Src/stm32g4xx_hal_exti.c **** @endverbatim
 496:Drivers/STM32G4xx_HAL_Driver/Src/stm32g4xx_hal_exti.c ****   * @{
 497:Drivers/STM32G4xx_HAL_Driver/Src/stm32g4xx_hal_exti.c ****   */
 498:Drivers/STM32G4xx_HAL_Driver/Src/stm32g4xx_hal_exti.c **** 
 499:Drivers/STM32G4xx_HAL_Driver/Src/stm32g4xx_hal_exti.c **** /**
 500:Drivers/STM32G4xx_HAL_Driver/Src/stm32g4xx_hal_exti.c ****   * @brief  Handle EXTI interrupt request.
 501:Drivers/STM32G4xx_HAL_Driver/Src/stm32g4xx_hal_exti.c ****   * @param  hexti Exti handle.
 502:Drivers/STM32G4xx_HAL_Driver/Src/stm32g4xx_hal_exti.c ****   * @retval none.
 503:Drivers/STM32G4xx_HAL_Driver/Src/stm32g4xx_hal_exti.c ****   */
 504:Drivers/STM32G4xx_HAL_Driver/Src/stm32g4xx_hal_exti.c **** void HAL_EXTI_IRQHandler(EXTI_HandleTypeDef *hexti)
 505:Drivers/STM32G4xx_HAL_Driver/Src/stm32g4xx_hal_exti.c **** {
 834              		.loc 1 505 1 is_stmt 1 view -0
 835              		.cfi_startproc
 836              		@ args = 0, pretend = 0, frame = 0
 837              		@ frame_needed = 0, uses_anonymous_args = 0
 838              		.loc 1 505 1 is_stmt 0 view .LVU299
 839 0000 10B5     		push	{r4, lr}
 840              		.cfi_def_cfa_offset 8
 841              		.cfi_offset 4, -8
 842              		.cfi_offset 14, -4
 506:Drivers/STM32G4xx_HAL_Driver/Src/stm32g4xx_hal_exti.c ****   __IO uint32_t *regaddr;
 843              		.loc 1 506 3 is_stmt 1 view .LVU300
 507:Drivers/STM32G4xx_HAL_Driver/Src/stm32g4xx_hal_exti.c ****   uint32_t regval;
 844              		.loc 1 507 3 view .LVU301
 508:Drivers/STM32G4xx_HAL_Driver/Src/stm32g4xx_hal_exti.c ****   uint32_t maskline;
 845              		.loc 1 508 3 view .LVU302
 509:Drivers/STM32G4xx_HAL_Driver/Src/stm32g4xx_hal_exti.c ****   uint32_t offset;
 846              		.loc 1 509 3 view .LVU303
 510:Drivers/STM32G4xx_HAL_Driver/Src/stm32g4xx_hal_exti.c **** 
 511:Drivers/STM32G4xx_HAL_Driver/Src/stm32g4xx_hal_exti.c ****   /* Compute line register offset */
 512:Drivers/STM32G4xx_HAL_Driver/Src/stm32g4xx_hal_exti.c ****   offset = ((hexti->Line & EXTI_REG_MASK) >> EXTI_REG_SHIFT);
 847              		.loc 1 512 3 view .LVU304
 848              		.loc 1 512 19 is_stmt 0 view .LVU305
 849 0002 0368     		ldr	r3, [r0]
 850              		.loc 1 512 10 view .LVU306
 851 0004 C3F30042 		ubfx	r2, r3, #16, #1
 852              	.LVL110:
 513:Drivers/STM32G4xx_HAL_Driver/Src/stm32g4xx_hal_exti.c ****   /* compute line mask */
 514:Drivers/STM32G4xx_HAL_Driver/Src/stm32g4xx_hal_exti.c ****   maskline = (1uL << (hexti->Line & EXTI_PIN_MASK));
 853              		.loc 1 514 3 is_stmt 1 view .LVU307
 854              		.loc 1 514 35 is_stmt 0 view .LVU308
ARM GAS  /tmp/cc2NWssJ.s 			page 26


 855 0008 03F01F03 		and	r3, r3, #31
 856              		.loc 1 514 12 view .LVU309
 857 000c 0121     		movs	r1, #1
 858 000e 01FA03F3 		lsl	r3, r1, r3
 859              	.LVL111:
 515:Drivers/STM32G4xx_HAL_Driver/Src/stm32g4xx_hal_exti.c **** 
 516:Drivers/STM32G4xx_HAL_Driver/Src/stm32g4xx_hal_exti.c ****   /* Get pending bit  */
 517:Drivers/STM32G4xx_HAL_Driver/Src/stm32g4xx_hal_exti.c ****   regaddr = (&EXTI->PR1 + (EXTI_CONFIG_OFFSET * offset));
 860              		.loc 1 517 3 is_stmt 1 view .LVU310
 861              		.loc 1 517 25 is_stmt 0 view .LVU311
 862 0012 5201     		lsls	r2, r2, #5
 863              	.LVL112:
 864              		.loc 1 517 11 view .LVU312
 865 0014 0449     		ldr	r1, .L60
 866              	.LVL113:
 518:Drivers/STM32G4xx_HAL_Driver/Src/stm32g4xx_hal_exti.c ****   regval = (*regaddr & maskline);
 867              		.loc 1 518 3 is_stmt 1 view .LVU313
 868              		.loc 1 518 13 is_stmt 0 view .LVU314
 869 0016 5458     		ldr	r4, [r2, r1]
 870              	.LVL114:
 519:Drivers/STM32G4xx_HAL_Driver/Src/stm32g4xx_hal_exti.c **** 
 520:Drivers/STM32G4xx_HAL_Driver/Src/stm32g4xx_hal_exti.c ****   if (regval != 0x00u)
 871              		.loc 1 520 3 is_stmt 1 view .LVU315
 872              		.loc 1 520 6 is_stmt 0 view .LVU316
 873 0018 1C42     		tst	r4, r3
 874 001a 03D0     		beq	.L57
 521:Drivers/STM32G4xx_HAL_Driver/Src/stm32g4xx_hal_exti.c ****   {
 522:Drivers/STM32G4xx_HAL_Driver/Src/stm32g4xx_hal_exti.c ****     /* Clear pending bit */
 523:Drivers/STM32G4xx_HAL_Driver/Src/stm32g4xx_hal_exti.c ****     *regaddr = maskline;
 875              		.loc 1 523 5 is_stmt 1 view .LVU317
 876              		.loc 1 523 14 is_stmt 0 view .LVU318
 877 001c 5350     		str	r3, [r2, r1]
 878              	.LVL115:
 524:Drivers/STM32G4xx_HAL_Driver/Src/stm32g4xx_hal_exti.c **** 
 525:Drivers/STM32G4xx_HAL_Driver/Src/stm32g4xx_hal_exti.c ****     /* Call pending callback */
 526:Drivers/STM32G4xx_HAL_Driver/Src/stm32g4xx_hal_exti.c ****     if (hexti->PendingCallback != NULL)
 879              		.loc 1 526 5 is_stmt 1 view .LVU319
 880              		.loc 1 526 14 is_stmt 0 view .LVU320
 881 001e 4368     		ldr	r3, [r0, #4]
 882              	.LVL116:
 883              		.loc 1 526 8 view .LVU321
 884 0020 03B1     		cbz	r3, .L57
 527:Drivers/STM32G4xx_HAL_Driver/Src/stm32g4xx_hal_exti.c ****     {
 528:Drivers/STM32G4xx_HAL_Driver/Src/stm32g4xx_hal_exti.c ****       hexti->PendingCallback();
 885              		.loc 1 528 7 is_stmt 1 view .LVU322
 886 0022 9847     		blx	r3
 887              	.LVL117:
 888              	.L57:
 529:Drivers/STM32G4xx_HAL_Driver/Src/stm32g4xx_hal_exti.c ****     }
 530:Drivers/STM32G4xx_HAL_Driver/Src/stm32g4xx_hal_exti.c ****   }
 531:Drivers/STM32G4xx_HAL_Driver/Src/stm32g4xx_hal_exti.c **** }
 889              		.loc 1 531 1 is_stmt 0 view .LVU323
 890 0024 10BD     		pop	{r4, pc}
 891              	.L61:
 892              		.loc 1 531 1 view .LVU324
 893 0026 00BF     		.align	2
 894              	.L60:
ARM GAS  /tmp/cc2NWssJ.s 			page 27


 895 0028 14040140 		.word	1073808404
 896              		.cfi_endproc
 897              	.LFE137:
 899              		.section	.text.HAL_EXTI_GetPending,"ax",%progbits
 900              		.align	1
 901              		.global	HAL_EXTI_GetPending
 902              		.syntax unified
 903              		.thumb
 904              		.thumb_func
 905              		.fpu fpv4-sp-d16
 907              	HAL_EXTI_GetPending:
 908              	.LVL118:
 909              	.LFB138:
 532:Drivers/STM32G4xx_HAL_Driver/Src/stm32g4xx_hal_exti.c **** 
 533:Drivers/STM32G4xx_HAL_Driver/Src/stm32g4xx_hal_exti.c **** /**
 534:Drivers/STM32G4xx_HAL_Driver/Src/stm32g4xx_hal_exti.c ****   * @brief  Get interrupt pending bit of a dedicated line.
 535:Drivers/STM32G4xx_HAL_Driver/Src/stm32g4xx_hal_exti.c ****   * @param  hexti Exti handle.
 536:Drivers/STM32G4xx_HAL_Driver/Src/stm32g4xx_hal_exti.c ****   * @param  Edge unused
 537:Drivers/STM32G4xx_HAL_Driver/Src/stm32g4xx_hal_exti.c ****   * @retval 1 if interrupt is pending else 0.
 538:Drivers/STM32G4xx_HAL_Driver/Src/stm32g4xx_hal_exti.c ****   */
 539:Drivers/STM32G4xx_HAL_Driver/Src/stm32g4xx_hal_exti.c **** uint32_t HAL_EXTI_GetPending(EXTI_HandleTypeDef *hexti, uint32_t Edge)
 540:Drivers/STM32G4xx_HAL_Driver/Src/stm32g4xx_hal_exti.c **** {
 910              		.loc 1 540 1 is_stmt 1 view -0
 911              		.cfi_startproc
 912              		@ args = 0, pretend = 0, frame = 0
 913              		@ frame_needed = 0, uses_anonymous_args = 0
 914              		@ link register save eliminated.
 541:Drivers/STM32G4xx_HAL_Driver/Src/stm32g4xx_hal_exti.c ****   __IO uint32_t *regaddr;
 915              		.loc 1 541 3 view .LVU326
 542:Drivers/STM32G4xx_HAL_Driver/Src/stm32g4xx_hal_exti.c ****   uint32_t regval;
 916              		.loc 1 542 3 view .LVU327
 543:Drivers/STM32G4xx_HAL_Driver/Src/stm32g4xx_hal_exti.c ****   uint32_t linepos;
 917              		.loc 1 543 3 view .LVU328
 544:Drivers/STM32G4xx_HAL_Driver/Src/stm32g4xx_hal_exti.c ****   uint32_t maskline;
 918              		.loc 1 544 3 view .LVU329
 545:Drivers/STM32G4xx_HAL_Driver/Src/stm32g4xx_hal_exti.c ****   uint32_t offset;
 919              		.loc 1 545 3 view .LVU330
 546:Drivers/STM32G4xx_HAL_Driver/Src/stm32g4xx_hal_exti.c **** 
 547:Drivers/STM32G4xx_HAL_Driver/Src/stm32g4xx_hal_exti.c ****   /* Check parameters */
 548:Drivers/STM32G4xx_HAL_Driver/Src/stm32g4xx_hal_exti.c ****   assert_param(IS_EXTI_LINE(hexti->Line));
 920              		.loc 1 548 3 view .LVU331
 549:Drivers/STM32G4xx_HAL_Driver/Src/stm32g4xx_hal_exti.c ****   assert_param(IS_EXTI_CONFIG_LINE(hexti->Line));
 921              		.loc 1 549 3 view .LVU332
 550:Drivers/STM32G4xx_HAL_Driver/Src/stm32g4xx_hal_exti.c ****   UNUSED(Edge);
 922              		.loc 1 550 3 view .LVU333
 551:Drivers/STM32G4xx_HAL_Driver/Src/stm32g4xx_hal_exti.c **** 
 552:Drivers/STM32G4xx_HAL_Driver/Src/stm32g4xx_hal_exti.c ****   /* Compute line register offset */
 553:Drivers/STM32G4xx_HAL_Driver/Src/stm32g4xx_hal_exti.c ****   offset = ((hexti->Line & EXTI_REG_MASK) >> EXTI_REG_SHIFT);
 923              		.loc 1 553 3 view .LVU334
 924              		.loc 1 553 19 is_stmt 0 view .LVU335
 925 0000 0368     		ldr	r3, [r0]
 926              		.loc 1 553 10 view .LVU336
 927 0002 C3F30041 		ubfx	r1, r3, #16, #1
 928              	.LVL119:
 554:Drivers/STM32G4xx_HAL_Driver/Src/stm32g4xx_hal_exti.c ****   /* Compute line position */
 555:Drivers/STM32G4xx_HAL_Driver/Src/stm32g4xx_hal_exti.c ****   linepos = (hexti->Line & EXTI_PIN_MASK);
 929              		.loc 1 555 3 is_stmt 1 view .LVU337
ARM GAS  /tmp/cc2NWssJ.s 			page 28


 930              		.loc 1 555 11 is_stmt 0 view .LVU338
 931 0006 03F01F03 		and	r3, r3, #31
 932              	.LVL120:
 556:Drivers/STM32G4xx_HAL_Driver/Src/stm32g4xx_hal_exti.c ****   /* Compute line mask */
 557:Drivers/STM32G4xx_HAL_Driver/Src/stm32g4xx_hal_exti.c ****   maskline = (1uL << linepos);
 933              		.loc 1 557 3 is_stmt 1 view .LVU339
 934              		.loc 1 557 12 is_stmt 0 view .LVU340
 935 000a 0120     		movs	r0, #1
 936              	.LVL121:
 937              		.loc 1 557 12 view .LVU341
 938 000c 00FA03F2 		lsl	r2, r0, r3
 939              	.LVL122:
 558:Drivers/STM32G4xx_HAL_Driver/Src/stm32g4xx_hal_exti.c **** 
 559:Drivers/STM32G4xx_HAL_Driver/Src/stm32g4xx_hal_exti.c ****   /* Get pending bit */
 560:Drivers/STM32G4xx_HAL_Driver/Src/stm32g4xx_hal_exti.c ****   regaddr = (&EXTI->PR1 + (EXTI_CONFIG_OFFSET * offset));
 940              		.loc 1 560 3 is_stmt 1 view .LVU342
 941              		.loc 1 560 25 is_stmt 0 view .LVU343
 942 0010 4901     		lsls	r1, r1, #5
 943              	.LVL123:
 944              		.loc 1 560 11 view .LVU344
 945 0012 0248     		ldr	r0, .L63
 946              	.LVL124:
 561:Drivers/STM32G4xx_HAL_Driver/Src/stm32g4xx_hal_exti.c **** 
 562:Drivers/STM32G4xx_HAL_Driver/Src/stm32g4xx_hal_exti.c ****   /* return 1 if bit is set else 0 */
 563:Drivers/STM32G4xx_HAL_Driver/Src/stm32g4xx_hal_exti.c ****   regval = ((*regaddr & maskline) >> linepos);
 947              		.loc 1 563 3 is_stmt 1 view .LVU345
 948              		.loc 1 563 14 is_stmt 0 view .LVU346
 949 0014 0858     		ldr	r0, [r1, r0]
 950              	.LVL125:
 951              		.loc 1 563 23 view .LVU347
 952 0016 1040     		ands	r0, r0, r2
 953              	.LVL126:
 564:Drivers/STM32G4xx_HAL_Driver/Src/stm32g4xx_hal_exti.c ****   return regval;
 954              		.loc 1 564 3 is_stmt 1 view .LVU348
 565:Drivers/STM32G4xx_HAL_Driver/Src/stm32g4xx_hal_exti.c **** }
 955              		.loc 1 565 1 is_stmt 0 view .LVU349
 956 0018 D840     		lsrs	r0, r0, r3
 957              	.LVL127:
 958              		.loc 1 565 1 view .LVU350
 959 001a 7047     		bx	lr
 960              	.L64:
 961              		.align	2
 962              	.L63:
 963 001c 14040140 		.word	1073808404
 964              		.cfi_endproc
 965              	.LFE138:
 967              		.section	.text.HAL_EXTI_ClearPending,"ax",%progbits
 968              		.align	1
 969              		.global	HAL_EXTI_ClearPending
 970              		.syntax unified
 971              		.thumb
 972              		.thumb_func
 973              		.fpu fpv4-sp-d16
 975              	HAL_EXTI_ClearPending:
 976              	.LVL128:
 977              	.LFB139:
 566:Drivers/STM32G4xx_HAL_Driver/Src/stm32g4xx_hal_exti.c **** 
ARM GAS  /tmp/cc2NWssJ.s 			page 29


 567:Drivers/STM32G4xx_HAL_Driver/Src/stm32g4xx_hal_exti.c **** 
 568:Drivers/STM32G4xx_HAL_Driver/Src/stm32g4xx_hal_exti.c **** /**
 569:Drivers/STM32G4xx_HAL_Driver/Src/stm32g4xx_hal_exti.c ****   * @brief  Clear interrupt pending bit of a dedicated line.
 570:Drivers/STM32G4xx_HAL_Driver/Src/stm32g4xx_hal_exti.c ****   * @param  hexti Exti handle.
 571:Drivers/STM32G4xx_HAL_Driver/Src/stm32g4xx_hal_exti.c ****   * @param  Edge unused
 572:Drivers/STM32G4xx_HAL_Driver/Src/stm32g4xx_hal_exti.c ****   * @retval None.
 573:Drivers/STM32G4xx_HAL_Driver/Src/stm32g4xx_hal_exti.c ****   */
 574:Drivers/STM32G4xx_HAL_Driver/Src/stm32g4xx_hal_exti.c **** void HAL_EXTI_ClearPending(EXTI_HandleTypeDef *hexti, uint32_t Edge)
 575:Drivers/STM32G4xx_HAL_Driver/Src/stm32g4xx_hal_exti.c **** {
 978              		.loc 1 575 1 is_stmt 1 view -0
 979              		.cfi_startproc
 980              		@ args = 0, pretend = 0, frame = 0
 981              		@ frame_needed = 0, uses_anonymous_args = 0
 982              		@ link register save eliminated.
 576:Drivers/STM32G4xx_HAL_Driver/Src/stm32g4xx_hal_exti.c ****   __IO uint32_t *regaddr;
 983              		.loc 1 576 3 view .LVU352
 577:Drivers/STM32G4xx_HAL_Driver/Src/stm32g4xx_hal_exti.c ****   uint32_t maskline;
 984              		.loc 1 577 3 view .LVU353
 578:Drivers/STM32G4xx_HAL_Driver/Src/stm32g4xx_hal_exti.c ****   uint32_t offset;
 985              		.loc 1 578 3 view .LVU354
 579:Drivers/STM32G4xx_HAL_Driver/Src/stm32g4xx_hal_exti.c **** 
 580:Drivers/STM32G4xx_HAL_Driver/Src/stm32g4xx_hal_exti.c ****   /* Check parameters */
 581:Drivers/STM32G4xx_HAL_Driver/Src/stm32g4xx_hal_exti.c ****   assert_param(IS_EXTI_LINE(hexti->Line));
 986              		.loc 1 581 3 view .LVU355
 582:Drivers/STM32G4xx_HAL_Driver/Src/stm32g4xx_hal_exti.c ****   assert_param(IS_EXTI_CONFIG_LINE(hexti->Line));
 987              		.loc 1 582 3 view .LVU356
 583:Drivers/STM32G4xx_HAL_Driver/Src/stm32g4xx_hal_exti.c ****   UNUSED(Edge);
 988              		.loc 1 583 3 view .LVU357
 584:Drivers/STM32G4xx_HAL_Driver/Src/stm32g4xx_hal_exti.c **** 
 585:Drivers/STM32G4xx_HAL_Driver/Src/stm32g4xx_hal_exti.c ****   /* Compute line register offset */
 586:Drivers/STM32G4xx_HAL_Driver/Src/stm32g4xx_hal_exti.c ****   offset = ((hexti->Line & EXTI_REG_MASK) >> EXTI_REG_SHIFT);
 989              		.loc 1 586 3 view .LVU358
 990              		.loc 1 586 19 is_stmt 0 view .LVU359
 991 0000 0368     		ldr	r3, [r0]
 992              		.loc 1 586 10 view .LVU360
 993 0002 C3F30042 		ubfx	r2, r3, #16, #1
 994              	.LVL129:
 587:Drivers/STM32G4xx_HAL_Driver/Src/stm32g4xx_hal_exti.c ****   /* Compute line mask */
 588:Drivers/STM32G4xx_HAL_Driver/Src/stm32g4xx_hal_exti.c ****   maskline = (1uL << (hexti->Line & EXTI_PIN_MASK));
 995              		.loc 1 588 3 is_stmt 1 view .LVU361
 996              		.loc 1 588 35 is_stmt 0 view .LVU362
 997 0006 03F01F03 		and	r3, r3, #31
 998              		.loc 1 588 12 view .LVU363
 999 000a 0121     		movs	r1, #1
 1000              	.LVL130:
 1001              		.loc 1 588 12 view .LVU364
 1002 000c 01FA03F3 		lsl	r3, r1, r3
 1003              	.LVL131:
 589:Drivers/STM32G4xx_HAL_Driver/Src/stm32g4xx_hal_exti.c **** 
 590:Drivers/STM32G4xx_HAL_Driver/Src/stm32g4xx_hal_exti.c ****   /* Get pending register address */
 591:Drivers/STM32G4xx_HAL_Driver/Src/stm32g4xx_hal_exti.c ****   regaddr = (&EXTI->PR1 + (EXTI_CONFIG_OFFSET * offset));
 1004              		.loc 1 591 3 is_stmt 1 view .LVU365
 1005              		.loc 1 591 25 is_stmt 0 view .LVU366
 1006 0010 5201     		lsls	r2, r2, #5
 1007              	.LVL132:
 1008              		.loc 1 591 11 view .LVU367
 1009 0012 0149     		ldr	r1, .L66
ARM GAS  /tmp/cc2NWssJ.s 			page 30


 1010              	.LVL133:
 592:Drivers/STM32G4xx_HAL_Driver/Src/stm32g4xx_hal_exti.c **** 
 593:Drivers/STM32G4xx_HAL_Driver/Src/stm32g4xx_hal_exti.c ****   /* Clear Pending bit */
 594:Drivers/STM32G4xx_HAL_Driver/Src/stm32g4xx_hal_exti.c ****   *regaddr =  maskline;
 1011              		.loc 1 594 3 is_stmt 1 view .LVU368
 1012              		.loc 1 594 12 is_stmt 0 view .LVU369
 1013 0014 5350     		str	r3, [r2, r1]
 1014              	.LVL134:
 595:Drivers/STM32G4xx_HAL_Driver/Src/stm32g4xx_hal_exti.c **** }
 1015              		.loc 1 595 1 view .LVU370
 1016 0016 7047     		bx	lr
 1017              	.L67:
 1018              		.align	2
 1019              	.L66:
 1020 0018 14040140 		.word	1073808404
 1021              		.cfi_endproc
 1022              	.LFE139:
 1024              		.section	.text.HAL_EXTI_GenerateSWI,"ax",%progbits
 1025              		.align	1
 1026              		.global	HAL_EXTI_GenerateSWI
 1027              		.syntax unified
 1028              		.thumb
 1029              		.thumb_func
 1030              		.fpu fpv4-sp-d16
 1032              	HAL_EXTI_GenerateSWI:
 1033              	.LVL135:
 1034              	.LFB140:
 596:Drivers/STM32G4xx_HAL_Driver/Src/stm32g4xx_hal_exti.c **** 
 597:Drivers/STM32G4xx_HAL_Driver/Src/stm32g4xx_hal_exti.c **** 
 598:Drivers/STM32G4xx_HAL_Driver/Src/stm32g4xx_hal_exti.c **** /**
 599:Drivers/STM32G4xx_HAL_Driver/Src/stm32g4xx_hal_exti.c ****   * @brief  Generate a software interrupt for a dedicated line.
 600:Drivers/STM32G4xx_HAL_Driver/Src/stm32g4xx_hal_exti.c ****   * @param  hexti Exti handle.
 601:Drivers/STM32G4xx_HAL_Driver/Src/stm32g4xx_hal_exti.c ****   * @retval None.
 602:Drivers/STM32G4xx_HAL_Driver/Src/stm32g4xx_hal_exti.c ****   */
 603:Drivers/STM32G4xx_HAL_Driver/Src/stm32g4xx_hal_exti.c **** void HAL_EXTI_GenerateSWI(EXTI_HandleTypeDef *hexti)
 604:Drivers/STM32G4xx_HAL_Driver/Src/stm32g4xx_hal_exti.c **** {
 1035              		.loc 1 604 1 is_stmt 1 view -0
 1036              		.cfi_startproc
 1037              		@ args = 0, pretend = 0, frame = 0
 1038              		@ frame_needed = 0, uses_anonymous_args = 0
 1039              		@ link register save eliminated.
 605:Drivers/STM32G4xx_HAL_Driver/Src/stm32g4xx_hal_exti.c ****   __IO uint32_t *regaddr;
 1040              		.loc 1 605 3 view .LVU372
 606:Drivers/STM32G4xx_HAL_Driver/Src/stm32g4xx_hal_exti.c ****   uint32_t maskline;
 1041              		.loc 1 606 3 view .LVU373
 607:Drivers/STM32G4xx_HAL_Driver/Src/stm32g4xx_hal_exti.c ****   uint32_t offset;
 1042              		.loc 1 607 3 view .LVU374
 608:Drivers/STM32G4xx_HAL_Driver/Src/stm32g4xx_hal_exti.c **** 
 609:Drivers/STM32G4xx_HAL_Driver/Src/stm32g4xx_hal_exti.c ****   /* Check parameter */
 610:Drivers/STM32G4xx_HAL_Driver/Src/stm32g4xx_hal_exti.c ****   assert_param(IS_EXTI_LINE(hexti->Line));
 1043              		.loc 1 610 3 view .LVU375
 611:Drivers/STM32G4xx_HAL_Driver/Src/stm32g4xx_hal_exti.c ****   assert_param(IS_EXTI_CONFIG_LINE(hexti->Line));
 1044              		.loc 1 611 3 view .LVU376
 612:Drivers/STM32G4xx_HAL_Driver/Src/stm32g4xx_hal_exti.c **** 
 613:Drivers/STM32G4xx_HAL_Driver/Src/stm32g4xx_hal_exti.c ****   /* compute line register offset */
 614:Drivers/STM32G4xx_HAL_Driver/Src/stm32g4xx_hal_exti.c ****   offset = ((hexti->Line & EXTI_REG_MASK) >> EXTI_REG_SHIFT);
 1045              		.loc 1 614 3 view .LVU377
ARM GAS  /tmp/cc2NWssJ.s 			page 31


 1046              		.loc 1 614 19 is_stmt 0 view .LVU378
 1047 0000 0368     		ldr	r3, [r0]
 1048              		.loc 1 614 10 view .LVU379
 1049 0002 C3F30042 		ubfx	r2, r3, #16, #1
 1050              	.LVL136:
 615:Drivers/STM32G4xx_HAL_Driver/Src/stm32g4xx_hal_exti.c ****   /* compute line mask */
 616:Drivers/STM32G4xx_HAL_Driver/Src/stm32g4xx_hal_exti.c ****   maskline = (1uL << (hexti->Line & EXTI_PIN_MASK));
 1051              		.loc 1 616 3 is_stmt 1 view .LVU380
 1052              		.loc 1 616 35 is_stmt 0 view .LVU381
 1053 0006 03F01F03 		and	r3, r3, #31
 1054              		.loc 1 616 12 view .LVU382
 1055 000a 0121     		movs	r1, #1
 1056 000c 01FA03F3 		lsl	r3, r1, r3
 1057              	.LVL137:
 617:Drivers/STM32G4xx_HAL_Driver/Src/stm32g4xx_hal_exti.c **** 
 618:Drivers/STM32G4xx_HAL_Driver/Src/stm32g4xx_hal_exti.c ****   regaddr = (&EXTI->SWIER1 + (EXTI_CONFIG_OFFSET * offset));
 1058              		.loc 1 618 3 is_stmt 1 view .LVU383
 1059              		.loc 1 618 28 is_stmt 0 view .LVU384
 1060 0010 5201     		lsls	r2, r2, #5
 1061              	.LVL138:
 1062              		.loc 1 618 11 view .LVU385
 1063 0012 0149     		ldr	r1, .L69
 1064              	.LVL139:
 619:Drivers/STM32G4xx_HAL_Driver/Src/stm32g4xx_hal_exti.c ****   *regaddr = maskline;
 1065              		.loc 1 619 3 is_stmt 1 view .LVU386
 1066              		.loc 1 619 12 is_stmt 0 view .LVU387
 1067 0014 5350     		str	r3, [r2, r1]
 1068              	.LVL140:
 620:Drivers/STM32G4xx_HAL_Driver/Src/stm32g4xx_hal_exti.c **** }
 1069              		.loc 1 620 1 view .LVU388
 1070 0016 7047     		bx	lr
 1071              	.L70:
 1072              		.align	2
 1073              	.L69:
 1074 0018 10040140 		.word	1073808400
 1075              		.cfi_endproc
 1076              	.LFE140:
 1078              		.text
 1079              	.Letext0:
 1080              		.file 2 "/usr/lib/gcc/arm-none-eabi/9.2.1/include/stdint.h"
 1081              		.file 3 "Drivers/CMSIS/Include/core_cm4.h"
 1082              		.file 4 "Drivers/CMSIS/Device/ST/STM32G4xx/Include/system_stm32g4xx.h"
 1083              		.file 5 "Drivers/CMSIS/Device/ST/STM32G4xx/Include/stm32g431xx.h"
 1084              		.file 6 "Drivers/STM32G4xx_HAL_Driver/Inc/stm32g4xx_hal_def.h"
 1085              		.file 7 "Drivers/STM32G4xx_HAL_Driver/Inc/stm32g4xx_hal_exti.h"
 1086              		.file 8 "Drivers/STM32G4xx_HAL_Driver/Inc/stm32g4xx_hal_flash.h"
 1087              		.file 9 "Drivers/STM32G4xx_HAL_Driver/Inc/stm32g4xx_hal.h"
ARM GAS  /tmp/cc2NWssJ.s 			page 32

