ARM GAS  /tmp/ccdpni7p.s 			page 1


   1              		.cpu cortex-m4
   2              		.eabi_attribute 27, 1
   3              		.eabi_attribute 28, 1
   4              		.eabi_attribute 20, 1
   5              		.eabi_attribute 21, 1
   6              		.eabi_attribute 23, 3
   7              		.eabi_attribute 24, 1
   8              		.eabi_attribute 25, 1
   9              		.eabi_attribute 26, 1
  10              		.eabi_attribute 30, 1
  11              		.eabi_attribute 34, 1
  12              		.eabi_attribute 18, 4
  13              		.file	"stm32g4xx_hal_msp.c"
  14              		.text
  15              	.Ltext0:
  16              		.cfi_sections	.debug_frame
  17              		.section	.text.HAL_MspInit,"ax",%progbits
  18              		.align	1
  19              		.global	HAL_MspInit
  20              		.arch armv7e-m
  21              		.syntax unified
  22              		.thumb
  23              		.thumb_func
  24              		.fpu fpv4-sp-d16
  26              	HAL_MspInit:
  27              	.LFB1622:
  28              		.file 1 "Src/stm32g4xx_hal_msp.c"
   1:Src/stm32g4xx_hal_msp.c **** /* USER CODE BEGIN Header */
   2:Src/stm32g4xx_hal_msp.c **** /**
   3:Src/stm32g4xx_hal_msp.c ****   ******************************************************************************
   4:Src/stm32g4xx_hal_msp.c ****   * @file         stm32g4xx_hal_msp.c
   5:Src/stm32g4xx_hal_msp.c ****   * @brief        This file provides code for the MSP Initialization
   6:Src/stm32g4xx_hal_msp.c ****   *               and de-Initialization codes.
   7:Src/stm32g4xx_hal_msp.c ****   ******************************************************************************
   8:Src/stm32g4xx_hal_msp.c ****   * @attention
   9:Src/stm32g4xx_hal_msp.c ****   *
  10:Src/stm32g4xx_hal_msp.c ****   * Copyright (c) 2022 STMicroelectronics.
  11:Src/stm32g4xx_hal_msp.c ****   * All rights reserved.
  12:Src/stm32g4xx_hal_msp.c ****   *
  13:Src/stm32g4xx_hal_msp.c ****   * This software is licensed under terms that can be found in the LICENSE file
  14:Src/stm32g4xx_hal_msp.c ****   * in the root directory of this software component.
  15:Src/stm32g4xx_hal_msp.c ****   * If no LICENSE file comes with this software, it is provided AS-IS.
  16:Src/stm32g4xx_hal_msp.c ****   *
  17:Src/stm32g4xx_hal_msp.c ****   ******************************************************************************
  18:Src/stm32g4xx_hal_msp.c ****   */
  19:Src/stm32g4xx_hal_msp.c **** /* USER CODE END Header */
  20:Src/stm32g4xx_hal_msp.c **** 
  21:Src/stm32g4xx_hal_msp.c **** /* Includes ------------------------------------------------------------------*/
  22:Src/stm32g4xx_hal_msp.c **** #include "main.h"
  23:Src/stm32g4xx_hal_msp.c **** /* USER CODE BEGIN Includes */
  24:Src/stm32g4xx_hal_msp.c **** 
  25:Src/stm32g4xx_hal_msp.c **** /* USER CODE END Includes */
  26:Src/stm32g4xx_hal_msp.c **** 
  27:Src/stm32g4xx_hal_msp.c **** /* Private typedef -----------------------------------------------------------*/
  28:Src/stm32g4xx_hal_msp.c **** /* USER CODE BEGIN TD */
  29:Src/stm32g4xx_hal_msp.c **** 
  30:Src/stm32g4xx_hal_msp.c **** /* USER CODE END TD */
ARM GAS  /tmp/ccdpni7p.s 			page 2


  31:Src/stm32g4xx_hal_msp.c **** 
  32:Src/stm32g4xx_hal_msp.c **** /* Private define ------------------------------------------------------------*/
  33:Src/stm32g4xx_hal_msp.c **** /* USER CODE BEGIN Define */
  34:Src/stm32g4xx_hal_msp.c **** 
  35:Src/stm32g4xx_hal_msp.c **** /* USER CODE END Define */
  36:Src/stm32g4xx_hal_msp.c **** 
  37:Src/stm32g4xx_hal_msp.c **** /* Private macro -------------------------------------------------------------*/
  38:Src/stm32g4xx_hal_msp.c **** /* USER CODE BEGIN Macro */
  39:Src/stm32g4xx_hal_msp.c **** 
  40:Src/stm32g4xx_hal_msp.c **** /* USER CODE END Macro */
  41:Src/stm32g4xx_hal_msp.c **** 
  42:Src/stm32g4xx_hal_msp.c **** /* Private variables ---------------------------------------------------------*/
  43:Src/stm32g4xx_hal_msp.c **** /* USER CODE BEGIN PV */
  44:Src/stm32g4xx_hal_msp.c **** 
  45:Src/stm32g4xx_hal_msp.c **** /* USER CODE END PV */
  46:Src/stm32g4xx_hal_msp.c **** 
  47:Src/stm32g4xx_hal_msp.c **** /* Private function prototypes -----------------------------------------------*/
  48:Src/stm32g4xx_hal_msp.c **** /* USER CODE BEGIN PFP */
  49:Src/stm32g4xx_hal_msp.c **** 
  50:Src/stm32g4xx_hal_msp.c **** /* USER CODE END PFP */
  51:Src/stm32g4xx_hal_msp.c **** 
  52:Src/stm32g4xx_hal_msp.c **** /* External functions --------------------------------------------------------*/
  53:Src/stm32g4xx_hal_msp.c **** /* USER CODE BEGIN ExternalFunctions */
  54:Src/stm32g4xx_hal_msp.c **** 
  55:Src/stm32g4xx_hal_msp.c **** /* USER CODE END ExternalFunctions */
  56:Src/stm32g4xx_hal_msp.c **** 
  57:Src/stm32g4xx_hal_msp.c **** /* USER CODE BEGIN 0 */
  58:Src/stm32g4xx_hal_msp.c **** 
  59:Src/stm32g4xx_hal_msp.c **** /* USER CODE END 0 */
  60:Src/stm32g4xx_hal_msp.c **** /**
  61:Src/stm32g4xx_hal_msp.c ****   * Initializes the Global MSP.
  62:Src/stm32g4xx_hal_msp.c ****   */
  63:Src/stm32g4xx_hal_msp.c **** void HAL_MspInit(void)
  64:Src/stm32g4xx_hal_msp.c **** {
  29              		.loc 1 64 1 view -0
  30              		.cfi_startproc
  31              		@ args = 0, pretend = 0, frame = 8
  32              		@ frame_needed = 0, uses_anonymous_args = 0
  33 0000 00B5     		push	{lr}
  34              		.cfi_def_cfa_offset 4
  35              		.cfi_offset 14, -4
  36 0002 83B0     		sub	sp, sp, #12
  37              		.cfi_def_cfa_offset 16
  65:Src/stm32g4xx_hal_msp.c ****   /* USER CODE BEGIN MspInit 0 */
  66:Src/stm32g4xx_hal_msp.c **** 
  67:Src/stm32g4xx_hal_msp.c ****   /* USER CODE END MspInit 0 */
  68:Src/stm32g4xx_hal_msp.c **** 
  69:Src/stm32g4xx_hal_msp.c ****   __HAL_RCC_SYSCFG_CLK_ENABLE();
  38              		.loc 1 69 3 view .LVU1
  39              	.LBB2:
  40              		.loc 1 69 3 view .LVU2
  41              		.loc 1 69 3 view .LVU3
  42 0004 0D4B     		ldr	r3, .L3
  43 0006 1A6E     		ldr	r2, [r3, #96]
  44 0008 42F00102 		orr	r2, r2, #1
  45 000c 1A66     		str	r2, [r3, #96]
  46              		.loc 1 69 3 view .LVU4
ARM GAS  /tmp/ccdpni7p.s 			page 3


  47 000e 1A6E     		ldr	r2, [r3, #96]
  48 0010 02F00102 		and	r2, r2, #1
  49 0014 0092     		str	r2, [sp]
  50              		.loc 1 69 3 view .LVU5
  51 0016 009A     		ldr	r2, [sp]
  52              	.LBE2:
  53              		.loc 1 69 3 view .LVU6
  70:Src/stm32g4xx_hal_msp.c ****   __HAL_RCC_PWR_CLK_ENABLE();
  54              		.loc 1 70 3 view .LVU7
  55              	.LBB3:
  56              		.loc 1 70 3 view .LVU8
  57              		.loc 1 70 3 view .LVU9
  58 0018 9A6D     		ldr	r2, [r3, #88]
  59 001a 42F08052 		orr	r2, r2, #268435456
  60 001e 9A65     		str	r2, [r3, #88]
  61              		.loc 1 70 3 view .LVU10
  62 0020 9B6D     		ldr	r3, [r3, #88]
  63 0022 03F08053 		and	r3, r3, #268435456
  64 0026 0193     		str	r3, [sp, #4]
  65              		.loc 1 70 3 view .LVU11
  66 0028 019B     		ldr	r3, [sp, #4]
  67              	.LBE3:
  68              		.loc 1 70 3 view .LVU12
  71:Src/stm32g4xx_hal_msp.c **** 
  72:Src/stm32g4xx_hal_msp.c ****   HAL_NVIC_SetPriorityGrouping(NVIC_PRIORITYGROUP_3);
  69              		.loc 1 72 3 view .LVU13
  70 002a 0420     		movs	r0, #4
  71 002c FFF7FEFF 		bl	HAL_NVIC_SetPriorityGrouping
  72              	.LVL0:
  73:Src/stm32g4xx_hal_msp.c **** 
  74:Src/stm32g4xx_hal_msp.c ****   /* System interrupt init*/
  75:Src/stm32g4xx_hal_msp.c **** 
  76:Src/stm32g4xx_hal_msp.c ****   /** Disable the internal Pull-Up in Dead Battery pins of UCPD peripheral
  77:Src/stm32g4xx_hal_msp.c ****   */
  78:Src/stm32g4xx_hal_msp.c ****   HAL_PWREx_DisableUCPDDeadBattery();
  73              		.loc 1 78 3 view .LVU14
  74 0030 FFF7FEFF 		bl	HAL_PWREx_DisableUCPDDeadBattery
  75              	.LVL1:
  79:Src/stm32g4xx_hal_msp.c **** 
  80:Src/stm32g4xx_hal_msp.c ****   /* USER CODE BEGIN MspInit 1 */
  81:Src/stm32g4xx_hal_msp.c **** 
  82:Src/stm32g4xx_hal_msp.c ****   /* USER CODE END MspInit 1 */
  83:Src/stm32g4xx_hal_msp.c **** }
  76              		.loc 1 83 1 is_stmt 0 view .LVU15
  77 0034 03B0     		add	sp, sp, #12
  78              		.cfi_def_cfa_offset 4
  79              		@ sp needed
  80 0036 5DF804FB 		ldr	pc, [sp], #4
  81              	.L4:
  82 003a 00BF     		.align	2
  83              	.L3:
  84 003c 00100240 		.word	1073876992
  85              		.cfi_endproc
  86              	.LFE1622:
  88              		.section	.text.HAL_TIM_Encoder_MspInit,"ax",%progbits
  89              		.align	1
  90              		.global	HAL_TIM_Encoder_MspInit
ARM GAS  /tmp/ccdpni7p.s 			page 4


  91              		.syntax unified
  92              		.thumb
  93              		.thumb_func
  94              		.fpu fpv4-sp-d16
  96              	HAL_TIM_Encoder_MspInit:
  97              	.LVL2:
  98              	.LFB1623:
  84:Src/stm32g4xx_hal_msp.c **** 
  85:Src/stm32g4xx_hal_msp.c **** /**
  86:Src/stm32g4xx_hal_msp.c **** * @brief TIM_Encoder MSP Initialization
  87:Src/stm32g4xx_hal_msp.c **** * This function configures the hardware resources used in this example
  88:Src/stm32g4xx_hal_msp.c **** * @param htim_encoder: TIM_Encoder handle pointer
  89:Src/stm32g4xx_hal_msp.c **** * @retval None
  90:Src/stm32g4xx_hal_msp.c **** */
  91:Src/stm32g4xx_hal_msp.c **** void HAL_TIM_Encoder_MspInit(TIM_HandleTypeDef* htim_encoder)
  92:Src/stm32g4xx_hal_msp.c **** {
  99              		.loc 1 92 1 is_stmt 1 view -0
 100              		.cfi_startproc
 101              		@ args = 0, pretend = 0, frame = 32
 102              		@ frame_needed = 0, uses_anonymous_args = 0
 103              		.loc 1 92 1 is_stmt 0 view .LVU17
 104 0000 00B5     		push	{lr}
 105              		.cfi_def_cfa_offset 4
 106              		.cfi_offset 14, -4
 107 0002 89B0     		sub	sp, sp, #36
 108              		.cfi_def_cfa_offset 40
  93:Src/stm32g4xx_hal_msp.c ****   GPIO_InitTypeDef GPIO_InitStruct = {0};
 109              		.loc 1 93 3 is_stmt 1 view .LVU18
 110              		.loc 1 93 20 is_stmt 0 view .LVU19
 111 0004 0023     		movs	r3, #0
 112 0006 0393     		str	r3, [sp, #12]
 113 0008 0493     		str	r3, [sp, #16]
 114 000a 0593     		str	r3, [sp, #20]
 115 000c 0693     		str	r3, [sp, #24]
 116 000e 0793     		str	r3, [sp, #28]
  94:Src/stm32g4xx_hal_msp.c ****   if(htim_encoder->Instance==TIM4)
 117              		.loc 1 94 3 is_stmt 1 view .LVU20
 118              		.loc 1 94 18 is_stmt 0 view .LVU21
 119 0010 0268     		ldr	r2, [r0]
 120              		.loc 1 94 5 view .LVU22
 121 0012 134B     		ldr	r3, .L9
 122 0014 9A42     		cmp	r2, r3
 123 0016 02D0     		beq	.L8
 124              	.LVL3:
 125              	.L5:
  95:Src/stm32g4xx_hal_msp.c ****   {
  96:Src/stm32g4xx_hal_msp.c ****   /* USER CODE BEGIN TIM4_MspInit 0 */
  97:Src/stm32g4xx_hal_msp.c **** 
  98:Src/stm32g4xx_hal_msp.c ****   /* USER CODE END TIM4_MspInit 0 */
  99:Src/stm32g4xx_hal_msp.c ****     /* Peripheral clock enable */
 100:Src/stm32g4xx_hal_msp.c ****     __HAL_RCC_TIM4_CLK_ENABLE();
 101:Src/stm32g4xx_hal_msp.c **** 
 102:Src/stm32g4xx_hal_msp.c ****     __HAL_RCC_GPIOB_CLK_ENABLE();
 103:Src/stm32g4xx_hal_msp.c ****     /**TIM4 GPIO Configuration
 104:Src/stm32g4xx_hal_msp.c ****     PB6     ------> TIM4_CH1
 105:Src/stm32g4xx_hal_msp.c ****     PB7     ------> TIM4_CH2
 106:Src/stm32g4xx_hal_msp.c ****     */
ARM GAS  /tmp/ccdpni7p.s 			page 5


 107:Src/stm32g4xx_hal_msp.c ****     GPIO_InitStruct.Pin = GPIO_PIN_6|GPIO_PIN_7;
 108:Src/stm32g4xx_hal_msp.c ****     GPIO_InitStruct.Mode = GPIO_MODE_AF_PP;
 109:Src/stm32g4xx_hal_msp.c ****     GPIO_InitStruct.Pull = GPIO_NOPULL;
 110:Src/stm32g4xx_hal_msp.c ****     GPIO_InitStruct.Speed = GPIO_SPEED_FREQ_LOW;
 111:Src/stm32g4xx_hal_msp.c ****     GPIO_InitStruct.Alternate = GPIO_AF2_TIM4;
 112:Src/stm32g4xx_hal_msp.c ****     HAL_GPIO_Init(GPIOB, &GPIO_InitStruct);
 113:Src/stm32g4xx_hal_msp.c **** 
 114:Src/stm32g4xx_hal_msp.c ****   /* USER CODE BEGIN TIM4_MspInit 1 */
 115:Src/stm32g4xx_hal_msp.c **** 
 116:Src/stm32g4xx_hal_msp.c ****   /* USER CODE END TIM4_MspInit 1 */
 117:Src/stm32g4xx_hal_msp.c ****   }
 118:Src/stm32g4xx_hal_msp.c **** 
 119:Src/stm32g4xx_hal_msp.c **** }
 126              		.loc 1 119 1 view .LVU23
 127 0018 09B0     		add	sp, sp, #36
 128              		.cfi_remember_state
 129              		.cfi_def_cfa_offset 4
 130              		@ sp needed
 131 001a 5DF804FB 		ldr	pc, [sp], #4
 132              	.LVL4:
 133              	.L8:
 134              		.cfi_restore_state
 100:Src/stm32g4xx_hal_msp.c **** 
 135              		.loc 1 100 5 is_stmt 1 view .LVU24
 136              	.LBB4:
 100:Src/stm32g4xx_hal_msp.c **** 
 137              		.loc 1 100 5 view .LVU25
 100:Src/stm32g4xx_hal_msp.c **** 
 138              		.loc 1 100 5 view .LVU26
 139 001e 03F50233 		add	r3, r3, #133120
 140 0022 9A6D     		ldr	r2, [r3, #88]
 141 0024 42F00402 		orr	r2, r2, #4
 142 0028 9A65     		str	r2, [r3, #88]
 100:Src/stm32g4xx_hal_msp.c **** 
 143              		.loc 1 100 5 view .LVU27
 144 002a 9A6D     		ldr	r2, [r3, #88]
 145 002c 02F00402 		and	r2, r2, #4
 146 0030 0192     		str	r2, [sp, #4]
 100:Src/stm32g4xx_hal_msp.c **** 
 147              		.loc 1 100 5 view .LVU28
 148 0032 019A     		ldr	r2, [sp, #4]
 149              	.LBE4:
 100:Src/stm32g4xx_hal_msp.c **** 
 150              		.loc 1 100 5 view .LVU29
 102:Src/stm32g4xx_hal_msp.c ****     /**TIM4 GPIO Configuration
 151              		.loc 1 102 5 view .LVU30
 152              	.LBB5:
 102:Src/stm32g4xx_hal_msp.c ****     /**TIM4 GPIO Configuration
 153              		.loc 1 102 5 view .LVU31
 102:Src/stm32g4xx_hal_msp.c ****     /**TIM4 GPIO Configuration
 154              		.loc 1 102 5 view .LVU32
 155 0034 DA6C     		ldr	r2, [r3, #76]
 156 0036 42F00202 		orr	r2, r2, #2
 157 003a DA64     		str	r2, [r3, #76]
 102:Src/stm32g4xx_hal_msp.c ****     /**TIM4 GPIO Configuration
 158              		.loc 1 102 5 view .LVU33
 159 003c DB6C     		ldr	r3, [r3, #76]
ARM GAS  /tmp/ccdpni7p.s 			page 6


 160 003e 03F00203 		and	r3, r3, #2
 161 0042 0293     		str	r3, [sp, #8]
 102:Src/stm32g4xx_hal_msp.c ****     /**TIM4 GPIO Configuration
 162              		.loc 1 102 5 view .LVU34
 163 0044 029B     		ldr	r3, [sp, #8]
 164              	.LBE5:
 102:Src/stm32g4xx_hal_msp.c ****     /**TIM4 GPIO Configuration
 165              		.loc 1 102 5 view .LVU35
 107:Src/stm32g4xx_hal_msp.c ****     GPIO_InitStruct.Mode = GPIO_MODE_AF_PP;
 166              		.loc 1 107 5 view .LVU36
 107:Src/stm32g4xx_hal_msp.c ****     GPIO_InitStruct.Mode = GPIO_MODE_AF_PP;
 167              		.loc 1 107 25 is_stmt 0 view .LVU37
 168 0046 C023     		movs	r3, #192
 169 0048 0393     		str	r3, [sp, #12]
 108:Src/stm32g4xx_hal_msp.c ****     GPIO_InitStruct.Pull = GPIO_NOPULL;
 170              		.loc 1 108 5 is_stmt 1 view .LVU38
 108:Src/stm32g4xx_hal_msp.c ****     GPIO_InitStruct.Pull = GPIO_NOPULL;
 171              		.loc 1 108 26 is_stmt 0 view .LVU39
 172 004a 0223     		movs	r3, #2
 173 004c 0493     		str	r3, [sp, #16]
 109:Src/stm32g4xx_hal_msp.c ****     GPIO_InitStruct.Speed = GPIO_SPEED_FREQ_LOW;
 174              		.loc 1 109 5 is_stmt 1 view .LVU40
 109:Src/stm32g4xx_hal_msp.c ****     GPIO_InitStruct.Speed = GPIO_SPEED_FREQ_LOW;
 175              		.loc 1 109 26 is_stmt 0 view .LVU41
 176 004e 0022     		movs	r2, #0
 177 0050 0592     		str	r2, [sp, #20]
 110:Src/stm32g4xx_hal_msp.c ****     GPIO_InitStruct.Alternate = GPIO_AF2_TIM4;
 178              		.loc 1 110 5 is_stmt 1 view .LVU42
 110:Src/stm32g4xx_hal_msp.c ****     GPIO_InitStruct.Alternate = GPIO_AF2_TIM4;
 179              		.loc 1 110 27 is_stmt 0 view .LVU43
 180 0052 0692     		str	r2, [sp, #24]
 111:Src/stm32g4xx_hal_msp.c ****     HAL_GPIO_Init(GPIOB, &GPIO_InitStruct);
 181              		.loc 1 111 5 is_stmt 1 view .LVU44
 111:Src/stm32g4xx_hal_msp.c ****     HAL_GPIO_Init(GPIOB, &GPIO_InitStruct);
 182              		.loc 1 111 31 is_stmt 0 view .LVU45
 183 0054 0793     		str	r3, [sp, #28]
 112:Src/stm32g4xx_hal_msp.c **** 
 184              		.loc 1 112 5 is_stmt 1 view .LVU46
 185 0056 03A9     		add	r1, sp, #12
 186 0058 0248     		ldr	r0, .L9+4
 187              	.LVL5:
 112:Src/stm32g4xx_hal_msp.c **** 
 188              		.loc 1 112 5 is_stmt 0 view .LVU47
 189 005a FFF7FEFF 		bl	HAL_GPIO_Init
 190              	.LVL6:
 191              		.loc 1 119 1 view .LVU48
 192 005e DBE7     		b	.L5
 193              	.L10:
 194              		.align	2
 195              	.L9:
 196 0060 00080040 		.word	1073743872
 197 0064 00040048 		.word	1207960576
 198              		.cfi_endproc
 199              	.LFE1623:
 201              		.section	.text.HAL_TIM_Encoder_MspDeInit,"ax",%progbits
 202              		.align	1
 203              		.global	HAL_TIM_Encoder_MspDeInit
ARM GAS  /tmp/ccdpni7p.s 			page 7


 204              		.syntax unified
 205              		.thumb
 206              		.thumb_func
 207              		.fpu fpv4-sp-d16
 209              	HAL_TIM_Encoder_MspDeInit:
 210              	.LVL7:
 211              	.LFB1624:
 120:Src/stm32g4xx_hal_msp.c **** 
 121:Src/stm32g4xx_hal_msp.c **** /**
 122:Src/stm32g4xx_hal_msp.c **** * @brief TIM_Encoder MSP De-Initialization
 123:Src/stm32g4xx_hal_msp.c **** * This function freeze the hardware resources used in this example
 124:Src/stm32g4xx_hal_msp.c **** * @param htim_encoder: TIM_Encoder handle pointer
 125:Src/stm32g4xx_hal_msp.c **** * @retval None
 126:Src/stm32g4xx_hal_msp.c **** */
 127:Src/stm32g4xx_hal_msp.c **** void HAL_TIM_Encoder_MspDeInit(TIM_HandleTypeDef* htim_encoder)
 128:Src/stm32g4xx_hal_msp.c **** {
 212              		.loc 1 128 1 is_stmt 1 view -0
 213              		.cfi_startproc
 214              		@ args = 0, pretend = 0, frame = 0
 215              		@ frame_needed = 0, uses_anonymous_args = 0
 216              		.loc 1 128 1 is_stmt 0 view .LVU50
 217 0000 08B5     		push	{r3, lr}
 218              		.cfi_def_cfa_offset 8
 219              		.cfi_offset 3, -8
 220              		.cfi_offset 14, -4
 129:Src/stm32g4xx_hal_msp.c ****   if(htim_encoder->Instance==TIM4)
 221              		.loc 1 129 3 is_stmt 1 view .LVU51
 222              		.loc 1 129 18 is_stmt 0 view .LVU52
 223 0002 0268     		ldr	r2, [r0]
 224              		.loc 1 129 5 view .LVU53
 225 0004 064B     		ldr	r3, .L15
 226 0006 9A42     		cmp	r2, r3
 227 0008 00D0     		beq	.L14
 228              	.LVL8:
 229              	.L11:
 130:Src/stm32g4xx_hal_msp.c ****   {
 131:Src/stm32g4xx_hal_msp.c ****   /* USER CODE BEGIN TIM4_MspDeInit 0 */
 132:Src/stm32g4xx_hal_msp.c **** 
 133:Src/stm32g4xx_hal_msp.c ****   /* USER CODE END TIM4_MspDeInit 0 */
 134:Src/stm32g4xx_hal_msp.c ****     /* Peripheral clock disable */
 135:Src/stm32g4xx_hal_msp.c ****     __HAL_RCC_TIM4_CLK_DISABLE();
 136:Src/stm32g4xx_hal_msp.c **** 
 137:Src/stm32g4xx_hal_msp.c ****     /**TIM4 GPIO Configuration
 138:Src/stm32g4xx_hal_msp.c ****     PB6     ------> TIM4_CH1
 139:Src/stm32g4xx_hal_msp.c ****     PB7     ------> TIM4_CH2
 140:Src/stm32g4xx_hal_msp.c ****     */
 141:Src/stm32g4xx_hal_msp.c ****     HAL_GPIO_DeInit(GPIOB, GPIO_PIN_6|GPIO_PIN_7);
 142:Src/stm32g4xx_hal_msp.c **** 
 143:Src/stm32g4xx_hal_msp.c ****   /* USER CODE BEGIN TIM4_MspDeInit 1 */
 144:Src/stm32g4xx_hal_msp.c **** 
 145:Src/stm32g4xx_hal_msp.c ****   /* USER CODE END TIM4_MspDeInit 1 */
 146:Src/stm32g4xx_hal_msp.c ****   }
 147:Src/stm32g4xx_hal_msp.c **** 
 148:Src/stm32g4xx_hal_msp.c **** }
 230              		.loc 1 148 1 view .LVU54
 231 000a 08BD     		pop	{r3, pc}
 232              	.LVL9:
ARM GAS  /tmp/ccdpni7p.s 			page 8


 233              	.L14:
 135:Src/stm32g4xx_hal_msp.c **** 
 234              		.loc 1 135 5 is_stmt 1 view .LVU55
 235 000c 054A     		ldr	r2, .L15+4
 236 000e 936D     		ldr	r3, [r2, #88]
 237 0010 23F00403 		bic	r3, r3, #4
 238 0014 9365     		str	r3, [r2, #88]
 141:Src/stm32g4xx_hal_msp.c **** 
 239              		.loc 1 141 5 view .LVU56
 240 0016 C021     		movs	r1, #192
 241 0018 0348     		ldr	r0, .L15+8
 242              	.LVL10:
 141:Src/stm32g4xx_hal_msp.c **** 
 243              		.loc 1 141 5 is_stmt 0 view .LVU57
 244 001a FFF7FEFF 		bl	HAL_GPIO_DeInit
 245              	.LVL11:
 246              		.loc 1 148 1 view .LVU58
 247 001e F4E7     		b	.L11
 248              	.L16:
 249              		.align	2
 250              	.L15:
 251 0020 00080040 		.word	1073743872
 252 0024 00100240 		.word	1073876992
 253 0028 00040048 		.word	1207960576
 254              		.cfi_endproc
 255              	.LFE1624:
 257              		.text
 258              	.Letext0:
 259              		.file 2 "/usr/lib/gcc/arm-none-eabi/9.2.1/include/stdint.h"
 260              		.file 3 "Drivers/CMSIS/Include/core_cm4.h"
 261              		.file 4 "Drivers/CMSIS/Device/ST/STM32G4xx/Include/system_stm32g4xx.h"
 262              		.file 5 "Drivers/CMSIS/Device/ST/STM32G4xx/Include/stm32g431xx.h"
 263              		.file 6 "Drivers/STM32G4xx_HAL_Driver/Inc/stm32g4xx_hal_def.h"
 264              		.file 7 "Drivers/STM32G4xx_HAL_Driver/Inc/stm32g4xx_hal_gpio.h"
 265              		.file 8 "Drivers/STM32G4xx_HAL_Driver/Inc/stm32g4xx_hal_dma.h"
 266              		.file 9 "Drivers/STM32G4xx_HAL_Driver/Inc/stm32g4xx_hal_flash.h"
 267              		.file 10 "Drivers/STM32G4xx_HAL_Driver/Inc/stm32g4xx_hal_tim.h"
 268              		.file 11 "Drivers/STM32G4xx_HAL_Driver/Inc/stm32g4xx_hal.h"
 269              		.file 12 "Drivers/STM32G4xx_HAL_Driver/Inc/stm32g4xx_ll_tim.h"
 270              		.file 13 "Drivers/STM32G4xx_HAL_Driver/Inc/stm32g4xx_ll_usart.h"
 271              		.file 14 "Drivers/STM32G4xx_HAL_Driver/Inc/stm32g4xx_ll_dma.h"
 272              		.file 15 "MCSDK_v6.0.0-Full/MotorControl/MCSDK/MCLib/Any/Inc/mc_type.h"
 273              		.file 16 "MCSDK_v6.0.0-Full/MotorControl/MCSDK/MCLib/Any/Inc/pid_regulator.h"
 274              		.file 17 "MCSDK_v6.0.0-Full/MotorControl/MCSDK/MCLib/Any/Inc/speed_pos_fdbk.h"
 275              		.file 18 "MCSDK_v6.0.0-Full/MotorControl/MCSDK/MCLib/Any/Inc/speed_torq_ctrl.h"
 276              		.file 19 "MCSDK_v6.0.0-Full/MotorControl/MCSDK/MCLib/Any/Inc/virtual_speed_sensor.h"
 277              		.file 20 "Inc/regular_conversion_manager.h"
 278              		.file 21 "MCSDK_v6.0.0-Full/MotorControl/MCSDK/MCLib/Any/Inc/ntc_temperature_sensor.h"
 279              		.file 22 "MCSDK_v6.0.0-Full/MotorControl/MCSDK/MCLib/Any/Inc/sto_speed_pos_fdbk.h"
 280              		.file 23 "MCSDK_v6.0.0-Full/MotorControl/MCSDK/MCLib/Any/Inc/pwm_curr_fdbk.h"
 281              		.file 24 "MCSDK_v6.0.0-Full/MotorControl/MCSDK/MCLib/Any/Inc/revup_ctrl.h"
 282              		.file 25 "Inc/mc_interface.h"
 283              		.file 26 "Inc/mc_configuration_registers.h"
 284              		.file 27 "MCSDK_v6.0.0-Full/MotorControl/MCSDK/MCLib/Any/Inc/bus_voltage_sensor.h"
 285              		.file 28 "MCSDK_v6.0.0-Full/MotorControl/MCSDK/MCLib/Any/Inc/r_divider_bus_voltage_sensor.h"
 286              		.file 29 "MCSDK_v6.0.0-Full/MotorControl/MCSDK/MCLib/Any/Inc/pqd_motor_power_measurement.h"
 287              		.file 30 "MCSDK_v6.0.0-Full/MotorControl/MCSDK/MCLib/G4xx/Inc/r3_2_g4xx_pwm_curr_fdbk.h"
ARM GAS  /tmp/ccdpni7p.s 			page 9


 288              		.file 31 "MCSDK_v6.0.0-Full/MotorControl/MCSDK/MCLib/Any/Inc/ramp_ext_mngr.h"
 289              		.file 32 "MCSDK_v6.0.0-Full/MotorControl/MCSDK/MCLib/Any/Inc/circle_limitation.h"
 290              		.file 33 "MCSDK_v6.0.0-Full/MotorControl/MCSDK/MCLib/Any/Inc/sto_pll_speed_pos_fdbk.h"
 291              		.file 34 "MCSDK_v6.0.0-Full/MotorControl/MCSDK/MCLib/Any/Inc/sto_cordic_speed_pos_fdbk.h"
 292              		.file 35 "Inc/mc_config.h"
 293              		.file 36 "Drivers/STM32G4xx_HAL_Driver/Inc/stm32g4xx_hal_cortex.h"
 294              		.file 37 "Drivers/STM32G4xx_HAL_Driver/Inc/stm32g4xx_hal_pwr_ex.h"
ARM GAS  /tmp/ccdpni7p.s 			page 10

