ARM GAS  /tmp/ccDchrQO.s 			page 1


   1              		.cpu cortex-m4
   2              		.eabi_attribute 27, 1
   3              		.eabi_attribute 28, 1
   4              		.eabi_attribute 20, 1
   5              		.eabi_attribute 21, 1
   6              		.eabi_attribute 23, 3
   7              		.eabi_attribute 24, 1
   8              		.eabi_attribute 25, 1
   9              		.eabi_attribute 26, 1
  10              		.eabi_attribute 30, 1
  11              		.eabi_attribute 34, 1
  12              		.eabi_attribute 18, 4
  13              		.file	"sto_pll_speed_pos_fdbk.c"
  14              		.text
  15              	.Ltext0:
  16              		.cfi_sections	.debug_frame
  17              		.section	.text.STO_InitSpeedBuffer,"ax",%progbits
  18              		.align	1
  19              		.arch armv7e-m
  20              		.syntax unified
  21              		.thumb
  22              		.thumb_func
  23              		.fpu fpv4-sp-d16
  25              	STO_InitSpeedBuffer:
  26              	.LVL0:
  27              	.LFB1445:
  28              		.file 1 "MCSDK_v6.1.0-Full/MotorControl/MCSDK/MCLib/Any/Src/sto_pll_speed_pos_fdbk.c"
   1:MCSDK_v6.1.0-Full/MotorControl/MCSDK/MCLib/Any/Src/sto_pll_speed_pos_fdbk.c **** /**
   2:MCSDK_v6.1.0-Full/MotorControl/MCSDK/MCLib/Any/Src/sto_pll_speed_pos_fdbk.c ****   ******************************************************************************
   3:MCSDK_v6.1.0-Full/MotorControl/MCSDK/MCLib/Any/Src/sto_pll_speed_pos_fdbk.c ****   * @file    sto_pll_speed_pos_fdbk.c
   4:MCSDK_v6.1.0-Full/MotorControl/MCSDK/MCLib/Any/Src/sto_pll_speed_pos_fdbk.c ****   * @author  Motor Control SDK Team, ST Microelectronics
   5:MCSDK_v6.1.0-Full/MotorControl/MCSDK/MCLib/Any/Src/sto_pll_speed_pos_fdbk.c ****   * @brief   This file provides firmware functions that implement the features
   6:MCSDK_v6.1.0-Full/MotorControl/MCSDK/MCLib/Any/Src/sto_pll_speed_pos_fdbk.c ****   *          of the State Observer + PLL Speed & Position Feedback component of the
   7:MCSDK_v6.1.0-Full/MotorControl/MCSDK/MCLib/Any/Src/sto_pll_speed_pos_fdbk.c ****   *          Motor Control SDK.
   8:MCSDK_v6.1.0-Full/MotorControl/MCSDK/MCLib/Any/Src/sto_pll_speed_pos_fdbk.c ****   *
   9:MCSDK_v6.1.0-Full/MotorControl/MCSDK/MCLib/Any/Src/sto_pll_speed_pos_fdbk.c ****   ******************************************************************************
  10:MCSDK_v6.1.0-Full/MotorControl/MCSDK/MCLib/Any/Src/sto_pll_speed_pos_fdbk.c ****   * @attention
  11:MCSDK_v6.1.0-Full/MotorControl/MCSDK/MCLib/Any/Src/sto_pll_speed_pos_fdbk.c ****   *
  12:MCSDK_v6.1.0-Full/MotorControl/MCSDK/MCLib/Any/Src/sto_pll_speed_pos_fdbk.c ****   * <h2><center>&copy; Copyright (c) 2022 STMicroelectronics.
  13:MCSDK_v6.1.0-Full/MotorControl/MCSDK/MCLib/Any/Src/sto_pll_speed_pos_fdbk.c ****   * All rights reserved.</center></h2>
  14:MCSDK_v6.1.0-Full/MotorControl/MCSDK/MCLib/Any/Src/sto_pll_speed_pos_fdbk.c ****   *
  15:MCSDK_v6.1.0-Full/MotorControl/MCSDK/MCLib/Any/Src/sto_pll_speed_pos_fdbk.c ****   * This software component is licensed by ST under Ultimate Liberty license
  16:MCSDK_v6.1.0-Full/MotorControl/MCSDK/MCLib/Any/Src/sto_pll_speed_pos_fdbk.c ****   * SLA0044, the "License"; You may not use this file except in compliance with
  17:MCSDK_v6.1.0-Full/MotorControl/MCSDK/MCLib/Any/Src/sto_pll_speed_pos_fdbk.c ****   * the License. You may obtain a copy of the License at:
  18:MCSDK_v6.1.0-Full/MotorControl/MCSDK/MCLib/Any/Src/sto_pll_speed_pos_fdbk.c ****   *                             www.st.com/SLA0044
  19:MCSDK_v6.1.0-Full/MotorControl/MCSDK/MCLib/Any/Src/sto_pll_speed_pos_fdbk.c ****   *
  20:MCSDK_v6.1.0-Full/MotorControl/MCSDK/MCLib/Any/Src/sto_pll_speed_pos_fdbk.c ****   ******************************************************************************
  21:MCSDK_v6.1.0-Full/MotorControl/MCSDK/MCLib/Any/Src/sto_pll_speed_pos_fdbk.c ****   * @ingroup SpeednPosFdbk_STO_PLL
  22:MCSDK_v6.1.0-Full/MotorControl/MCSDK/MCLib/Any/Src/sto_pll_speed_pos_fdbk.c ****   */
  23:MCSDK_v6.1.0-Full/MotorControl/MCSDK/MCLib/Any/Src/sto_pll_speed_pos_fdbk.c **** 
  24:MCSDK_v6.1.0-Full/MotorControl/MCSDK/MCLib/Any/Src/sto_pll_speed_pos_fdbk.c **** /* Includes ------------------------------------------------------------------*/
  25:MCSDK_v6.1.0-Full/MotorControl/MCSDK/MCLib/Any/Src/sto_pll_speed_pos_fdbk.c **** #include "sto_pll_speed_pos_fdbk.h"
  26:MCSDK_v6.1.0-Full/MotorControl/MCSDK/MCLib/Any/Src/sto_pll_speed_pos_fdbk.c **** #include "mc_math.h"
  27:MCSDK_v6.1.0-Full/MotorControl/MCSDK/MCLib/Any/Src/sto_pll_speed_pos_fdbk.c **** 
  28:MCSDK_v6.1.0-Full/MotorControl/MCSDK/MCLib/Any/Src/sto_pll_speed_pos_fdbk.c **** 
  29:MCSDK_v6.1.0-Full/MotorControl/MCSDK/MCLib/Any/Src/sto_pll_speed_pos_fdbk.c **** 
  30:MCSDK_v6.1.0-Full/MotorControl/MCSDK/MCLib/Any/Src/sto_pll_speed_pos_fdbk.c **** /** @addtogroup MCSDK
ARM GAS  /tmp/ccDchrQO.s 			page 2


  31:MCSDK_v6.1.0-Full/MotorControl/MCSDK/MCLib/Any/Src/sto_pll_speed_pos_fdbk.c ****   * @{
  32:MCSDK_v6.1.0-Full/MotorControl/MCSDK/MCLib/Any/Src/sto_pll_speed_pos_fdbk.c ****   */
  33:MCSDK_v6.1.0-Full/MotorControl/MCSDK/MCLib/Any/Src/sto_pll_speed_pos_fdbk.c **** 
  34:MCSDK_v6.1.0-Full/MotorControl/MCSDK/MCLib/Any/Src/sto_pll_speed_pos_fdbk.c **** /** @addtogroup SpeednPosFdbk
  35:MCSDK_v6.1.0-Full/MotorControl/MCSDK/MCLib/Any/Src/sto_pll_speed_pos_fdbk.c ****   * @{
  36:MCSDK_v6.1.0-Full/MotorControl/MCSDK/MCLib/Any/Src/sto_pll_speed_pos_fdbk.c ****   */
  37:MCSDK_v6.1.0-Full/MotorControl/MCSDK/MCLib/Any/Src/sto_pll_speed_pos_fdbk.c **** 
  38:MCSDK_v6.1.0-Full/MotorControl/MCSDK/MCLib/Any/Src/sto_pll_speed_pos_fdbk.c **** /**
  39:MCSDK_v6.1.0-Full/MotorControl/MCSDK/MCLib/Any/Src/sto_pll_speed_pos_fdbk.c ****   * @defgroup SpeednPosFdbk_STO_PLL State Observer PLL Speed & Position Feedback
  40:MCSDK_v6.1.0-Full/MotorControl/MCSDK/MCLib/Any/Src/sto_pll_speed_pos_fdbk.c ****   * @brief State Observer with PLL Speed & Position Feedback component of MCSDK
  41:MCSDK_v6.1.0-Full/MotorControl/MCSDK/MCLib/Any/Src/sto_pll_speed_pos_fdbk.c ****   *
  42:MCSDK_v6.1.0-Full/MotorControl/MCSDK/MCLib/Any/Src/sto_pll_speed_pos_fdbk.c ****   * This component uses a State Observer coupled with a software PLL to provide an estimation of
  43:MCSDK_v6.1.0-Full/MotorControl/MCSDK/MCLib/Any/Src/sto_pll_speed_pos_fdbk.c ****   * the speed and the position of the rotor of the motor.
  44:MCSDK_v6.1.0-Full/MotorControl/MCSDK/MCLib/Any/Src/sto_pll_speed_pos_fdbk.c ****   *
  45:MCSDK_v6.1.0-Full/MotorControl/MCSDK/MCLib/Any/Src/sto_pll_speed_pos_fdbk.c ****   * See the [Speed & position feedback sensorless chapter of the User Manual](speed_pos_sensorless_
  46:MCSDK_v6.1.0-Full/MotorControl/MCSDK/MCLib/Any/Src/sto_pll_speed_pos_fdbk.c ****   * @{
  47:MCSDK_v6.1.0-Full/MotorControl/MCSDK/MCLib/Any/Src/sto_pll_speed_pos_fdbk.c ****   */
  48:MCSDK_v6.1.0-Full/MotorControl/MCSDK/MCLib/Any/Src/sto_pll_speed_pos_fdbk.c **** 
  49:MCSDK_v6.1.0-Full/MotorControl/MCSDK/MCLib/Any/Src/sto_pll_speed_pos_fdbk.c **** /* Private defines -----------------------------------------------------------*/
  50:MCSDK_v6.1.0-Full/MotorControl/MCSDK/MCLib/Any/Src/sto_pll_speed_pos_fdbk.c **** #define C6_COMP_CONST1  ((int32_t)1043038)
  51:MCSDK_v6.1.0-Full/MotorControl/MCSDK/MCLib/Any/Src/sto_pll_speed_pos_fdbk.c **** #define C6_COMP_CONST2  ((int32_t)10430)
  52:MCSDK_v6.1.0-Full/MotorControl/MCSDK/MCLib/Any/Src/sto_pll_speed_pos_fdbk.c **** 
  53:MCSDK_v6.1.0-Full/MotorControl/MCSDK/MCLib/Any/Src/sto_pll_speed_pos_fdbk.c **** /* Private function prototypes -----------------------------------------------*/
  54:MCSDK_v6.1.0-Full/MotorControl/MCSDK/MCLib/Any/Src/sto_pll_speed_pos_fdbk.c **** static void STO_Store_Rotor_Speed(STO_PLL_Handle_t *pHandle, int16_t hRotor_Speed);
  55:MCSDK_v6.1.0-Full/MotorControl/MCSDK/MCLib/Any/Src/sto_pll_speed_pos_fdbk.c **** static int16_t STO_ExecutePLL(STO_PLL_Handle_t *pHandle, int16_t hBemf_alfa_est, int16_t hBemf_beta
  56:MCSDK_v6.1.0-Full/MotorControl/MCSDK/MCLib/Any/Src/sto_pll_speed_pos_fdbk.c **** static void STO_InitSpeedBuffer(STO_PLL_Handle_t *pHandle);
  57:MCSDK_v6.1.0-Full/MotorControl/MCSDK/MCLib/Any/Src/sto_pll_speed_pos_fdbk.c **** 
  58:MCSDK_v6.1.0-Full/MotorControl/MCSDK/MCLib/Any/Src/sto_pll_speed_pos_fdbk.c **** 
  59:MCSDK_v6.1.0-Full/MotorControl/MCSDK/MCLib/Any/Src/sto_pll_speed_pos_fdbk.c **** /**
  60:MCSDK_v6.1.0-Full/MotorControl/MCSDK/MCLib/Any/Src/sto_pll_speed_pos_fdbk.c ****   * @brief  Initializes the @p pHandle of STate Observer (STO) PLL component.
  61:MCSDK_v6.1.0-Full/MotorControl/MCSDK/MCLib/Any/Src/sto_pll_speed_pos_fdbk.c ****   *
  62:MCSDK_v6.1.0-Full/MotorControl/MCSDK/MCLib/Any/Src/sto_pll_speed_pos_fdbk.c ****   */
  63:MCSDK_v6.1.0-Full/MotorControl/MCSDK/MCLib/Any/Src/sto_pll_speed_pos_fdbk.c **** __weak void STO_PLL_Init(STO_PLL_Handle_t *pHandle)
  64:MCSDK_v6.1.0-Full/MotorControl/MCSDK/MCLib/Any/Src/sto_pll_speed_pos_fdbk.c **** {
  65:MCSDK_v6.1.0-Full/MotorControl/MCSDK/MCLib/Any/Src/sto_pll_speed_pos_fdbk.c **** #ifdef NULL_PTR_STO_PLL_SPD_POS_FDB
  66:MCSDK_v6.1.0-Full/MotorControl/MCSDK/MCLib/Any/Src/sto_pll_speed_pos_fdbk.c ****   if (MC_NULL == pHandle)
  67:MCSDK_v6.1.0-Full/MotorControl/MCSDK/MCLib/Any/Src/sto_pll_speed_pos_fdbk.c ****   {
  68:MCSDK_v6.1.0-Full/MotorControl/MCSDK/MCLib/Any/Src/sto_pll_speed_pos_fdbk.c ****     /* Nothing to do */
  69:MCSDK_v6.1.0-Full/MotorControl/MCSDK/MCLib/Any/Src/sto_pll_speed_pos_fdbk.c ****   }
  70:MCSDK_v6.1.0-Full/MotorControl/MCSDK/MCLib/Any/Src/sto_pll_speed_pos_fdbk.c ****   else
  71:MCSDK_v6.1.0-Full/MotorControl/MCSDK/MCLib/Any/Src/sto_pll_speed_pos_fdbk.c ****   {
  72:MCSDK_v6.1.0-Full/MotorControl/MCSDK/MCLib/Any/Src/sto_pll_speed_pos_fdbk.c **** #endif
  73:MCSDK_v6.1.0-Full/MotorControl/MCSDK/MCLib/Any/Src/sto_pll_speed_pos_fdbk.c ****     int16_t htempk;
  74:MCSDK_v6.1.0-Full/MotorControl/MCSDK/MCLib/Any/Src/sto_pll_speed_pos_fdbk.c ****     int32_t wAux;
  75:MCSDK_v6.1.0-Full/MotorControl/MCSDK/MCLib/Any/Src/sto_pll_speed_pos_fdbk.c **** 
  76:MCSDK_v6.1.0-Full/MotorControl/MCSDK/MCLib/Any/Src/sto_pll_speed_pos_fdbk.c ****     pHandle->ConsistencyCounter = pHandle->StartUpConsistThreshold;
  77:MCSDK_v6.1.0-Full/MotorControl/MCSDK/MCLib/Any/Src/sto_pll_speed_pos_fdbk.c ****     pHandle->EnableDualCheck = true;
  78:MCSDK_v6.1.0-Full/MotorControl/MCSDK/MCLib/Any/Src/sto_pll_speed_pos_fdbk.c **** 
  79:MCSDK_v6.1.0-Full/MotorControl/MCSDK/MCLib/Any/Src/sto_pll_speed_pos_fdbk.c ****     wAux = ((int32_t)1);
  80:MCSDK_v6.1.0-Full/MotorControl/MCSDK/MCLib/Any/Src/sto_pll_speed_pos_fdbk.c ****     pHandle->F3POW2 = 0U;
  81:MCSDK_v6.1.0-Full/MotorControl/MCSDK/MCLib/Any/Src/sto_pll_speed_pos_fdbk.c **** 
  82:MCSDK_v6.1.0-Full/MotorControl/MCSDK/MCLib/Any/Src/sto_pll_speed_pos_fdbk.c ****     htempk = (int16_t)(C6_COMP_CONST1 / pHandle->hF2);
  83:MCSDK_v6.1.0-Full/MotorControl/MCSDK/MCLib/Any/Src/sto_pll_speed_pos_fdbk.c **** 
  84:MCSDK_v6.1.0-Full/MotorControl/MCSDK/MCLib/Any/Src/sto_pll_speed_pos_fdbk.c ****     while (htempk != 0)
  85:MCSDK_v6.1.0-Full/MotorControl/MCSDK/MCLib/Any/Src/sto_pll_speed_pos_fdbk.c ****     {
  86:MCSDK_v6.1.0-Full/MotorControl/MCSDK/MCLib/Any/Src/sto_pll_speed_pos_fdbk.c ****       htempk /= ((int16_t)2);
  87:MCSDK_v6.1.0-Full/MotorControl/MCSDK/MCLib/Any/Src/sto_pll_speed_pos_fdbk.c ****       wAux *= ((int32_t)2);
ARM GAS  /tmp/ccDchrQO.s 			page 3


  88:MCSDK_v6.1.0-Full/MotorControl/MCSDK/MCLib/Any/Src/sto_pll_speed_pos_fdbk.c ****       pHandle->F3POW2++;
  89:MCSDK_v6.1.0-Full/MotorControl/MCSDK/MCLib/Any/Src/sto_pll_speed_pos_fdbk.c ****     }
  90:MCSDK_v6.1.0-Full/MotorControl/MCSDK/MCLib/Any/Src/sto_pll_speed_pos_fdbk.c **** 
  91:MCSDK_v6.1.0-Full/MotorControl/MCSDK/MCLib/Any/Src/sto_pll_speed_pos_fdbk.c ****     pHandle->hF3 = (int16_t)wAux;
  92:MCSDK_v6.1.0-Full/MotorControl/MCSDK/MCLib/Any/Src/sto_pll_speed_pos_fdbk.c ****     wAux = ((int32_t)(pHandle->hF2)) * pHandle->hF3;
  93:MCSDK_v6.1.0-Full/MotorControl/MCSDK/MCLib/Any/Src/sto_pll_speed_pos_fdbk.c ****     pHandle->hC6 = (int16_t)(wAux / C6_COMP_CONST2);
  94:MCSDK_v6.1.0-Full/MotorControl/MCSDK/MCLib/Any/Src/sto_pll_speed_pos_fdbk.c **** 
  95:MCSDK_v6.1.0-Full/MotorControl/MCSDK/MCLib/Any/Src/sto_pll_speed_pos_fdbk.c ****     STO_PLL_Clear(pHandle);
  96:MCSDK_v6.1.0-Full/MotorControl/MCSDK/MCLib/Any/Src/sto_pll_speed_pos_fdbk.c **** 
  97:MCSDK_v6.1.0-Full/MotorControl/MCSDK/MCLib/Any/Src/sto_pll_speed_pos_fdbk.c ****     PID_HandleInit(&pHandle->PIRegulator);
  98:MCSDK_v6.1.0-Full/MotorControl/MCSDK/MCLib/Any/Src/sto_pll_speed_pos_fdbk.c **** 
  99:MCSDK_v6.1.0-Full/MotorControl/MCSDK/MCLib/Any/Src/sto_pll_speed_pos_fdbk.c ****     /* Acceleration measurement set to zero */
 100:MCSDK_v6.1.0-Full/MotorControl/MCSDK/MCLib/Any/Src/sto_pll_speed_pos_fdbk.c ****     pHandle->_Super.hMecAccelUnitP = 0;
 101:MCSDK_v6.1.0-Full/MotorControl/MCSDK/MCLib/Any/Src/sto_pll_speed_pos_fdbk.c **** #ifdef NULL_PTR_STO_PLL_SPD_POS_FDB
 102:MCSDK_v6.1.0-Full/MotorControl/MCSDK/MCLib/Any/Src/sto_pll_speed_pos_fdbk.c ****   }
 103:MCSDK_v6.1.0-Full/MotorControl/MCSDK/MCLib/Any/Src/sto_pll_speed_pos_fdbk.c **** #endif
 104:MCSDK_v6.1.0-Full/MotorControl/MCSDK/MCLib/Any/Src/sto_pll_speed_pos_fdbk.c ****   return;
 105:MCSDK_v6.1.0-Full/MotorControl/MCSDK/MCLib/Any/Src/sto_pll_speed_pos_fdbk.c **** }
 106:MCSDK_v6.1.0-Full/MotorControl/MCSDK/MCLib/Any/Src/sto_pll_speed_pos_fdbk.c **** 
 107:MCSDK_v6.1.0-Full/MotorControl/MCSDK/MCLib/Any/Src/sto_pll_speed_pos_fdbk.c **** /**
 108:MCSDK_v6.1.0-Full/MotorControl/MCSDK/MCLib/Any/Src/sto_pll_speed_pos_fdbk.c ****   * @brief  Necessary empty return to implement fictitious IRQ_Handler.
 109:MCSDK_v6.1.0-Full/MotorControl/MCSDK/MCLib/Any/Src/sto_pll_speed_pos_fdbk.c ****   * 
 110:MCSDK_v6.1.0-Full/MotorControl/MCSDK/MCLib/Any/Src/sto_pll_speed_pos_fdbk.c ****   * @param  pHandle: Handler of the current instance of the STO component.
 111:MCSDK_v6.1.0-Full/MotorControl/MCSDK/MCLib/Any/Src/sto_pll_speed_pos_fdbk.c ****   * @param  uint8_t: Fictitious interrupt flag.
 112:MCSDK_v6.1.0-Full/MotorControl/MCSDK/MCLib/Any/Src/sto_pll_speed_pos_fdbk.c ****   */
 113:MCSDK_v6.1.0-Full/MotorControl/MCSDK/MCLib/Any/Src/sto_pll_speed_pos_fdbk.c **** //cstat !RED-func-no-effect
 114:MCSDK_v6.1.0-Full/MotorControl/MCSDK/MCLib/Any/Src/sto_pll_speed_pos_fdbk.c **** __weak void STO_PLL_Return(STO_PLL_Handle_t *pHandle, uint8_t flag)
 115:MCSDK_v6.1.0-Full/MotorControl/MCSDK/MCLib/Any/Src/sto_pll_speed_pos_fdbk.c **** {
 116:MCSDK_v6.1.0-Full/MotorControl/MCSDK/MCLib/Any/Src/sto_pll_speed_pos_fdbk.c **** #ifdef NULL_PTR_STO_PLL_SPD_POS_FDB
 117:MCSDK_v6.1.0-Full/MotorControl/MCSDK/MCLib/Any/Src/sto_pll_speed_pos_fdbk.c ****   if ((MC_NULL == (void *)pHandle) || ((uint8_t)0 == flag))
 118:MCSDK_v6.1.0-Full/MotorControl/MCSDK/MCLib/Any/Src/sto_pll_speed_pos_fdbk.c ****   {
 119:MCSDK_v6.1.0-Full/MotorControl/MCSDK/MCLib/Any/Src/sto_pll_speed_pos_fdbk.c ****     /* Nothing to do */
 120:MCSDK_v6.1.0-Full/MotorControl/MCSDK/MCLib/Any/Src/sto_pll_speed_pos_fdbk.c ****   }
 121:MCSDK_v6.1.0-Full/MotorControl/MCSDK/MCLib/Any/Src/sto_pll_speed_pos_fdbk.c ****   else
 122:MCSDK_v6.1.0-Full/MotorControl/MCSDK/MCLib/Any/Src/sto_pll_speed_pos_fdbk.c ****   {
 123:MCSDK_v6.1.0-Full/MotorControl/MCSDK/MCLib/Any/Src/sto_pll_speed_pos_fdbk.c ****     /* Nothing to do */
 124:MCSDK_v6.1.0-Full/MotorControl/MCSDK/MCLib/Any/Src/sto_pll_speed_pos_fdbk.c ****   }
 125:MCSDK_v6.1.0-Full/MotorControl/MCSDK/MCLib/Any/Src/sto_pll_speed_pos_fdbk.c **** #endif
 126:MCSDK_v6.1.0-Full/MotorControl/MCSDK/MCLib/Any/Src/sto_pll_speed_pos_fdbk.c ****   return;
 127:MCSDK_v6.1.0-Full/MotorControl/MCSDK/MCLib/Any/Src/sto_pll_speed_pos_fdbk.c **** }
 128:MCSDK_v6.1.0-Full/MotorControl/MCSDK/MCLib/Any/Src/sto_pll_speed_pos_fdbk.c **** 
 129:MCSDK_v6.1.0-Full/MotorControl/MCSDK/MCLib/Any/Src/sto_pll_speed_pos_fdbk.c **** #if defined (CCMRAM)
 130:MCSDK_v6.1.0-Full/MotorControl/MCSDK/MCLib/Any/Src/sto_pll_speed_pos_fdbk.c **** #if defined (__ICCARM__)
 131:MCSDK_v6.1.0-Full/MotorControl/MCSDK/MCLib/Any/Src/sto_pll_speed_pos_fdbk.c **** #pragma location = ".ccmram"
 132:MCSDK_v6.1.0-Full/MotorControl/MCSDK/MCLib/Any/Src/sto_pll_speed_pos_fdbk.c **** #elif defined (__CC_ARM) || defined(__GNUC__)
 133:MCSDK_v6.1.0-Full/MotorControl/MCSDK/MCLib/Any/Src/sto_pll_speed_pos_fdbk.c **** __attribute__((section(".ccmram")))
 134:MCSDK_v6.1.0-Full/MotorControl/MCSDK/MCLib/Any/Src/sto_pll_speed_pos_fdbk.c **** #endif
 135:MCSDK_v6.1.0-Full/MotorControl/MCSDK/MCLib/Any/Src/sto_pll_speed_pos_fdbk.c **** #endif
 136:MCSDK_v6.1.0-Full/MotorControl/MCSDK/MCLib/Any/Src/sto_pll_speed_pos_fdbk.c **** /**
 137:MCSDK_v6.1.0-Full/MotorControl/MCSDK/MCLib/Any/Src/sto_pll_speed_pos_fdbk.c ****   * @brief  Calculates the estimated electrical angle.
 138:MCSDK_v6.1.0-Full/MotorControl/MCSDK/MCLib/Any/Src/sto_pll_speed_pos_fdbk.c ****   * 
 139:MCSDK_v6.1.0-Full/MotorControl/MCSDK/MCLib/Any/Src/sto_pll_speed_pos_fdbk.c ****   * Executes Luenberger state observer equations and calls
 140:MCSDK_v6.1.0-Full/MotorControl/MCSDK/MCLib/Any/Src/sto_pll_speed_pos_fdbk.c ****   * PLL to compute a new speed estimation and
 141:MCSDK_v6.1.0-Full/MotorControl/MCSDK/MCLib/Any/Src/sto_pll_speed_pos_fdbk.c ****   * update the estimated electrical angle.
 142:MCSDK_v6.1.0-Full/MotorControl/MCSDK/MCLib/Any/Src/sto_pll_speed_pos_fdbk.c ****   * 
 143:MCSDK_v6.1.0-Full/MotorControl/MCSDK/MCLib/Any/Src/sto_pll_speed_pos_fdbk.c ****   * @param  pHandle: Handler of the current instance of the STO component.
 144:MCSDK_v6.1.0-Full/MotorControl/MCSDK/MCLib/Any/Src/sto_pll_speed_pos_fdbk.c ****   * @param  pInput: Pointer to the observer inputs structure.
ARM GAS  /tmp/ccDchrQO.s 			page 4


 145:MCSDK_v6.1.0-Full/MotorControl/MCSDK/MCLib/Any/Src/sto_pll_speed_pos_fdbk.c ****   * @retval int16_t Rotor electrical angle (s16Degrees).
 146:MCSDK_v6.1.0-Full/MotorControl/MCSDK/MCLib/Any/Src/sto_pll_speed_pos_fdbk.c ****   */
 147:MCSDK_v6.1.0-Full/MotorControl/MCSDK/MCLib/Any/Src/sto_pll_speed_pos_fdbk.c **** __weak int16_t STO_PLL_CalcElAngle(STO_PLL_Handle_t *pHandle, Observer_Inputs_t *pInputs)
 148:MCSDK_v6.1.0-Full/MotorControl/MCSDK/MCLib/Any/Src/sto_pll_speed_pos_fdbk.c **** {
 149:MCSDK_v6.1.0-Full/MotorControl/MCSDK/MCLib/Any/Src/sto_pll_speed_pos_fdbk.c ****   int16_t retValue;
 150:MCSDK_v6.1.0-Full/MotorControl/MCSDK/MCLib/Any/Src/sto_pll_speed_pos_fdbk.c **** 
 151:MCSDK_v6.1.0-Full/MotorControl/MCSDK/MCLib/Any/Src/sto_pll_speed_pos_fdbk.c ****   if ((MC_NULL == pHandle) || (MC_NULL == pInputs))
 152:MCSDK_v6.1.0-Full/MotorControl/MCSDK/MCLib/Any/Src/sto_pll_speed_pos_fdbk.c ****   {
 153:MCSDK_v6.1.0-Full/MotorControl/MCSDK/MCLib/Any/Src/sto_pll_speed_pos_fdbk.c ****     retValue = 0;
 154:MCSDK_v6.1.0-Full/MotorControl/MCSDK/MCLib/Any/Src/sto_pll_speed_pos_fdbk.c ****   }
 155:MCSDK_v6.1.0-Full/MotorControl/MCSDK/MCLib/Any/Src/sto_pll_speed_pos_fdbk.c ****   else
 156:MCSDK_v6.1.0-Full/MotorControl/MCSDK/MCLib/Any/Src/sto_pll_speed_pos_fdbk.c ****   {
 157:MCSDK_v6.1.0-Full/MotorControl/MCSDK/MCLib/Any/Src/sto_pll_speed_pos_fdbk.c ****     int32_t wAux;
 158:MCSDK_v6.1.0-Full/MotorControl/MCSDK/MCLib/Any/Src/sto_pll_speed_pos_fdbk.c ****     int32_t wDirection;
 159:MCSDK_v6.1.0-Full/MotorControl/MCSDK/MCLib/Any/Src/sto_pll_speed_pos_fdbk.c ****     int32_t wIalfa_est_Next;
 160:MCSDK_v6.1.0-Full/MotorControl/MCSDK/MCLib/Any/Src/sto_pll_speed_pos_fdbk.c ****     int32_t wIbeta_est_Next;
 161:MCSDK_v6.1.0-Full/MotorControl/MCSDK/MCLib/Any/Src/sto_pll_speed_pos_fdbk.c ****     int32_t wBemf_alfa_est_Next;
 162:MCSDK_v6.1.0-Full/MotorControl/MCSDK/MCLib/Any/Src/sto_pll_speed_pos_fdbk.c ****     int32_t wBemf_beta_est_Next;
 163:MCSDK_v6.1.0-Full/MotorControl/MCSDK/MCLib/Any/Src/sto_pll_speed_pos_fdbk.c ****     int16_t hAux;
 164:MCSDK_v6.1.0-Full/MotorControl/MCSDK/MCLib/Any/Src/sto_pll_speed_pos_fdbk.c ****     int16_t hAux_Alfa;
 165:MCSDK_v6.1.0-Full/MotorControl/MCSDK/MCLib/Any/Src/sto_pll_speed_pos_fdbk.c ****     int16_t hAux_Beta;
 166:MCSDK_v6.1.0-Full/MotorControl/MCSDK/MCLib/Any/Src/sto_pll_speed_pos_fdbk.c ****     int16_t hIalfa_err;
 167:MCSDK_v6.1.0-Full/MotorControl/MCSDK/MCLib/Any/Src/sto_pll_speed_pos_fdbk.c ****     int16_t hIbeta_err;
 168:MCSDK_v6.1.0-Full/MotorControl/MCSDK/MCLib/Any/Src/sto_pll_speed_pos_fdbk.c ****     int16_t hRotor_Speed;
 169:MCSDK_v6.1.0-Full/MotorControl/MCSDK/MCLib/Any/Src/sto_pll_speed_pos_fdbk.c ****     int16_t hValfa;
 170:MCSDK_v6.1.0-Full/MotorControl/MCSDK/MCLib/Any/Src/sto_pll_speed_pos_fdbk.c ****     int16_t hVbeta;
 171:MCSDK_v6.1.0-Full/MotorControl/MCSDK/MCLib/Any/Src/sto_pll_speed_pos_fdbk.c **** 
 172:MCSDK_v6.1.0-Full/MotorControl/MCSDK/MCLib/Any/Src/sto_pll_speed_pos_fdbk.c ****     if (pHandle->wBemf_alfa_est > (((int32_t)pHandle->hF2) * INT16_MAX))
 173:MCSDK_v6.1.0-Full/MotorControl/MCSDK/MCLib/Any/Src/sto_pll_speed_pos_fdbk.c ****     {
 174:MCSDK_v6.1.0-Full/MotorControl/MCSDK/MCLib/Any/Src/sto_pll_speed_pos_fdbk.c ****       pHandle->wBemf_alfa_est = INT16_MAX * ((int32_t)pHandle->hF2);
 175:MCSDK_v6.1.0-Full/MotorControl/MCSDK/MCLib/Any/Src/sto_pll_speed_pos_fdbk.c ****     }
 176:MCSDK_v6.1.0-Full/MotorControl/MCSDK/MCLib/Any/Src/sto_pll_speed_pos_fdbk.c ****     else if (pHandle->wBemf_alfa_est <= (-INT16_MAX * ((int32_t)pHandle->hF2)))
 177:MCSDK_v6.1.0-Full/MotorControl/MCSDK/MCLib/Any/Src/sto_pll_speed_pos_fdbk.c ****     {
 178:MCSDK_v6.1.0-Full/MotorControl/MCSDK/MCLib/Any/Src/sto_pll_speed_pos_fdbk.c ****       pHandle->wBemf_alfa_est = -INT16_MAX * ((int32_t)pHandle->hF2);
 179:MCSDK_v6.1.0-Full/MotorControl/MCSDK/MCLib/Any/Src/sto_pll_speed_pos_fdbk.c ****     }
 180:MCSDK_v6.1.0-Full/MotorControl/MCSDK/MCLib/Any/Src/sto_pll_speed_pos_fdbk.c ****     else
 181:MCSDK_v6.1.0-Full/MotorControl/MCSDK/MCLib/Any/Src/sto_pll_speed_pos_fdbk.c ****     {
 182:MCSDK_v6.1.0-Full/MotorControl/MCSDK/MCLib/Any/Src/sto_pll_speed_pos_fdbk.c ****       /* Nothing to do */
 183:MCSDK_v6.1.0-Full/MotorControl/MCSDK/MCLib/Any/Src/sto_pll_speed_pos_fdbk.c ****     }
 184:MCSDK_v6.1.0-Full/MotorControl/MCSDK/MCLib/Any/Src/sto_pll_speed_pos_fdbk.c **** #ifndef FULL_MISRA_C_COMPLIANCY_STO_PLL
 185:MCSDK_v6.1.0-Full/MotorControl/MCSDK/MCLib/Any/Src/sto_pll_speed_pos_fdbk.c ****     //cstat !MISRAC2012-Rule-1.3_n !ATH-shift-neg !MISRAC2012-Rule-10.1_R6
 186:MCSDK_v6.1.0-Full/MotorControl/MCSDK/MCLib/Any/Src/sto_pll_speed_pos_fdbk.c ****       hAux_Alfa = (int16_t)(pHandle->wBemf_alfa_est >> pHandle->F2LOG);
 187:MCSDK_v6.1.0-Full/MotorControl/MCSDK/MCLib/Any/Src/sto_pll_speed_pos_fdbk.c **** #else
 188:MCSDK_v6.1.0-Full/MotorControl/MCSDK/MCLib/Any/Src/sto_pll_speed_pos_fdbk.c ****       hAux_Alfa = (int16_t)(pHandle->wBemf_alfa_est / pHandle->hF2);
 189:MCSDK_v6.1.0-Full/MotorControl/MCSDK/MCLib/Any/Src/sto_pll_speed_pos_fdbk.c **** #endif
 190:MCSDK_v6.1.0-Full/MotorControl/MCSDK/MCLib/Any/Src/sto_pll_speed_pos_fdbk.c **** 
 191:MCSDK_v6.1.0-Full/MotorControl/MCSDK/MCLib/Any/Src/sto_pll_speed_pos_fdbk.c ****     if (pHandle->wBemf_beta_est > (INT16_MAX * ((int32_t)pHandle->hF2)))
 192:MCSDK_v6.1.0-Full/MotorControl/MCSDK/MCLib/Any/Src/sto_pll_speed_pos_fdbk.c ****     {
 193:MCSDK_v6.1.0-Full/MotorControl/MCSDK/MCLib/Any/Src/sto_pll_speed_pos_fdbk.c ****       pHandle->wBemf_beta_est = INT16_MAX * ((int32_t)pHandle->hF2);
 194:MCSDK_v6.1.0-Full/MotorControl/MCSDK/MCLib/Any/Src/sto_pll_speed_pos_fdbk.c ****     }
 195:MCSDK_v6.1.0-Full/MotorControl/MCSDK/MCLib/Any/Src/sto_pll_speed_pos_fdbk.c ****     else if (pHandle->wBemf_beta_est <= (-INT16_MAX * ((int32_t)pHandle->hF2)))
 196:MCSDK_v6.1.0-Full/MotorControl/MCSDK/MCLib/Any/Src/sto_pll_speed_pos_fdbk.c ****     {
 197:MCSDK_v6.1.0-Full/MotorControl/MCSDK/MCLib/Any/Src/sto_pll_speed_pos_fdbk.c ****       pHandle->wBemf_beta_est = (-INT16_MAX * ((int32_t)pHandle->hF2));
 198:MCSDK_v6.1.0-Full/MotorControl/MCSDK/MCLib/Any/Src/sto_pll_speed_pos_fdbk.c ****     }
 199:MCSDK_v6.1.0-Full/MotorControl/MCSDK/MCLib/Any/Src/sto_pll_speed_pos_fdbk.c ****     else
 200:MCSDK_v6.1.0-Full/MotorControl/MCSDK/MCLib/Any/Src/sto_pll_speed_pos_fdbk.c ****     {
 201:MCSDK_v6.1.0-Full/MotorControl/MCSDK/MCLib/Any/Src/sto_pll_speed_pos_fdbk.c ****       /* Nothing to do */
ARM GAS  /tmp/ccDchrQO.s 			page 5


 202:MCSDK_v6.1.0-Full/MotorControl/MCSDK/MCLib/Any/Src/sto_pll_speed_pos_fdbk.c ****     }
 203:MCSDK_v6.1.0-Full/MotorControl/MCSDK/MCLib/Any/Src/sto_pll_speed_pos_fdbk.c **** #ifndef FULL_MISRA_C_COMPLIANCY_STO_PLL
 204:MCSDK_v6.1.0-Full/MotorControl/MCSDK/MCLib/Any/Src/sto_pll_speed_pos_fdbk.c ****     //cstat !MISRAC2012-Rule-1.3_n !ATH-shift-neg !MISRAC2012-Rule-10.1_R6
 205:MCSDK_v6.1.0-Full/MotorControl/MCSDK/MCLib/Any/Src/sto_pll_speed_pos_fdbk.c ****     hAux_Beta = (int16_t)(pHandle->wBemf_beta_est >> pHandle->F2LOG);
 206:MCSDK_v6.1.0-Full/MotorControl/MCSDK/MCLib/Any/Src/sto_pll_speed_pos_fdbk.c **** #else
 207:MCSDK_v6.1.0-Full/MotorControl/MCSDK/MCLib/Any/Src/sto_pll_speed_pos_fdbk.c ****     hAux_Beta = (int16_t)(pHandle->wBemf_beta_est / pHandle->hF2);
 208:MCSDK_v6.1.0-Full/MotorControl/MCSDK/MCLib/Any/Src/sto_pll_speed_pos_fdbk.c **** #endif
 209:MCSDK_v6.1.0-Full/MotorControl/MCSDK/MCLib/Any/Src/sto_pll_speed_pos_fdbk.c **** 
 210:MCSDK_v6.1.0-Full/MotorControl/MCSDK/MCLib/Any/Src/sto_pll_speed_pos_fdbk.c ****     if (pHandle->Ialfa_est > (INT16_MAX * ((int32_t)pHandle->hF1)))
 211:MCSDK_v6.1.0-Full/MotorControl/MCSDK/MCLib/Any/Src/sto_pll_speed_pos_fdbk.c ****     {
 212:MCSDK_v6.1.0-Full/MotorControl/MCSDK/MCLib/Any/Src/sto_pll_speed_pos_fdbk.c ****       pHandle->Ialfa_est = INT16_MAX * ((int32_t)pHandle->hF1);
 213:MCSDK_v6.1.0-Full/MotorControl/MCSDK/MCLib/Any/Src/sto_pll_speed_pos_fdbk.c ****     }
 214:MCSDK_v6.1.0-Full/MotorControl/MCSDK/MCLib/Any/Src/sto_pll_speed_pos_fdbk.c ****     else if (pHandle->Ialfa_est <= (-INT16_MAX * ((int32_t)pHandle->hF1)))
 215:MCSDK_v6.1.0-Full/MotorControl/MCSDK/MCLib/Any/Src/sto_pll_speed_pos_fdbk.c ****     {
 216:MCSDK_v6.1.0-Full/MotorControl/MCSDK/MCLib/Any/Src/sto_pll_speed_pos_fdbk.c ****       pHandle->Ialfa_est = -INT16_MAX * ((int32_t)pHandle->hF1);
 217:MCSDK_v6.1.0-Full/MotorControl/MCSDK/MCLib/Any/Src/sto_pll_speed_pos_fdbk.c ****     }
 218:MCSDK_v6.1.0-Full/MotorControl/MCSDK/MCLib/Any/Src/sto_pll_speed_pos_fdbk.c ****     else
 219:MCSDK_v6.1.0-Full/MotorControl/MCSDK/MCLib/Any/Src/sto_pll_speed_pos_fdbk.c ****     {
 220:MCSDK_v6.1.0-Full/MotorControl/MCSDK/MCLib/Any/Src/sto_pll_speed_pos_fdbk.c ****       /* Nothing to do */
 221:MCSDK_v6.1.0-Full/MotorControl/MCSDK/MCLib/Any/Src/sto_pll_speed_pos_fdbk.c ****     }
 222:MCSDK_v6.1.0-Full/MotorControl/MCSDK/MCLib/Any/Src/sto_pll_speed_pos_fdbk.c **** 
 223:MCSDK_v6.1.0-Full/MotorControl/MCSDK/MCLib/Any/Src/sto_pll_speed_pos_fdbk.c ****     if (pHandle->Ibeta_est > (INT16_MAX * ((int32_t)pHandle->hF1)))
 224:MCSDK_v6.1.0-Full/MotorControl/MCSDK/MCLib/Any/Src/sto_pll_speed_pos_fdbk.c ****     {
 225:MCSDK_v6.1.0-Full/MotorControl/MCSDK/MCLib/Any/Src/sto_pll_speed_pos_fdbk.c ****       pHandle->Ibeta_est = INT16_MAX * ((int32_t)pHandle->hF1);
 226:MCSDK_v6.1.0-Full/MotorControl/MCSDK/MCLib/Any/Src/sto_pll_speed_pos_fdbk.c ****     }
 227:MCSDK_v6.1.0-Full/MotorControl/MCSDK/MCLib/Any/Src/sto_pll_speed_pos_fdbk.c ****     else if (pHandle->Ibeta_est <= (-INT16_MAX * ((int32_t)pHandle->hF1)))
 228:MCSDK_v6.1.0-Full/MotorControl/MCSDK/MCLib/Any/Src/sto_pll_speed_pos_fdbk.c ****     {
 229:MCSDK_v6.1.0-Full/MotorControl/MCSDK/MCLib/Any/Src/sto_pll_speed_pos_fdbk.c ****       pHandle->Ibeta_est = -INT16_MAX * ((int32_t)pHandle->hF1);
 230:MCSDK_v6.1.0-Full/MotorControl/MCSDK/MCLib/Any/Src/sto_pll_speed_pos_fdbk.c ****     }
 231:MCSDK_v6.1.0-Full/MotorControl/MCSDK/MCLib/Any/Src/sto_pll_speed_pos_fdbk.c ****     else
 232:MCSDK_v6.1.0-Full/MotorControl/MCSDK/MCLib/Any/Src/sto_pll_speed_pos_fdbk.c ****     {
 233:MCSDK_v6.1.0-Full/MotorControl/MCSDK/MCLib/Any/Src/sto_pll_speed_pos_fdbk.c ****       /* Nothing to do */
 234:MCSDK_v6.1.0-Full/MotorControl/MCSDK/MCLib/Any/Src/sto_pll_speed_pos_fdbk.c ****     }
 235:MCSDK_v6.1.0-Full/MotorControl/MCSDK/MCLib/Any/Src/sto_pll_speed_pos_fdbk.c **** 
 236:MCSDK_v6.1.0-Full/MotorControl/MCSDK/MCLib/Any/Src/sto_pll_speed_pos_fdbk.c **** #ifndef FULL_MISRA_C_COMPLIANCY_STO_PLL
 237:MCSDK_v6.1.0-Full/MotorControl/MCSDK/MCLib/Any/Src/sto_pll_speed_pos_fdbk.c ****     //cstat !MISRAC2012-Rule-1.3_n !ATH-shift-neg !MISRAC2012-Rule-10.1_R6
 238:MCSDK_v6.1.0-Full/MotorControl/MCSDK/MCLib/Any/Src/sto_pll_speed_pos_fdbk.c ****     hIalfa_err = (int16_t)(pHandle->Ialfa_est >> pHandle->F1LOG);
 239:MCSDK_v6.1.0-Full/MotorControl/MCSDK/MCLib/Any/Src/sto_pll_speed_pos_fdbk.c **** #else
 240:MCSDK_v6.1.0-Full/MotorControl/MCSDK/MCLib/Any/Src/sto_pll_speed_pos_fdbk.c ****     hIalfa_err = (int16_t)(pHandle->Ialfa_est / pHandle->hF1);
 241:MCSDK_v6.1.0-Full/MotorControl/MCSDK/MCLib/Any/Src/sto_pll_speed_pos_fdbk.c **** #endif
 242:MCSDK_v6.1.0-Full/MotorControl/MCSDK/MCLib/Any/Src/sto_pll_speed_pos_fdbk.c **** 
 243:MCSDK_v6.1.0-Full/MotorControl/MCSDK/MCLib/Any/Src/sto_pll_speed_pos_fdbk.c ****     hIalfa_err = hIalfa_err - pInputs->Ialfa_beta.alpha;
 244:MCSDK_v6.1.0-Full/MotorControl/MCSDK/MCLib/Any/Src/sto_pll_speed_pos_fdbk.c **** 
 245:MCSDK_v6.1.0-Full/MotorControl/MCSDK/MCLib/Any/Src/sto_pll_speed_pos_fdbk.c **** #ifndef FULL_MISRA_C_COMPLIANCY_STO_PLL
 246:MCSDK_v6.1.0-Full/MotorControl/MCSDK/MCLib/Any/Src/sto_pll_speed_pos_fdbk.c ****     //cstat !MISRAC2012-Rule-1.3_n !ATH-shift-neg !MISRAC2012-Rule-10.1_R6
 247:MCSDK_v6.1.0-Full/MotorControl/MCSDK/MCLib/Any/Src/sto_pll_speed_pos_fdbk.c ****     hIbeta_err = (int16_t)(pHandle->Ibeta_est >> pHandle->F1LOG);
 248:MCSDK_v6.1.0-Full/MotorControl/MCSDK/MCLib/Any/Src/sto_pll_speed_pos_fdbk.c **** #else
 249:MCSDK_v6.1.0-Full/MotorControl/MCSDK/MCLib/Any/Src/sto_pll_speed_pos_fdbk.c ****     hIbeta_err = (int16_t)(pHandle->Ibeta_est / pHandle->hF1);
 250:MCSDK_v6.1.0-Full/MotorControl/MCSDK/MCLib/Any/Src/sto_pll_speed_pos_fdbk.c **** #endif
 251:MCSDK_v6.1.0-Full/MotorControl/MCSDK/MCLib/Any/Src/sto_pll_speed_pos_fdbk.c **** 
 252:MCSDK_v6.1.0-Full/MotorControl/MCSDK/MCLib/Any/Src/sto_pll_speed_pos_fdbk.c ****     hIbeta_err = hIbeta_err - pInputs->Ialfa_beta.beta;
 253:MCSDK_v6.1.0-Full/MotorControl/MCSDK/MCLib/Any/Src/sto_pll_speed_pos_fdbk.c **** 
 254:MCSDK_v6.1.0-Full/MotorControl/MCSDK/MCLib/Any/Src/sto_pll_speed_pos_fdbk.c ****     wAux = ((int32_t)pInputs->Vbus) * pInputs->Valfa_beta.alpha;
 255:MCSDK_v6.1.0-Full/MotorControl/MCSDK/MCLib/Any/Src/sto_pll_speed_pos_fdbk.c **** #ifndef FULL_MISRA_C_COMPLIANCY_STO_PLL
 256:MCSDK_v6.1.0-Full/MotorControl/MCSDK/MCLib/Any/Src/sto_pll_speed_pos_fdbk.c ****     hValfa = (int16_t)(wAux >> 16); //cstat !MISRAC2012-Rule-1.3_n !ATH-shift-neg !MISRAC2012-Rule-
 257:MCSDK_v6.1.0-Full/MotorControl/MCSDK/MCLib/Any/Src/sto_pll_speed_pos_fdbk.c **** #else
 258:MCSDK_v6.1.0-Full/MotorControl/MCSDK/MCLib/Any/Src/sto_pll_speed_pos_fdbk.c ****     hValfa = (int16_t)(wAux / 65536);
ARM GAS  /tmp/ccDchrQO.s 			page 6


 259:MCSDK_v6.1.0-Full/MotorControl/MCSDK/MCLib/Any/Src/sto_pll_speed_pos_fdbk.c **** #endif
 260:MCSDK_v6.1.0-Full/MotorControl/MCSDK/MCLib/Any/Src/sto_pll_speed_pos_fdbk.c **** 
 261:MCSDK_v6.1.0-Full/MotorControl/MCSDK/MCLib/Any/Src/sto_pll_speed_pos_fdbk.c ****     wAux = ((int32_t)pInputs->Vbus) * pInputs->Valfa_beta.beta;
 262:MCSDK_v6.1.0-Full/MotorControl/MCSDK/MCLib/Any/Src/sto_pll_speed_pos_fdbk.c **** 
 263:MCSDK_v6.1.0-Full/MotorControl/MCSDK/MCLib/Any/Src/sto_pll_speed_pos_fdbk.c **** #ifndef FULL_MISRA_C_COMPLIANCY_STO_PLL
 264:MCSDK_v6.1.0-Full/MotorControl/MCSDK/MCLib/Any/Src/sto_pll_speed_pos_fdbk.c ****     hVbeta = ( int16_t ) ( wAux >> 16 ); //cstat !MISRAC2012-Rule-1.3_n !ATH-shift-neg !MISRAC2012-
 265:MCSDK_v6.1.0-Full/MotorControl/MCSDK/MCLib/Any/Src/sto_pll_speed_pos_fdbk.c **** #else
 266:MCSDK_v6.1.0-Full/MotorControl/MCSDK/MCLib/Any/Src/sto_pll_speed_pos_fdbk.c ****     hVbeta = (int16_t)(wAux / 65536);
 267:MCSDK_v6.1.0-Full/MotorControl/MCSDK/MCLib/Any/Src/sto_pll_speed_pos_fdbk.c **** #endif
 268:MCSDK_v6.1.0-Full/MotorControl/MCSDK/MCLib/Any/Src/sto_pll_speed_pos_fdbk.c **** 
 269:MCSDK_v6.1.0-Full/MotorControl/MCSDK/MCLib/Any/Src/sto_pll_speed_pos_fdbk.c ****     /*alfa axes observer*/
 270:MCSDK_v6.1.0-Full/MotorControl/MCSDK/MCLib/Any/Src/sto_pll_speed_pos_fdbk.c **** #ifndef FULL_MISRA_C_COMPLIANCY_STO_PLL
 271:MCSDK_v6.1.0-Full/MotorControl/MCSDK/MCLib/Any/Src/sto_pll_speed_pos_fdbk.c ****     //cstat !MISRAC2012-Rule-1.3_n !ATH-shift-neg !MISRAC2012-Rule-10.1_R6
 272:MCSDK_v6.1.0-Full/MotorControl/MCSDK/MCLib/Any/Src/sto_pll_speed_pos_fdbk.c ****     hAux = (int16_t)(pHandle->Ialfa_est >> pHandle->F1LOG);
 273:MCSDK_v6.1.0-Full/MotorControl/MCSDK/MCLib/Any/Src/sto_pll_speed_pos_fdbk.c **** #else
 274:MCSDK_v6.1.0-Full/MotorControl/MCSDK/MCLib/Any/Src/sto_pll_speed_pos_fdbk.c ****     hAux = (int16_t)(pHandle->Ialfa_est / pHandle->hF1);
 275:MCSDK_v6.1.0-Full/MotorControl/MCSDK/MCLib/Any/Src/sto_pll_speed_pos_fdbk.c **** #endif
 276:MCSDK_v6.1.0-Full/MotorControl/MCSDK/MCLib/Any/Src/sto_pll_speed_pos_fdbk.c **** 
 277:MCSDK_v6.1.0-Full/MotorControl/MCSDK/MCLib/Any/Src/sto_pll_speed_pos_fdbk.c ****     wAux = ((int32_t)pHandle->hC1) * hAux;
 278:MCSDK_v6.1.0-Full/MotorControl/MCSDK/MCLib/Any/Src/sto_pll_speed_pos_fdbk.c ****     wIalfa_est_Next = pHandle->Ialfa_est - wAux;
 279:MCSDK_v6.1.0-Full/MotorControl/MCSDK/MCLib/Any/Src/sto_pll_speed_pos_fdbk.c **** 
 280:MCSDK_v6.1.0-Full/MotorControl/MCSDK/MCLib/Any/Src/sto_pll_speed_pos_fdbk.c ****     wAux = ((int32_t)pHandle->hC2) * hIalfa_err;
 281:MCSDK_v6.1.0-Full/MotorControl/MCSDK/MCLib/Any/Src/sto_pll_speed_pos_fdbk.c ****     wIalfa_est_Next += wAux;
 282:MCSDK_v6.1.0-Full/MotorControl/MCSDK/MCLib/Any/Src/sto_pll_speed_pos_fdbk.c **** 
 283:MCSDK_v6.1.0-Full/MotorControl/MCSDK/MCLib/Any/Src/sto_pll_speed_pos_fdbk.c ****     wAux = ((int32_t)pHandle->hC5) * hValfa;
 284:MCSDK_v6.1.0-Full/MotorControl/MCSDK/MCLib/Any/Src/sto_pll_speed_pos_fdbk.c ****     wIalfa_est_Next += wAux;
 285:MCSDK_v6.1.0-Full/MotorControl/MCSDK/MCLib/Any/Src/sto_pll_speed_pos_fdbk.c **** 
 286:MCSDK_v6.1.0-Full/MotorControl/MCSDK/MCLib/Any/Src/sto_pll_speed_pos_fdbk.c ****     wAux = ((int32_t)pHandle->hC3) * hAux_Alfa;
 287:MCSDK_v6.1.0-Full/MotorControl/MCSDK/MCLib/Any/Src/sto_pll_speed_pos_fdbk.c ****     wIalfa_est_Next -= wAux;
 288:MCSDK_v6.1.0-Full/MotorControl/MCSDK/MCLib/Any/Src/sto_pll_speed_pos_fdbk.c **** 
 289:MCSDK_v6.1.0-Full/MotorControl/MCSDK/MCLib/Any/Src/sto_pll_speed_pos_fdbk.c ****     wAux = ((int32_t)pHandle->hC4) * hIalfa_err;
 290:MCSDK_v6.1.0-Full/MotorControl/MCSDK/MCLib/Any/Src/sto_pll_speed_pos_fdbk.c ****     wBemf_alfa_est_Next = pHandle->wBemf_alfa_est + wAux;
 291:MCSDK_v6.1.0-Full/MotorControl/MCSDK/MCLib/Any/Src/sto_pll_speed_pos_fdbk.c **** 
 292:MCSDK_v6.1.0-Full/MotorControl/MCSDK/MCLib/Any/Src/sto_pll_speed_pos_fdbk.c **** #ifndef FULL_MISRA_C_COMPLIANCY_STO_PLL
 293:MCSDK_v6.1.0-Full/MotorControl/MCSDK/MCLib/Any/Src/sto_pll_speed_pos_fdbk.c ****     wAux = (int32_t)hAux_Beta >> pHandle->F3POW2; //cstat !MISRAC2012-Rule-1.3_n !ATH-shift-neg !MI
 294:MCSDK_v6.1.0-Full/MotorControl/MCSDK/MCLib/Any/Src/sto_pll_speed_pos_fdbk.c **** #else
 295:MCSDK_v6.1.0-Full/MotorControl/MCSDK/MCLib/Any/Src/sto_pll_speed_pos_fdbk.c ****     wAux = ((int32_t)hAux_Beta) / pHandle->hF3;
 296:MCSDK_v6.1.0-Full/MotorControl/MCSDK/MCLib/Any/Src/sto_pll_speed_pos_fdbk.c **** #endif
 297:MCSDK_v6.1.0-Full/MotorControl/MCSDK/MCLib/Any/Src/sto_pll_speed_pos_fdbk.c **** 
 298:MCSDK_v6.1.0-Full/MotorControl/MCSDK/MCLib/Any/Src/sto_pll_speed_pos_fdbk.c ****     wAux = wAux * pHandle->hC6;
 299:MCSDK_v6.1.0-Full/MotorControl/MCSDK/MCLib/Any/Src/sto_pll_speed_pos_fdbk.c ****     wAux = pHandle->_Super.hElSpeedDpp * wAux;
 300:MCSDK_v6.1.0-Full/MotorControl/MCSDK/MCLib/Any/Src/sto_pll_speed_pos_fdbk.c ****     wBemf_alfa_est_Next += wAux;
 301:MCSDK_v6.1.0-Full/MotorControl/MCSDK/MCLib/Any/Src/sto_pll_speed_pos_fdbk.c **** 
 302:MCSDK_v6.1.0-Full/MotorControl/MCSDK/MCLib/Any/Src/sto_pll_speed_pos_fdbk.c ****     /*beta axes observer*/
 303:MCSDK_v6.1.0-Full/MotorControl/MCSDK/MCLib/Any/Src/sto_pll_speed_pos_fdbk.c **** #ifndef FULL_MISRA_C_COMPLIANCY_STO_PLL
 304:MCSDK_v6.1.0-Full/MotorControl/MCSDK/MCLib/Any/Src/sto_pll_speed_pos_fdbk.c ****     //cstat !MISRAC2012-Rule-1.3_n !ATH-shift-neg !MISRAC2012-Rule-10.1_R6
 305:MCSDK_v6.1.0-Full/MotorControl/MCSDK/MCLib/Any/Src/sto_pll_speed_pos_fdbk.c ****     hAux = (int16_t)(pHandle->Ibeta_est >> pHandle->F1LOG);
 306:MCSDK_v6.1.0-Full/MotorControl/MCSDK/MCLib/Any/Src/sto_pll_speed_pos_fdbk.c **** #else
 307:MCSDK_v6.1.0-Full/MotorControl/MCSDK/MCLib/Any/Src/sto_pll_speed_pos_fdbk.c ****     hAux = (int16_t)(pHandle->Ibeta_est / pHandle->hF1);
 308:MCSDK_v6.1.0-Full/MotorControl/MCSDK/MCLib/Any/Src/sto_pll_speed_pos_fdbk.c **** #endif
 309:MCSDK_v6.1.0-Full/MotorControl/MCSDK/MCLib/Any/Src/sto_pll_speed_pos_fdbk.c **** 
 310:MCSDK_v6.1.0-Full/MotorControl/MCSDK/MCLib/Any/Src/sto_pll_speed_pos_fdbk.c ****     wAux = ((int32_t)pHandle->hC1) * hAux;
 311:MCSDK_v6.1.0-Full/MotorControl/MCSDK/MCLib/Any/Src/sto_pll_speed_pos_fdbk.c ****     wIbeta_est_Next = pHandle->Ibeta_est - wAux;
 312:MCSDK_v6.1.0-Full/MotorControl/MCSDK/MCLib/Any/Src/sto_pll_speed_pos_fdbk.c **** 
 313:MCSDK_v6.1.0-Full/MotorControl/MCSDK/MCLib/Any/Src/sto_pll_speed_pos_fdbk.c ****     wAux = ((int32_t)pHandle->hC2) * hIbeta_err;
 314:MCSDK_v6.1.0-Full/MotorControl/MCSDK/MCLib/Any/Src/sto_pll_speed_pos_fdbk.c ****     wIbeta_est_Next += wAux;
 315:MCSDK_v6.1.0-Full/MotorControl/MCSDK/MCLib/Any/Src/sto_pll_speed_pos_fdbk.c **** 
ARM GAS  /tmp/ccDchrQO.s 			page 7


 316:MCSDK_v6.1.0-Full/MotorControl/MCSDK/MCLib/Any/Src/sto_pll_speed_pos_fdbk.c ****     wAux = ((int32_t)pHandle->hC5) * hVbeta;
 317:MCSDK_v6.1.0-Full/MotorControl/MCSDK/MCLib/Any/Src/sto_pll_speed_pos_fdbk.c ****     wIbeta_est_Next += wAux;
 318:MCSDK_v6.1.0-Full/MotorControl/MCSDK/MCLib/Any/Src/sto_pll_speed_pos_fdbk.c **** 
 319:MCSDK_v6.1.0-Full/MotorControl/MCSDK/MCLib/Any/Src/sto_pll_speed_pos_fdbk.c ****     wAux = ((int32_t)pHandle->hC3) * hAux_Beta;
 320:MCSDK_v6.1.0-Full/MotorControl/MCSDK/MCLib/Any/Src/sto_pll_speed_pos_fdbk.c ****     wIbeta_est_Next -= wAux;
 321:MCSDK_v6.1.0-Full/MotorControl/MCSDK/MCLib/Any/Src/sto_pll_speed_pos_fdbk.c **** 
 322:MCSDK_v6.1.0-Full/MotorControl/MCSDK/MCLib/Any/Src/sto_pll_speed_pos_fdbk.c ****     wAux = ((int32_t)pHandle->hC4) * hIbeta_err;
 323:MCSDK_v6.1.0-Full/MotorControl/MCSDK/MCLib/Any/Src/sto_pll_speed_pos_fdbk.c ****     wBemf_beta_est_Next = pHandle->wBemf_beta_est + wAux;
 324:MCSDK_v6.1.0-Full/MotorControl/MCSDK/MCLib/Any/Src/sto_pll_speed_pos_fdbk.c **** 
 325:MCSDK_v6.1.0-Full/MotorControl/MCSDK/MCLib/Any/Src/sto_pll_speed_pos_fdbk.c **** #ifndef FULL_MISRA_C_COMPLIANCY_STO_PLL
 326:MCSDK_v6.1.0-Full/MotorControl/MCSDK/MCLib/Any/Src/sto_pll_speed_pos_fdbk.c ****     wAux = (int32_t)hAux_Alfa >> pHandle->F3POW2; //cstat !MISRAC2012-Rule-1.3_n !ATH-shift-neg !MI
 327:MCSDK_v6.1.0-Full/MotorControl/MCSDK/MCLib/Any/Src/sto_pll_speed_pos_fdbk.c **** #else
 328:MCSDK_v6.1.0-Full/MotorControl/MCSDK/MCLib/Any/Src/sto_pll_speed_pos_fdbk.c ****     wAux = ((int32_t)hAux_Alfa) / pHandle->hF3;
 329:MCSDK_v6.1.0-Full/MotorControl/MCSDK/MCLib/Any/Src/sto_pll_speed_pos_fdbk.c **** #endif
 330:MCSDK_v6.1.0-Full/MotorControl/MCSDK/MCLib/Any/Src/sto_pll_speed_pos_fdbk.c **** 
 331:MCSDK_v6.1.0-Full/MotorControl/MCSDK/MCLib/Any/Src/sto_pll_speed_pos_fdbk.c ****     wAux = wAux * pHandle->hC6;
 332:MCSDK_v6.1.0-Full/MotorControl/MCSDK/MCLib/Any/Src/sto_pll_speed_pos_fdbk.c ****     wAux = pHandle->_Super.hElSpeedDpp * wAux;
 333:MCSDK_v6.1.0-Full/MotorControl/MCSDK/MCLib/Any/Src/sto_pll_speed_pos_fdbk.c ****     wBemf_beta_est_Next -= wAux;
 334:MCSDK_v6.1.0-Full/MotorControl/MCSDK/MCLib/Any/Src/sto_pll_speed_pos_fdbk.c **** 
 335:MCSDK_v6.1.0-Full/MotorControl/MCSDK/MCLib/Any/Src/sto_pll_speed_pos_fdbk.c ****     /*Calls the PLL blockset*/
 336:MCSDK_v6.1.0-Full/MotorControl/MCSDK/MCLib/Any/Src/sto_pll_speed_pos_fdbk.c ****     pHandle->hBemf_alfa_est = hAux_Alfa;
 337:MCSDK_v6.1.0-Full/MotorControl/MCSDK/MCLib/Any/Src/sto_pll_speed_pos_fdbk.c ****     pHandle->hBemf_beta_est = hAux_Beta;
 338:MCSDK_v6.1.0-Full/MotorControl/MCSDK/MCLib/Any/Src/sto_pll_speed_pos_fdbk.c **** 
 339:MCSDK_v6.1.0-Full/MotorControl/MCSDK/MCLib/Any/Src/sto_pll_speed_pos_fdbk.c ****     if (0 == pHandle->hForcedDirection)
 340:MCSDK_v6.1.0-Full/MotorControl/MCSDK/MCLib/Any/Src/sto_pll_speed_pos_fdbk.c ****     {
 341:MCSDK_v6.1.0-Full/MotorControl/MCSDK/MCLib/Any/Src/sto_pll_speed_pos_fdbk.c ****       /* we are in auxiliary mode, then rely on the speed detected */
 342:MCSDK_v6.1.0-Full/MotorControl/MCSDK/MCLib/Any/Src/sto_pll_speed_pos_fdbk.c ****       if(pHandle->_Super.hElSpeedDpp >= 0)
 343:MCSDK_v6.1.0-Full/MotorControl/MCSDK/MCLib/Any/Src/sto_pll_speed_pos_fdbk.c ****       {
 344:MCSDK_v6.1.0-Full/MotorControl/MCSDK/MCLib/Any/Src/sto_pll_speed_pos_fdbk.c ****         wDirection = 1;
 345:MCSDK_v6.1.0-Full/MotorControl/MCSDK/MCLib/Any/Src/sto_pll_speed_pos_fdbk.c ****       }
 346:MCSDK_v6.1.0-Full/MotorControl/MCSDK/MCLib/Any/Src/sto_pll_speed_pos_fdbk.c ****       else
 347:MCSDK_v6.1.0-Full/MotorControl/MCSDK/MCLib/Any/Src/sto_pll_speed_pos_fdbk.c ****       {
 348:MCSDK_v6.1.0-Full/MotorControl/MCSDK/MCLib/Any/Src/sto_pll_speed_pos_fdbk.c ****         wDirection = -1;
 349:MCSDK_v6.1.0-Full/MotorControl/MCSDK/MCLib/Any/Src/sto_pll_speed_pos_fdbk.c ****       }
 350:MCSDK_v6.1.0-Full/MotorControl/MCSDK/MCLib/Any/Src/sto_pll_speed_pos_fdbk.c ****     }
 351:MCSDK_v6.1.0-Full/MotorControl/MCSDK/MCLib/Any/Src/sto_pll_speed_pos_fdbk.c ****     else
 352:MCSDK_v6.1.0-Full/MotorControl/MCSDK/MCLib/Any/Src/sto_pll_speed_pos_fdbk.c ****     {
 353:MCSDK_v6.1.0-Full/MotorControl/MCSDK/MCLib/Any/Src/sto_pll_speed_pos_fdbk.c ****       /* we are in main sensor mode, use a forced direction */
 354:MCSDK_v6.1.0-Full/MotorControl/MCSDK/MCLib/Any/Src/sto_pll_speed_pos_fdbk.c ****       wDirection = pHandle->hForcedDirection;
 355:MCSDK_v6.1.0-Full/MotorControl/MCSDK/MCLib/Any/Src/sto_pll_speed_pos_fdbk.c ****     }
 356:MCSDK_v6.1.0-Full/MotorControl/MCSDK/MCLib/Any/Src/sto_pll_speed_pos_fdbk.c **** 
 357:MCSDK_v6.1.0-Full/MotorControl/MCSDK/MCLib/Any/Src/sto_pll_speed_pos_fdbk.c ****     hAux_Alfa = (int16_t)(hAux_Alfa * wDirection);
 358:MCSDK_v6.1.0-Full/MotorControl/MCSDK/MCLib/Any/Src/sto_pll_speed_pos_fdbk.c ****     hAux_Beta = (int16_t)(hAux_Beta * wDirection);
 359:MCSDK_v6.1.0-Full/MotorControl/MCSDK/MCLib/Any/Src/sto_pll_speed_pos_fdbk.c **** 
 360:MCSDK_v6.1.0-Full/MotorControl/MCSDK/MCLib/Any/Src/sto_pll_speed_pos_fdbk.c ****     hRotor_Speed = STO_ExecutePLL(pHandle, hAux_Alfa, -hAux_Beta);
 361:MCSDK_v6.1.0-Full/MotorControl/MCSDK/MCLib/Any/Src/sto_pll_speed_pos_fdbk.c ****     pHandle->_Super.InstantaneousElSpeedDpp = hRotor_Speed;
 362:MCSDK_v6.1.0-Full/MotorControl/MCSDK/MCLib/Any/Src/sto_pll_speed_pos_fdbk.c **** 
 363:MCSDK_v6.1.0-Full/MotorControl/MCSDK/MCLib/Any/Src/sto_pll_speed_pos_fdbk.c ****     STO_Store_Rotor_Speed(pHandle, hRotor_Speed);
 364:MCSDK_v6.1.0-Full/MotorControl/MCSDK/MCLib/Any/Src/sto_pll_speed_pos_fdbk.c **** 
 365:MCSDK_v6.1.0-Full/MotorControl/MCSDK/MCLib/Any/Src/sto_pll_speed_pos_fdbk.c ****     pHandle->_Super.hElAngle += hRotor_Speed;
 366:MCSDK_v6.1.0-Full/MotorControl/MCSDK/MCLib/Any/Src/sto_pll_speed_pos_fdbk.c **** 
 367:MCSDK_v6.1.0-Full/MotorControl/MCSDK/MCLib/Any/Src/sto_pll_speed_pos_fdbk.c ****     /*storing previous values of currents and bemfs*/
 368:MCSDK_v6.1.0-Full/MotorControl/MCSDK/MCLib/Any/Src/sto_pll_speed_pos_fdbk.c ****     pHandle->Ialfa_est = wIalfa_est_Next;
 369:MCSDK_v6.1.0-Full/MotorControl/MCSDK/MCLib/Any/Src/sto_pll_speed_pos_fdbk.c ****     pHandle->wBemf_alfa_est = wBemf_alfa_est_Next;
 370:MCSDK_v6.1.0-Full/MotorControl/MCSDK/MCLib/Any/Src/sto_pll_speed_pos_fdbk.c **** 
 371:MCSDK_v6.1.0-Full/MotorControl/MCSDK/MCLib/Any/Src/sto_pll_speed_pos_fdbk.c ****     pHandle->Ibeta_est = wIbeta_est_Next;
 372:MCSDK_v6.1.0-Full/MotorControl/MCSDK/MCLib/Any/Src/sto_pll_speed_pos_fdbk.c ****     pHandle->wBemf_beta_est = wBemf_beta_est_Next;
ARM GAS  /tmp/ccDchrQO.s 			page 8


 373:MCSDK_v6.1.0-Full/MotorControl/MCSDK/MCLib/Any/Src/sto_pll_speed_pos_fdbk.c ****     retValue = pHandle->_Super.hElAngle;
 374:MCSDK_v6.1.0-Full/MotorControl/MCSDK/MCLib/Any/Src/sto_pll_speed_pos_fdbk.c ****   }
 375:MCSDK_v6.1.0-Full/MotorControl/MCSDK/MCLib/Any/Src/sto_pll_speed_pos_fdbk.c ****   return (retValue);
 376:MCSDK_v6.1.0-Full/MotorControl/MCSDK/MCLib/Any/Src/sto_pll_speed_pos_fdbk.c **** }
 377:MCSDK_v6.1.0-Full/MotorControl/MCSDK/MCLib/Any/Src/sto_pll_speed_pos_fdbk.c **** 
 378:MCSDK_v6.1.0-Full/MotorControl/MCSDK/MCLib/Any/Src/sto_pll_speed_pos_fdbk.c **** /**
 379:MCSDK_v6.1.0-Full/MotorControl/MCSDK/MCLib/Any/Src/sto_pll_speed_pos_fdbk.c ****   * @brief  Computes and returns the average mechanical speed.
 380:MCSDK_v6.1.0-Full/MotorControl/MCSDK/MCLib/Any/Src/sto_pll_speed_pos_fdbk.c ****   * 
 381:MCSDK_v6.1.0-Full/MotorControl/MCSDK/MCLib/Any/Src/sto_pll_speed_pos_fdbk.c ****   * This method must be called - at least - with the same periodicity
 382:MCSDK_v6.1.0-Full/MotorControl/MCSDK/MCLib/Any/Src/sto_pll_speed_pos_fdbk.c ****   * on which speed control is executed. It computes and returns - through
 383:MCSDK_v6.1.0-Full/MotorControl/MCSDK/MCLib/Any/Src/sto_pll_speed_pos_fdbk.c ****   * parameter hMecSpeedUnit - the rotor average mechanical speed,
 384:MCSDK_v6.1.0-Full/MotorControl/MCSDK/MCLib/Any/Src/sto_pll_speed_pos_fdbk.c ****   * expressed in #SPEED_UNIT. Average is computed considering a FIFO depth
 385:MCSDK_v6.1.0-Full/MotorControl/MCSDK/MCLib/Any/Src/sto_pll_speed_pos_fdbk.c ****   * equal to bSpeedBufferSizeUnit. Moreover it also computes and returns
 386:MCSDK_v6.1.0-Full/MotorControl/MCSDK/MCLib/Any/Src/sto_pll_speed_pos_fdbk.c ****   * the reliability state of the sensor.
 387:MCSDK_v6.1.0-Full/MotorControl/MCSDK/MCLib/Any/Src/sto_pll_speed_pos_fdbk.c ****   * 
 388:MCSDK_v6.1.0-Full/MotorControl/MCSDK/MCLib/Any/Src/sto_pll_speed_pos_fdbk.c ****   * @param  pHandle: Handler of the current instance of the STO component.
 389:MCSDK_v6.1.0-Full/MotorControl/MCSDK/MCLib/Any/Src/sto_pll_speed_pos_fdbk.c ****   * @param  pMecSpeedUnit: Pointer to int16_t, used to return the rotor average
 390:MCSDK_v6.1.0-Full/MotorControl/MCSDK/MCLib/Any/Src/sto_pll_speed_pos_fdbk.c ****   *         mechanical speed (expressed in #SPEED_UNIT).
 391:MCSDK_v6.1.0-Full/MotorControl/MCSDK/MCLib/Any/Src/sto_pll_speed_pos_fdbk.c ****   * @retval True if the sensor information is reliable, false otherwise.
 392:MCSDK_v6.1.0-Full/MotorControl/MCSDK/MCLib/Any/Src/sto_pll_speed_pos_fdbk.c ****   */
 393:MCSDK_v6.1.0-Full/MotorControl/MCSDK/MCLib/Any/Src/sto_pll_speed_pos_fdbk.c **** 
 394:MCSDK_v6.1.0-Full/MotorControl/MCSDK/MCLib/Any/Src/sto_pll_speed_pos_fdbk.c **** __weak bool STO_PLL_CalcAvrgMecSpeedUnit(STO_PLL_Handle_t *pHandle, int16_t *pMecSpeedUnit)
 395:MCSDK_v6.1.0-Full/MotorControl/MCSDK/MCLib/Any/Src/sto_pll_speed_pos_fdbk.c **** {
 396:MCSDK_v6.1.0-Full/MotorControl/MCSDK/MCLib/Any/Src/sto_pll_speed_pos_fdbk.c ****   bool bAux;
 397:MCSDK_v6.1.0-Full/MotorControl/MCSDK/MCLib/Any/Src/sto_pll_speed_pos_fdbk.c **** #ifdef NULL_PTR_STO_PLL_SPD_POS_FDB
 398:MCSDK_v6.1.0-Full/MotorControl/MCSDK/MCLib/Any/Src/sto_pll_speed_pos_fdbk.c ****   if ((MC_NULL == pHandle) || (MC_NULL == pMecSpeedUnit))
 399:MCSDK_v6.1.0-Full/MotorControl/MCSDK/MCLib/Any/Src/sto_pll_speed_pos_fdbk.c ****   {
 400:MCSDK_v6.1.0-Full/MotorControl/MCSDK/MCLib/Any/Src/sto_pll_speed_pos_fdbk.c ****     bAux = false;
 401:MCSDK_v6.1.0-Full/MotorControl/MCSDK/MCLib/Any/Src/sto_pll_speed_pos_fdbk.c ****   }
 402:MCSDK_v6.1.0-Full/MotorControl/MCSDK/MCLib/Any/Src/sto_pll_speed_pos_fdbk.c ****   else
 403:MCSDK_v6.1.0-Full/MotorControl/MCSDK/MCLib/Any/Src/sto_pll_speed_pos_fdbk.c ****   {
 404:MCSDK_v6.1.0-Full/MotorControl/MCSDK/MCLib/Any/Src/sto_pll_speed_pos_fdbk.c **** #endif
 405:MCSDK_v6.1.0-Full/MotorControl/MCSDK/MCLib/Any/Src/sto_pll_speed_pos_fdbk.c ****     int32_t wAvrSpeed_dpp = (int32_t)0;
 406:MCSDK_v6.1.0-Full/MotorControl/MCSDK/MCLib/Any/Src/sto_pll_speed_pos_fdbk.c ****     int32_t wError;
 407:MCSDK_v6.1.0-Full/MotorControl/MCSDK/MCLib/Any/Src/sto_pll_speed_pos_fdbk.c ****     int32_t wAux;
 408:MCSDK_v6.1.0-Full/MotorControl/MCSDK/MCLib/Any/Src/sto_pll_speed_pos_fdbk.c ****     int32_t wAvrSquareSpeed;
 409:MCSDK_v6.1.0-Full/MotorControl/MCSDK/MCLib/Any/Src/sto_pll_speed_pos_fdbk.c ****     int32_t wAvrQuadraticError = 0;
 410:MCSDK_v6.1.0-Full/MotorControl/MCSDK/MCLib/Any/Src/sto_pll_speed_pos_fdbk.c ****     int32_t wObsBemf, wEstBemf;
 411:MCSDK_v6.1.0-Full/MotorControl/MCSDK/MCLib/Any/Src/sto_pll_speed_pos_fdbk.c ****     int32_t wObsBemfSq = 0;
 412:MCSDK_v6.1.0-Full/MotorControl/MCSDK/MCLib/Any/Src/sto_pll_speed_pos_fdbk.c ****     int32_t wEstBemfSq = 0;
 413:MCSDK_v6.1.0-Full/MotorControl/MCSDK/MCLib/Any/Src/sto_pll_speed_pos_fdbk.c ****     int32_t wEstBemfSqLo;
 414:MCSDK_v6.1.0-Full/MotorControl/MCSDK/MCLib/Any/Src/sto_pll_speed_pos_fdbk.c ****     bool bIs_Speed_Reliable = false;
 415:MCSDK_v6.1.0-Full/MotorControl/MCSDK/MCLib/Any/Src/sto_pll_speed_pos_fdbk.c ****     bool bIs_Bemf_Consistent = false;
 416:MCSDK_v6.1.0-Full/MotorControl/MCSDK/MCLib/Any/Src/sto_pll_speed_pos_fdbk.c ****     uint8_t i, bSpeedBufferSizeUnit = pHandle->SpeedBufferSizeUnit;
 417:MCSDK_v6.1.0-Full/MotorControl/MCSDK/MCLib/Any/Src/sto_pll_speed_pos_fdbk.c **** 
 418:MCSDK_v6.1.0-Full/MotorControl/MCSDK/MCLib/Any/Src/sto_pll_speed_pos_fdbk.c ****     for (i = 0U; i < bSpeedBufferSizeUnit; i++)
 419:MCSDK_v6.1.0-Full/MotorControl/MCSDK/MCLib/Any/Src/sto_pll_speed_pos_fdbk.c ****     {
 420:MCSDK_v6.1.0-Full/MotorControl/MCSDK/MCLib/Any/Src/sto_pll_speed_pos_fdbk.c ****       wAvrSpeed_dpp += (int32_t)(pHandle->Speed_Buffer[i]);
 421:MCSDK_v6.1.0-Full/MotorControl/MCSDK/MCLib/Any/Src/sto_pll_speed_pos_fdbk.c ****     }
 422:MCSDK_v6.1.0-Full/MotorControl/MCSDK/MCLib/Any/Src/sto_pll_speed_pos_fdbk.c **** 
 423:MCSDK_v6.1.0-Full/MotorControl/MCSDK/MCLib/Any/Src/sto_pll_speed_pos_fdbk.c ****     if (0U == bSpeedBufferSizeUnit)
 424:MCSDK_v6.1.0-Full/MotorControl/MCSDK/MCLib/Any/Src/sto_pll_speed_pos_fdbk.c ****     {
 425:MCSDK_v6.1.0-Full/MotorControl/MCSDK/MCLib/Any/Src/sto_pll_speed_pos_fdbk.c ****       /* Nothing to do */
 426:MCSDK_v6.1.0-Full/MotorControl/MCSDK/MCLib/Any/Src/sto_pll_speed_pos_fdbk.c ****     }
 427:MCSDK_v6.1.0-Full/MotorControl/MCSDK/MCLib/Any/Src/sto_pll_speed_pos_fdbk.c ****     else
 428:MCSDK_v6.1.0-Full/MotorControl/MCSDK/MCLib/Any/Src/sto_pll_speed_pos_fdbk.c ****     {
 429:MCSDK_v6.1.0-Full/MotorControl/MCSDK/MCLib/Any/Src/sto_pll_speed_pos_fdbk.c ****       wAvrSpeed_dpp = wAvrSpeed_dpp / ((int16_t)bSpeedBufferSizeUnit);
ARM GAS  /tmp/ccDchrQO.s 			page 9


 430:MCSDK_v6.1.0-Full/MotorControl/MCSDK/MCLib/Any/Src/sto_pll_speed_pos_fdbk.c ****     }
 431:MCSDK_v6.1.0-Full/MotorControl/MCSDK/MCLib/Any/Src/sto_pll_speed_pos_fdbk.c **** 
 432:MCSDK_v6.1.0-Full/MotorControl/MCSDK/MCLib/Any/Src/sto_pll_speed_pos_fdbk.c ****     for (i = 0U; i < bSpeedBufferSizeUnit; i++)
 433:MCSDK_v6.1.0-Full/MotorControl/MCSDK/MCLib/Any/Src/sto_pll_speed_pos_fdbk.c ****     {
 434:MCSDK_v6.1.0-Full/MotorControl/MCSDK/MCLib/Any/Src/sto_pll_speed_pos_fdbk.c ****       wError = ((int32_t)pHandle->Speed_Buffer[i]) - wAvrSpeed_dpp;
 435:MCSDK_v6.1.0-Full/MotorControl/MCSDK/MCLib/Any/Src/sto_pll_speed_pos_fdbk.c ****       wError = (wError * wError);
 436:MCSDK_v6.1.0-Full/MotorControl/MCSDK/MCLib/Any/Src/sto_pll_speed_pos_fdbk.c ****       wAvrQuadraticError += wError;
 437:MCSDK_v6.1.0-Full/MotorControl/MCSDK/MCLib/Any/Src/sto_pll_speed_pos_fdbk.c ****     }
 438:MCSDK_v6.1.0-Full/MotorControl/MCSDK/MCLib/Any/Src/sto_pll_speed_pos_fdbk.c **** 
 439:MCSDK_v6.1.0-Full/MotorControl/MCSDK/MCLib/Any/Src/sto_pll_speed_pos_fdbk.c ****     /* It computes the measurement variance */
 440:MCSDK_v6.1.0-Full/MotorControl/MCSDK/MCLib/Any/Src/sto_pll_speed_pos_fdbk.c ****     wAvrQuadraticError = wAvrQuadraticError / ((int16_t)bSpeedBufferSizeUnit);
 441:MCSDK_v6.1.0-Full/MotorControl/MCSDK/MCLib/Any/Src/sto_pll_speed_pos_fdbk.c **** 
 442:MCSDK_v6.1.0-Full/MotorControl/MCSDK/MCLib/Any/Src/sto_pll_speed_pos_fdbk.c ****     /* The maximum variance acceptable is here calculated as a function of average speed */
 443:MCSDK_v6.1.0-Full/MotorControl/MCSDK/MCLib/Any/Src/sto_pll_speed_pos_fdbk.c ****     wAvrSquareSpeed = wAvrSpeed_dpp * wAvrSpeed_dpp;
 444:MCSDK_v6.1.0-Full/MotorControl/MCSDK/MCLib/Any/Src/sto_pll_speed_pos_fdbk.c ****     int64_t lAvrSquareSpeed = (int64_t)(wAvrSquareSpeed) * pHandle->VariancePercentage;      
 445:MCSDK_v6.1.0-Full/MotorControl/MCSDK/MCLib/Any/Src/sto_pll_speed_pos_fdbk.c ****     wAvrSquareSpeed = lAvrSquareSpeed / (int16_t)128;
 446:MCSDK_v6.1.0-Full/MotorControl/MCSDK/MCLib/Any/Src/sto_pll_speed_pos_fdbk.c ****     
 447:MCSDK_v6.1.0-Full/MotorControl/MCSDK/MCLib/Any/Src/sto_pll_speed_pos_fdbk.c ****     if (wAvrQuadraticError < wAvrSquareSpeed)
 448:MCSDK_v6.1.0-Full/MotorControl/MCSDK/MCLib/Any/Src/sto_pll_speed_pos_fdbk.c ****     {
 449:MCSDK_v6.1.0-Full/MotorControl/MCSDK/MCLib/Any/Src/sto_pll_speed_pos_fdbk.c ****       bIs_Speed_Reliable = true;
 450:MCSDK_v6.1.0-Full/MotorControl/MCSDK/MCLib/Any/Src/sto_pll_speed_pos_fdbk.c ****     }
 451:MCSDK_v6.1.0-Full/MotorControl/MCSDK/MCLib/Any/Src/sto_pll_speed_pos_fdbk.c **** 
 452:MCSDK_v6.1.0-Full/MotorControl/MCSDK/MCLib/Any/Src/sto_pll_speed_pos_fdbk.c ****     /* Computation of Mechanical speed Unit */
 453:MCSDK_v6.1.0-Full/MotorControl/MCSDK/MCLib/Any/Src/sto_pll_speed_pos_fdbk.c ****     wAux = wAvrSpeed_dpp * ((int32_t)pHandle->_Super.hMeasurementFrequency);
 454:MCSDK_v6.1.0-Full/MotorControl/MCSDK/MCLib/Any/Src/sto_pll_speed_pos_fdbk.c ****     wAux = wAux * ((int32_t)pHandle->_Super.SpeedUnit);
 455:MCSDK_v6.1.0-Full/MotorControl/MCSDK/MCLib/Any/Src/sto_pll_speed_pos_fdbk.c ****     wAux = wAux / ((int32_t)pHandle->_Super.DPPConvFactor);
 456:MCSDK_v6.1.0-Full/MotorControl/MCSDK/MCLib/Any/Src/sto_pll_speed_pos_fdbk.c ****     wAux = wAux / ((int16_t)pHandle->_Super.bElToMecRatio);
 457:MCSDK_v6.1.0-Full/MotorControl/MCSDK/MCLib/Any/Src/sto_pll_speed_pos_fdbk.c **** 
 458:MCSDK_v6.1.0-Full/MotorControl/MCSDK/MCLib/Any/Src/sto_pll_speed_pos_fdbk.c ****     *pMecSpeedUnit = (int16_t)wAux;
 459:MCSDK_v6.1.0-Full/MotorControl/MCSDK/MCLib/Any/Src/sto_pll_speed_pos_fdbk.c ****     pHandle->_Super.hAvrMecSpeedUnit = (int16_t)wAux;
 460:MCSDK_v6.1.0-Full/MotorControl/MCSDK/MCLib/Any/Src/sto_pll_speed_pos_fdbk.c **** 
 461:MCSDK_v6.1.0-Full/MotorControl/MCSDK/MCLib/Any/Src/sto_pll_speed_pos_fdbk.c ****     pHandle->IsSpeedReliable = bIs_Speed_Reliable;
 462:MCSDK_v6.1.0-Full/MotorControl/MCSDK/MCLib/Any/Src/sto_pll_speed_pos_fdbk.c **** 
 463:MCSDK_v6.1.0-Full/MotorControl/MCSDK/MCLib/Any/Src/sto_pll_speed_pos_fdbk.c ****     /* Bemf Consistency Check algorithm */
 464:MCSDK_v6.1.0-Full/MotorControl/MCSDK/MCLib/Any/Src/sto_pll_speed_pos_fdbk.c ****     if (true == pHandle->EnableDualCheck) /*do algorithm if it's enabled*/
 465:MCSDK_v6.1.0-Full/MotorControl/MCSDK/MCLib/Any/Src/sto_pll_speed_pos_fdbk.c ****     {
 466:MCSDK_v6.1.0-Full/MotorControl/MCSDK/MCLib/Any/Src/sto_pll_speed_pos_fdbk.c ****       /* wAux abs value   */
 467:MCSDK_v6.1.0-Full/MotorControl/MCSDK/MCLib/Any/Src/sto_pll_speed_pos_fdbk.c ****       //cstat !MISRAC2012-Rule-14.3_b !RED-func-no-effect !RED-cmp-never !RED-cond-never
 468:MCSDK_v6.1.0-Full/MotorControl/MCSDK/MCLib/Any/Src/sto_pll_speed_pos_fdbk.c ****       wAux = ((wAux < 0) ? (-wAux) : (wAux));
 469:MCSDK_v6.1.0-Full/MotorControl/MCSDK/MCLib/Any/Src/sto_pll_speed_pos_fdbk.c ****       if (wAux < (int32_t)(pHandle->MaxAppPositiveMecSpeedUnit))
 470:MCSDK_v6.1.0-Full/MotorControl/MCSDK/MCLib/Any/Src/sto_pll_speed_pos_fdbk.c ****       {
 471:MCSDK_v6.1.0-Full/MotorControl/MCSDK/MCLib/Any/Src/sto_pll_speed_pos_fdbk.c ****         /* Computation of Observed back-emf */
 472:MCSDK_v6.1.0-Full/MotorControl/MCSDK/MCLib/Any/Src/sto_pll_speed_pos_fdbk.c ****         wObsBemf = (int32_t)pHandle->hBemf_alfa_est;
 473:MCSDK_v6.1.0-Full/MotorControl/MCSDK/MCLib/Any/Src/sto_pll_speed_pos_fdbk.c ****         wObsBemfSq = wObsBemf * wObsBemf;
 474:MCSDK_v6.1.0-Full/MotorControl/MCSDK/MCLib/Any/Src/sto_pll_speed_pos_fdbk.c ****         wObsBemf = (int32_t)pHandle->hBemf_beta_est;
 475:MCSDK_v6.1.0-Full/MotorControl/MCSDK/MCLib/Any/Src/sto_pll_speed_pos_fdbk.c ****         wObsBemfSq += wObsBemf * wObsBemf;
 476:MCSDK_v6.1.0-Full/MotorControl/MCSDK/MCLib/Any/Src/sto_pll_speed_pos_fdbk.c **** 
 477:MCSDK_v6.1.0-Full/MotorControl/MCSDK/MCLib/Any/Src/sto_pll_speed_pos_fdbk.c ****         /* Computation of Estimated back-emf */
 478:MCSDK_v6.1.0-Full/MotorControl/MCSDK/MCLib/Any/Src/sto_pll_speed_pos_fdbk.c ****         wEstBemf = (wAux * 32767) / ((int16_t)pHandle->_Super.hMaxReliableMecSpeedUnit);
 479:MCSDK_v6.1.0-Full/MotorControl/MCSDK/MCLib/Any/Src/sto_pll_speed_pos_fdbk.c ****         wEstBemfSq = (wEstBemf * ((int32_t)pHandle->BemfConsistencyGain)) / 64;
 480:MCSDK_v6.1.0-Full/MotorControl/MCSDK/MCLib/Any/Src/sto_pll_speed_pos_fdbk.c ****         wEstBemfSq *= wEstBemf;
 481:MCSDK_v6.1.0-Full/MotorControl/MCSDK/MCLib/Any/Src/sto_pll_speed_pos_fdbk.c **** 
 482:MCSDK_v6.1.0-Full/MotorControl/MCSDK/MCLib/Any/Src/sto_pll_speed_pos_fdbk.c ****         /* Computation of threshold */
 483:MCSDK_v6.1.0-Full/MotorControl/MCSDK/MCLib/Any/Src/sto_pll_speed_pos_fdbk.c ****         wEstBemfSqLo = wEstBemfSq - ((wEstBemfSq / 64) * ((int32_t)pHandle->BemfConsistencyCheck));
 484:MCSDK_v6.1.0-Full/MotorControl/MCSDK/MCLib/Any/Src/sto_pll_speed_pos_fdbk.c **** 
 485:MCSDK_v6.1.0-Full/MotorControl/MCSDK/MCLib/Any/Src/sto_pll_speed_pos_fdbk.c ****         /* Check */
 486:MCSDK_v6.1.0-Full/MotorControl/MCSDK/MCLib/Any/Src/sto_pll_speed_pos_fdbk.c ****         if (wObsBemfSq > wEstBemfSqLo)
ARM GAS  /tmp/ccDchrQO.s 			page 10


 487:MCSDK_v6.1.0-Full/MotorControl/MCSDK/MCLib/Any/Src/sto_pll_speed_pos_fdbk.c ****         {
 488:MCSDK_v6.1.0-Full/MotorControl/MCSDK/MCLib/Any/Src/sto_pll_speed_pos_fdbk.c ****           bIs_Bemf_Consistent = true;
 489:MCSDK_v6.1.0-Full/MotorControl/MCSDK/MCLib/Any/Src/sto_pll_speed_pos_fdbk.c ****         }
 490:MCSDK_v6.1.0-Full/MotorControl/MCSDK/MCLib/Any/Src/sto_pll_speed_pos_fdbk.c ****       }
 491:MCSDK_v6.1.0-Full/MotorControl/MCSDK/MCLib/Any/Src/sto_pll_speed_pos_fdbk.c **** 
 492:MCSDK_v6.1.0-Full/MotorControl/MCSDK/MCLib/Any/Src/sto_pll_speed_pos_fdbk.c ****       pHandle->IsBemfConsistent = bIs_Bemf_Consistent;
 493:MCSDK_v6.1.0-Full/MotorControl/MCSDK/MCLib/Any/Src/sto_pll_speed_pos_fdbk.c ****       pHandle->Obs_Bemf_Level = wObsBemfSq;
 494:MCSDK_v6.1.0-Full/MotorControl/MCSDK/MCLib/Any/Src/sto_pll_speed_pos_fdbk.c ****       pHandle->Est_Bemf_Level = wEstBemfSq;
 495:MCSDK_v6.1.0-Full/MotorControl/MCSDK/MCLib/Any/Src/sto_pll_speed_pos_fdbk.c ****     }
 496:MCSDK_v6.1.0-Full/MotorControl/MCSDK/MCLib/Any/Src/sto_pll_speed_pos_fdbk.c ****     else
 497:MCSDK_v6.1.0-Full/MotorControl/MCSDK/MCLib/Any/Src/sto_pll_speed_pos_fdbk.c ****     {
 498:MCSDK_v6.1.0-Full/MotorControl/MCSDK/MCLib/Any/Src/sto_pll_speed_pos_fdbk.c ****       bIs_Bemf_Consistent = true;
 499:MCSDK_v6.1.0-Full/MotorControl/MCSDK/MCLib/Any/Src/sto_pll_speed_pos_fdbk.c ****     }
 500:MCSDK_v6.1.0-Full/MotorControl/MCSDK/MCLib/Any/Src/sto_pll_speed_pos_fdbk.c **** 
 501:MCSDK_v6.1.0-Full/MotorControl/MCSDK/MCLib/Any/Src/sto_pll_speed_pos_fdbk.c ****     /* Decision making */
 502:MCSDK_v6.1.0-Full/MotorControl/MCSDK/MCLib/Any/Src/sto_pll_speed_pos_fdbk.c ****     if (false == pHandle->IsAlgorithmConverged)
 503:MCSDK_v6.1.0-Full/MotorControl/MCSDK/MCLib/Any/Src/sto_pll_speed_pos_fdbk.c ****     {
 504:MCSDK_v6.1.0-Full/MotorControl/MCSDK/MCLib/Any/Src/sto_pll_speed_pos_fdbk.c ****       bAux = SPD_IsMecSpeedReliable (&pHandle->_Super, pMecSpeedUnit);
 505:MCSDK_v6.1.0-Full/MotorControl/MCSDK/MCLib/Any/Src/sto_pll_speed_pos_fdbk.c ****     }
 506:MCSDK_v6.1.0-Full/MotorControl/MCSDK/MCLib/Any/Src/sto_pll_speed_pos_fdbk.c ****     else
 507:MCSDK_v6.1.0-Full/MotorControl/MCSDK/MCLib/Any/Src/sto_pll_speed_pos_fdbk.c ****     {
 508:MCSDK_v6.1.0-Full/MotorControl/MCSDK/MCLib/Any/Src/sto_pll_speed_pos_fdbk.c ****       if ((false == pHandle->IsSpeedReliable) || (false == bIs_Bemf_Consistent))
 509:MCSDK_v6.1.0-Full/MotorControl/MCSDK/MCLib/Any/Src/sto_pll_speed_pos_fdbk.c ****       {
 510:MCSDK_v6.1.0-Full/MotorControl/MCSDK/MCLib/Any/Src/sto_pll_speed_pos_fdbk.c ****         pHandle->ReliabilityCounter++;
 511:MCSDK_v6.1.0-Full/MotorControl/MCSDK/MCLib/Any/Src/sto_pll_speed_pos_fdbk.c ****         if (pHandle->ReliabilityCounter >= pHandle->Reliability_hysteresys)
 512:MCSDK_v6.1.0-Full/MotorControl/MCSDK/MCLib/Any/Src/sto_pll_speed_pos_fdbk.c ****         {
 513:MCSDK_v6.1.0-Full/MotorControl/MCSDK/MCLib/Any/Src/sto_pll_speed_pos_fdbk.c ****           pHandle->ReliabilityCounter = 0U;
 514:MCSDK_v6.1.0-Full/MotorControl/MCSDK/MCLib/Any/Src/sto_pll_speed_pos_fdbk.c ****           pHandle->_Super.bSpeedErrorNumber = pHandle->_Super.bMaximumSpeedErrorsNumber;
 515:MCSDK_v6.1.0-Full/MotorControl/MCSDK/MCLib/Any/Src/sto_pll_speed_pos_fdbk.c ****           bAux = false;
 516:MCSDK_v6.1.0-Full/MotorControl/MCSDK/MCLib/Any/Src/sto_pll_speed_pos_fdbk.c ****         }
 517:MCSDK_v6.1.0-Full/MotorControl/MCSDK/MCLib/Any/Src/sto_pll_speed_pos_fdbk.c ****         else
 518:MCSDK_v6.1.0-Full/MotorControl/MCSDK/MCLib/Any/Src/sto_pll_speed_pos_fdbk.c ****         {
 519:MCSDK_v6.1.0-Full/MotorControl/MCSDK/MCLib/Any/Src/sto_pll_speed_pos_fdbk.c ****           bAux = SPD_IsMecSpeedReliable (&pHandle->_Super, pMecSpeedUnit);
 520:MCSDK_v6.1.0-Full/MotorControl/MCSDK/MCLib/Any/Src/sto_pll_speed_pos_fdbk.c ****         }
 521:MCSDK_v6.1.0-Full/MotorControl/MCSDK/MCLib/Any/Src/sto_pll_speed_pos_fdbk.c ****       }
 522:MCSDK_v6.1.0-Full/MotorControl/MCSDK/MCLib/Any/Src/sto_pll_speed_pos_fdbk.c ****       else
 523:MCSDK_v6.1.0-Full/MotorControl/MCSDK/MCLib/Any/Src/sto_pll_speed_pos_fdbk.c ****       {
 524:MCSDK_v6.1.0-Full/MotorControl/MCSDK/MCLib/Any/Src/sto_pll_speed_pos_fdbk.c ****         pHandle->ReliabilityCounter = 0U;
 525:MCSDK_v6.1.0-Full/MotorControl/MCSDK/MCLib/Any/Src/sto_pll_speed_pos_fdbk.c ****         bAux = SPD_IsMecSpeedReliable (&pHandle->_Super, pMecSpeedUnit);
 526:MCSDK_v6.1.0-Full/MotorControl/MCSDK/MCLib/Any/Src/sto_pll_speed_pos_fdbk.c ****       }
 527:MCSDK_v6.1.0-Full/MotorControl/MCSDK/MCLib/Any/Src/sto_pll_speed_pos_fdbk.c ****     }
 528:MCSDK_v6.1.0-Full/MotorControl/MCSDK/MCLib/Any/Src/sto_pll_speed_pos_fdbk.c **** #ifdef NULL_PTR_STO_PLL_SPD_POS_FDB
 529:MCSDK_v6.1.0-Full/MotorControl/MCSDK/MCLib/Any/Src/sto_pll_speed_pos_fdbk.c ****   }
 530:MCSDK_v6.1.0-Full/MotorControl/MCSDK/MCLib/Any/Src/sto_pll_speed_pos_fdbk.c **** #endif
 531:MCSDK_v6.1.0-Full/MotorControl/MCSDK/MCLib/Any/Src/sto_pll_speed_pos_fdbk.c ****   return (bAux);
 532:MCSDK_v6.1.0-Full/MotorControl/MCSDK/MCLib/Any/Src/sto_pll_speed_pos_fdbk.c **** }
 533:MCSDK_v6.1.0-Full/MotorControl/MCSDK/MCLib/Any/Src/sto_pll_speed_pos_fdbk.c **** 
 534:MCSDK_v6.1.0-Full/MotorControl/MCSDK/MCLib/Any/Src/sto_pll_speed_pos_fdbk.c **** #if defined (CCMRAM)
 535:MCSDK_v6.1.0-Full/MotorControl/MCSDK/MCLib/Any/Src/sto_pll_speed_pos_fdbk.c **** #if defined (__ICCARM__)
 536:MCSDK_v6.1.0-Full/MotorControl/MCSDK/MCLib/Any/Src/sto_pll_speed_pos_fdbk.c **** #pragma location = ".ccmram"
 537:MCSDK_v6.1.0-Full/MotorControl/MCSDK/MCLib/Any/Src/sto_pll_speed_pos_fdbk.c **** #elif defined (__CC_ARM) || defined(__GNUC__)
 538:MCSDK_v6.1.0-Full/MotorControl/MCSDK/MCLib/Any/Src/sto_pll_speed_pos_fdbk.c **** __attribute__( ( section ( ".ccmram" ) ) )
 539:MCSDK_v6.1.0-Full/MotorControl/MCSDK/MCLib/Any/Src/sto_pll_speed_pos_fdbk.c **** #endif
 540:MCSDK_v6.1.0-Full/MotorControl/MCSDK/MCLib/Any/Src/sto_pll_speed_pos_fdbk.c **** #endif
 541:MCSDK_v6.1.0-Full/MotorControl/MCSDK/MCLib/Any/Src/sto_pll_speed_pos_fdbk.c **** /**
 542:MCSDK_v6.1.0-Full/MotorControl/MCSDK/MCLib/Any/Src/sto_pll_speed_pos_fdbk.c ****   * @brief  Computes and updates the average electrical speed.
 543:MCSDK_v6.1.0-Full/MotorControl/MCSDK/MCLib/Any/Src/sto_pll_speed_pos_fdbk.c ****   * 
ARM GAS  /tmp/ccDchrQO.s 			page 11


 544:MCSDK_v6.1.0-Full/MotorControl/MCSDK/MCLib/Any/Src/sto_pll_speed_pos_fdbk.c ****   * This method must be called - at least - with the same periodicity
 545:MCSDK_v6.1.0-Full/MotorControl/MCSDK/MCLib/Any/Src/sto_pll_speed_pos_fdbk.c ****   * on which speed control is executed. It computes and update component
 546:MCSDK_v6.1.0-Full/MotorControl/MCSDK/MCLib/Any/Src/sto_pll_speed_pos_fdbk.c ****   * variable hElSpeedDpp that is estimated average electrical speed
 547:MCSDK_v6.1.0-Full/MotorControl/MCSDK/MCLib/Any/Src/sto_pll_speed_pos_fdbk.c ****   * expressed in dpp used for instance in observer equations.
 548:MCSDK_v6.1.0-Full/MotorControl/MCSDK/MCLib/Any/Src/sto_pll_speed_pos_fdbk.c ****   * Average is computed considering a FIFO depth equal to
 549:MCSDK_v6.1.0-Full/MotorControl/MCSDK/MCLib/Any/Src/sto_pll_speed_pos_fdbk.c ****   * bSpeedBufferSizedpp.
 550:MCSDK_v6.1.0-Full/MotorControl/MCSDK/MCLib/Any/Src/sto_pll_speed_pos_fdbk.c ****   * 
 551:MCSDK_v6.1.0-Full/MotorControl/MCSDK/MCLib/Any/Src/sto_pll_speed_pos_fdbk.c ****   * @param  pHandle: Handler of the current instance of the STO component.
 552:MCSDK_v6.1.0-Full/MotorControl/MCSDK/MCLib/Any/Src/sto_pll_speed_pos_fdbk.c ****   */
 553:MCSDK_v6.1.0-Full/MotorControl/MCSDK/MCLib/Any/Src/sto_pll_speed_pos_fdbk.c **** __weak void STO_PLL_CalcAvrgElSpeedDpp(STO_PLL_Handle_t *pHandle)
 554:MCSDK_v6.1.0-Full/MotorControl/MCSDK/MCLib/Any/Src/sto_pll_speed_pos_fdbk.c **** {
 555:MCSDK_v6.1.0-Full/MotorControl/MCSDK/MCLib/Any/Src/sto_pll_speed_pos_fdbk.c **** #ifdef NULL_PTR_STO_PLL_SPD_POS_FDB
 556:MCSDK_v6.1.0-Full/MotorControl/MCSDK/MCLib/Any/Src/sto_pll_speed_pos_fdbk.c ****   if (MC_NULL == pHandle)
 557:MCSDK_v6.1.0-Full/MotorControl/MCSDK/MCLib/Any/Src/sto_pll_speed_pos_fdbk.c ****   {
 558:MCSDK_v6.1.0-Full/MotorControl/MCSDK/MCLib/Any/Src/sto_pll_speed_pos_fdbk.c ****     /* Nothing to do */
 559:MCSDK_v6.1.0-Full/MotorControl/MCSDK/MCLib/Any/Src/sto_pll_speed_pos_fdbk.c ****   }
 560:MCSDK_v6.1.0-Full/MotorControl/MCSDK/MCLib/Any/Src/sto_pll_speed_pos_fdbk.c ****   else
 561:MCSDK_v6.1.0-Full/MotorControl/MCSDK/MCLib/Any/Src/sto_pll_speed_pos_fdbk.c ****   {
 562:MCSDK_v6.1.0-Full/MotorControl/MCSDK/MCLib/Any/Src/sto_pll_speed_pos_fdbk.c **** #endif
 563:MCSDK_v6.1.0-Full/MotorControl/MCSDK/MCLib/Any/Src/sto_pll_speed_pos_fdbk.c ****     int16_t hIndexNew = (int16_t)pHandle->Speed_Buffer_Index;
 564:MCSDK_v6.1.0-Full/MotorControl/MCSDK/MCLib/Any/Src/sto_pll_speed_pos_fdbk.c ****     int16_t hIndexOld;
 565:MCSDK_v6.1.0-Full/MotorControl/MCSDK/MCLib/Any/Src/sto_pll_speed_pos_fdbk.c ****     int16_t hIndexOldTemp;
 566:MCSDK_v6.1.0-Full/MotorControl/MCSDK/MCLib/Any/Src/sto_pll_speed_pos_fdbk.c ****     int32_t wSum = pHandle->DppBufferSum;
 567:MCSDK_v6.1.0-Full/MotorControl/MCSDK/MCLib/Any/Src/sto_pll_speed_pos_fdbk.c ****     int32_t wAvrSpeed_dpp;
 568:MCSDK_v6.1.0-Full/MotorControl/MCSDK/MCLib/Any/Src/sto_pll_speed_pos_fdbk.c ****     int16_t hSpeedBufferSizedpp = (int16_t)pHandle->SpeedBufferSizeDpp;
 569:MCSDK_v6.1.0-Full/MotorControl/MCSDK/MCLib/Any/Src/sto_pll_speed_pos_fdbk.c ****     int16_t hSpeedBufferSizeUnit = (int16_t)pHandle->SpeedBufferSizeUnit;
 570:MCSDK_v6.1.0-Full/MotorControl/MCSDK/MCLib/Any/Src/sto_pll_speed_pos_fdbk.c ****     int16_t hBufferSizeDiff;
 571:MCSDK_v6.1.0-Full/MotorControl/MCSDK/MCLib/Any/Src/sto_pll_speed_pos_fdbk.c **** 
 572:MCSDK_v6.1.0-Full/MotorControl/MCSDK/MCLib/Any/Src/sto_pll_speed_pos_fdbk.c ****     hBufferSizeDiff = hSpeedBufferSizeUnit - hSpeedBufferSizedpp;
 573:MCSDK_v6.1.0-Full/MotorControl/MCSDK/MCLib/Any/Src/sto_pll_speed_pos_fdbk.c **** 
 574:MCSDK_v6.1.0-Full/MotorControl/MCSDK/MCLib/Any/Src/sto_pll_speed_pos_fdbk.c ****     if (0 == hBufferSizeDiff)
 575:MCSDK_v6.1.0-Full/MotorControl/MCSDK/MCLib/Any/Src/sto_pll_speed_pos_fdbk.c ****     {
 576:MCSDK_v6.1.0-Full/MotorControl/MCSDK/MCLib/Any/Src/sto_pll_speed_pos_fdbk.c ****       wSum = wSum + pHandle->Speed_Buffer[hIndexNew] - pHandle->SpeedBufferOldestEl;
 577:MCSDK_v6.1.0-Full/MotorControl/MCSDK/MCLib/Any/Src/sto_pll_speed_pos_fdbk.c ****     }
 578:MCSDK_v6.1.0-Full/MotorControl/MCSDK/MCLib/Any/Src/sto_pll_speed_pos_fdbk.c ****     else
 579:MCSDK_v6.1.0-Full/MotorControl/MCSDK/MCLib/Any/Src/sto_pll_speed_pos_fdbk.c ****     {
 580:MCSDK_v6.1.0-Full/MotorControl/MCSDK/MCLib/Any/Src/sto_pll_speed_pos_fdbk.c ****       hIndexOldTemp = hIndexNew + hBufferSizeDiff;
 581:MCSDK_v6.1.0-Full/MotorControl/MCSDK/MCLib/Any/Src/sto_pll_speed_pos_fdbk.c **** 
 582:MCSDK_v6.1.0-Full/MotorControl/MCSDK/MCLib/Any/Src/sto_pll_speed_pos_fdbk.c ****       if (hIndexOldTemp >= hSpeedBufferSizeUnit)
 583:MCSDK_v6.1.0-Full/MotorControl/MCSDK/MCLib/Any/Src/sto_pll_speed_pos_fdbk.c ****       {
 584:MCSDK_v6.1.0-Full/MotorControl/MCSDK/MCLib/Any/Src/sto_pll_speed_pos_fdbk.c ****         hIndexOld = hIndexOldTemp - hSpeedBufferSizeUnit;
 585:MCSDK_v6.1.0-Full/MotorControl/MCSDK/MCLib/Any/Src/sto_pll_speed_pos_fdbk.c ****       }
 586:MCSDK_v6.1.0-Full/MotorControl/MCSDK/MCLib/Any/Src/sto_pll_speed_pos_fdbk.c ****       else
 587:MCSDK_v6.1.0-Full/MotorControl/MCSDK/MCLib/Any/Src/sto_pll_speed_pos_fdbk.c ****       {
 588:MCSDK_v6.1.0-Full/MotorControl/MCSDK/MCLib/Any/Src/sto_pll_speed_pos_fdbk.c ****         hIndexOld = hIndexOldTemp;
 589:MCSDK_v6.1.0-Full/MotorControl/MCSDK/MCLib/Any/Src/sto_pll_speed_pos_fdbk.c ****       }
 590:MCSDK_v6.1.0-Full/MotorControl/MCSDK/MCLib/Any/Src/sto_pll_speed_pos_fdbk.c **** 
 591:MCSDK_v6.1.0-Full/MotorControl/MCSDK/MCLib/Any/Src/sto_pll_speed_pos_fdbk.c ****       wSum = wSum + pHandle->Speed_Buffer[hIndexNew] - pHandle->Speed_Buffer[hIndexOld];
 592:MCSDK_v6.1.0-Full/MotorControl/MCSDK/MCLib/Any/Src/sto_pll_speed_pos_fdbk.c ****     }
 593:MCSDK_v6.1.0-Full/MotorControl/MCSDK/MCLib/Any/Src/sto_pll_speed_pos_fdbk.c **** 
 594:MCSDK_v6.1.0-Full/MotorControl/MCSDK/MCLib/Any/Src/sto_pll_speed_pos_fdbk.c **** #ifndef FULL_MISRA_C_COMPLIANCY_STO_PLL
 595:MCSDK_v6.1.0-Full/MotorControl/MCSDK/MCLib/Any/Src/sto_pll_speed_pos_fdbk.c ****   //cstat !MISRAC2012-Rule-1.3_n !ATH-shift-neg !MISRAC2012-Rule-10.1_R6
 596:MCSDK_v6.1.0-Full/MotorControl/MCSDK/MCLib/Any/Src/sto_pll_speed_pos_fdbk.c ****   wAvrSpeed_dpp = wSum >> pHandle->SpeedBufferSizeDppLOG;
 597:MCSDK_v6.1.0-Full/MotorControl/MCSDK/MCLib/Any/Src/sto_pll_speed_pos_fdbk.c **** #else
 598:MCSDK_v6.1.0-Full/MotorControl/MCSDK/MCLib/Any/Src/sto_pll_speed_pos_fdbk.c ****   if ((int16_t )0 == hSpeedBufferSizedpp)
 599:MCSDK_v6.1.0-Full/MotorControl/MCSDK/MCLib/Any/Src/sto_pll_speed_pos_fdbk.c ****   {
 600:MCSDK_v6.1.0-Full/MotorControl/MCSDK/MCLib/Any/Src/sto_pll_speed_pos_fdbk.c ****     /* Nothing to do */
ARM GAS  /tmp/ccDchrQO.s 			page 12


 601:MCSDK_v6.1.0-Full/MotorControl/MCSDK/MCLib/Any/Src/sto_pll_speed_pos_fdbk.c ****     wAvrSpeed_dpp = wSum;
 602:MCSDK_v6.1.0-Full/MotorControl/MCSDK/MCLib/Any/Src/sto_pll_speed_pos_fdbk.c ****   }
 603:MCSDK_v6.1.0-Full/MotorControl/MCSDK/MCLib/Any/Src/sto_pll_speed_pos_fdbk.c ****   else
 604:MCSDK_v6.1.0-Full/MotorControl/MCSDK/MCLib/Any/Src/sto_pll_speed_pos_fdbk.c ****   {
 605:MCSDK_v6.1.0-Full/MotorControl/MCSDK/MCLib/Any/Src/sto_pll_speed_pos_fdbk.c ****     wAvrSpeed_dpp = wSum / hSpeedBufferSizedpp;
 606:MCSDK_v6.1.0-Full/MotorControl/MCSDK/MCLib/Any/Src/sto_pll_speed_pos_fdbk.c ****   }
 607:MCSDK_v6.1.0-Full/MotorControl/MCSDK/MCLib/Any/Src/sto_pll_speed_pos_fdbk.c **** #endif
 608:MCSDK_v6.1.0-Full/MotorControl/MCSDK/MCLib/Any/Src/sto_pll_speed_pos_fdbk.c ****     pHandle->_Super.hElSpeedDpp = (int16_t)wAvrSpeed_dpp;
 609:MCSDK_v6.1.0-Full/MotorControl/MCSDK/MCLib/Any/Src/sto_pll_speed_pos_fdbk.c ****     pHandle->DppBufferSum = wSum;
 610:MCSDK_v6.1.0-Full/MotorControl/MCSDK/MCLib/Any/Src/sto_pll_speed_pos_fdbk.c **** #ifdef NULL_PTR_STO_PLL_SPD_POS_FDB
 611:MCSDK_v6.1.0-Full/MotorControl/MCSDK/MCLib/Any/Src/sto_pll_speed_pos_fdbk.c ****   }
 612:MCSDK_v6.1.0-Full/MotorControl/MCSDK/MCLib/Any/Src/sto_pll_speed_pos_fdbk.c **** #endif
 613:MCSDK_v6.1.0-Full/MotorControl/MCSDK/MCLib/Any/Src/sto_pll_speed_pos_fdbk.c **** }
 614:MCSDK_v6.1.0-Full/MotorControl/MCSDK/MCLib/Any/Src/sto_pll_speed_pos_fdbk.c **** 
 615:MCSDK_v6.1.0-Full/MotorControl/MCSDK/MCLib/Any/Src/sto_pll_speed_pos_fdbk.c **** /**
 616:MCSDK_v6.1.0-Full/MotorControl/MCSDK/MCLib/Any/Src/sto_pll_speed_pos_fdbk.c ****   * @brief  Clears state observer component by re-initializing private variables in @p pHandle.
 617:MCSDK_v6.1.0-Full/MotorControl/MCSDK/MCLib/Any/Src/sto_pll_speed_pos_fdbk.c ****   * 
 618:MCSDK_v6.1.0-Full/MotorControl/MCSDK/MCLib/Any/Src/sto_pll_speed_pos_fdbk.c ****   */
 619:MCSDK_v6.1.0-Full/MotorControl/MCSDK/MCLib/Any/Src/sto_pll_speed_pos_fdbk.c **** __weak void STO_PLL_Clear(STO_PLL_Handle_t *pHandle)
 620:MCSDK_v6.1.0-Full/MotorControl/MCSDK/MCLib/Any/Src/sto_pll_speed_pos_fdbk.c **** {
 621:MCSDK_v6.1.0-Full/MotorControl/MCSDK/MCLib/Any/Src/sto_pll_speed_pos_fdbk.c **** #ifdef NULL_PTR_STO_PLL_SPD_POS_FDB
 622:MCSDK_v6.1.0-Full/MotorControl/MCSDK/MCLib/Any/Src/sto_pll_speed_pos_fdbk.c ****   if (MC_NULL == pHandle)
 623:MCSDK_v6.1.0-Full/MotorControl/MCSDK/MCLib/Any/Src/sto_pll_speed_pos_fdbk.c ****   {
 624:MCSDK_v6.1.0-Full/MotorControl/MCSDK/MCLib/Any/Src/sto_pll_speed_pos_fdbk.c ****     /* Nothing to do */
 625:MCSDK_v6.1.0-Full/MotorControl/MCSDK/MCLib/Any/Src/sto_pll_speed_pos_fdbk.c ****   }
 626:MCSDK_v6.1.0-Full/MotorControl/MCSDK/MCLib/Any/Src/sto_pll_speed_pos_fdbk.c ****   else
 627:MCSDK_v6.1.0-Full/MotorControl/MCSDK/MCLib/Any/Src/sto_pll_speed_pos_fdbk.c ****   {
 628:MCSDK_v6.1.0-Full/MotorControl/MCSDK/MCLib/Any/Src/sto_pll_speed_pos_fdbk.c **** #endif
 629:MCSDK_v6.1.0-Full/MotorControl/MCSDK/MCLib/Any/Src/sto_pll_speed_pos_fdbk.c ****     pHandle->Ialfa_est = (int32_t)0;
 630:MCSDK_v6.1.0-Full/MotorControl/MCSDK/MCLib/Any/Src/sto_pll_speed_pos_fdbk.c ****     pHandle->Ibeta_est = (int32_t)0;
 631:MCSDK_v6.1.0-Full/MotorControl/MCSDK/MCLib/Any/Src/sto_pll_speed_pos_fdbk.c ****     pHandle->wBemf_alfa_est = (int32_t)0;
 632:MCSDK_v6.1.0-Full/MotorControl/MCSDK/MCLib/Any/Src/sto_pll_speed_pos_fdbk.c ****     pHandle->wBemf_beta_est = (int32_t)0;
 633:MCSDK_v6.1.0-Full/MotorControl/MCSDK/MCLib/Any/Src/sto_pll_speed_pos_fdbk.c ****     pHandle->_Super.hElAngle = (int16_t)0;
 634:MCSDK_v6.1.0-Full/MotorControl/MCSDK/MCLib/Any/Src/sto_pll_speed_pos_fdbk.c ****     pHandle->_Super.hElSpeedDpp = (int16_t)0;
 635:MCSDK_v6.1.0-Full/MotorControl/MCSDK/MCLib/Any/Src/sto_pll_speed_pos_fdbk.c ****     pHandle->ConsistencyCounter = 0u;
 636:MCSDK_v6.1.0-Full/MotorControl/MCSDK/MCLib/Any/Src/sto_pll_speed_pos_fdbk.c ****     pHandle->ReliabilityCounter = 0u;
 637:MCSDK_v6.1.0-Full/MotorControl/MCSDK/MCLib/Any/Src/sto_pll_speed_pos_fdbk.c ****     pHandle->IsAlgorithmConverged = false;
 638:MCSDK_v6.1.0-Full/MotorControl/MCSDK/MCLib/Any/Src/sto_pll_speed_pos_fdbk.c ****     pHandle->IsBemfConsistent = false;
 639:MCSDK_v6.1.0-Full/MotorControl/MCSDK/MCLib/Any/Src/sto_pll_speed_pos_fdbk.c ****     pHandle->Obs_Bemf_Level = (int32_t)0;
 640:MCSDK_v6.1.0-Full/MotorControl/MCSDK/MCLib/Any/Src/sto_pll_speed_pos_fdbk.c ****     pHandle->Est_Bemf_Level = (int32_t)0;
 641:MCSDK_v6.1.0-Full/MotorControl/MCSDK/MCLib/Any/Src/sto_pll_speed_pos_fdbk.c ****     pHandle->DppBufferSum = (int32_t)0;
 642:MCSDK_v6.1.0-Full/MotorControl/MCSDK/MCLib/Any/Src/sto_pll_speed_pos_fdbk.c ****     pHandle->ForceConvergency = false;
 643:MCSDK_v6.1.0-Full/MotorControl/MCSDK/MCLib/Any/Src/sto_pll_speed_pos_fdbk.c ****     pHandle->ForceConvergency2 = false;
 644:MCSDK_v6.1.0-Full/MotorControl/MCSDK/MCLib/Any/Src/sto_pll_speed_pos_fdbk.c **** 
 645:MCSDK_v6.1.0-Full/MotorControl/MCSDK/MCLib/Any/Src/sto_pll_speed_pos_fdbk.c ****     STO_InitSpeedBuffer(pHandle);
 646:MCSDK_v6.1.0-Full/MotorControl/MCSDK/MCLib/Any/Src/sto_pll_speed_pos_fdbk.c ****     PID_SetIntegralTerm(& pHandle->PIRegulator, (int32_t)0);
 647:MCSDK_v6.1.0-Full/MotorControl/MCSDK/MCLib/Any/Src/sto_pll_speed_pos_fdbk.c **** #ifdef NULL_PTR_STO_PLL_SPD_POS_FDB
 648:MCSDK_v6.1.0-Full/MotorControl/MCSDK/MCLib/Any/Src/sto_pll_speed_pos_fdbk.c ****   }
 649:MCSDK_v6.1.0-Full/MotorControl/MCSDK/MCLib/Any/Src/sto_pll_speed_pos_fdbk.c **** #endif
 650:MCSDK_v6.1.0-Full/MotorControl/MCSDK/MCLib/Any/Src/sto_pll_speed_pos_fdbk.c **** }
 651:MCSDK_v6.1.0-Full/MotorControl/MCSDK/MCLib/Any/Src/sto_pll_speed_pos_fdbk.c **** 
 652:MCSDK_v6.1.0-Full/MotorControl/MCSDK/MCLib/Any/Src/sto_pll_speed_pos_fdbk.c **** /**
 653:MCSDK_v6.1.0-Full/MotorControl/MCSDK/MCLib/Any/Src/sto_pll_speed_pos_fdbk.c ****   * @brief  Stores in @p pHandle the latest calculated value of @p hRotor_Speed.
 654:MCSDK_v6.1.0-Full/MotorControl/MCSDK/MCLib/Any/Src/sto_pll_speed_pos_fdbk.c ****   * 
 655:MCSDK_v6.1.0-Full/MotorControl/MCSDK/MCLib/Any/Src/sto_pll_speed_pos_fdbk.c ****   */
 656:MCSDK_v6.1.0-Full/MotorControl/MCSDK/MCLib/Any/Src/sto_pll_speed_pos_fdbk.c **** inline static void STO_Store_Rotor_Speed(STO_PLL_Handle_t *pHandle, int16_t hRotor_Speed)
 657:MCSDK_v6.1.0-Full/MotorControl/MCSDK/MCLib/Any/Src/sto_pll_speed_pos_fdbk.c **** {
ARM GAS  /tmp/ccDchrQO.s 			page 13


 658:MCSDK_v6.1.0-Full/MotorControl/MCSDK/MCLib/Any/Src/sto_pll_speed_pos_fdbk.c ****   uint8_t bBuffer_index = pHandle->Speed_Buffer_Index;
 659:MCSDK_v6.1.0-Full/MotorControl/MCSDK/MCLib/Any/Src/sto_pll_speed_pos_fdbk.c **** 
 660:MCSDK_v6.1.0-Full/MotorControl/MCSDK/MCLib/Any/Src/sto_pll_speed_pos_fdbk.c ****   bBuffer_index++;
 661:MCSDK_v6.1.0-Full/MotorControl/MCSDK/MCLib/Any/Src/sto_pll_speed_pos_fdbk.c ****   if (bBuffer_index == pHandle->SpeedBufferSizeUnit)
 662:MCSDK_v6.1.0-Full/MotorControl/MCSDK/MCLib/Any/Src/sto_pll_speed_pos_fdbk.c ****   {
 663:MCSDK_v6.1.0-Full/MotorControl/MCSDK/MCLib/Any/Src/sto_pll_speed_pos_fdbk.c ****     bBuffer_index = 0U;
 664:MCSDK_v6.1.0-Full/MotorControl/MCSDK/MCLib/Any/Src/sto_pll_speed_pos_fdbk.c ****   }
 665:MCSDK_v6.1.0-Full/MotorControl/MCSDK/MCLib/Any/Src/sto_pll_speed_pos_fdbk.c **** 
 666:MCSDK_v6.1.0-Full/MotorControl/MCSDK/MCLib/Any/Src/sto_pll_speed_pos_fdbk.c ****   pHandle->SpeedBufferOldestEl = pHandle->Speed_Buffer[bBuffer_index];
 667:MCSDK_v6.1.0-Full/MotorControl/MCSDK/MCLib/Any/Src/sto_pll_speed_pos_fdbk.c ****   pHandle->Speed_Buffer[bBuffer_index] = hRotor_Speed;
 668:MCSDK_v6.1.0-Full/MotorControl/MCSDK/MCLib/Any/Src/sto_pll_speed_pos_fdbk.c ****   pHandle->Speed_Buffer_Index = bBuffer_index;
 669:MCSDK_v6.1.0-Full/MotorControl/MCSDK/MCLib/Any/Src/sto_pll_speed_pos_fdbk.c **** }
 670:MCSDK_v6.1.0-Full/MotorControl/MCSDK/MCLib/Any/Src/sto_pll_speed_pos_fdbk.c **** 
 671:MCSDK_v6.1.0-Full/MotorControl/MCSDK/MCLib/Any/Src/sto_pll_speed_pos_fdbk.c **** /**
 672:MCSDK_v6.1.0-Full/MotorControl/MCSDK/MCLib/Any/Src/sto_pll_speed_pos_fdbk.c ****   * @brief  Executes PLL algorithm for rotor position extraction from B-emf alpha and beta.
 673:MCSDK_v6.1.0-Full/MotorControl/MCSDK/MCLib/Any/Src/sto_pll_speed_pos_fdbk.c ****   * 
 674:MCSDK_v6.1.0-Full/MotorControl/MCSDK/MCLib/Any/Src/sto_pll_speed_pos_fdbk.c ****   * @param  pHandle: Handler of the current instance of the STO component.
 675:MCSDK_v6.1.0-Full/MotorControl/MCSDK/MCLib/Any/Src/sto_pll_speed_pos_fdbk.c ****   * @param  hBemf_alfa_est: Estimated Bemf alpha on the stator reference frame.
 676:MCSDK_v6.1.0-Full/MotorControl/MCSDK/MCLib/Any/Src/sto_pll_speed_pos_fdbk.c ****   * @param  hBemf_beta_est: Estimated Bemf beta on the stator reference frame.
 677:MCSDK_v6.1.0-Full/MotorControl/MCSDK/MCLib/Any/Src/sto_pll_speed_pos_fdbk.c ****   * @retval 
 678:MCSDK_v6.1.0-Full/MotorControl/MCSDK/MCLib/Any/Src/sto_pll_speed_pos_fdbk.c ****   */
 679:MCSDK_v6.1.0-Full/MotorControl/MCSDK/MCLib/Any/Src/sto_pll_speed_pos_fdbk.c **** inline static int16_t STO_ExecutePLL(STO_PLL_Handle_t *pHandle, int16_t hBemf_alfa_est, int16_t hBe
 680:MCSDK_v6.1.0-Full/MotorControl/MCSDK/MCLib/Any/Src/sto_pll_speed_pos_fdbk.c **** {
 681:MCSDK_v6.1.0-Full/MotorControl/MCSDK/MCLib/Any/Src/sto_pll_speed_pos_fdbk.c ****   int32_t wAlfa_Sin_tmp;
 682:MCSDK_v6.1.0-Full/MotorControl/MCSDK/MCLib/Any/Src/sto_pll_speed_pos_fdbk.c ****   int32_t wBeta_Cos_tmp;
 683:MCSDK_v6.1.0-Full/MotorControl/MCSDK/MCLib/Any/Src/sto_pll_speed_pos_fdbk.c ****   Trig_Components Local_Components;
 684:MCSDK_v6.1.0-Full/MotorControl/MCSDK/MCLib/Any/Src/sto_pll_speed_pos_fdbk.c ****   int16_t hAux1;
 685:MCSDK_v6.1.0-Full/MotorControl/MCSDK/MCLib/Any/Src/sto_pll_speed_pos_fdbk.c ****   int16_t hAux2;
 686:MCSDK_v6.1.0-Full/MotorControl/MCSDK/MCLib/Any/Src/sto_pll_speed_pos_fdbk.c ****   int16_t hOutput;
 687:MCSDK_v6.1.0-Full/MotorControl/MCSDK/MCLib/Any/Src/sto_pll_speed_pos_fdbk.c **** 
 688:MCSDK_v6.1.0-Full/MotorControl/MCSDK/MCLib/Any/Src/sto_pll_speed_pos_fdbk.c ****   Local_Components = MCM_Trig_Functions(pHandle->_Super.hElAngle);
 689:MCSDK_v6.1.0-Full/MotorControl/MCSDK/MCLib/Any/Src/sto_pll_speed_pos_fdbk.c **** 
 690:MCSDK_v6.1.0-Full/MotorControl/MCSDK/MCLib/Any/Src/sto_pll_speed_pos_fdbk.c ****   /* Alfa & Beta BEMF multiplied by Cos & Sin*/
 691:MCSDK_v6.1.0-Full/MotorControl/MCSDK/MCLib/Any/Src/sto_pll_speed_pos_fdbk.c ****   wAlfa_Sin_tmp = ((int32_t )hBemf_alfa_est) * ((int32_t )Local_Components.hSin);
 692:MCSDK_v6.1.0-Full/MotorControl/MCSDK/MCLib/Any/Src/sto_pll_speed_pos_fdbk.c ****   wBeta_Cos_tmp = ((int32_t )hBemf_beta_est) * ((int32_t )Local_Components.hCos);
 693:MCSDK_v6.1.0-Full/MotorControl/MCSDK/MCLib/Any/Src/sto_pll_speed_pos_fdbk.c **** 
 694:MCSDK_v6.1.0-Full/MotorControl/MCSDK/MCLib/Any/Src/sto_pll_speed_pos_fdbk.c **** #ifndef FULL_MISRA_C_COMPLIANCY_STO_PLL
 695:MCSDK_v6.1.0-Full/MotorControl/MCSDK/MCLib/Any/Src/sto_pll_speed_pos_fdbk.c ****   hAux1 = (int16_t)(wBeta_Cos_tmp >> 15); //cstat !MISRAC2012-Rule-1.3_n !ATH-shift-neg !MISRAC2012
 696:MCSDK_v6.1.0-Full/MotorControl/MCSDK/MCLib/Any/Src/sto_pll_speed_pos_fdbk.c **** #else
 697:MCSDK_v6.1.0-Full/MotorControl/MCSDK/MCLib/Any/Src/sto_pll_speed_pos_fdbk.c ****   hAux1 = (int16_t)(wBeta_Cos_tmp / 32768);
 698:MCSDK_v6.1.0-Full/MotorControl/MCSDK/MCLib/Any/Src/sto_pll_speed_pos_fdbk.c **** #endif
 699:MCSDK_v6.1.0-Full/MotorControl/MCSDK/MCLib/Any/Src/sto_pll_speed_pos_fdbk.c **** 
 700:MCSDK_v6.1.0-Full/MotorControl/MCSDK/MCLib/Any/Src/sto_pll_speed_pos_fdbk.c **** #ifndef FULL_MISRA_C_COMPLIANCY_STO_PLL
 701:MCSDK_v6.1.0-Full/MotorControl/MCSDK/MCLib/Any/Src/sto_pll_speed_pos_fdbk.c ****   hAux2 = (int16_t)(wAlfa_Sin_tmp >> 15); //cstat !MISRAC2012-Rule-1.3_n !ATH-shift-neg !MISRAC2012
 702:MCSDK_v6.1.0-Full/MotorControl/MCSDK/MCLib/Any/Src/sto_pll_speed_pos_fdbk.c **** #else
 703:MCSDK_v6.1.0-Full/MotorControl/MCSDK/MCLib/Any/Src/sto_pll_speed_pos_fdbk.c ****   hAux2 = (int16_t)(wAlfa_Sin_tmp / 32768);
 704:MCSDK_v6.1.0-Full/MotorControl/MCSDK/MCLib/Any/Src/sto_pll_speed_pos_fdbk.c **** #endif
 705:MCSDK_v6.1.0-Full/MotorControl/MCSDK/MCLib/Any/Src/sto_pll_speed_pos_fdbk.c **** 
 706:MCSDK_v6.1.0-Full/MotorControl/MCSDK/MCLib/Any/Src/sto_pll_speed_pos_fdbk.c ****   /* Speed PI regulator */
 707:MCSDK_v6.1.0-Full/MotorControl/MCSDK/MCLib/Any/Src/sto_pll_speed_pos_fdbk.c ****   hOutput = PI_Controller(& pHandle->PIRegulator, (int32_t)(hAux1 ) - hAux2);
 708:MCSDK_v6.1.0-Full/MotorControl/MCSDK/MCLib/Any/Src/sto_pll_speed_pos_fdbk.c ****   return (hOutput);
 709:MCSDK_v6.1.0-Full/MotorControl/MCSDK/MCLib/Any/Src/sto_pll_speed_pos_fdbk.c **** }
 710:MCSDK_v6.1.0-Full/MotorControl/MCSDK/MCLib/Any/Src/sto_pll_speed_pos_fdbk.c **** 
 711:MCSDK_v6.1.0-Full/MotorControl/MCSDK/MCLib/Any/Src/sto_pll_speed_pos_fdbk.c **** /**
 712:MCSDK_v6.1.0-Full/MotorControl/MCSDK/MCLib/Any/Src/sto_pll_speed_pos_fdbk.c ****   * @brief  Clears the estimated speed buffer in @p pHandle.
 713:MCSDK_v6.1.0-Full/MotorControl/MCSDK/MCLib/Any/Src/sto_pll_speed_pos_fdbk.c ****   *
 714:MCSDK_v6.1.0-Full/MotorControl/MCSDK/MCLib/Any/Src/sto_pll_speed_pos_fdbk.c ****   */
ARM GAS  /tmp/ccDchrQO.s 			page 14


 715:MCSDK_v6.1.0-Full/MotorControl/MCSDK/MCLib/Any/Src/sto_pll_speed_pos_fdbk.c **** static void STO_InitSpeedBuffer(STO_PLL_Handle_t * pHandle)
 716:MCSDK_v6.1.0-Full/MotorControl/MCSDK/MCLib/Any/Src/sto_pll_speed_pos_fdbk.c **** {
  29              		.loc 1 716 1 view -0
  30              		.cfi_startproc
  31              		@ args = 0, pretend = 0, frame = 0
  32              		@ frame_needed = 0, uses_anonymous_args = 0
  33              		@ link register save eliminated.
  34              		.loc 1 716 1 is_stmt 0 view .LVU1
  35 0000 10B4     		push	{r4}
  36              		.cfi_def_cfa_offset 4
  37              		.cfi_offset 4, -4
 717:MCSDK_v6.1.0-Full/MotorControl/MCSDK/MCLib/Any/Src/sto_pll_speed_pos_fdbk.c ****   uint8_t b_i;
  38              		.loc 1 717 3 is_stmt 1 view .LVU2
 718:MCSDK_v6.1.0-Full/MotorControl/MCSDK/MCLib/Any/Src/sto_pll_speed_pos_fdbk.c ****   uint8_t bSpeedBufferSize = pHandle->SpeedBufferSizeUnit;
  39              		.loc 1 718 3 view .LVU3
  40              		.loc 1 718 11 is_stmt 0 view .LVU4
  41 0002 90F80E41 		ldrb	r4, [r0, #270]	@ zero_extendqisi2
  42              	.LVL1:
 719:MCSDK_v6.1.0-Full/MotorControl/MCSDK/MCLib/Any/Src/sto_pll_speed_pos_fdbk.c **** 
 720:MCSDK_v6.1.0-Full/MotorControl/MCSDK/MCLib/Any/Src/sto_pll_speed_pos_fdbk.c ****   /*init speed buffer*/
 721:MCSDK_v6.1.0-Full/MotorControl/MCSDK/MCLib/Any/Src/sto_pll_speed_pos_fdbk.c ****   for (b_i = 0U; b_i < bSpeedBufferSize; b_i++)
  43              		.loc 1 721 3 is_stmt 1 view .LVU5
  44              		.loc 1 721 12 is_stmt 0 view .LVU6
  45 0006 0023     		movs	r3, #0
  46              	.LVL2:
  47              	.L2:
  48              		.loc 1 721 18 is_stmt 1 discriminator 1 view .LVU7
  49              		.loc 1 721 3 is_stmt 0 discriminator 1 view .LVU8
  50 0008 A342     		cmp	r3, r4
  51 000a 08D2     		bcs	.L5
 722:MCSDK_v6.1.0-Full/MotorControl/MCSDK/MCLib/Any/Src/sto_pll_speed_pos_fdbk.c ****   {
 723:MCSDK_v6.1.0-Full/MotorControl/MCSDK/MCLib/Any/Src/sto_pll_speed_pos_fdbk.c ****     pHandle->Speed_Buffer[b_i] = (int16_t)0;
  52              		.loc 1 723 5 is_stmt 1 discriminator 3 view .LVU9
  53              		.loc 1 723 32 is_stmt 0 discriminator 3 view .LVU10
  54 000c 03F13802 		add	r2, r3, #56
  55 0010 00EB4202 		add	r2, r0, r2, lsl #1
  56 0014 0021     		movs	r1, #0
  57 0016 9180     		strh	r1, [r2, #4]	@ movhi
 721:MCSDK_v6.1.0-Full/MotorControl/MCSDK/MCLib/Any/Src/sto_pll_speed_pos_fdbk.c ****   {
  58              		.loc 1 721 42 is_stmt 1 discriminator 3 view .LVU11
 721:MCSDK_v6.1.0-Full/MotorControl/MCSDK/MCLib/Any/Src/sto_pll_speed_pos_fdbk.c ****   {
  59              		.loc 1 721 45 is_stmt 0 discriminator 3 view .LVU12
  60 0018 0133     		adds	r3, r3, #1
  61              	.LVL3:
 721:MCSDK_v6.1.0-Full/MotorControl/MCSDK/MCLib/Any/Src/sto_pll_speed_pos_fdbk.c ****   {
  62              		.loc 1 721 45 discriminator 3 view .LVU13
  63 001a DBB2     		uxtb	r3, r3
  64              	.LVL4:
 721:MCSDK_v6.1.0-Full/MotorControl/MCSDK/MCLib/Any/Src/sto_pll_speed_pos_fdbk.c ****   {
  65              		.loc 1 721 45 discriminator 3 view .LVU14
  66 001c F4E7     		b	.L2
  67              	.L5:
 724:MCSDK_v6.1.0-Full/MotorControl/MCSDK/MCLib/Any/Src/sto_pll_speed_pos_fdbk.c ****   }
 725:MCSDK_v6.1.0-Full/MotorControl/MCSDK/MCLib/Any/Src/sto_pll_speed_pos_fdbk.c ****   pHandle->Speed_Buffer_Index = 0U;
  68              		.loc 1 725 3 is_stmt 1 view .LVU15
  69              		.loc 1 725 31 is_stmt 0 view .LVU16
  70 001e 0023     		movs	r3, #0
ARM GAS  /tmp/ccDchrQO.s 			page 15


  71              	.LVL5:
  72              		.loc 1 725 31 view .LVU17
  73 0020 80F8F430 		strb	r3, [r0, #244]
 726:MCSDK_v6.1.0-Full/MotorControl/MCSDK/MCLib/Any/Src/sto_pll_speed_pos_fdbk.c ****   pHandle->SpeedBufferOldestEl = (int16_t)0;
  74              		.loc 1 726 3 is_stmt 1 view .LVU18
  75              		.loc 1 726 32 is_stmt 0 view .LVU19
  76 0024 A0F80C31 		strh	r3, [r0, #268]	@ movhi
 727:MCSDK_v6.1.0-Full/MotorControl/MCSDK/MCLib/Any/Src/sto_pll_speed_pos_fdbk.c **** 
 728:MCSDK_v6.1.0-Full/MotorControl/MCSDK/MCLib/Any/Src/sto_pll_speed_pos_fdbk.c ****   return;
  77              		.loc 1 728 3 is_stmt 1 view .LVU20
 729:MCSDK_v6.1.0-Full/MotorControl/MCSDK/MCLib/Any/Src/sto_pll_speed_pos_fdbk.c **** }
  78              		.loc 1 729 1 is_stmt 0 view .LVU21
  79 0028 5DF8044B 		ldr	r4, [sp], #4
  80              		.cfi_restore 4
  81              		.cfi_def_cfa_offset 0
  82              	.LVL6:
  83              		.loc 1 729 1 view .LVU22
  84 002c 7047     		bx	lr
  85              		.cfi_endproc
  86              	.LFE1445:
  88              		.section	.text.STO_PLL_Return,"ax",%progbits
  89              		.align	1
  90              		.weak	STO_PLL_Return
  91              		.syntax unified
  92              		.thumb
  93              		.thumb_func
  94              		.fpu fpv4-sp-d16
  96              	STO_PLL_Return:
  97              	.LVL7:
  98              	.LFB1438:
 115:MCSDK_v6.1.0-Full/MotorControl/MCSDK/MCLib/Any/Src/sto_pll_speed_pos_fdbk.c **** #ifdef NULL_PTR_STO_PLL_SPD_POS_FDB
  99              		.loc 1 115 1 is_stmt 1 view -0
 100              		.cfi_startproc
 101              		@ args = 0, pretend = 0, frame = 0
 102              		@ frame_needed = 0, uses_anonymous_args = 0
 103              		@ link register save eliminated.
 126:MCSDK_v6.1.0-Full/MotorControl/MCSDK/MCLib/Any/Src/sto_pll_speed_pos_fdbk.c **** }
 104              		.loc 1 126 3 view .LVU24
 127:MCSDK_v6.1.0-Full/MotorControl/MCSDK/MCLib/Any/Src/sto_pll_speed_pos_fdbk.c **** 
 105              		.loc 1 127 1 is_stmt 0 view .LVU25
 106 0000 7047     		bx	lr
 107              		.cfi_endproc
 108              	.LFE1438:
 110              		.section	.text.STO_PLL_CalcElAngle,"ax",%progbits
 111              		.align	1
 112              		.weak	STO_PLL_CalcElAngle
 113              		.syntax unified
 114              		.thumb
 115              		.thumb_func
 116              		.fpu fpv4-sp-d16
 118              	STO_PLL_CalcElAngle:
 119              	.LVL8:
 120              	.LFB1439:
 148:MCSDK_v6.1.0-Full/MotorControl/MCSDK/MCLib/Any/Src/sto_pll_speed_pos_fdbk.c ****   int16_t retValue;
 121              		.loc 1 148 1 is_stmt 1 view -0
 122              		.cfi_startproc
 123              		@ args = 0, pretend = 0, frame = 40
ARM GAS  /tmp/ccDchrQO.s 			page 16


 124              		@ frame_needed = 0, uses_anonymous_args = 0
 149:MCSDK_v6.1.0-Full/MotorControl/MCSDK/MCLib/Any/Src/sto_pll_speed_pos_fdbk.c **** 
 125              		.loc 1 149 3 view .LVU27
 151:MCSDK_v6.1.0-Full/MotorControl/MCSDK/MCLib/Any/Src/sto_pll_speed_pos_fdbk.c ****   {
 126              		.loc 1 151 3 view .LVU28
 151:MCSDK_v6.1.0-Full/MotorControl/MCSDK/MCLib/Any/Src/sto_pll_speed_pos_fdbk.c ****   {
 127              		.loc 1 151 6 is_stmt 0 view .LVU29
 128 0000 0028     		cmp	r0, #0
 129 0002 00F0F380 		beq	.L20
 148:MCSDK_v6.1.0-Full/MotorControl/MCSDK/MCLib/Any/Src/sto_pll_speed_pos_fdbk.c ****   int16_t retValue;
 130              		.loc 1 148 1 discriminator 1 view .LVU30
 131 0006 2DE9F04F 		push	{r4, r5, r6, r7, r8, r9, r10, fp, lr}
 132              		.cfi_def_cfa_offset 36
 133              		.cfi_offset 4, -36
 134              		.cfi_offset 5, -32
 135              		.cfi_offset 6, -28
 136              		.cfi_offset 7, -24
 137              		.cfi_offset 8, -20
 138              		.cfi_offset 9, -16
 139              		.cfi_offset 10, -12
 140              		.cfi_offset 11, -8
 141              		.cfi_offset 14, -4
 142 000a 8BB0     		sub	sp, sp, #44
 143              		.cfi_def_cfa_offset 80
 144 000c 0446     		mov	r4, r0
 151:MCSDK_v6.1.0-Full/MotorControl/MCSDK/MCLib/Any/Src/sto_pll_speed_pos_fdbk.c ****   {
 145              		.loc 1 151 28 discriminator 1 view .LVU31
 146 000e 0029     		cmp	r1, #0
 147 0010 00F0EE80 		beq	.L21
 148              	.LBB10:
 157:MCSDK_v6.1.0-Full/MotorControl/MCSDK/MCLib/Any/Src/sto_pll_speed_pos_fdbk.c ****     int32_t wDirection;
 149              		.loc 1 157 5 is_stmt 1 view .LVU32
 158:MCSDK_v6.1.0-Full/MotorControl/MCSDK/MCLib/Any/Src/sto_pll_speed_pos_fdbk.c ****     int32_t wIalfa_est_Next;
 150              		.loc 1 158 5 view .LVU33
 159:MCSDK_v6.1.0-Full/MotorControl/MCSDK/MCLib/Any/Src/sto_pll_speed_pos_fdbk.c ****     int32_t wIbeta_est_Next;
 151              		.loc 1 159 5 view .LVU34
 160:MCSDK_v6.1.0-Full/MotorControl/MCSDK/MCLib/Any/Src/sto_pll_speed_pos_fdbk.c ****     int32_t wBemf_alfa_est_Next;
 152              		.loc 1 160 5 view .LVU35
 161:MCSDK_v6.1.0-Full/MotorControl/MCSDK/MCLib/Any/Src/sto_pll_speed_pos_fdbk.c ****     int32_t wBemf_beta_est_Next;
 153              		.loc 1 161 5 view .LVU36
 162:MCSDK_v6.1.0-Full/MotorControl/MCSDK/MCLib/Any/Src/sto_pll_speed_pos_fdbk.c ****     int16_t hAux;
 154              		.loc 1 162 5 view .LVU37
 163:MCSDK_v6.1.0-Full/MotorControl/MCSDK/MCLib/Any/Src/sto_pll_speed_pos_fdbk.c ****     int16_t hAux_Alfa;
 155              		.loc 1 163 5 view .LVU38
 164:MCSDK_v6.1.0-Full/MotorControl/MCSDK/MCLib/Any/Src/sto_pll_speed_pos_fdbk.c ****     int16_t hAux_Beta;
 156              		.loc 1 164 5 view .LVU39
 165:MCSDK_v6.1.0-Full/MotorControl/MCSDK/MCLib/Any/Src/sto_pll_speed_pos_fdbk.c ****     int16_t hIalfa_err;
 157              		.loc 1 165 5 view .LVU40
 166:MCSDK_v6.1.0-Full/MotorControl/MCSDK/MCLib/Any/Src/sto_pll_speed_pos_fdbk.c ****     int16_t hIbeta_err;
 158              		.loc 1 166 5 view .LVU41
 167:MCSDK_v6.1.0-Full/MotorControl/MCSDK/MCLib/Any/Src/sto_pll_speed_pos_fdbk.c ****     int16_t hRotor_Speed;
 159              		.loc 1 167 5 view .LVU42
 168:MCSDK_v6.1.0-Full/MotorControl/MCSDK/MCLib/Any/Src/sto_pll_speed_pos_fdbk.c ****     int16_t hValfa;
 160              		.loc 1 168 5 view .LVU43
 169:MCSDK_v6.1.0-Full/MotorControl/MCSDK/MCLib/Any/Src/sto_pll_speed_pos_fdbk.c ****     int16_t hVbeta;
 161              		.loc 1 169 5 view .LVU44
 170:MCSDK_v6.1.0-Full/MotorControl/MCSDK/MCLib/Any/Src/sto_pll_speed_pos_fdbk.c **** 
ARM GAS  /tmp/ccDchrQO.s 			page 17


 162              		.loc 1 170 5 view .LVU45
 172:MCSDK_v6.1.0-Full/MotorControl/MCSDK/MCLib/Any/Src/sto_pll_speed_pos_fdbk.c ****     {
 163              		.loc 1 172 5 view .LVU46
 172:MCSDK_v6.1.0-Full/MotorControl/MCSDK/MCLib/Any/Src/sto_pll_speed_pos_fdbk.c ****     {
 164              		.loc 1 172 16 is_stmt 0 view .LVU47
 165 0014 826E     		ldr	r2, [r0, #104]
 172:MCSDK_v6.1.0-Full/MotorControl/MCSDK/MCLib/Any/Src/sto_pll_speed_pos_fdbk.c ****     {
 166              		.loc 1 172 53 view .LVU48
 167 0016 B0F92E30 		ldrsh	r3, [r0, #46]
 172:MCSDK_v6.1.0-Full/MotorControl/MCSDK/MCLib/Any/Src/sto_pll_speed_pos_fdbk.c ****     {
 168              		.loc 1 172 60 view .LVU49
 169 001a C3EBC330 		rsb	r0, r3, r3, lsl #15
 170              	.LVL9:
 172:MCSDK_v6.1.0-Full/MotorControl/MCSDK/MCLib/Any/Src/sto_pll_speed_pos_fdbk.c ****     {
 171              		.loc 1 172 8 view .LVU50
 172 001e 8242     		cmp	r2, r0
 173 0020 40F3C380 		ble	.L9
 174:MCSDK_v6.1.0-Full/MotorControl/MCSDK/MCLib/Any/Src/sto_pll_speed_pos_fdbk.c ****     }
 174              		.loc 1 174 7 is_stmt 1 view .LVU51
 174:MCSDK_v6.1.0-Full/MotorControl/MCSDK/MCLib/Any/Src/sto_pll_speed_pos_fdbk.c ****     }
 175              		.loc 1 174 31 is_stmt 0 view .LVU52
 176 0024 A066     		str	r0, [r4, #104]
 177              	.L10:
 183:MCSDK_v6.1.0-Full/MotorControl/MCSDK/MCLib/Any/Src/sto_pll_speed_pos_fdbk.c **** #ifndef FULL_MISRA_C_COMPLIANCY_STO_PLL
 178              		.loc 1 183 5 is_stmt 1 view .LVU53
 186:MCSDK_v6.1.0-Full/MotorControl/MCSDK/MCLib/Any/Src/sto_pll_speed_pos_fdbk.c **** #else
 179              		.loc 1 186 7 view .LVU54
 186:MCSDK_v6.1.0-Full/MotorControl/MCSDK/MCLib/Any/Src/sto_pll_speed_pos_fdbk.c **** #else
 180              		.loc 1 186 36 is_stmt 0 view .LVU55
 181 0026 A26E     		ldr	r2, [r4, #104]
 186:MCSDK_v6.1.0-Full/MotorControl/MCSDK/MCLib/Any/Src/sto_pll_speed_pos_fdbk.c **** #else
 182              		.loc 1 186 63 view .LVU56
 183 0028 B4F81E51 		ldrh	r5, [r4, #286]
 186:MCSDK_v6.1.0-Full/MotorControl/MCSDK/MCLib/Any/Src/sto_pll_speed_pos_fdbk.c **** #else
 184              		.loc 1 186 53 view .LVU57
 185 002c 42FA05F6 		asr	r6, r2, r5
 186 0030 0196     		str	r6, [sp, #4]
 186:MCSDK_v6.1.0-Full/MotorControl/MCSDK/MCLib/Any/Src/sto_pll_speed_pos_fdbk.c **** #else
 187              		.loc 1 186 17 view .LVU58
 188 0032 0FFA86F9 		sxth	r9, r6
 189              	.LVL10:
 191:MCSDK_v6.1.0-Full/MotorControl/MCSDK/MCLib/Any/Src/sto_pll_speed_pos_fdbk.c ****     {
 190              		.loc 1 191 5 is_stmt 1 view .LVU59
 191:MCSDK_v6.1.0-Full/MotorControl/MCSDK/MCLib/Any/Src/sto_pll_speed_pos_fdbk.c ****     {
 191              		.loc 1 191 16 is_stmt 0 view .LVU60
 192 0036 E66E     		ldr	r6, [r4, #108]
 191:MCSDK_v6.1.0-Full/MotorControl/MCSDK/MCLib/Any/Src/sto_pll_speed_pos_fdbk.c ****     {
 193              		.loc 1 191 8 view .LVU61
 194 0038 B042     		cmp	r0, r6
 195 003a 80F2BD80 		bge	.L11
 193:MCSDK_v6.1.0-Full/MotorControl/MCSDK/MCLib/Any/Src/sto_pll_speed_pos_fdbk.c ****     }
 196              		.loc 1 193 7 is_stmt 1 view .LVU62
 193:MCSDK_v6.1.0-Full/MotorControl/MCSDK/MCLib/Any/Src/sto_pll_speed_pos_fdbk.c ****     }
 197              		.loc 1 193 31 is_stmt 0 view .LVU63
 198 003e E066     		str	r0, [r4, #108]
 199              	.L12:
 202:MCSDK_v6.1.0-Full/MotorControl/MCSDK/MCLib/Any/Src/sto_pll_speed_pos_fdbk.c **** #ifndef FULL_MISRA_C_COMPLIANCY_STO_PLL
ARM GAS  /tmp/ccDchrQO.s 			page 18


 200              		.loc 1 202 5 is_stmt 1 view .LVU64
 205:MCSDK_v6.1.0-Full/MotorControl/MCSDK/MCLib/Any/Src/sto_pll_speed_pos_fdbk.c **** #else
 201              		.loc 1 205 5 view .LVU65
 205:MCSDK_v6.1.0-Full/MotorControl/MCSDK/MCLib/Any/Src/sto_pll_speed_pos_fdbk.c **** #else
 202              		.loc 1 205 34 is_stmt 0 view .LVU66
 203 0040 E36E     		ldr	r3, [r4, #108]
 204 0042 0293     		str	r3, [sp, #8]
 205:MCSDK_v6.1.0-Full/MotorControl/MCSDK/MCLib/Any/Src/sto_pll_speed_pos_fdbk.c **** #else
 205              		.loc 1 205 51 view .LVU67
 206 0044 2B41     		asrs	r3, r3, r5
 207 0046 0393     		str	r3, [sp, #12]
 205:MCSDK_v6.1.0-Full/MotorControl/MCSDK/MCLib/Any/Src/sto_pll_speed_pos_fdbk.c **** #else
 208              		.loc 1 205 15 view .LVU68
 209 0048 0FFA83F8 		sxth	r8, r3
 210              	.LVL11:
 210:MCSDK_v6.1.0-Full/MotorControl/MCSDK/MCLib/Any/Src/sto_pll_speed_pos_fdbk.c ****     {
 211              		.loc 1 210 5 is_stmt 1 view .LVU69
 210:MCSDK_v6.1.0-Full/MotorControl/MCSDK/MCLib/Any/Src/sto_pll_speed_pos_fdbk.c ****     {
 212              		.loc 1 210 16 is_stmt 0 view .LVU70
 213 004c 256E     		ldr	r5, [r4, #96]
 210:MCSDK_v6.1.0-Full/MotorControl/MCSDK/MCLib/Any/Src/sto_pll_speed_pos_fdbk.c ****     {
 214              		.loc 1 210 60 view .LVU71
 215 004e B4F92C30 		ldrsh	r3, [r4, #44]
 210:MCSDK_v6.1.0-Full/MotorControl/MCSDK/MCLib/Any/Src/sto_pll_speed_pos_fdbk.c ****     {
 216              		.loc 1 210 41 view .LVU72
 217 0052 C3EBC330 		rsb	r0, r3, r3, lsl #15
 210:MCSDK_v6.1.0-Full/MotorControl/MCSDK/MCLib/Any/Src/sto_pll_speed_pos_fdbk.c ****     {
 218              		.loc 1 210 8 view .LVU73
 219 0056 8542     		cmp	r5, r0
 220 0058 40F3B580 		ble	.L13
 212:MCSDK_v6.1.0-Full/MotorControl/MCSDK/MCLib/Any/Src/sto_pll_speed_pos_fdbk.c ****     }
 221              		.loc 1 212 7 is_stmt 1 view .LVU74
 212:MCSDK_v6.1.0-Full/MotorControl/MCSDK/MCLib/Any/Src/sto_pll_speed_pos_fdbk.c ****     }
 222              		.loc 1 212 26 is_stmt 0 view .LVU75
 223 005c 2066     		str	r0, [r4, #96]
 224              	.L14:
 221:MCSDK_v6.1.0-Full/MotorControl/MCSDK/MCLib/Any/Src/sto_pll_speed_pos_fdbk.c **** 
 225              		.loc 1 221 5 is_stmt 1 view .LVU76
 223:MCSDK_v6.1.0-Full/MotorControl/MCSDK/MCLib/Any/Src/sto_pll_speed_pos_fdbk.c ****     {
 226              		.loc 1 223 5 view .LVU77
 223:MCSDK_v6.1.0-Full/MotorControl/MCSDK/MCLib/Any/Src/sto_pll_speed_pos_fdbk.c ****     {
 227              		.loc 1 223 16 is_stmt 0 view .LVU78
 228 005e 656E     		ldr	r5, [r4, #100]
 223:MCSDK_v6.1.0-Full/MotorControl/MCSDK/MCLib/Any/Src/sto_pll_speed_pos_fdbk.c ****     {
 229              		.loc 1 223 8 view .LVU79
 230 0060 A842     		cmp	r0, r5
 231 0062 80F2B780 		bge	.L15
 225:MCSDK_v6.1.0-Full/MotorControl/MCSDK/MCLib/Any/Src/sto_pll_speed_pos_fdbk.c ****     }
 232              		.loc 1 225 7 is_stmt 1 view .LVU80
 225:MCSDK_v6.1.0-Full/MotorControl/MCSDK/MCLib/Any/Src/sto_pll_speed_pos_fdbk.c ****     }
 233              		.loc 1 225 26 is_stmt 0 view .LVU81
 234 0066 6066     		str	r0, [r4, #100]
 235              	.L16:
 234:MCSDK_v6.1.0-Full/MotorControl/MCSDK/MCLib/Any/Src/sto_pll_speed_pos_fdbk.c **** 
 236              		.loc 1 234 5 is_stmt 1 view .LVU82
 238:MCSDK_v6.1.0-Full/MotorControl/MCSDK/MCLib/Any/Src/sto_pll_speed_pos_fdbk.c **** #else
 237              		.loc 1 238 5 view .LVU83
ARM GAS  /tmp/ccDchrQO.s 			page 19


 238:MCSDK_v6.1.0-Full/MotorControl/MCSDK/MCLib/Any/Src/sto_pll_speed_pos_fdbk.c **** #else
 238              		.loc 1 238 35 is_stmt 0 view .LVU84
 239 0068 206E     		ldr	r0, [r4, #96]
 238:MCSDK_v6.1.0-Full/MotorControl/MCSDK/MCLib/Any/Src/sto_pll_speed_pos_fdbk.c **** #else
 240              		.loc 1 238 57 view .LVU85
 241 006a B4F81C51 		ldrh	r5, [r4, #284]
 238:MCSDK_v6.1.0-Full/MotorControl/MCSDK/MCLib/Any/Src/sto_pll_speed_pos_fdbk.c **** #else
 242              		.loc 1 238 47 view .LVU86
 243 006e 40FA05F3 		asr	r3, r0, r5
 238:MCSDK_v6.1.0-Full/MotorControl/MCSDK/MCLib/Any/Src/sto_pll_speed_pos_fdbk.c **** #else
 244              		.loc 1 238 16 view .LVU87
 245 0072 0FFA83FA 		sxth	r10, r3
 246              	.LVL12:
 243:MCSDK_v6.1.0-Full/MotorControl/MCSDK/MCLib/Any/Src/sto_pll_speed_pos_fdbk.c **** 
 247              		.loc 1 243 5 is_stmt 1 view .LVU88
 243:MCSDK_v6.1.0-Full/MotorControl/MCSDK/MCLib/Any/Src/sto_pll_speed_pos_fdbk.c **** 
 248              		.loc 1 243 50 is_stmt 0 view .LVU89
 249 0076 8E88     		ldrh	r6, [r1, #4]
 243:MCSDK_v6.1.0-Full/MotorControl/MCSDK/MCLib/Any/Src/sto_pll_speed_pos_fdbk.c **** 
 250              		.loc 1 243 29 view .LVU90
 251 0078 9B1B     		subs	r3, r3, r6
 243:MCSDK_v6.1.0-Full/MotorControl/MCSDK/MCLib/Any/Src/sto_pll_speed_pos_fdbk.c **** 
 252              		.loc 1 243 16 view .LVU91
 253 007a 1BB2     		sxth	r3, r3
 254              	.LVL13:
 247:MCSDK_v6.1.0-Full/MotorControl/MCSDK/MCLib/Any/Src/sto_pll_speed_pos_fdbk.c **** #else
 255              		.loc 1 247 5 is_stmt 1 view .LVU92
 247:MCSDK_v6.1.0-Full/MotorControl/MCSDK/MCLib/Any/Src/sto_pll_speed_pos_fdbk.c **** #else
 256              		.loc 1 247 47 is_stmt 0 view .LVU93
 257 007c 666E     		ldr	r6, [r4, #100]
 258 007e 46FA05F5 		asr	r5, r6, r5
 247:MCSDK_v6.1.0-Full/MotorControl/MCSDK/MCLib/Any/Src/sto_pll_speed_pos_fdbk.c **** #else
 259              		.loc 1 247 16 view .LVU94
 260 0082 2EB2     		sxth	r6, r5
 261 0084 0496     		str	r6, [sp, #16]
 262              	.LVL14:
 252:MCSDK_v6.1.0-Full/MotorControl/MCSDK/MCLib/Any/Src/sto_pll_speed_pos_fdbk.c **** 
 263              		.loc 1 252 5 is_stmt 1 view .LVU95
 252:MCSDK_v6.1.0-Full/MotorControl/MCSDK/MCLib/Any/Src/sto_pll_speed_pos_fdbk.c **** 
 264              		.loc 1 252 50 is_stmt 0 view .LVU96
 265 0086 CE88     		ldrh	r6, [r1, #6]
 252:MCSDK_v6.1.0-Full/MotorControl/MCSDK/MCLib/Any/Src/sto_pll_speed_pos_fdbk.c **** 
 266              		.loc 1 252 29 view .LVU97
 267 0088 AD1B     		subs	r5, r5, r6
 252:MCSDK_v6.1.0-Full/MotorControl/MCSDK/MCLib/Any/Src/sto_pll_speed_pos_fdbk.c **** 
 268              		.loc 1 252 16 view .LVU98
 269 008a 2DB2     		sxth	r5, r5
 270 008c 0595     		str	r5, [sp, #20]
 271              	.LVL15:
 254:MCSDK_v6.1.0-Full/MotorControl/MCSDK/MCLib/Any/Src/sto_pll_speed_pos_fdbk.c **** #ifndef FULL_MISRA_C_COMPLIANCY_STO_PLL
 272              		.loc 1 254 5 is_stmt 1 view .LVU99
 254:MCSDK_v6.1.0-Full/MotorControl/MCSDK/MCLib/Any/Src/sto_pll_speed_pos_fdbk.c **** #ifndef FULL_MISRA_C_COMPLIANCY_STO_PLL
 273              		.loc 1 254 29 is_stmt 0 view .LVU100
 274 008e 0F89     		ldrh	r7, [r1, #8]
 254:MCSDK_v6.1.0-Full/MotorControl/MCSDK/MCLib/Any/Src/sto_pll_speed_pos_fdbk.c **** #ifndef FULL_MISRA_C_COMPLIANCY_STO_PLL
 275              		.loc 1 254 58 view .LVU101
 276 0090 B1F90050 		ldrsh	r5, [r1]
ARM GAS  /tmp/ccDchrQO.s 			page 20


 254:MCSDK_v6.1.0-Full/MotorControl/MCSDK/MCLib/Any/Src/sto_pll_speed_pos_fdbk.c **** #ifndef FULL_MISRA_C_COMPLIANCY_STO_PLL
 277              		.loc 1 254 10 view .LVU102
 278 0094 05FB07F5 		mul	r5, r5, r7
 279              	.LVL16:
 256:MCSDK_v6.1.0-Full/MotorControl/MCSDK/MCLib/Any/Src/sto_pll_speed_pos_fdbk.c **** #else
 280              		.loc 1 256 5 is_stmt 1 view .LVU103
 256:MCSDK_v6.1.0-Full/MotorControl/MCSDK/MCLib/Any/Src/sto_pll_speed_pos_fdbk.c **** #else
 281              		.loc 1 256 12 is_stmt 0 view .LVU104
 282 0098 2E14     		asrs	r6, r5, #16
 283              	.LVL17:
 261:MCSDK_v6.1.0-Full/MotorControl/MCSDK/MCLib/Any/Src/sto_pll_speed_pos_fdbk.c **** 
 284              		.loc 1 261 5 is_stmt 1 view .LVU105
 261:MCSDK_v6.1.0-Full/MotorControl/MCSDK/MCLib/Any/Src/sto_pll_speed_pos_fdbk.c **** 
 285              		.loc 1 261 58 is_stmt 0 view .LVU106
 286 009a B1F902E0 		ldrsh	lr, [r1, #2]
 261:MCSDK_v6.1.0-Full/MotorControl/MCSDK/MCLib/Any/Src/sto_pll_speed_pos_fdbk.c **** 
 287              		.loc 1 261 10 view .LVU107
 288 009e 0EFB07F7 		mul	r7, lr, r7
 289              	.LVL18:
 264:MCSDK_v6.1.0-Full/MotorControl/MCSDK/MCLib/Any/Src/sto_pll_speed_pos_fdbk.c **** #else
 290              		.loc 1 264 5 is_stmt 1 view .LVU108
 264:MCSDK_v6.1.0-Full/MotorControl/MCSDK/MCLib/Any/Src/sto_pll_speed_pos_fdbk.c **** #else
 291              		.loc 1 264 12 is_stmt 0 view .LVU109
 292 00a2 3914     		asrs	r1, r7, #16
 293              	.LVL19:
 264:MCSDK_v6.1.0-Full/MotorControl/MCSDK/MCLib/Any/Src/sto_pll_speed_pos_fdbk.c **** #else
 294              		.loc 1 264 12 view .LVU110
 295 00a4 0691     		str	r1, [sp, #24]
 296              	.LVL20:
 272:MCSDK_v6.1.0-Full/MotorControl/MCSDK/MCLib/Any/Src/sto_pll_speed_pos_fdbk.c **** #else
 297              		.loc 1 272 5 is_stmt 1 view .LVU111
 277:MCSDK_v6.1.0-Full/MotorControl/MCSDK/MCLib/Any/Src/sto_pll_speed_pos_fdbk.c ****     wIalfa_est_Next = pHandle->Ialfa_est - wAux;
 298              		.loc 1 277 5 view .LVU112
 277:MCSDK_v6.1.0-Full/MotorControl/MCSDK/MCLib/Any/Src/sto_pll_speed_pos_fdbk.c ****     wIalfa_est_Next = pHandle->Ialfa_est - wAux;
 299              		.loc 1 277 29 is_stmt 0 view .LVU113
 300 00a6 B4F920E0 		ldrsh	lr, [r4, #32]
 301              	.LVL21:
 278:MCSDK_v6.1.0-Full/MotorControl/MCSDK/MCLib/Any/Src/sto_pll_speed_pos_fdbk.c **** 
 302              		.loc 1 278 5 is_stmt 1 view .LVU114
 278:MCSDK_v6.1.0-Full/MotorControl/MCSDK/MCLib/Any/Src/sto_pll_speed_pos_fdbk.c **** 
 303              		.loc 1 278 21 is_stmt 0 view .LVU115
 304 00aa 0AFB1E05 		mls	r5, r10, lr, r0
 305              	.LVL22:
 280:MCSDK_v6.1.0-Full/MotorControl/MCSDK/MCLib/Any/Src/sto_pll_speed_pos_fdbk.c ****     wIalfa_est_Next += wAux;
 306              		.loc 1 280 5 is_stmt 1 view .LVU116
 280:MCSDK_v6.1.0-Full/MotorControl/MCSDK/MCLib/Any/Src/sto_pll_speed_pos_fdbk.c ****     wIalfa_est_Next += wAux;
 307              		.loc 1 280 29 is_stmt 0 view .LVU117
 308 00ae B4F922C0 		ldrsh	ip, [r4, #34]
 309              	.LVL23:
 281:MCSDK_v6.1.0-Full/MotorControl/MCSDK/MCLib/Any/Src/sto_pll_speed_pos_fdbk.c **** 
 310              		.loc 1 281 5 is_stmt 1 view .LVU118
 281:MCSDK_v6.1.0-Full/MotorControl/MCSDK/MCLib/Any/Src/sto_pll_speed_pos_fdbk.c **** 
 311              		.loc 1 281 21 is_stmt 0 view .LVU119
 312 00b2 03FB0C55 		mla	r5, r3, ip, r5
 313              	.LVL24:
 283:MCSDK_v6.1.0-Full/MotorControl/MCSDK/MCLib/Any/Src/sto_pll_speed_pos_fdbk.c ****     wIalfa_est_Next += wAux;
 314              		.loc 1 283 5 is_stmt 1 view .LVU120
ARM GAS  /tmp/ccDchrQO.s 			page 21


 283:MCSDK_v6.1.0-Full/MotorControl/MCSDK/MCLib/Any/Src/sto_pll_speed_pos_fdbk.c ****     wIalfa_est_Next += wAux;
 315              		.loc 1 283 29 is_stmt 0 view .LVU121
 316 00b6 B4F92800 		ldrsh	r0, [r4, #40]
 317              	.LVL25:
 284:MCSDK_v6.1.0-Full/MotorControl/MCSDK/MCLib/Any/Src/sto_pll_speed_pos_fdbk.c **** 
 318              		.loc 1 284 5 is_stmt 1 view .LVU122
 284:MCSDK_v6.1.0-Full/MotorControl/MCSDK/MCLib/Any/Src/sto_pll_speed_pos_fdbk.c **** 
 319              		.loc 1 284 21 is_stmt 0 view .LVU123
 320 00ba 06FB0055 		mla	r5, r6, r0, r5
 321              	.LVL26:
 286:MCSDK_v6.1.0-Full/MotorControl/MCSDK/MCLib/Any/Src/sto_pll_speed_pos_fdbk.c ****     wIalfa_est_Next -= wAux;
 322              		.loc 1 286 5 is_stmt 1 view .LVU124
 286:MCSDK_v6.1.0-Full/MotorControl/MCSDK/MCLib/Any/Src/sto_pll_speed_pos_fdbk.c ****     wIalfa_est_Next -= wAux;
 323              		.loc 1 286 29 is_stmt 0 view .LVU125
 324 00be B4F92470 		ldrsh	r7, [r4, #36]
 325              	.LVL27:
 287:MCSDK_v6.1.0-Full/MotorControl/MCSDK/MCLib/Any/Src/sto_pll_speed_pos_fdbk.c **** 
 326              		.loc 1 287 5 is_stmt 1 view .LVU126
 287:MCSDK_v6.1.0-Full/MotorControl/MCSDK/MCLib/Any/Src/sto_pll_speed_pos_fdbk.c **** 
 327              		.loc 1 287 21 is_stmt 0 view .LVU127
 328 00c2 09FB1751 		mls	r1, r9, r7, r5
 329 00c6 0791     		str	r1, [sp, #28]
 330              	.LVL28:
 289:MCSDK_v6.1.0-Full/MotorControl/MCSDK/MCLib/Any/Src/sto_pll_speed_pos_fdbk.c ****     wBemf_alfa_est_Next = pHandle->wBemf_alfa_est + wAux;
 331              		.loc 1 289 5 is_stmt 1 view .LVU128
 289:MCSDK_v6.1.0-Full/MotorControl/MCSDK/MCLib/Any/Src/sto_pll_speed_pos_fdbk.c ****     wBemf_alfa_est_Next = pHandle->wBemf_alfa_est + wAux;
 332              		.loc 1 289 29 is_stmt 0 view .LVU129
 333 00c8 B4F92610 		ldrsh	r1, [r4, #38]
 334              	.LVL29:
 290:MCSDK_v6.1.0-Full/MotorControl/MCSDK/MCLib/Any/Src/sto_pll_speed_pos_fdbk.c **** 
 335              		.loc 1 290 5 is_stmt 1 view .LVU130
 290:MCSDK_v6.1.0-Full/MotorControl/MCSDK/MCLib/Any/Src/sto_pll_speed_pos_fdbk.c **** 
 336              		.loc 1 290 25 is_stmt 0 view .LVU131
 337 00cc 01FB0323 		mla	r3, r1, r3, r2
 338              	.LVL30:
 293:MCSDK_v6.1.0-Full/MotorControl/MCSDK/MCLib/Any/Src/sto_pll_speed_pos_fdbk.c **** #else
 339              		.loc 1 293 5 is_stmt 1 view .LVU132
 293:MCSDK_v6.1.0-Full/MotorControl/MCSDK/MCLib/Any/Src/sto_pll_speed_pos_fdbk.c **** #else
 340              		.loc 1 293 41 is_stmt 0 view .LVU133
 341 00d0 628E     		ldrh	r2, [r4, #50]
 293:MCSDK_v6.1.0-Full/MotorControl/MCSDK/MCLib/Any/Src/sto_pll_speed_pos_fdbk.c **** #else
 342              		.loc 1 293 10 view .LVU134
 343 00d2 48FA02F6 		asr	r6, r8, r2
 344              	.LVL31:
 298:MCSDK_v6.1.0-Full/MotorControl/MCSDK/MCLib/Any/Src/sto_pll_speed_pos_fdbk.c ****     wAux = pHandle->_Super.hElSpeedDpp * wAux;
 345              		.loc 1 298 5 is_stmt 1 view .LVU135
 298:MCSDK_v6.1.0-Full/MotorControl/MCSDK/MCLib/Any/Src/sto_pll_speed_pos_fdbk.c ****     wAux = pHandle->_Super.hElSpeedDpp * wAux;
 346              		.loc 1 298 26 is_stmt 0 view .LVU136
 347 00d6 B4F92AB0 		ldrsh	fp, [r4, #42]
 298:MCSDK_v6.1.0-Full/MotorControl/MCSDK/MCLib/Any/Src/sto_pll_speed_pos_fdbk.c ****     wAux = pHandle->_Super.hElSpeedDpp * wAux;
 348              		.loc 1 298 10 view .LVU137
 349 00da 06FB0BF6 		mul	r6, r6, fp
 350              	.LVL32:
 299:MCSDK_v6.1.0-Full/MotorControl/MCSDK/MCLib/Any/Src/sto_pll_speed_pos_fdbk.c ****     wBemf_alfa_est_Next += wAux;
 351              		.loc 1 299 5 is_stmt 1 view .LVU138
 299:MCSDK_v6.1.0-Full/MotorControl/MCSDK/MCLib/Any/Src/sto_pll_speed_pos_fdbk.c ****     wBemf_alfa_est_Next += wAux;
 352              		.loc 1 299 27 is_stmt 0 view .LVU139
ARM GAS  /tmp/ccDchrQO.s 			page 22


 353 00de B4F90EA0 		ldrsh	r10, [r4, #14]
 354              	.LVL33:
 300:MCSDK_v6.1.0-Full/MotorControl/MCSDK/MCLib/Any/Src/sto_pll_speed_pos_fdbk.c **** 
 355              		.loc 1 300 5 is_stmt 1 view .LVU140
 300:MCSDK_v6.1.0-Full/MotorControl/MCSDK/MCLib/Any/Src/sto_pll_speed_pos_fdbk.c **** 
 356              		.loc 1 300 25 is_stmt 0 view .LVU141
 357 00e2 06FB0A36 		mla	r6, r6, r10, r3
 358              	.LVL34:
 305:MCSDK_v6.1.0-Full/MotorControl/MCSDK/MCLib/Any/Src/sto_pll_speed_pos_fdbk.c **** #else
 359              		.loc 1 305 5 is_stmt 1 view .LVU142
 310:MCSDK_v6.1.0-Full/MotorControl/MCSDK/MCLib/Any/Src/sto_pll_speed_pos_fdbk.c ****     wIbeta_est_Next = pHandle->Ibeta_est - wAux;
 360              		.loc 1 310 5 view .LVU143
 311:MCSDK_v6.1.0-Full/MotorControl/MCSDK/MCLib/Any/Src/sto_pll_speed_pos_fdbk.c **** 
 361              		.loc 1 311 5 view .LVU144
 311:MCSDK_v6.1.0-Full/MotorControl/MCSDK/MCLib/Any/Src/sto_pll_speed_pos_fdbk.c **** 
 362              		.loc 1 311 21 is_stmt 0 view .LVU145
 363 00e6 049B     		ldr	r3, [sp, #16]
 364 00e8 1D46     		mov	r5, r3
 365 00ea 636E     		ldr	r3, [r4, #100]
 366 00ec 05FB1E3E 		mls	lr, r5, lr, r3
 367              	.LVL35:
 313:MCSDK_v6.1.0-Full/MotorControl/MCSDK/MCLib/Any/Src/sto_pll_speed_pos_fdbk.c ****     wIbeta_est_Next += wAux;
 368              		.loc 1 313 5 is_stmt 1 view .LVU146
 314:MCSDK_v6.1.0-Full/MotorControl/MCSDK/MCLib/Any/Src/sto_pll_speed_pos_fdbk.c **** 
 369              		.loc 1 314 5 view .LVU147
 314:MCSDK_v6.1.0-Full/MotorControl/MCSDK/MCLib/Any/Src/sto_pll_speed_pos_fdbk.c **** 
 370              		.loc 1 314 21 is_stmt 0 view .LVU148
 371 00f0 059B     		ldr	r3, [sp, #20]
 372 00f2 03FB0CEE 		mla	lr, r3, ip, lr
 373              	.LVL36:
 316:MCSDK_v6.1.0-Full/MotorControl/MCSDK/MCLib/Any/Src/sto_pll_speed_pos_fdbk.c ****     wIbeta_est_Next += wAux;
 374              		.loc 1 316 5 is_stmt 1 view .LVU149
 317:MCSDK_v6.1.0-Full/MotorControl/MCSDK/MCLib/Any/Src/sto_pll_speed_pos_fdbk.c **** 
 375              		.loc 1 317 5 view .LVU150
 317:MCSDK_v6.1.0-Full/MotorControl/MCSDK/MCLib/Any/Src/sto_pll_speed_pos_fdbk.c **** 
 376              		.loc 1 317 21 is_stmt 0 view .LVU151
 377 00f6 069D     		ldr	r5, [sp, #24]
 378 00f8 05FB00EE 		mla	lr, r5, r0, lr
 379              	.LVL37:
 319:MCSDK_v6.1.0-Full/MotorControl/MCSDK/MCLib/Any/Src/sto_pll_speed_pos_fdbk.c ****     wIbeta_est_Next -= wAux;
 380              		.loc 1 319 5 is_stmt 1 view .LVU152
 320:MCSDK_v6.1.0-Full/MotorControl/MCSDK/MCLib/Any/Src/sto_pll_speed_pos_fdbk.c **** 
 381              		.loc 1 320 5 view .LVU153
 320:MCSDK_v6.1.0-Full/MotorControl/MCSDK/MCLib/Any/Src/sto_pll_speed_pos_fdbk.c **** 
 382              		.loc 1 320 21 is_stmt 0 view .LVU154
 383 00fc 08FB17E7 		mls	r7, r8, r7, lr
 384              	.LVL38:
 322:MCSDK_v6.1.0-Full/MotorControl/MCSDK/MCLib/Any/Src/sto_pll_speed_pos_fdbk.c ****     wBemf_beta_est_Next = pHandle->wBemf_beta_est + wAux;
 385              		.loc 1 322 5 is_stmt 1 view .LVU155
 323:MCSDK_v6.1.0-Full/MotorControl/MCSDK/MCLib/Any/Src/sto_pll_speed_pos_fdbk.c **** 
 386              		.loc 1 323 5 view .LVU156
 323:MCSDK_v6.1.0-Full/MotorControl/MCSDK/MCLib/Any/Src/sto_pll_speed_pos_fdbk.c **** 
 387              		.loc 1 323 25 is_stmt 0 view .LVU157
 388 0100 0298     		ldr	r0, [sp, #8]
 389 0102 03FB0101 		mla	r1, r3, r1, r0
 390              	.LVL39:
 326:MCSDK_v6.1.0-Full/MotorControl/MCSDK/MCLib/Any/Src/sto_pll_speed_pos_fdbk.c **** #else
ARM GAS  /tmp/ccDchrQO.s 			page 23


 391              		.loc 1 326 5 is_stmt 1 view .LVU158
 326:MCSDK_v6.1.0-Full/MotorControl/MCSDK/MCLib/Any/Src/sto_pll_speed_pos_fdbk.c **** #else
 392              		.loc 1 326 10 is_stmt 0 view .LVU159
 393 0106 49FA02F2 		asr	r2, r9, r2
 394              	.LVL40:
 331:MCSDK_v6.1.0-Full/MotorControl/MCSDK/MCLib/Any/Src/sto_pll_speed_pos_fdbk.c ****     wAux = pHandle->_Super.hElSpeedDpp * wAux;
 395              		.loc 1 331 5 is_stmt 1 view .LVU160
 331:MCSDK_v6.1.0-Full/MotorControl/MCSDK/MCLib/Any/Src/sto_pll_speed_pos_fdbk.c ****     wAux = pHandle->_Super.hElSpeedDpp * wAux;
 396              		.loc 1 331 10 is_stmt 0 view .LVU161
 397 010a 02FB0BFB 		mul	fp, r2, fp
 398              	.LVL41:
 332:MCSDK_v6.1.0-Full/MotorControl/MCSDK/MCLib/Any/Src/sto_pll_speed_pos_fdbk.c ****     wBemf_beta_est_Next -= wAux;
 399              		.loc 1 332 5 is_stmt 1 view .LVU162
 333:MCSDK_v6.1.0-Full/MotorControl/MCSDK/MCLib/Any/Src/sto_pll_speed_pos_fdbk.c **** 
 400              		.loc 1 333 5 view .LVU163
 333:MCSDK_v6.1.0-Full/MotorControl/MCSDK/MCLib/Any/Src/sto_pll_speed_pos_fdbk.c **** 
 401              		.loc 1 333 25 is_stmt 0 view .LVU164
 402 010e 0BFB1A1B 		mls	fp, fp, r10, r1
 403              	.LVL42:
 336:MCSDK_v6.1.0-Full/MotorControl/MCSDK/MCLib/Any/Src/sto_pll_speed_pos_fdbk.c ****     pHandle->hBemf_beta_est = hAux_Beta;
 404              		.loc 1 336 5 is_stmt 1 view .LVU165
 336:MCSDK_v6.1.0-Full/MotorControl/MCSDK/MCLib/Any/Src/sto_pll_speed_pos_fdbk.c ****     pHandle->hBemf_beta_est = hAux_Beta;
 405              		.loc 1 336 29 is_stmt 0 view .LVU166
 406 0112 A4F87090 		strh	r9, [r4, #112]	@ movhi
 407              	.LVL43:
 337:MCSDK_v6.1.0-Full/MotorControl/MCSDK/MCLib/Any/Src/sto_pll_speed_pos_fdbk.c **** 
 408              		.loc 1 337 5 is_stmt 1 view .LVU167
 337:MCSDK_v6.1.0-Full/MotorControl/MCSDK/MCLib/Any/Src/sto_pll_speed_pos_fdbk.c **** 
 409              		.loc 1 337 29 is_stmt 0 view .LVU168
 410 0116 A4F87280 		strh	r8, [r4, #114]	@ movhi
 339:MCSDK_v6.1.0-Full/MotorControl/MCSDK/MCLib/Any/Src/sto_pll_speed_pos_fdbk.c ****     {
 411              		.loc 1 339 5 is_stmt 1 view .LVU169
 339:MCSDK_v6.1.0-Full/MotorControl/MCSDK/MCLib/Any/Src/sto_pll_speed_pos_fdbk.c ****     {
 412              		.loc 1 339 21 is_stmt 0 view .LVU170
 413 011a 94F92401 		ldrsb	r0, [r4, #292]
 339:MCSDK_v6.1.0-Full/MotorControl/MCSDK/MCLib/Any/Src/sto_pll_speed_pos_fdbk.c ****     {
 414              		.loc 1 339 8 view .LVU171
 415 011e 18B9     		cbnz	r0, .L18
 342:MCSDK_v6.1.0-Full/MotorControl/MCSDK/MCLib/Any/Src/sto_pll_speed_pos_fdbk.c ****       {
 416              		.loc 1 342 7 is_stmt 1 view .LVU172
 342:MCSDK_v6.1.0-Full/MotorControl/MCSDK/MCLib/Any/Src/sto_pll_speed_pos_fdbk.c ****       {
 417              		.loc 1 342 9 is_stmt 0 view .LVU173
 418 0120 BAF1000F 		cmp	r10, #0
 419 0124 5DDB     		blt	.L22
 344:MCSDK_v6.1.0-Full/MotorControl/MCSDK/MCLib/Any/Src/sto_pll_speed_pos_fdbk.c ****       }
 420              		.loc 1 344 20 view .LVU174
 421 0126 0120     		movs	r0, #1
 422              	.L18:
 423              	.LVL44:
 357:MCSDK_v6.1.0-Full/MotorControl/MCSDK/MCLib/Any/Src/sto_pll_speed_pos_fdbk.c ****     hAux_Beta = (int16_t)(hAux_Beta * wDirection);
 424              		.loc 1 357 5 is_stmt 1 view .LVU175
 357:MCSDK_v6.1.0-Full/MotorControl/MCSDK/MCLib/Any/Src/sto_pll_speed_pos_fdbk.c ****     hAux_Beta = (int16_t)(hAux_Beta * wDirection);
 425              		.loc 1 357 17 is_stmt 0 view .LVU176
 426 0128 80B2     		uxth	r0, r0
 427              	.LVL45:
 357:MCSDK_v6.1.0-Full/MotorControl/MCSDK/MCLib/Any/Src/sto_pll_speed_pos_fdbk.c ****     hAux_Beta = (int16_t)(hAux_Beta * wDirection);
 428              		.loc 1 357 17 view .LVU177
ARM GAS  /tmp/ccDchrQO.s 			page 24


 429 012a 019B     		ldr	r3, [sp, #4]
 430 012c 13FB00F8 		smulbb	r8, r3, r0
 431              	.LVL46:
 357:MCSDK_v6.1.0-Full/MotorControl/MCSDK/MCLib/Any/Src/sto_pll_speed_pos_fdbk.c ****     hAux_Beta = (int16_t)(hAux_Beta * wDirection);
 432              		.loc 1 357 15 view .LVU178
 433 0130 0FFA88F8 		sxth	r8, r8
 434              	.LVL47:
 358:MCSDK_v6.1.0-Full/MotorControl/MCSDK/MCLib/Any/Src/sto_pll_speed_pos_fdbk.c **** 
 435              		.loc 1 358 5 is_stmt 1 view .LVU179
 358:MCSDK_v6.1.0-Full/MotorControl/MCSDK/MCLib/Any/Src/sto_pll_speed_pos_fdbk.c **** 
 436              		.loc 1 358 17 is_stmt 0 view .LVU180
 437 0134 039B     		ldr	r3, [sp, #12]
 438 0136 13FB00F0 		smulbb	r0, r3, r0
 439 013a 80B2     		uxth	r0, r0
 440              	.LVL48:
 360:MCSDK_v6.1.0-Full/MotorControl/MCSDK/MCLib/Any/Src/sto_pll_speed_pos_fdbk.c ****     pHandle->_Super.InstantaneousElSpeedDpp = hRotor_Speed;
 441              		.loc 1 360 5 is_stmt 1 view .LVU181
 360:MCSDK_v6.1.0-Full/MotorControl/MCSDK/MCLib/Any/Src/sto_pll_speed_pos_fdbk.c ****     pHandle->_Super.InstantaneousElSpeedDpp = hRotor_Speed;
 442              		.loc 1 360 20 is_stmt 0 view .LVU182
 443 013c 4042     		rsbs	r0, r0, #0
 444              	.LVL49:
 360:MCSDK_v6.1.0-Full/MotorControl/MCSDK/MCLib/Any/Src/sto_pll_speed_pos_fdbk.c ****     pHandle->_Super.InstantaneousElSpeedDpp = hRotor_Speed;
 445              		.loc 1 360 20 view .LVU183
 446 013e 0FFA80F9 		sxth	r9, r0
 447              	.LVL50:
 448              	.LBB11:
 449              	.LBI11:
 679:MCSDK_v6.1.0-Full/MotorControl/MCSDK/MCLib/Any/Src/sto_pll_speed_pos_fdbk.c **** {
 450              		.loc 1 679 23 is_stmt 1 view .LVU184
 451              	.LBB12:
 681:MCSDK_v6.1.0-Full/MotorControl/MCSDK/MCLib/Any/Src/sto_pll_speed_pos_fdbk.c ****   int32_t wBeta_Cos_tmp;
 452              		.loc 1 681 3 view .LVU185
 682:MCSDK_v6.1.0-Full/MotorControl/MCSDK/MCLib/Any/Src/sto_pll_speed_pos_fdbk.c ****   Trig_Components Local_Components;
 453              		.loc 1 682 3 view .LVU186
 683:MCSDK_v6.1.0-Full/MotorControl/MCSDK/MCLib/Any/Src/sto_pll_speed_pos_fdbk.c ****   int16_t hAux1;
 454              		.loc 1 683 3 view .LVU187
 684:MCSDK_v6.1.0-Full/MotorControl/MCSDK/MCLib/Any/Src/sto_pll_speed_pos_fdbk.c ****   int16_t hAux2;
 455              		.loc 1 684 3 view .LVU188
 685:MCSDK_v6.1.0-Full/MotorControl/MCSDK/MCLib/Any/Src/sto_pll_speed_pos_fdbk.c ****   int16_t hOutput;
 456              		.loc 1 685 3 view .LVU189
 686:MCSDK_v6.1.0-Full/MotorControl/MCSDK/MCLib/Any/Src/sto_pll_speed_pos_fdbk.c **** 
 457              		.loc 1 686 3 view .LVU190
 688:MCSDK_v6.1.0-Full/MotorControl/MCSDK/MCLib/Any/Src/sto_pll_speed_pos_fdbk.c **** 
 458              		.loc 1 688 3 view .LVU191
 688:MCSDK_v6.1.0-Full/MotorControl/MCSDK/MCLib/Any/Src/sto_pll_speed_pos_fdbk.c **** 
 459              		.loc 1 688 22 is_stmt 0 view .LVU192
 460 0142 B4F90400 		ldrsh	r0, [r4, #4]
 461              	.LVL51:
 688:MCSDK_v6.1.0-Full/MotorControl/MCSDK/MCLib/Any/Src/sto_pll_speed_pos_fdbk.c **** 
 462              		.loc 1 688 22 view .LVU193
 463 0146 FFF7FEFF 		bl	MCM_Trig_Functions
 464              	.LVL52:
 691:MCSDK_v6.1.0-Full/MotorControl/MCSDK/MCLib/Any/Src/sto_pll_speed_pos_fdbk.c ****   wBeta_Cos_tmp = ((int32_t )hBemf_beta_est) * ((int32_t )Local_Components.hCos);
 465              		.loc 1 691 3 is_stmt 1 view .LVU194
 691:MCSDK_v6.1.0-Full/MotorControl/MCSDK/MCLib/Any/Src/sto_pll_speed_pos_fdbk.c ****   wBeta_Cos_tmp = ((int32_t )hBemf_beta_est) * ((int32_t )Local_Components.hCos);
 466              		.loc 1 691 75 is_stmt 0 view .LVU195
 467 014a 0114     		asrs	r1, r0, #16
ARM GAS  /tmp/ccDchrQO.s 			page 25


 691:MCSDK_v6.1.0-Full/MotorControl/MCSDK/MCLib/Any/Src/sto_pll_speed_pos_fdbk.c ****   wBeta_Cos_tmp = ((int32_t )hBemf_beta_est) * ((int32_t )Local_Components.hCos);
 468              		.loc 1 691 17 view .LVU196
 469 014c 01FB08F1 		mul	r1, r1, r8
 470              	.LVL53:
 692:MCSDK_v6.1.0-Full/MotorControl/MCSDK/MCLib/Any/Src/sto_pll_speed_pos_fdbk.c **** 
 471              		.loc 1 692 3 is_stmt 1 view .LVU197
 692:MCSDK_v6.1.0-Full/MotorControl/MCSDK/MCLib/Any/Src/sto_pll_speed_pos_fdbk.c **** 
 472              		.loc 1 692 75 is_stmt 0 view .LVU198
 473 0150 00B2     		sxth	r0, r0
 692:MCSDK_v6.1.0-Full/MotorControl/MCSDK/MCLib/Any/Src/sto_pll_speed_pos_fdbk.c **** 
 474              		.loc 1 692 17 view .LVU199
 475 0152 00FB09F0 		mul	r0, r0, r9
 476              	.LVL54:
 695:MCSDK_v6.1.0-Full/MotorControl/MCSDK/MCLib/Any/Src/sto_pll_speed_pos_fdbk.c **** #else
 477              		.loc 1 695 3 is_stmt 1 view .LVU200
 695:MCSDK_v6.1.0-Full/MotorControl/MCSDK/MCLib/Any/Src/sto_pll_speed_pos_fdbk.c **** #else
 478              		.loc 1 695 9 is_stmt 0 view .LVU201
 479 0156 40F3CF30 		sbfx	r0, r0, #15, #16
 480              	.LVL55:
 701:MCSDK_v6.1.0-Full/MotorControl/MCSDK/MCLib/Any/Src/sto_pll_speed_pos_fdbk.c **** #else
 481              		.loc 1 701 3 is_stmt 1 view .LVU202
 701:MCSDK_v6.1.0-Full/MotorControl/MCSDK/MCLib/Any/Src/sto_pll_speed_pos_fdbk.c **** #else
 482              		.loc 1 701 9 is_stmt 0 view .LVU203
 483 015a 41F3CF31 		sbfx	r1, r1, #15, #16
 484              	.LVL56:
 707:MCSDK_v6.1.0-Full/MotorControl/MCSDK/MCLib/Any/Src/sto_pll_speed_pos_fdbk.c ****   return (hOutput);
 485              		.loc 1 707 3 is_stmt 1 view .LVU204
 707:MCSDK_v6.1.0-Full/MotorControl/MCSDK/MCLib/Any/Src/sto_pll_speed_pos_fdbk.c ****   return (hOutput);
 486              		.loc 1 707 13 is_stmt 0 view .LVU205
 487 015e 411A     		subs	r1, r0, r1
 488              	.LVL57:
 707:MCSDK_v6.1.0-Full/MotorControl/MCSDK/MCLib/Any/Src/sto_pll_speed_pos_fdbk.c ****   return (hOutput);
 489              		.loc 1 707 13 view .LVU206
 490 0160 04F13400 		add	r0, r4, #52
 491              	.LVL58:
 707:MCSDK_v6.1.0-Full/MotorControl/MCSDK/MCLib/Any/Src/sto_pll_speed_pos_fdbk.c ****   return (hOutput);
 492              		.loc 1 707 13 view .LVU207
 493 0164 FFF7FEFF 		bl	PI_Controller
 494              	.LVL59:
 708:MCSDK_v6.1.0-Full/MotorControl/MCSDK/MCLib/Any/Src/sto_pll_speed_pos_fdbk.c **** }
 495              		.loc 1 708 3 is_stmt 1 view .LVU208
 708:MCSDK_v6.1.0-Full/MotorControl/MCSDK/MCLib/Any/Src/sto_pll_speed_pos_fdbk.c **** }
 496              		.loc 1 708 3 is_stmt 0 view .LVU209
 497              	.LBE12:
 498              	.LBE11:
 361:MCSDK_v6.1.0-Full/MotorControl/MCSDK/MCLib/Any/Src/sto_pll_speed_pos_fdbk.c **** 
 499              		.loc 1 361 5 is_stmt 1 view .LVU210
 361:MCSDK_v6.1.0-Full/MotorControl/MCSDK/MCLib/Any/Src/sto_pll_speed_pos_fdbk.c **** 
 500              		.loc 1 361 45 is_stmt 0 view .LVU211
 501 0168 2082     		strh	r0, [r4, #16]	@ movhi
 363:MCSDK_v6.1.0-Full/MotorControl/MCSDK/MCLib/Any/Src/sto_pll_speed_pos_fdbk.c **** 
 502              		.loc 1 363 5 is_stmt 1 view .LVU212
 503              	.LVL60:
 504              	.LBB13:
 505              	.LBI13:
 656:MCSDK_v6.1.0-Full/MotorControl/MCSDK/MCLib/Any/Src/sto_pll_speed_pos_fdbk.c **** {
 506              		.loc 1 656 20 view .LVU213
ARM GAS  /tmp/ccDchrQO.s 			page 26


 507              	.LBB14:
 658:MCSDK_v6.1.0-Full/MotorControl/MCSDK/MCLib/Any/Src/sto_pll_speed_pos_fdbk.c **** 
 508              		.loc 1 658 3 view .LVU214
 658:MCSDK_v6.1.0-Full/MotorControl/MCSDK/MCLib/Any/Src/sto_pll_speed_pos_fdbk.c **** 
 509              		.loc 1 658 11 is_stmt 0 view .LVU215
 510 016a 94F8F430 		ldrb	r3, [r4, #244]	@ zero_extendqisi2
 511              	.LVL61:
 660:MCSDK_v6.1.0-Full/MotorControl/MCSDK/MCLib/Any/Src/sto_pll_speed_pos_fdbk.c ****   if (bBuffer_index == pHandle->SpeedBufferSizeUnit)
 512              		.loc 1 660 3 is_stmt 1 view .LVU216
 660:MCSDK_v6.1.0-Full/MotorControl/MCSDK/MCLib/Any/Src/sto_pll_speed_pos_fdbk.c ****   if (bBuffer_index == pHandle->SpeedBufferSizeUnit)
 513              		.loc 1 660 16 is_stmt 0 view .LVU217
 514 016e 0133     		adds	r3, r3, #1
 515              	.LVL62:
 660:MCSDK_v6.1.0-Full/MotorControl/MCSDK/MCLib/Any/Src/sto_pll_speed_pos_fdbk.c ****   if (bBuffer_index == pHandle->SpeedBufferSizeUnit)
 516              		.loc 1 660 16 view .LVU218
 517 0170 DBB2     		uxtb	r3, r3
 518              	.LVL63:
 661:MCSDK_v6.1.0-Full/MotorControl/MCSDK/MCLib/Any/Src/sto_pll_speed_pos_fdbk.c ****   {
 519              		.loc 1 661 3 is_stmt 1 view .LVU219
 661:MCSDK_v6.1.0-Full/MotorControl/MCSDK/MCLib/Any/Src/sto_pll_speed_pos_fdbk.c ****   {
 520              		.loc 1 661 31 is_stmt 0 view .LVU220
 521 0172 94F80E21 		ldrb	r2, [r4, #270]	@ zero_extendqisi2
 661:MCSDK_v6.1.0-Full/MotorControl/MCSDK/MCLib/Any/Src/sto_pll_speed_pos_fdbk.c ****   {
 522              		.loc 1 661 6 view .LVU221
 523 0176 9342     		cmp	r3, r2
 524 0178 36D0     		beq	.L28
 525              	.LVL64:
 526              	.L19:
 666:MCSDK_v6.1.0-Full/MotorControl/MCSDK/MCLib/Any/Src/sto_pll_speed_pos_fdbk.c ****   pHandle->Speed_Buffer[bBuffer_index] = hRotor_Speed;
 527              		.loc 1 666 3 is_stmt 1 view .LVU222
 666:MCSDK_v6.1.0-Full/MotorControl/MCSDK/MCLib/Any/Src/sto_pll_speed_pos_fdbk.c ****   pHandle->Speed_Buffer[bBuffer_index] = hRotor_Speed;
 528              		.loc 1 666 55 is_stmt 0 view .LVU223
 529 017a 03F13802 		add	r2, r3, #56
 530 017e 04EB4202 		add	r2, r4, r2, lsl #1
 531 0182 B2F90410 		ldrsh	r1, [r2, #4]
 666:MCSDK_v6.1.0-Full/MotorControl/MCSDK/MCLib/Any/Src/sto_pll_speed_pos_fdbk.c ****   pHandle->Speed_Buffer[bBuffer_index] = hRotor_Speed;
 532              		.loc 1 666 32 view .LVU224
 533 0186 A4F80C11 		strh	r1, [r4, #268]	@ movhi
 667:MCSDK_v6.1.0-Full/MotorControl/MCSDK/MCLib/Any/Src/sto_pll_speed_pos_fdbk.c ****   pHandle->Speed_Buffer_Index = bBuffer_index;
 534              		.loc 1 667 3 is_stmt 1 view .LVU225
 667:MCSDK_v6.1.0-Full/MotorControl/MCSDK/MCLib/Any/Src/sto_pll_speed_pos_fdbk.c ****   pHandle->Speed_Buffer_Index = bBuffer_index;
 535              		.loc 1 667 40 is_stmt 0 view .LVU226
 536 018a 9080     		strh	r0, [r2, #4]	@ movhi
 668:MCSDK_v6.1.0-Full/MotorControl/MCSDK/MCLib/Any/Src/sto_pll_speed_pos_fdbk.c **** }
 537              		.loc 1 668 3 is_stmt 1 view .LVU227
 668:MCSDK_v6.1.0-Full/MotorControl/MCSDK/MCLib/Any/Src/sto_pll_speed_pos_fdbk.c **** }
 538              		.loc 1 668 31 is_stmt 0 view .LVU228
 539 018c 84F8F430 		strb	r3, [r4, #244]
 540              	.LVL65:
 668:MCSDK_v6.1.0-Full/MotorControl/MCSDK/MCLib/Any/Src/sto_pll_speed_pos_fdbk.c **** }
 541              		.loc 1 668 31 view .LVU229
 542              	.LBE14:
 543              	.LBE13:
 365:MCSDK_v6.1.0-Full/MotorControl/MCSDK/MCLib/Any/Src/sto_pll_speed_pos_fdbk.c **** 
 544              		.loc 1 365 5 is_stmt 1 view .LVU230
 365:MCSDK_v6.1.0-Full/MotorControl/MCSDK/MCLib/Any/Src/sto_pll_speed_pos_fdbk.c **** 
 545              		.loc 1 365 30 is_stmt 0 view .LVU231
ARM GAS  /tmp/ccDchrQO.s 			page 27


 546 0190 A388     		ldrh	r3, [r4, #4]
 547 0192 1844     		add	r0, r0, r3
 548              	.LVL66:
 365:MCSDK_v6.1.0-Full/MotorControl/MCSDK/MCLib/Any/Src/sto_pll_speed_pos_fdbk.c **** 
 549              		.loc 1 365 30 view .LVU232
 550 0194 00B2     		sxth	r0, r0
 551 0196 A080     		strh	r0, [r4, #4]	@ movhi
 368:MCSDK_v6.1.0-Full/MotorControl/MCSDK/MCLib/Any/Src/sto_pll_speed_pos_fdbk.c ****     pHandle->wBemf_alfa_est = wBemf_alfa_est_Next;
 552              		.loc 1 368 5 is_stmt 1 view .LVU233
 368:MCSDK_v6.1.0-Full/MotorControl/MCSDK/MCLib/Any/Src/sto_pll_speed_pos_fdbk.c ****     pHandle->wBemf_alfa_est = wBemf_alfa_est_Next;
 553              		.loc 1 368 24 is_stmt 0 view .LVU234
 554 0198 079B     		ldr	r3, [sp, #28]
 555 019a 2366     		str	r3, [r4, #96]
 369:MCSDK_v6.1.0-Full/MotorControl/MCSDK/MCLib/Any/Src/sto_pll_speed_pos_fdbk.c **** 
 556              		.loc 1 369 5 is_stmt 1 view .LVU235
 369:MCSDK_v6.1.0-Full/MotorControl/MCSDK/MCLib/Any/Src/sto_pll_speed_pos_fdbk.c **** 
 557              		.loc 1 369 29 is_stmt 0 view .LVU236
 558 019c A666     		str	r6, [r4, #104]
 371:MCSDK_v6.1.0-Full/MotorControl/MCSDK/MCLib/Any/Src/sto_pll_speed_pos_fdbk.c ****     pHandle->wBemf_beta_est = wBemf_beta_est_Next;
 559              		.loc 1 371 5 is_stmt 1 view .LVU237
 371:MCSDK_v6.1.0-Full/MotorControl/MCSDK/MCLib/Any/Src/sto_pll_speed_pos_fdbk.c ****     pHandle->wBemf_beta_est = wBemf_beta_est_Next;
 560              		.loc 1 371 24 is_stmt 0 view .LVU238
 561 019e 6766     		str	r7, [r4, #100]
 372:MCSDK_v6.1.0-Full/MotorControl/MCSDK/MCLib/Any/Src/sto_pll_speed_pos_fdbk.c ****     retValue = pHandle->_Super.hElAngle;
 562              		.loc 1 372 5 is_stmt 1 view .LVU239
 372:MCSDK_v6.1.0-Full/MotorControl/MCSDK/MCLib/Any/Src/sto_pll_speed_pos_fdbk.c ****     retValue = pHandle->_Super.hElAngle;
 563              		.loc 1 372 29 is_stmt 0 view .LVU240
 564 01a0 C4F86CB0 		str	fp, [r4, #108]
 373:MCSDK_v6.1.0-Full/MotorControl/MCSDK/MCLib/Any/Src/sto_pll_speed_pos_fdbk.c ****   }
 565              		.loc 1 373 5 is_stmt 1 view .LVU241
 566              	.LVL67:
 567              	.L8:
 373:MCSDK_v6.1.0-Full/MotorControl/MCSDK/MCLib/Any/Src/sto_pll_speed_pos_fdbk.c ****   }
 568              		.loc 1 373 5 is_stmt 0 view .LVU242
 569              	.LBE10:
 375:MCSDK_v6.1.0-Full/MotorControl/MCSDK/MCLib/Any/Src/sto_pll_speed_pos_fdbk.c **** }
 570              		.loc 1 375 3 is_stmt 1 view .LVU243
 376:MCSDK_v6.1.0-Full/MotorControl/MCSDK/MCLib/Any/Src/sto_pll_speed_pos_fdbk.c **** 
 571              		.loc 1 376 1 is_stmt 0 view .LVU244
 572 01a4 0BB0     		add	sp, sp, #44
 573              		.cfi_remember_state
 574              		.cfi_def_cfa_offset 36
 575              		@ sp needed
 576 01a6 BDE8F08F 		pop	{r4, r5, r6, r7, r8, r9, r10, fp, pc}
 577              	.LVL68:
 578              	.L9:
 579              		.cfi_restore_state
 580              	.LBB17:
 176:MCSDK_v6.1.0-Full/MotorControl/MCSDK/MCLib/Any/Src/sto_pll_speed_pos_fdbk.c ****     {
 581              		.loc 1 176 10 is_stmt 1 view .LVU245
 176:MCSDK_v6.1.0-Full/MotorControl/MCSDK/MCLib/Any/Src/sto_pll_speed_pos_fdbk.c ****     {
 582              		.loc 1 176 53 is_stmt 0 view .LVU246
 583 01aa A3EBC335 		sub	r5, r3, r3, lsl #15
 176:MCSDK_v6.1.0-Full/MotorControl/MCSDK/MCLib/Any/Src/sto_pll_speed_pos_fdbk.c ****     {
 584              		.loc 1 176 13 view .LVU247
 585 01ae AA42     		cmp	r2, r5
 586 01b0 3FF739AF 		bgt	.L10
ARM GAS  /tmp/ccDchrQO.s 			page 28


 178:MCSDK_v6.1.0-Full/MotorControl/MCSDK/MCLib/Any/Src/sto_pll_speed_pos_fdbk.c ****     }
 587              		.loc 1 178 7 is_stmt 1 view .LVU248
 178:MCSDK_v6.1.0-Full/MotorControl/MCSDK/MCLib/Any/Src/sto_pll_speed_pos_fdbk.c ****     }
 588              		.loc 1 178 31 is_stmt 0 view .LVU249
 589 01b4 A566     		str	r5, [r4, #104]
 590 01b6 36E7     		b	.L10
 591              	.LVL69:
 592              	.L11:
 195:MCSDK_v6.1.0-Full/MotorControl/MCSDK/MCLib/Any/Src/sto_pll_speed_pos_fdbk.c ****     {
 593              		.loc 1 195 10 is_stmt 1 view .LVU250
 195:MCSDK_v6.1.0-Full/MotorControl/MCSDK/MCLib/Any/Src/sto_pll_speed_pos_fdbk.c ****     {
 594              		.loc 1 195 53 is_stmt 0 view .LVU251
 595 01b8 A3EBC333 		sub	r3, r3, r3, lsl #15
 195:MCSDK_v6.1.0-Full/MotorControl/MCSDK/MCLib/Any/Src/sto_pll_speed_pos_fdbk.c ****     {
 596              		.loc 1 195 13 view .LVU252
 597 01bc 9E42     		cmp	r6, r3
 598 01be 3FF73FAF 		bgt	.L12
 197:MCSDK_v6.1.0-Full/MotorControl/MCSDK/MCLib/Any/Src/sto_pll_speed_pos_fdbk.c ****     }
 599              		.loc 1 197 7 is_stmt 1 view .LVU253
 197:MCSDK_v6.1.0-Full/MotorControl/MCSDK/MCLib/Any/Src/sto_pll_speed_pos_fdbk.c ****     }
 600              		.loc 1 197 31 is_stmt 0 view .LVU254
 601 01c2 E366     		str	r3, [r4, #108]
 602 01c4 3CE7     		b	.L12
 603              	.LVL70:
 604              	.L13:
 214:MCSDK_v6.1.0-Full/MotorControl/MCSDK/MCLib/Any/Src/sto_pll_speed_pos_fdbk.c ****     {
 605              		.loc 1 214 10 is_stmt 1 view .LVU255
 214:MCSDK_v6.1.0-Full/MotorControl/MCSDK/MCLib/Any/Src/sto_pll_speed_pos_fdbk.c ****     {
 606              		.loc 1 214 48 is_stmt 0 view .LVU256
 607 01c6 A3EBC336 		sub	r6, r3, r3, lsl #15
 214:MCSDK_v6.1.0-Full/MotorControl/MCSDK/MCLib/Any/Src/sto_pll_speed_pos_fdbk.c ****     {
 608              		.loc 1 214 13 view .LVU257
 609 01ca B542     		cmp	r5, r6
 610 01cc 3FF747AF 		bgt	.L14
 216:MCSDK_v6.1.0-Full/MotorControl/MCSDK/MCLib/Any/Src/sto_pll_speed_pos_fdbk.c ****     }
 611              		.loc 1 216 7 is_stmt 1 view .LVU258
 216:MCSDK_v6.1.0-Full/MotorControl/MCSDK/MCLib/Any/Src/sto_pll_speed_pos_fdbk.c ****     }
 612              		.loc 1 216 26 is_stmt 0 view .LVU259
 613 01d0 2666     		str	r6, [r4, #96]
 614 01d2 44E7     		b	.L14
 615              	.L15:
 227:MCSDK_v6.1.0-Full/MotorControl/MCSDK/MCLib/Any/Src/sto_pll_speed_pos_fdbk.c ****     {
 616              		.loc 1 227 10 is_stmt 1 view .LVU260
 227:MCSDK_v6.1.0-Full/MotorControl/MCSDK/MCLib/Any/Src/sto_pll_speed_pos_fdbk.c ****     {
 617              		.loc 1 227 48 is_stmt 0 view .LVU261
 618 01d4 A3EBC333 		sub	r3, r3, r3, lsl #15
 227:MCSDK_v6.1.0-Full/MotorControl/MCSDK/MCLib/Any/Src/sto_pll_speed_pos_fdbk.c ****     {
 619              		.loc 1 227 13 view .LVU262
 620 01d8 9D42     		cmp	r5, r3
 621 01da 3FF745AF 		bgt	.L16
 229:MCSDK_v6.1.0-Full/MotorControl/MCSDK/MCLib/Any/Src/sto_pll_speed_pos_fdbk.c ****     }
 622              		.loc 1 229 7 is_stmt 1 view .LVU263
 229:MCSDK_v6.1.0-Full/MotorControl/MCSDK/MCLib/Any/Src/sto_pll_speed_pos_fdbk.c ****     }
 623              		.loc 1 229 26 is_stmt 0 view .LVU264
 624 01de 6366     		str	r3, [r4, #100]
 625 01e0 42E7     		b	.L16
 626              	.LVL71:
ARM GAS  /tmp/ccDchrQO.s 			page 29


 627              	.L22:
 348:MCSDK_v6.1.0-Full/MotorControl/MCSDK/MCLib/Any/Src/sto_pll_speed_pos_fdbk.c ****       }
 628              		.loc 1 348 20 view .LVU265
 629 01e2 4FF0FF30 		mov	r0, #-1
 630 01e6 9FE7     		b	.L18
 631              	.LVL72:
 632              	.L28:
 633              	.LBB16:
 634              	.LBB15:
 663:MCSDK_v6.1.0-Full/MotorControl/MCSDK/MCLib/Any/Src/sto_pll_speed_pos_fdbk.c ****   }
 635              		.loc 1 663 19 view .LVU266
 636 01e8 0023     		movs	r3, #0
 637              	.LVL73:
 663:MCSDK_v6.1.0-Full/MotorControl/MCSDK/MCLib/Any/Src/sto_pll_speed_pos_fdbk.c ****   }
 638              		.loc 1 663 19 view .LVU267
 639 01ea C6E7     		b	.L19
 640              	.LVL74:
 641              	.L20:
 642              		.cfi_def_cfa_offset 0
 643              		.cfi_restore 4
 644              		.cfi_restore 5
 645              		.cfi_restore 6
 646              		.cfi_restore 7
 647              		.cfi_restore 8
 648              		.cfi_restore 9
 649              		.cfi_restore 10
 650              		.cfi_restore 11
 651              		.cfi_restore 14
 663:MCSDK_v6.1.0-Full/MotorControl/MCSDK/MCLib/Any/Src/sto_pll_speed_pos_fdbk.c ****   }
 652              		.loc 1 663 19 view .LVU268
 653              	.LBE15:
 654              	.LBE16:
 655              	.LBE17:
 153:MCSDK_v6.1.0-Full/MotorControl/MCSDK/MCLib/Any/Src/sto_pll_speed_pos_fdbk.c ****   }
 656              		.loc 1 153 14 view .LVU269
 657 01ec 0020     		movs	r0, #0
 658              	.LVL75:
 375:MCSDK_v6.1.0-Full/MotorControl/MCSDK/MCLib/Any/Src/sto_pll_speed_pos_fdbk.c **** }
 659              		.loc 1 375 3 is_stmt 1 view .LVU270
 376:MCSDK_v6.1.0-Full/MotorControl/MCSDK/MCLib/Any/Src/sto_pll_speed_pos_fdbk.c **** 
 660              		.loc 1 376 1 is_stmt 0 view .LVU271
 661 01ee 7047     		bx	lr
 662              	.LVL76:
 663              	.L21:
 664              		.cfi_def_cfa_offset 80
 665              		.cfi_offset 4, -36
 666              		.cfi_offset 5, -32
 667              		.cfi_offset 6, -28
 668              		.cfi_offset 7, -24
 669              		.cfi_offset 8, -20
 670              		.cfi_offset 9, -16
 671              		.cfi_offset 10, -12
 672              		.cfi_offset 11, -8
 673              		.cfi_offset 14, -4
 153:MCSDK_v6.1.0-Full/MotorControl/MCSDK/MCLib/Any/Src/sto_pll_speed_pos_fdbk.c ****   }
 674              		.loc 1 153 14 view .LVU272
 675 01f0 0020     		movs	r0, #0
ARM GAS  /tmp/ccDchrQO.s 			page 30


 676              	.LVL77:
 153:MCSDK_v6.1.0-Full/MotorControl/MCSDK/MCLib/Any/Src/sto_pll_speed_pos_fdbk.c ****   }
 677              		.loc 1 153 14 view .LVU273
 678 01f2 D7E7     		b	.L8
 679              		.cfi_endproc
 680              	.LFE1439:
 682              		.section	.text.STO_PLL_CalcAvrgMecSpeedUnit,"ax",%progbits
 683              		.align	1
 684              		.weak	STO_PLL_CalcAvrgMecSpeedUnit
 685              		.syntax unified
 686              		.thumb
 687              		.thumb_func
 688              		.fpu fpv4-sp-d16
 690              	STO_PLL_CalcAvrgMecSpeedUnit:
 691              	.LVL78:
 692              	.LFB1440:
 395:MCSDK_v6.1.0-Full/MotorControl/MCSDK/MCLib/Any/Src/sto_pll_speed_pos_fdbk.c ****   bool bAux;
 693              		.loc 1 395 1 is_stmt 1 view -0
 694              		.cfi_startproc
 695              		@ args = 0, pretend = 0, frame = 0
 696              		@ frame_needed = 0, uses_anonymous_args = 0
 395:MCSDK_v6.1.0-Full/MotorControl/MCSDK/MCLib/Any/Src/sto_pll_speed_pos_fdbk.c ****   bool bAux;
 697              		.loc 1 395 1 is_stmt 0 view .LVU275
 698 0000 2DE9F84F 		push	{r3, r4, r5, r6, r7, r8, r9, r10, fp, lr}
 699              		.cfi_def_cfa_offset 40
 700              		.cfi_offset 3, -40
 701              		.cfi_offset 4, -36
 702              		.cfi_offset 5, -32
 703              		.cfi_offset 6, -28
 704              		.cfi_offset 7, -24
 705              		.cfi_offset 8, -20
 706              		.cfi_offset 9, -16
 707              		.cfi_offset 10, -12
 708              		.cfi_offset 11, -8
 709              		.cfi_offset 14, -4
 396:MCSDK_v6.1.0-Full/MotorControl/MCSDK/MCLib/Any/Src/sto_pll_speed_pos_fdbk.c **** #ifdef NULL_PTR_STO_PLL_SPD_POS_FDB
 710              		.loc 1 396 3 is_stmt 1 view .LVU276
 405:MCSDK_v6.1.0-Full/MotorControl/MCSDK/MCLib/Any/Src/sto_pll_speed_pos_fdbk.c ****     int32_t wError;
 711              		.loc 1 405 5 view .LVU277
 712              	.LVL79:
 406:MCSDK_v6.1.0-Full/MotorControl/MCSDK/MCLib/Any/Src/sto_pll_speed_pos_fdbk.c ****     int32_t wAux;
 713              		.loc 1 406 5 view .LVU278
 407:MCSDK_v6.1.0-Full/MotorControl/MCSDK/MCLib/Any/Src/sto_pll_speed_pos_fdbk.c ****     int32_t wAvrSquareSpeed;
 714              		.loc 1 407 5 view .LVU279
 408:MCSDK_v6.1.0-Full/MotorControl/MCSDK/MCLib/Any/Src/sto_pll_speed_pos_fdbk.c ****     int32_t wAvrQuadraticError = 0;
 715              		.loc 1 408 5 view .LVU280
 409:MCSDK_v6.1.0-Full/MotorControl/MCSDK/MCLib/Any/Src/sto_pll_speed_pos_fdbk.c ****     int32_t wObsBemf, wEstBemf;
 716              		.loc 1 409 5 view .LVU281
 410:MCSDK_v6.1.0-Full/MotorControl/MCSDK/MCLib/Any/Src/sto_pll_speed_pos_fdbk.c ****     int32_t wObsBemfSq = 0;
 717              		.loc 1 410 5 view .LVU282
 411:MCSDK_v6.1.0-Full/MotorControl/MCSDK/MCLib/Any/Src/sto_pll_speed_pos_fdbk.c ****     int32_t wEstBemfSq = 0;
 718              		.loc 1 411 5 view .LVU283
 412:MCSDK_v6.1.0-Full/MotorControl/MCSDK/MCLib/Any/Src/sto_pll_speed_pos_fdbk.c ****     int32_t wEstBemfSqLo;
 719              		.loc 1 412 5 view .LVU284
 413:MCSDK_v6.1.0-Full/MotorControl/MCSDK/MCLib/Any/Src/sto_pll_speed_pos_fdbk.c ****     bool bIs_Speed_Reliable = false;
 720              		.loc 1 413 5 view .LVU285
 414:MCSDK_v6.1.0-Full/MotorControl/MCSDK/MCLib/Any/Src/sto_pll_speed_pos_fdbk.c ****     bool bIs_Bemf_Consistent = false;
ARM GAS  /tmp/ccDchrQO.s 			page 31


 721              		.loc 1 414 5 view .LVU286
 415:MCSDK_v6.1.0-Full/MotorControl/MCSDK/MCLib/Any/Src/sto_pll_speed_pos_fdbk.c ****     uint8_t i, bSpeedBufferSizeUnit = pHandle->SpeedBufferSizeUnit;
 722              		.loc 1 415 5 view .LVU287
 416:MCSDK_v6.1.0-Full/MotorControl/MCSDK/MCLib/Any/Src/sto_pll_speed_pos_fdbk.c **** 
 723              		.loc 1 416 5 view .LVU288
 416:MCSDK_v6.1.0-Full/MotorControl/MCSDK/MCLib/Any/Src/sto_pll_speed_pos_fdbk.c **** 
 724              		.loc 1 416 16 is_stmt 0 view .LVU289
 725 0004 90F80E51 		ldrb	r5, [r0, #270]	@ zero_extendqisi2
 726              	.LVL80:
 418:MCSDK_v6.1.0-Full/MotorControl/MCSDK/MCLib/Any/Src/sto_pll_speed_pos_fdbk.c ****     {
 727              		.loc 1 418 5 is_stmt 1 view .LVU290
 418:MCSDK_v6.1.0-Full/MotorControl/MCSDK/MCLib/Any/Src/sto_pll_speed_pos_fdbk.c ****     {
 728              		.loc 1 418 12 is_stmt 0 view .LVU291
 729 0008 0023     		movs	r3, #0
 405:MCSDK_v6.1.0-Full/MotorControl/MCSDK/MCLib/Any/Src/sto_pll_speed_pos_fdbk.c ****     int32_t wError;
 730              		.loc 1 405 13 view .LVU292
 731 000a 1A46     		mov	r2, r3
 732              	.LVL81:
 733              	.L30:
 418:MCSDK_v6.1.0-Full/MotorControl/MCSDK/MCLib/Any/Src/sto_pll_speed_pos_fdbk.c ****     {
 734              		.loc 1 418 18 is_stmt 1 discriminator 1 view .LVU293
 418:MCSDK_v6.1.0-Full/MotorControl/MCSDK/MCLib/Any/Src/sto_pll_speed_pos_fdbk.c ****     {
 735              		.loc 1 418 5 is_stmt 0 discriminator 1 view .LVU294
 736 000c AB42     		cmp	r3, r5
 737 000e 09D2     		bcs	.L50
 420:MCSDK_v6.1.0-Full/MotorControl/MCSDK/MCLib/Any/Src/sto_pll_speed_pos_fdbk.c ****     }
 738              		.loc 1 420 7 is_stmt 1 discriminator 3 view .LVU295
 420:MCSDK_v6.1.0-Full/MotorControl/MCSDK/MCLib/Any/Src/sto_pll_speed_pos_fdbk.c ****     }
 739              		.loc 1 420 55 is_stmt 0 discriminator 3 view .LVU296
 740 0010 03F13804 		add	r4, r3, #56
 741 0014 00EB4404 		add	r4, r0, r4, lsl #1
 742 0018 B4F90440 		ldrsh	r4, [r4, #4]
 420:MCSDK_v6.1.0-Full/MotorControl/MCSDK/MCLib/Any/Src/sto_pll_speed_pos_fdbk.c ****     }
 743              		.loc 1 420 21 discriminator 3 view .LVU297
 744 001c 2244     		add	r2, r2, r4
 745              	.LVL82:
 418:MCSDK_v6.1.0-Full/MotorControl/MCSDK/MCLib/Any/Src/sto_pll_speed_pos_fdbk.c ****     {
 746              		.loc 1 418 44 is_stmt 1 discriminator 3 view .LVU298
 418:MCSDK_v6.1.0-Full/MotorControl/MCSDK/MCLib/Any/Src/sto_pll_speed_pos_fdbk.c ****     {
 747              		.loc 1 418 45 is_stmt 0 discriminator 3 view .LVU299
 748 001e 0133     		adds	r3, r3, #1
 749              	.LVL83:
 418:MCSDK_v6.1.0-Full/MotorControl/MCSDK/MCLib/Any/Src/sto_pll_speed_pos_fdbk.c ****     {
 750              		.loc 1 418 45 discriminator 3 view .LVU300
 751 0020 DBB2     		uxtb	r3, r3
 752              	.LVL84:
 418:MCSDK_v6.1.0-Full/MotorControl/MCSDK/MCLib/Any/Src/sto_pll_speed_pos_fdbk.c ****     {
 753              		.loc 1 418 45 discriminator 3 view .LVU301
 754 0022 F3E7     		b	.L30
 755              	.L50:
 423:MCSDK_v6.1.0-Full/MotorControl/MCSDK/MCLib/Any/Src/sto_pll_speed_pos_fdbk.c ****     {
 756              		.loc 1 423 5 is_stmt 1 view .LVU302
 423:MCSDK_v6.1.0-Full/MotorControl/MCSDK/MCLib/Any/Src/sto_pll_speed_pos_fdbk.c ****     {
 757              		.loc 1 423 8 is_stmt 0 view .LVU303
 758 0024 0DB1     		cbz	r5, .L32
 429:MCSDK_v6.1.0-Full/MotorControl/MCSDK/MCLib/Any/Src/sto_pll_speed_pos_fdbk.c ****     }
 759              		.loc 1 429 7 is_stmt 1 view .LVU304
ARM GAS  /tmp/ccDchrQO.s 			page 32


 429:MCSDK_v6.1.0-Full/MotorControl/MCSDK/MCLib/Any/Src/sto_pll_speed_pos_fdbk.c ****     }
 760              		.loc 1 429 21 is_stmt 0 view .LVU305
 761 0026 92FBF5F2 		sdiv	r2, r2, r5
 762              	.LVL85:
 763              	.L32:
 432:MCSDK_v6.1.0-Full/MotorControl/MCSDK/MCLib/Any/Src/sto_pll_speed_pos_fdbk.c ****     {
 764              		.loc 1 432 5 is_stmt 1 view .LVU306
 432:MCSDK_v6.1.0-Full/MotorControl/MCSDK/MCLib/Any/Src/sto_pll_speed_pos_fdbk.c ****     {
 765              		.loc 1 432 12 is_stmt 0 view .LVU307
 766 002a 0023     		movs	r3, #0
 409:MCSDK_v6.1.0-Full/MotorControl/MCSDK/MCLib/Any/Src/sto_pll_speed_pos_fdbk.c ****     int32_t wObsBemf, wEstBemf;
 767              		.loc 1 409 13 view .LVU308
 768 002c 1E46     		mov	r6, r3
 432:MCSDK_v6.1.0-Full/MotorControl/MCSDK/MCLib/Any/Src/sto_pll_speed_pos_fdbk.c ****     {
 769              		.loc 1 432 5 view .LVU309
 770 002e 0AE0     		b	.L33
 771              	.LVL86:
 772              	.L34:
 434:MCSDK_v6.1.0-Full/MotorControl/MCSDK/MCLib/Any/Src/sto_pll_speed_pos_fdbk.c ****       wError = (wError * wError);
 773              		.loc 1 434 7 is_stmt 1 discriminator 3 view .LVU310
 434:MCSDK_v6.1.0-Full/MotorControl/MCSDK/MCLib/Any/Src/sto_pll_speed_pos_fdbk.c ****       wError = (wError * wError);
 774              		.loc 1 434 47 is_stmt 0 discriminator 3 view .LVU311
 775 0030 03F13804 		add	r4, r3, #56
 776 0034 00EB4404 		add	r4, r0, r4, lsl #1
 777 0038 B4F90440 		ldrsh	r4, [r4, #4]
 434:MCSDK_v6.1.0-Full/MotorControl/MCSDK/MCLib/Any/Src/sto_pll_speed_pos_fdbk.c ****       wError = (wError * wError);
 778              		.loc 1 434 14 discriminator 3 view .LVU312
 779 003c A41A     		subs	r4, r4, r2
 780              	.LVL87:
 435:MCSDK_v6.1.0-Full/MotorControl/MCSDK/MCLib/Any/Src/sto_pll_speed_pos_fdbk.c ****       wAvrQuadraticError += wError;
 781              		.loc 1 435 7 is_stmt 1 discriminator 3 view .LVU313
 436:MCSDK_v6.1.0-Full/MotorControl/MCSDK/MCLib/Any/Src/sto_pll_speed_pos_fdbk.c ****     }
 782              		.loc 1 436 7 discriminator 3 view .LVU314
 436:MCSDK_v6.1.0-Full/MotorControl/MCSDK/MCLib/Any/Src/sto_pll_speed_pos_fdbk.c ****     }
 783              		.loc 1 436 26 is_stmt 0 discriminator 3 view .LVU315
 784 003e 04FB0466 		mla	r6, r4, r4, r6
 785              	.LVL88:
 432:MCSDK_v6.1.0-Full/MotorControl/MCSDK/MCLib/Any/Src/sto_pll_speed_pos_fdbk.c ****     {
 786              		.loc 1 432 44 is_stmt 1 discriminator 3 view .LVU316
 432:MCSDK_v6.1.0-Full/MotorControl/MCSDK/MCLib/Any/Src/sto_pll_speed_pos_fdbk.c ****     {
 787              		.loc 1 432 45 is_stmt 0 discriminator 3 view .LVU317
 788 0042 0133     		adds	r3, r3, #1
 789              	.LVL89:
 432:MCSDK_v6.1.0-Full/MotorControl/MCSDK/MCLib/Any/Src/sto_pll_speed_pos_fdbk.c ****     {
 790              		.loc 1 432 45 discriminator 3 view .LVU318
 791 0044 DBB2     		uxtb	r3, r3
 792              	.LVL90:
 793              	.L33:
 432:MCSDK_v6.1.0-Full/MotorControl/MCSDK/MCLib/Any/Src/sto_pll_speed_pos_fdbk.c ****     {
 794              		.loc 1 432 18 is_stmt 1 discriminator 1 view .LVU319
 432:MCSDK_v6.1.0-Full/MotorControl/MCSDK/MCLib/Any/Src/sto_pll_speed_pos_fdbk.c ****     {
 795              		.loc 1 432 5 is_stmt 0 discriminator 1 view .LVU320
 796 0046 AB42     		cmp	r3, r5
 797 0048 F2D3     		bcc	.L34
 440:MCSDK_v6.1.0-Full/MotorControl/MCSDK/MCLib/Any/Src/sto_pll_speed_pos_fdbk.c **** 
 798              		.loc 1 440 5 is_stmt 1 view .LVU321
 440:MCSDK_v6.1.0-Full/MotorControl/MCSDK/MCLib/Any/Src/sto_pll_speed_pos_fdbk.c **** 
ARM GAS  /tmp/ccDchrQO.s 			page 33


 799              		.loc 1 440 24 is_stmt 0 view .LVU322
 800 004a 96FBF5F6 		sdiv	r6, r6, r5
 801              	.LVL91:
 443:MCSDK_v6.1.0-Full/MotorControl/MCSDK/MCLib/Any/Src/sto_pll_speed_pos_fdbk.c ****     int64_t lAvrSquareSpeed = (int64_t)(wAvrSquareSpeed) * pHandle->VariancePercentage;      
 802              		.loc 1 443 5 is_stmt 1 view .LVU323
 443:MCSDK_v6.1.0-Full/MotorControl/MCSDK/MCLib/Any/Src/sto_pll_speed_pos_fdbk.c ****     int64_t lAvrSquareSpeed = (int64_t)(wAvrSquareSpeed) * pHandle->VariancePercentage;      
 803              		.loc 1 443 21 is_stmt 0 view .LVU324
 804 004e 02FB02F4 		mul	r4, r2, r2
 805              	.LVL92:
 444:MCSDK_v6.1.0-Full/MotorControl/MCSDK/MCLib/Any/Src/sto_pll_speed_pos_fdbk.c ****     wAvrSquareSpeed = lAvrSquareSpeed / (int16_t)128;
 806              		.loc 1 444 5 is_stmt 1 view .LVU325
 444:MCSDK_v6.1.0-Full/MotorControl/MCSDK/MCLib/Any/Src/sto_pll_speed_pos_fdbk.c ****     wAvrSquareSpeed = lAvrSquareSpeed / (int16_t)128;
 807              		.loc 1 444 31 is_stmt 0 view .LVU326
 808 0052 4FEAE47B 		asr	fp, r4, #31
 444:MCSDK_v6.1.0-Full/MotorControl/MCSDK/MCLib/Any/Src/sto_pll_speed_pos_fdbk.c ****     wAvrSquareSpeed = lAvrSquareSpeed / (int16_t)128;
 809              		.loc 1 444 67 view .LVU327
 810 0056 B0F81081 		ldrh	r8, [r0, #272]
 444:MCSDK_v6.1.0-Full/MotorControl/MCSDK/MCLib/Any/Src/sto_pll_speed_pos_fdbk.c ****     wAvrSquareSpeed = lAvrSquareSpeed / (int16_t)128;
 811              		.loc 1 444 13 view .LVU328
 812 005a A4FB0845 		umull	r4, r5, r4, r8
 813              	.LVL93:
 444:MCSDK_v6.1.0-Full/MotorControl/MCSDK/MCLib/Any/Src/sto_pll_speed_pos_fdbk.c ****     wAvrSquareSpeed = lAvrSquareSpeed / (int16_t)128;
 814              		.loc 1 444 13 view .LVU329
 815 005e 08FB0B55 		mla	r5, r8, fp, r5
 816              	.LVL94:
 445:MCSDK_v6.1.0-Full/MotorControl/MCSDK/MCLib/Any/Src/sto_pll_speed_pos_fdbk.c ****     
 817              		.loc 1 445 5 is_stmt 1 view .LVU330
 445:MCSDK_v6.1.0-Full/MotorControl/MCSDK/MCLib/Any/Src/sto_pll_speed_pos_fdbk.c ****     
 818              		.loc 1 445 39 is_stmt 0 view .LVU331
 819 0062 2346     		mov	r3, r4
 820              	.LVL95:
 445:MCSDK_v6.1.0-Full/MotorControl/MCSDK/MCLib/Any/Src/sto_pll_speed_pos_fdbk.c ****     
 821              		.loc 1 445 39 view .LVU332
 822 0064 2F46     		mov	r7, r5
 823 0066 002C     		cmp	r4, #0
 824 0068 75F1000C 		sbcs	ip, r5, #0
 825 006c 44DB     		blt	.L51
 826              	.L35:
 445:MCSDK_v6.1.0-Full/MotorControl/MCSDK/MCLib/Any/Src/sto_pll_speed_pos_fdbk.c ****     
 827              		.loc 1 445 39 view .LVU333
 828 006e DB09     		lsrs	r3, r3, #7
 829 0070 43EA4763 		orr	r3, r3, r7, lsl #25
 830              	.LVL96:
 447:MCSDK_v6.1.0-Full/MotorControl/MCSDK/MCLib/Any/Src/sto_pll_speed_pos_fdbk.c ****     {
 831              		.loc 1 447 5 is_stmt 1 view .LVU334
 447:MCSDK_v6.1.0-Full/MotorControl/MCSDK/MCLib/Any/Src/sto_pll_speed_pos_fdbk.c ****     {
 832              		.loc 1 447 8 is_stmt 0 view .LVU335
 833 0074 9E42     		cmp	r6, r3
 834 0076 44DB     		blt	.L46
 414:MCSDK_v6.1.0-Full/MotorControl/MCSDK/MCLib/Any/Src/sto_pll_speed_pos_fdbk.c ****     bool bIs_Bemf_Consistent = false;
 835              		.loc 1 414 10 view .LVU336
 836 0078 0025     		movs	r5, #0
 837              	.L36:
 838              	.LVL97:
 453:MCSDK_v6.1.0-Full/MotorControl/MCSDK/MCLib/Any/Src/sto_pll_speed_pos_fdbk.c ****     wAux = wAux * ((int32_t)pHandle->_Super.SpeedUnit);
 839              		.loc 1 453 5 is_stmt 1 view .LVU337
 453:MCSDK_v6.1.0-Full/MotorControl/MCSDK/MCLib/Any/Src/sto_pll_speed_pos_fdbk.c ****     wAux = wAux * ((int32_t)pHandle->_Super.SpeedUnit);
ARM GAS  /tmp/ccDchrQO.s 			page 34


 840              		.loc 1 453 53 is_stmt 0 view .LVU338
 841 007a 438B     		ldrh	r3, [r0, #26]
 842              	.LVL98:
 453:MCSDK_v6.1.0-Full/MotorControl/MCSDK/MCLib/Any/Src/sto_pll_speed_pos_fdbk.c ****     wAux = wAux * ((int32_t)pHandle->_Super.SpeedUnit);
 843              		.loc 1 453 10 view .LVU339
 844 007c 02FB03F3 		mul	r3, r2, r3
 845              	.LVL99:
 454:MCSDK_v6.1.0-Full/MotorControl/MCSDK/MCLib/Any/Src/sto_pll_speed_pos_fdbk.c ****     wAux = wAux / ((int32_t)pHandle->_Super.DPPConvFactor);
 846              		.loc 1 454 5 is_stmt 1 view .LVU340
 454:MCSDK_v6.1.0-Full/MotorControl/MCSDK/MCLib/Any/Src/sto_pll_speed_pos_fdbk.c ****     wAux = wAux / ((int32_t)pHandle->_Super.DPPConvFactor);
 847              		.loc 1 454 44 is_stmt 0 view .LVU341
 848 0080 8278     		ldrb	r2, [r0, #2]	@ zero_extendqisi2
 849              	.LVL100:
 454:MCSDK_v6.1.0-Full/MotorControl/MCSDK/MCLib/Any/Src/sto_pll_speed_pos_fdbk.c ****     wAux = wAux / ((int32_t)pHandle->_Super.DPPConvFactor);
 850              		.loc 1 454 10 view .LVU342
 851 0082 03FB02F3 		mul	r3, r3, r2
 852              	.LVL101:
 455:MCSDK_v6.1.0-Full/MotorControl/MCSDK/MCLib/Any/Src/sto_pll_speed_pos_fdbk.c ****     wAux = wAux / ((int16_t)pHandle->_Super.bElToMecRatio);
 853              		.loc 1 455 5 is_stmt 1 view .LVU343
 455:MCSDK_v6.1.0-Full/MotorControl/MCSDK/MCLib/Any/Src/sto_pll_speed_pos_fdbk.c ****     wAux = wAux / ((int16_t)pHandle->_Super.bElToMecRatio);
 854              		.loc 1 455 44 is_stmt 0 view .LVU344
 855 0086 C269     		ldr	r2, [r0, #28]
 455:MCSDK_v6.1.0-Full/MotorControl/MCSDK/MCLib/Any/Src/sto_pll_speed_pos_fdbk.c ****     wAux = wAux / ((int16_t)pHandle->_Super.bElToMecRatio);
 856              		.loc 1 455 10 view .LVU345
 857 0088 93FBF2F3 		sdiv	r3, r3, r2
 858              	.LVL102:
 456:MCSDK_v6.1.0-Full/MotorControl/MCSDK/MCLib/Any/Src/sto_pll_speed_pos_fdbk.c **** 
 859              		.loc 1 456 5 is_stmt 1 view .LVU346
 456:MCSDK_v6.1.0-Full/MotorControl/MCSDK/MCLib/Any/Src/sto_pll_speed_pos_fdbk.c **** 
 860              		.loc 1 456 44 is_stmt 0 view .LVU347
 861 008c 4278     		ldrb	r2, [r0, #1]	@ zero_extendqisi2
 456:MCSDK_v6.1.0-Full/MotorControl/MCSDK/MCLib/Any/Src/sto_pll_speed_pos_fdbk.c **** 
 862              		.loc 1 456 10 view .LVU348
 863 008e 93FBF2F3 		sdiv	r3, r3, r2
 864              	.LVL103:
 458:MCSDK_v6.1.0-Full/MotorControl/MCSDK/MCLib/Any/Src/sto_pll_speed_pos_fdbk.c ****     pHandle->_Super.hAvrMecSpeedUnit = (int16_t)wAux;
 865              		.loc 1 458 5 is_stmt 1 view .LVU349
 458:MCSDK_v6.1.0-Full/MotorControl/MCSDK/MCLib/Any/Src/sto_pll_speed_pos_fdbk.c ****     pHandle->_Super.hAvrMecSpeedUnit = (int16_t)wAux;
 866              		.loc 1 458 22 is_stmt 0 view .LVU350
 867 0092 1AB2     		sxth	r2, r3
 458:MCSDK_v6.1.0-Full/MotorControl/MCSDK/MCLib/Any/Src/sto_pll_speed_pos_fdbk.c ****     pHandle->_Super.hAvrMecSpeedUnit = (int16_t)wAux;
 868              		.loc 1 458 20 view .LVU351
 869 0094 0A80     		strh	r2, [r1]	@ movhi
 870              	.LVL104:
 459:MCSDK_v6.1.0-Full/MotorControl/MCSDK/MCLib/Any/Src/sto_pll_speed_pos_fdbk.c **** 
 871              		.loc 1 459 5 is_stmt 1 view .LVU352
 459:MCSDK_v6.1.0-Full/MotorControl/MCSDK/MCLib/Any/Src/sto_pll_speed_pos_fdbk.c **** 
 872              		.loc 1 459 38 is_stmt 0 view .LVU353
 873 0096 8281     		strh	r2, [r0, #12]	@ movhi
 461:MCSDK_v6.1.0-Full/MotorControl/MCSDK/MCLib/Any/Src/sto_pll_speed_pos_fdbk.c **** 
 874              		.loc 1 461 5 is_stmt 1 view .LVU354
 461:MCSDK_v6.1.0-Full/MotorControl/MCSDK/MCLib/Any/Src/sto_pll_speed_pos_fdbk.c **** 
 875              		.loc 1 461 30 is_stmt 0 view .LVU355
 876 0098 80F8F550 		strb	r5, [r0, #245]
 464:MCSDK_v6.1.0-Full/MotorControl/MCSDK/MCLib/Any/Src/sto_pll_speed_pos_fdbk.c ****     {
 877              		.loc 1 464 5 is_stmt 1 view .LVU356
 464:MCSDK_v6.1.0-Full/MotorControl/MCSDK/MCLib/Any/Src/sto_pll_speed_pos_fdbk.c ****     {
ARM GAS  /tmp/ccDchrQO.s 			page 35


 878              		.loc 1 464 24 is_stmt 0 view .LVU357
 879 009c 90F80421 		ldrb	r2, [r0, #260]	@ zero_extendqisi2
 464:MCSDK_v6.1.0-Full/MotorControl/MCSDK/MCLib/Any/Src/sto_pll_speed_pos_fdbk.c ****     {
 880              		.loc 1 464 8 view .LVU358
 881 00a0 002A     		cmp	r2, #0
 882 00a2 55D0     		beq	.L47
 468:MCSDK_v6.1.0-Full/MotorControl/MCSDK/MCLib/Any/Src/sto_pll_speed_pos_fdbk.c ****       if (wAux < (int32_t)(pHandle->MaxAppPositiveMecSpeedUnit))
 883              		.loc 1 468 7 is_stmt 1 view .LVU359
 468:MCSDK_v6.1.0-Full/MotorControl/MCSDK/MCLib/Any/Src/sto_pll_speed_pos_fdbk.c ****       if (wAux < (int32_t)(pHandle->MaxAppPositiveMecSpeedUnit))
 884              		.loc 1 468 12 is_stmt 0 view .LVU360
 885 00a4 002B     		cmp	r3, #0
 886 00a6 B8BF     		it	lt
 887 00a8 5B42     		rsblt	r3, r3, #0
 888              	.LVL105:
 469:MCSDK_v6.1.0-Full/MotorControl/MCSDK/MCLib/Any/Src/sto_pll_speed_pos_fdbk.c ****       {
 889              		.loc 1 469 7 is_stmt 1 view .LVU361
 469:MCSDK_v6.1.0-Full/MotorControl/MCSDK/MCLib/Any/Src/sto_pll_speed_pos_fdbk.c ****       {
 890              		.loc 1 469 35 is_stmt 0 view .LVU362
 891 00aa B0F81A41 		ldrh	r4, [r0, #282]
 892              	.LVL106:
 469:MCSDK_v6.1.0-Full/MotorControl/MCSDK/MCLib/Any/Src/sto_pll_speed_pos_fdbk.c ****       {
 893              		.loc 1 469 10 view .LVU363
 894 00ae 9C42     		cmp	r4, r3
 895 00b0 2EDD     		ble	.L48
 472:MCSDK_v6.1.0-Full/MotorControl/MCSDK/MCLib/Any/Src/sto_pll_speed_pos_fdbk.c ****         wObsBemfSq = wObsBemf * wObsBemf;
 896              		.loc 1 472 9 is_stmt 1 view .LVU364
 472:MCSDK_v6.1.0-Full/MotorControl/MCSDK/MCLib/Any/Src/sto_pll_speed_pos_fdbk.c ****         wObsBemfSq = wObsBemf * wObsBemf;
 897              		.loc 1 472 36 is_stmt 0 view .LVU365
 898 00b2 B0F97060 		ldrsh	r6, [r0, #112]
 899              	.LVL107:
 473:MCSDK_v6.1.0-Full/MotorControl/MCSDK/MCLib/Any/Src/sto_pll_speed_pos_fdbk.c ****         wObsBemf = (int32_t)pHandle->hBemf_beta_est;
 900              		.loc 1 473 9 is_stmt 1 view .LVU366
 474:MCSDK_v6.1.0-Full/MotorControl/MCSDK/MCLib/Any/Src/sto_pll_speed_pos_fdbk.c ****         wObsBemfSq += wObsBemf * wObsBemf;
 901              		.loc 1 474 9 view .LVU367
 474:MCSDK_v6.1.0-Full/MotorControl/MCSDK/MCLib/Any/Src/sto_pll_speed_pos_fdbk.c ****         wObsBemfSq += wObsBemf * wObsBemf;
 902              		.loc 1 474 36 is_stmt 0 view .LVU368
 903 00b6 B0F97240 		ldrsh	r4, [r0, #114]
 904              	.LVL108:
 475:MCSDK_v6.1.0-Full/MotorControl/MCSDK/MCLib/Any/Src/sto_pll_speed_pos_fdbk.c **** 
 905              		.loc 1 475 9 is_stmt 1 view .LVU369
 475:MCSDK_v6.1.0-Full/MotorControl/MCSDK/MCLib/Any/Src/sto_pll_speed_pos_fdbk.c **** 
 906              		.loc 1 475 32 is_stmt 0 view .LVU370
 907 00ba 04FB04F4 		mul	r4, r4, r4
 908              	.LVL109:
 475:MCSDK_v6.1.0-Full/MotorControl/MCSDK/MCLib/Any/Src/sto_pll_speed_pos_fdbk.c **** 
 909              		.loc 1 475 20 view .LVU371
 910 00be 06FB0646 		mla	r6, r6, r6, r4
 911              	.LVL110:
 478:MCSDK_v6.1.0-Full/MotorControl/MCSDK/MCLib/Any/Src/sto_pll_speed_pos_fdbk.c ****         wEstBemfSq = (wEstBemf * ((int32_t)pHandle->BemfConsistencyGain)) / 64;
 912              		.loc 1 478 9 is_stmt 1 view .LVU372
 478:MCSDK_v6.1.0-Full/MotorControl/MCSDK/MCLib/Any/Src/sto_pll_speed_pos_fdbk.c ****         wEstBemfSq = (wEstBemf * ((int32_t)pHandle->BemfConsistencyGain)) / 64;
 913              		.loc 1 478 26 is_stmt 0 view .LVU373
 914 00c2 C3EBC333 		rsb	r3, r3, r3, lsl #15
 915              	.LVL111:
 478:MCSDK_v6.1.0-Full/MotorControl/MCSDK/MCLib/Any/Src/sto_pll_speed_pos_fdbk.c ****         wEstBemfSq = (wEstBemf * ((int32_t)pHandle->BemfConsistencyGain)) / 64;
 916              		.loc 1 478 38 view .LVU374
 917 00c6 B0F91440 		ldrsh	r4, [r0, #20]
ARM GAS  /tmp/ccDchrQO.s 			page 36


 478:MCSDK_v6.1.0-Full/MotorControl/MCSDK/MCLib/Any/Src/sto_pll_speed_pos_fdbk.c ****         wEstBemfSq = (wEstBemf * ((int32_t)pHandle->BemfConsistencyGain)) / 64;
 918              		.loc 1 478 18 view .LVU375
 919 00ca 93FBF4F3 		sdiv	r3, r3, r4
 920              	.LVL112:
 479:MCSDK_v6.1.0-Full/MotorControl/MCSDK/MCLib/Any/Src/sto_pll_speed_pos_fdbk.c ****         wEstBemfSq *= wEstBemf;
 921              		.loc 1 479 9 is_stmt 1 view .LVU376
 479:MCSDK_v6.1.0-Full/MotorControl/MCSDK/MCLib/Any/Src/sto_pll_speed_pos_fdbk.c ****         wEstBemfSq *= wEstBemf;
 922              		.loc 1 479 51 is_stmt 0 view .LVU377
 923 00ce 90F81941 		ldrb	r4, [r0, #281]	@ zero_extendqisi2
 479:MCSDK_v6.1.0-Full/MotorControl/MCSDK/MCLib/Any/Src/sto_pll_speed_pos_fdbk.c ****         wEstBemfSq *= wEstBemf;
 924              		.loc 1 479 32 view .LVU378
 925 00d2 03FB04F4 		mul	r4, r3, r4
 479:MCSDK_v6.1.0-Full/MotorControl/MCSDK/MCLib/Any/Src/sto_pll_speed_pos_fdbk.c ****         wEstBemfSq *= wEstBemf;
 926              		.loc 1 479 20 view .LVU379
 927 00d6 002C     		cmp	r4, #0
 928 00d8 15DB     		blt	.L52
 929              	.L39:
 930 00da A411     		asrs	r4, r4, #6
 931              	.LVL113:
 480:MCSDK_v6.1.0-Full/MotorControl/MCSDK/MCLib/Any/Src/sto_pll_speed_pos_fdbk.c **** 
 932              		.loc 1 480 9 is_stmt 1 view .LVU380
 480:MCSDK_v6.1.0-Full/MotorControl/MCSDK/MCLib/Any/Src/sto_pll_speed_pos_fdbk.c **** 
 933              		.loc 1 480 20 is_stmt 0 view .LVU381
 934 00dc 04FB03F3 		mul	r3, r4, r3
 935              	.LVL114:
 483:MCSDK_v6.1.0-Full/MotorControl/MCSDK/MCLib/Any/Src/sto_pll_speed_pos_fdbk.c **** 
 936              		.loc 1 483 9 is_stmt 1 view .LVU382
 483:MCSDK_v6.1.0-Full/MotorControl/MCSDK/MCLib/Any/Src/sto_pll_speed_pos_fdbk.c **** 
 937              		.loc 1 483 50 is_stmt 0 view .LVU383
 938 00e0 1C46     		mov	r4, r3
 939 00e2 002B     		cmp	r3, #0
 940 00e4 11DB     		blt	.L53
 941              	.L40:
 483:MCSDK_v6.1.0-Full/MotorControl/MCSDK/MCLib/Any/Src/sto_pll_speed_pos_fdbk.c **** 
 942              		.loc 1 483 50 view .LVU384
 943 00e6 A411     		asrs	r4, r4, #6
 483:MCSDK_v6.1.0-Full/MotorControl/MCSDK/MCLib/Any/Src/sto_pll_speed_pos_fdbk.c **** 
 944              		.loc 1 483 75 view .LVU385
 945 00e8 90F81871 		ldrb	r7, [r0, #280]	@ zero_extendqisi2
 483:MCSDK_v6.1.0-Full/MotorControl/MCSDK/MCLib/Any/Src/sto_pll_speed_pos_fdbk.c **** 
 946              		.loc 1 483 22 view .LVU386
 947 00ec 07FB1434 		mls	r4, r7, r4, r3
 948              	.LVL115:
 486:MCSDK_v6.1.0-Full/MotorControl/MCSDK/MCLib/Any/Src/sto_pll_speed_pos_fdbk.c ****         {
 949              		.loc 1 486 9 is_stmt 1 view .LVU387
 486:MCSDK_v6.1.0-Full/MotorControl/MCSDK/MCLib/Any/Src/sto_pll_speed_pos_fdbk.c ****         {
 950              		.loc 1 486 12 is_stmt 0 view .LVU388
 951 00f0 A642     		cmp	r6, r4
 952 00f2 10DC     		bgt	.L38
 415:MCSDK_v6.1.0-Full/MotorControl/MCSDK/MCLib/Any/Src/sto_pll_speed_pos_fdbk.c ****     uint8_t i, bSpeedBufferSizeUnit = pHandle->SpeedBufferSizeUnit;
 953              		.loc 1 415 10 view .LVU389
 954 00f4 0022     		movs	r2, #0
 955 00f6 0EE0     		b	.L38
 956              	.LVL116:
 957              	.L51:
 445:MCSDK_v6.1.0-Full/MotorControl/MCSDK/MCLib/Any/Src/sto_pll_speed_pos_fdbk.c ****     
 958              		.loc 1 445 39 view .LVU390
ARM GAS  /tmp/ccDchrQO.s 			page 37


 959 00f8 14F17F03 		adds	r3, r4, #127
 960 00fc 45F10007 		adc	r7, r5, #0
 961 0100 B5E7     		b	.L35
 962              	.LVL117:
 963              	.L46:
 449:MCSDK_v6.1.0-Full/MotorControl/MCSDK/MCLib/Any/Src/sto_pll_speed_pos_fdbk.c ****     }
 964              		.loc 1 449 26 view .LVU391
 965 0102 0125     		movs	r5, #1
 966 0104 B9E7     		b	.L36
 967              	.LVL118:
 968              	.L52:
 479:MCSDK_v6.1.0-Full/MotorControl/MCSDK/MCLib/Any/Src/sto_pll_speed_pos_fdbk.c ****         wEstBemfSq *= wEstBemf;
 969              		.loc 1 479 20 view .LVU392
 970 0106 3F34     		adds	r4, r4, #63
 971 0108 E7E7     		b	.L39
 972              	.LVL119:
 973              	.L53:
 483:MCSDK_v6.1.0-Full/MotorControl/MCSDK/MCLib/Any/Src/sto_pll_speed_pos_fdbk.c **** 
 974              		.loc 1 483 50 view .LVU393
 975 010a 03F13F04 		add	r4, r3, #63
 976 010e EAE7     		b	.L40
 977              	.LVL120:
 978              	.L48:
 415:MCSDK_v6.1.0-Full/MotorControl/MCSDK/MCLib/Any/Src/sto_pll_speed_pos_fdbk.c ****     uint8_t i, bSpeedBufferSizeUnit = pHandle->SpeedBufferSizeUnit;
 979              		.loc 1 415 10 view .LVU394
 980 0110 0022     		movs	r2, #0
 412:MCSDK_v6.1.0-Full/MotorControl/MCSDK/MCLib/Any/Src/sto_pll_speed_pos_fdbk.c ****     int32_t wEstBemfSqLo;
 981              		.loc 1 412 13 view .LVU395
 982 0112 1346     		mov	r3, r2
 983              	.LVL121:
 411:MCSDK_v6.1.0-Full/MotorControl/MCSDK/MCLib/Any/Src/sto_pll_speed_pos_fdbk.c ****     int32_t wEstBemfSq = 0;
 984              		.loc 1 411 13 view .LVU396
 985 0114 1646     		mov	r6, r2
 986              	.LVL122:
 987              	.L38:
 492:MCSDK_v6.1.0-Full/MotorControl/MCSDK/MCLib/Any/Src/sto_pll_speed_pos_fdbk.c ****       pHandle->Obs_Bemf_Level = wObsBemfSq;
 988              		.loc 1 492 7 is_stmt 1 view .LVU397
 492:MCSDK_v6.1.0-Full/MotorControl/MCSDK/MCLib/Any/Src/sto_pll_speed_pos_fdbk.c ****       pHandle->Obs_Bemf_Level = wObsBemfSq;
 989              		.loc 1 492 33 is_stmt 0 view .LVU398
 990 0116 80F8F920 		strb	r2, [r0, #249]
 493:MCSDK_v6.1.0-Full/MotorControl/MCSDK/MCLib/Any/Src/sto_pll_speed_pos_fdbk.c ****       pHandle->Est_Bemf_Level = wEstBemfSq;
 991              		.loc 1 493 7 is_stmt 1 view .LVU399
 493:MCSDK_v6.1.0-Full/MotorControl/MCSDK/MCLib/Any/Src/sto_pll_speed_pos_fdbk.c ****       pHandle->Est_Bemf_Level = wEstBemfSq;
 992              		.loc 1 493 31 is_stmt 0 view .LVU400
 993 011a C0F8FC60 		str	r6, [r0, #252]
 494:MCSDK_v6.1.0-Full/MotorControl/MCSDK/MCLib/Any/Src/sto_pll_speed_pos_fdbk.c ****     }
 994              		.loc 1 494 7 is_stmt 1 view .LVU401
 494:MCSDK_v6.1.0-Full/MotorControl/MCSDK/MCLib/Any/Src/sto_pll_speed_pos_fdbk.c ****     }
 995              		.loc 1 494 31 is_stmt 0 view .LVU402
 996 011e C0F80031 		str	r3, [r0, #256]
 997              	.LVL123:
 998              	.L37:
 502:MCSDK_v6.1.0-Full/MotorControl/MCSDK/MCLib/Any/Src/sto_pll_speed_pos_fdbk.c ****     {
 999              		.loc 1 502 5 is_stmt 1 view .LVU403
 502:MCSDK_v6.1.0-Full/MotorControl/MCSDK/MCLib/Any/Src/sto_pll_speed_pos_fdbk.c ****     {
 1000              		.loc 1 502 25 is_stmt 0 view .LVU404
 1001 0122 90F8F830 		ldrb	r3, [r0, #248]	@ zero_extendqisi2
ARM GAS  /tmp/ccDchrQO.s 			page 38


 502:MCSDK_v6.1.0-Full/MotorControl/MCSDK/MCLib/Any/Src/sto_pll_speed_pos_fdbk.c ****     {
 1002              		.loc 1 502 8 view .LVU405
 1003 0126 ABB1     		cbz	r3, .L54
 508:MCSDK_v6.1.0-Full/MotorControl/MCSDK/MCLib/Any/Src/sto_pll_speed_pos_fdbk.c ****       {
 1004              		.loc 1 508 7 is_stmt 1 view .LVU406
 508:MCSDK_v6.1.0-Full/MotorControl/MCSDK/MCLib/Any/Src/sto_pll_speed_pos_fdbk.c ****       {
 1005              		.loc 1 508 10 is_stmt 0 view .LVU407
 1006 0128 05B1     		cbz	r5, .L43
 508:MCSDK_v6.1.0-Full/MotorControl/MCSDK/MCLib/Any/Src/sto_pll_speed_pos_fdbk.c ****       {
 1007              		.loc 1 508 47 discriminator 1 view .LVU408
 1008 012a CAB9     		cbnz	r2, .L44
 1009              	.L43:
 510:MCSDK_v6.1.0-Full/MotorControl/MCSDK/MCLib/Any/Src/sto_pll_speed_pos_fdbk.c ****         if (pHandle->ReliabilityCounter >= pHandle->Reliability_hysteresys)
 1010              		.loc 1 510 9 is_stmt 1 view .LVU409
 510:MCSDK_v6.1.0-Full/MotorControl/MCSDK/MCLib/Any/Src/sto_pll_speed_pos_fdbk.c ****         if (pHandle->ReliabilityCounter >= pHandle->Reliability_hysteresys)
 1011              		.loc 1 510 16 is_stmt 0 view .LVU410
 1012 012c 90F8F730 		ldrb	r3, [r0, #247]	@ zero_extendqisi2
 510:MCSDK_v6.1.0-Full/MotorControl/MCSDK/MCLib/Any/Src/sto_pll_speed_pos_fdbk.c ****         if (pHandle->ReliabilityCounter >= pHandle->Reliability_hysteresys)
 1013              		.loc 1 510 36 view .LVU411
 1014 0130 0133     		adds	r3, r3, #1
 1015 0132 DBB2     		uxtb	r3, r3
 1016 0134 80F8F730 		strb	r3, [r0, #247]
 511:MCSDK_v6.1.0-Full/MotorControl/MCSDK/MCLib/Any/Src/sto_pll_speed_pos_fdbk.c ****         {
 1017              		.loc 1 511 9 is_stmt 1 view .LVU412
 511:MCSDK_v6.1.0-Full/MotorControl/MCSDK/MCLib/Any/Src/sto_pll_speed_pos_fdbk.c ****         {
 1018              		.loc 1 511 51 is_stmt 0 view .LVU413
 1019 0138 90F81721 		ldrb	r2, [r0, #279]	@ zero_extendqisi2
 1020              	.LVL124:
 511:MCSDK_v6.1.0-Full/MotorControl/MCSDK/MCLib/Any/Src/sto_pll_speed_pos_fdbk.c ****         {
 1021              		.loc 1 511 12 view .LVU414
 1022 013c 9342     		cmp	r3, r2
 1023 013e 0CD3     		bcc	.L45
 513:MCSDK_v6.1.0-Full/MotorControl/MCSDK/MCLib/Any/Src/sto_pll_speed_pos_fdbk.c ****           pHandle->_Super.bSpeedErrorNumber = pHandle->_Super.bMaximumSpeedErrorsNumber;
 1024              		.loc 1 513 11 is_stmt 1 view .LVU415
 513:MCSDK_v6.1.0-Full/MotorControl/MCSDK/MCLib/Any/Src/sto_pll_speed_pos_fdbk.c ****           pHandle->_Super.bSpeedErrorNumber = pHandle->_Super.bMaximumSpeedErrorsNumber;
 1025              		.loc 1 513 39 is_stmt 0 view .LVU416
 1026 0140 0023     		movs	r3, #0
 1027 0142 80F8F730 		strb	r3, [r0, #247]
 514:MCSDK_v6.1.0-Full/MotorControl/MCSDK/MCLib/Any/Src/sto_pll_speed_pos_fdbk.c ****           bAux = false;
 1028              		.loc 1 514 11 is_stmt 1 view .LVU417
 514:MCSDK_v6.1.0-Full/MotorControl/MCSDK/MCLib/Any/Src/sto_pll_speed_pos_fdbk.c ****           bAux = false;
 1029              		.loc 1 514 62 is_stmt 0 view .LVU418
 1030 0146 C278     		ldrb	r2, [r0, #3]	@ zero_extendqisi2
 514:MCSDK_v6.1.0-Full/MotorControl/MCSDK/MCLib/Any/Src/sto_pll_speed_pos_fdbk.c ****           bAux = false;
 1031              		.loc 1 514 45 view .LVU419
 1032 0148 0270     		strb	r2, [r0]
 515:MCSDK_v6.1.0-Full/MotorControl/MCSDK/MCLib/Any/Src/sto_pll_speed_pos_fdbk.c ****         }
 1033              		.loc 1 515 11 is_stmt 1 view .LVU420
 1034              	.LVL125:
 515:MCSDK_v6.1.0-Full/MotorControl/MCSDK/MCLib/Any/Src/sto_pll_speed_pos_fdbk.c ****         }
 1035              		.loc 1 515 16 is_stmt 0 view .LVU421
 1036 014a 1846     		mov	r0, r3
 1037              	.LVL126:
 1038              	.L42:
 531:MCSDK_v6.1.0-Full/MotorControl/MCSDK/MCLib/Any/Src/sto_pll_speed_pos_fdbk.c **** }
 1039              		.loc 1 531 3 is_stmt 1 view .LVU422
 532:MCSDK_v6.1.0-Full/MotorControl/MCSDK/MCLib/Any/Src/sto_pll_speed_pos_fdbk.c **** 
ARM GAS  /tmp/ccDchrQO.s 			page 39


 1040              		.loc 1 532 1 is_stmt 0 view .LVU423
 1041 014c BDE8F88F 		pop	{r3, r4, r5, r6, r7, r8, r9, r10, fp, pc}
 1042              	.LVL127:
 1043              	.L47:
 498:MCSDK_v6.1.0-Full/MotorControl/MCSDK/MCLib/Any/Src/sto_pll_speed_pos_fdbk.c ****     }
 1044              		.loc 1 498 27 view .LVU424
 1045 0150 0122     		movs	r2, #1
 1046 0152 E6E7     		b	.L37
 1047              	.LVL128:
 1048              	.L54:
 504:MCSDK_v6.1.0-Full/MotorControl/MCSDK/MCLib/Any/Src/sto_pll_speed_pos_fdbk.c ****     }
 1049              		.loc 1 504 7 is_stmt 1 view .LVU425
 504:MCSDK_v6.1.0-Full/MotorControl/MCSDK/MCLib/Any/Src/sto_pll_speed_pos_fdbk.c ****     }
 1050              		.loc 1 504 14 is_stmt 0 view .LVU426
 1051 0154 FFF7FEFF 		bl	SPD_IsMecSpeedReliable
 1052              	.LVL129:
 504:MCSDK_v6.1.0-Full/MotorControl/MCSDK/MCLib/Any/Src/sto_pll_speed_pos_fdbk.c ****     }
 1053              		.loc 1 504 14 view .LVU427
 1054 0158 F8E7     		b	.L42
 1055              	.LVL130:
 1056              	.L45:
 519:MCSDK_v6.1.0-Full/MotorControl/MCSDK/MCLib/Any/Src/sto_pll_speed_pos_fdbk.c ****         }
 1057              		.loc 1 519 11 is_stmt 1 view .LVU428
 519:MCSDK_v6.1.0-Full/MotorControl/MCSDK/MCLib/Any/Src/sto_pll_speed_pos_fdbk.c ****         }
 1058              		.loc 1 519 18 is_stmt 0 view .LVU429
 1059 015a FFF7FEFF 		bl	SPD_IsMecSpeedReliable
 1060              	.LVL131:
 519:MCSDK_v6.1.0-Full/MotorControl/MCSDK/MCLib/Any/Src/sto_pll_speed_pos_fdbk.c ****         }
 1061              		.loc 1 519 18 view .LVU430
 1062 015e F5E7     		b	.L42
 1063              	.LVL132:
 1064              	.L44:
 524:MCSDK_v6.1.0-Full/MotorControl/MCSDK/MCLib/Any/Src/sto_pll_speed_pos_fdbk.c ****         bAux = SPD_IsMecSpeedReliable (&pHandle->_Super, pMecSpeedUnit);
 1065              		.loc 1 524 9 is_stmt 1 view .LVU431
 524:MCSDK_v6.1.0-Full/MotorControl/MCSDK/MCLib/Any/Src/sto_pll_speed_pos_fdbk.c ****         bAux = SPD_IsMecSpeedReliable (&pHandle->_Super, pMecSpeedUnit);
 1066              		.loc 1 524 37 is_stmt 0 view .LVU432
 1067 0160 0023     		movs	r3, #0
 1068 0162 80F8F730 		strb	r3, [r0, #247]
 525:MCSDK_v6.1.0-Full/MotorControl/MCSDK/MCLib/Any/Src/sto_pll_speed_pos_fdbk.c ****       }
 1069              		.loc 1 525 9 is_stmt 1 view .LVU433
 525:MCSDK_v6.1.0-Full/MotorControl/MCSDK/MCLib/Any/Src/sto_pll_speed_pos_fdbk.c ****       }
 1070              		.loc 1 525 16 is_stmt 0 view .LVU434
 1071 0166 FFF7FEFF 		bl	SPD_IsMecSpeedReliable
 1072              	.LVL133:
 525:MCSDK_v6.1.0-Full/MotorControl/MCSDK/MCLib/Any/Src/sto_pll_speed_pos_fdbk.c ****       }
 1073              		.loc 1 525 16 view .LVU435
 1074 016a EFE7     		b	.L42
 1075              		.cfi_endproc
 1076              	.LFE1440:
 1078              		.section	.text.STO_PLL_CalcAvrgElSpeedDpp,"ax",%progbits
 1079              		.align	1
 1080              		.weak	STO_PLL_CalcAvrgElSpeedDpp
 1081              		.syntax unified
 1082              		.thumb
 1083              		.thumb_func
 1084              		.fpu fpv4-sp-d16
 1086              	STO_PLL_CalcAvrgElSpeedDpp:
ARM GAS  /tmp/ccDchrQO.s 			page 40


 1087              	.LVL134:
 1088              	.LFB1441:
 554:MCSDK_v6.1.0-Full/MotorControl/MCSDK/MCLib/Any/Src/sto_pll_speed_pos_fdbk.c **** #ifdef NULL_PTR_STO_PLL_SPD_POS_FDB
 1089              		.loc 1 554 1 is_stmt 1 view -0
 1090              		.cfi_startproc
 1091              		@ args = 0, pretend = 0, frame = 0
 1092              		@ frame_needed = 0, uses_anonymous_args = 0
 1093              		@ link register save eliminated.
 554:MCSDK_v6.1.0-Full/MotorControl/MCSDK/MCLib/Any/Src/sto_pll_speed_pos_fdbk.c **** #ifdef NULL_PTR_STO_PLL_SPD_POS_FDB
 1094              		.loc 1 554 1 is_stmt 0 view .LVU437
 1095 0000 70B4     		push	{r4, r5, r6}
 1096              		.cfi_def_cfa_offset 12
 1097              		.cfi_offset 4, -12
 1098              		.cfi_offset 5, -8
 1099              		.cfi_offset 6, -4
 563:MCSDK_v6.1.0-Full/MotorControl/MCSDK/MCLib/Any/Src/sto_pll_speed_pos_fdbk.c ****     int16_t hIndexOld;
 1100              		.loc 1 563 5 is_stmt 1 view .LVU438
 563:MCSDK_v6.1.0-Full/MotorControl/MCSDK/MCLib/Any/Src/sto_pll_speed_pos_fdbk.c ****     int16_t hIndexOld;
 1101              		.loc 1 563 41 is_stmt 0 view .LVU439
 1102 0002 90F8F410 		ldrb	r1, [r0, #244]	@ zero_extendqisi2
 1103              	.LVL135:
 564:MCSDK_v6.1.0-Full/MotorControl/MCSDK/MCLib/Any/Src/sto_pll_speed_pos_fdbk.c ****     int16_t hIndexOldTemp;
 1104              		.loc 1 564 5 is_stmt 1 view .LVU440
 565:MCSDK_v6.1.0-Full/MotorControl/MCSDK/MCLib/Any/Src/sto_pll_speed_pos_fdbk.c ****     int32_t wSum = pHandle->DppBufferSum;
 1105              		.loc 1 565 5 view .LVU441
 566:MCSDK_v6.1.0-Full/MotorControl/MCSDK/MCLib/Any/Src/sto_pll_speed_pos_fdbk.c ****     int32_t wAvrSpeed_dpp;
 1106              		.loc 1 566 5 view .LVU442
 566:MCSDK_v6.1.0-Full/MotorControl/MCSDK/MCLib/Any/Src/sto_pll_speed_pos_fdbk.c ****     int32_t wAvrSpeed_dpp;
 1107              		.loc 1 566 13 is_stmt 0 view .LVU443
 1108 0006 D0F80841 		ldr	r4, [r0, #264]
 1109              	.LVL136:
 567:MCSDK_v6.1.0-Full/MotorControl/MCSDK/MCLib/Any/Src/sto_pll_speed_pos_fdbk.c ****     int16_t hSpeedBufferSizedpp = (int16_t)pHandle->SpeedBufferSizeDpp;
 1110              		.loc 1 567 5 is_stmt 1 view .LVU444
 568:MCSDK_v6.1.0-Full/MotorControl/MCSDK/MCLib/Any/Src/sto_pll_speed_pos_fdbk.c ****     int16_t hSpeedBufferSizeUnit = (int16_t)pHandle->SpeedBufferSizeUnit;
 1111              		.loc 1 568 5 view .LVU445
 568:MCSDK_v6.1.0-Full/MotorControl/MCSDK/MCLib/Any/Src/sto_pll_speed_pos_fdbk.c ****     int16_t hSpeedBufferSizeUnit = (int16_t)pHandle->SpeedBufferSizeUnit;
 1112              		.loc 1 568 51 is_stmt 0 view .LVU446
 1113 000a 90F80F21 		ldrb	r2, [r0, #271]	@ zero_extendqisi2
 1114              	.LVL137:
 569:MCSDK_v6.1.0-Full/MotorControl/MCSDK/MCLib/Any/Src/sto_pll_speed_pos_fdbk.c ****     int16_t hBufferSizeDiff;
 1115              		.loc 1 569 5 is_stmt 1 view .LVU447
 569:MCSDK_v6.1.0-Full/MotorControl/MCSDK/MCLib/Any/Src/sto_pll_speed_pos_fdbk.c ****     int16_t hBufferSizeDiff;
 1116              		.loc 1 569 52 is_stmt 0 view .LVU448
 1117 000e 90F80E31 		ldrb	r3, [r0, #270]	@ zero_extendqisi2
 569:MCSDK_v6.1.0-Full/MotorControl/MCSDK/MCLib/Any/Src/sto_pll_speed_pos_fdbk.c ****     int16_t hBufferSizeDiff;
 1118              		.loc 1 569 13 view .LVU449
 1119 0012 1DB2     		sxth	r5, r3
 1120              	.LVL138:
 570:MCSDK_v6.1.0-Full/MotorControl/MCSDK/MCLib/Any/Src/sto_pll_speed_pos_fdbk.c **** 
 1121              		.loc 1 570 5 is_stmt 1 view .LVU450
 572:MCSDK_v6.1.0-Full/MotorControl/MCSDK/MCLib/Any/Src/sto_pll_speed_pos_fdbk.c **** 
 1122              		.loc 1 572 5 view .LVU451
 572:MCSDK_v6.1.0-Full/MotorControl/MCSDK/MCLib/Any/Src/sto_pll_speed_pos_fdbk.c **** 
 1123              		.loc 1 572 44 is_stmt 0 view .LVU452
 1124 0014 9EB2     		uxth	r6, r3
 1125 0016 9B1A     		subs	r3, r3, r2
 1126 0018 9BB2     		uxth	r3, r3
ARM GAS  /tmp/ccDchrQO.s 			page 41


 1127              	.LVL139:
 574:MCSDK_v6.1.0-Full/MotorControl/MCSDK/MCLib/Any/Src/sto_pll_speed_pos_fdbk.c ****     {
 1128              		.loc 1 574 5 is_stmt 1 view .LVU453
 574:MCSDK_v6.1.0-Full/MotorControl/MCSDK/MCLib/Any/Src/sto_pll_speed_pos_fdbk.c ****     {
 1129              		.loc 1 574 8 is_stmt 0 view .LVU454
 1130 001a 8BB9     		cbnz	r3, .L56
 576:MCSDK_v6.1.0-Full/MotorControl/MCSDK/MCLib/Any/Src/sto_pll_speed_pos_fdbk.c ****     }
 1131              		.loc 1 576 7 is_stmt 1 view .LVU455
 576:MCSDK_v6.1.0-Full/MotorControl/MCSDK/MCLib/Any/Src/sto_pll_speed_pos_fdbk.c ****     }
 1132              		.loc 1 576 42 is_stmt 0 view .LVU456
 1133 001c 3831     		adds	r1, r1, #56
 1134              	.LVL140:
 576:MCSDK_v6.1.0-Full/MotorControl/MCSDK/MCLib/Any/Src/sto_pll_speed_pos_fdbk.c ****     }
 1135              		.loc 1 576 42 view .LVU457
 1136 001e 00EB4101 		add	r1, r0, r1, lsl #1
 1137              	.LVL141:
 576:MCSDK_v6.1.0-Full/MotorControl/MCSDK/MCLib/Any/Src/sto_pll_speed_pos_fdbk.c ****     }
 1138              		.loc 1 576 42 view .LVU458
 1139 0022 B1F90430 		ldrsh	r3, [r1, #4]
 1140              	.LVL142:
 576:MCSDK_v6.1.0-Full/MotorControl/MCSDK/MCLib/Any/Src/sto_pll_speed_pos_fdbk.c ****     }
 1141              		.loc 1 576 19 view .LVU459
 1142 0026 2344     		add	r3, r3, r4
 576:MCSDK_v6.1.0-Full/MotorControl/MCSDK/MCLib/Any/Src/sto_pll_speed_pos_fdbk.c ****     }
 1143              		.loc 1 576 63 view .LVU460
 1144 0028 B0F90C21 		ldrsh	r2, [r0, #268]
 1145              	.LVL143:
 576:MCSDK_v6.1.0-Full/MotorControl/MCSDK/MCLib/Any/Src/sto_pll_speed_pos_fdbk.c ****     }
 1146              		.loc 1 576 12 view .LVU461
 1147 002c 9B1A     		subs	r3, r3, r2
 1148              	.LVL144:
 1149              	.L57:
 596:MCSDK_v6.1.0-Full/MotorControl/MCSDK/MCLib/Any/Src/sto_pll_speed_pos_fdbk.c **** #else
 1150              		.loc 1 596 3 is_stmt 1 view .LVU462
 596:MCSDK_v6.1.0-Full/MotorControl/MCSDK/MCLib/Any/Src/sto_pll_speed_pos_fdbk.c **** #else
 1151              		.loc 1 596 34 is_stmt 0 view .LVU463
 1152 002e B0F82021 		ldrh	r2, [r0, #288]
 596:MCSDK_v6.1.0-Full/MotorControl/MCSDK/MCLib/Any/Src/sto_pll_speed_pos_fdbk.c **** #else
 1153              		.loc 1 596 17 view .LVU464
 1154 0032 43FA02F2 		asr	r2, r3, r2
 1155              	.LVL145:
 608:MCSDK_v6.1.0-Full/MotorControl/MCSDK/MCLib/Any/Src/sto_pll_speed_pos_fdbk.c ****     pHandle->DppBufferSum = wSum;
 1156              		.loc 1 608 5 is_stmt 1 view .LVU465
 608:MCSDK_v6.1.0-Full/MotorControl/MCSDK/MCLib/Any/Src/sto_pll_speed_pos_fdbk.c ****     pHandle->DppBufferSum = wSum;
 1157              		.loc 1 608 33 is_stmt 0 view .LVU466
 1158 0036 C281     		strh	r2, [r0, #14]	@ movhi
 609:MCSDK_v6.1.0-Full/MotorControl/MCSDK/MCLib/Any/Src/sto_pll_speed_pos_fdbk.c **** #ifdef NULL_PTR_STO_PLL_SPD_POS_FDB
 1159              		.loc 1 609 5 is_stmt 1 view .LVU467
 609:MCSDK_v6.1.0-Full/MotorControl/MCSDK/MCLib/Any/Src/sto_pll_speed_pos_fdbk.c **** #ifdef NULL_PTR_STO_PLL_SPD_POS_FDB
 1160              		.loc 1 609 27 is_stmt 0 view .LVU468
 1161 0038 C0F80831 		str	r3, [r0, #264]
 613:MCSDK_v6.1.0-Full/MotorControl/MCSDK/MCLib/Any/Src/sto_pll_speed_pos_fdbk.c **** 
 1162              		.loc 1 613 1 view .LVU469
 1163 003c 70BC     		pop	{r4, r5, r6}
 1164              		.cfi_remember_state
 1165              		.cfi_restore 6
 1166              		.cfi_restore 5
ARM GAS  /tmp/ccDchrQO.s 			page 42


 1167              		.cfi_restore 4
 1168              		.cfi_def_cfa_offset 0
 1169              	.LVL146:
 613:MCSDK_v6.1.0-Full/MotorControl/MCSDK/MCLib/Any/Src/sto_pll_speed_pos_fdbk.c **** 
 1170              		.loc 1 613 1 view .LVU470
 1171 003e 7047     		bx	lr
 1172              	.LVL147:
 1173              	.L56:
 1174              		.cfi_restore_state
 580:MCSDK_v6.1.0-Full/MotorControl/MCSDK/MCLib/Any/Src/sto_pll_speed_pos_fdbk.c **** 
 1175              		.loc 1 580 7 is_stmt 1 view .LVU471
 580:MCSDK_v6.1.0-Full/MotorControl/MCSDK/MCLib/Any/Src/sto_pll_speed_pos_fdbk.c **** 
 1176              		.loc 1 580 33 is_stmt 0 view .LVU472
 1177 0040 0B44     		add	r3, r3, r1
 1178              	.LVL148:
 580:MCSDK_v6.1.0-Full/MotorControl/MCSDK/MCLib/Any/Src/sto_pll_speed_pos_fdbk.c **** 
 1179              		.loc 1 580 33 view .LVU473
 1180 0042 9AB2     		uxth	r2, r3
 1181              	.LVL149:
 580:MCSDK_v6.1.0-Full/MotorControl/MCSDK/MCLib/Any/Src/sto_pll_speed_pos_fdbk.c **** 
 1182              		.loc 1 580 21 view .LVU474
 1183 0044 1BB2     		sxth	r3, r3
 1184              	.LVL150:
 582:MCSDK_v6.1.0-Full/MotorControl/MCSDK/MCLib/Any/Src/sto_pll_speed_pos_fdbk.c ****       {
 1185              		.loc 1 582 7 is_stmt 1 view .LVU475
 582:MCSDK_v6.1.0-Full/MotorControl/MCSDK/MCLib/Any/Src/sto_pll_speed_pos_fdbk.c ****       {
 1186              		.loc 1 582 10 is_stmt 0 view .LVU476
 1187 0046 9D42     		cmp	r5, r3
 1188 0048 01DC     		bgt	.L58
 584:MCSDK_v6.1.0-Full/MotorControl/MCSDK/MCLib/Any/Src/sto_pll_speed_pos_fdbk.c ****       }
 1189              		.loc 1 584 9 is_stmt 1 view .LVU477
 584:MCSDK_v6.1.0-Full/MotorControl/MCSDK/MCLib/Any/Src/sto_pll_speed_pos_fdbk.c ****       }
 1190              		.loc 1 584 35 is_stmt 0 view .LVU478
 1191 004a 931B     		subs	r3, r2, r6
 1192              	.LVL151:
 584:MCSDK_v6.1.0-Full/MotorControl/MCSDK/MCLib/Any/Src/sto_pll_speed_pos_fdbk.c ****       }
 1193              		.loc 1 584 19 view .LVU479
 1194 004c 1BB2     		sxth	r3, r3
 1195              	.LVL152:
 1196              	.L58:
 591:MCSDK_v6.1.0-Full/MotorControl/MCSDK/MCLib/Any/Src/sto_pll_speed_pos_fdbk.c ****     }
 1197              		.loc 1 591 7 is_stmt 1 view .LVU480
 591:MCSDK_v6.1.0-Full/MotorControl/MCSDK/MCLib/Any/Src/sto_pll_speed_pos_fdbk.c ****     }
 1198              		.loc 1 591 42 is_stmt 0 view .LVU481
 1199 004e 3831     		adds	r1, r1, #56
 1200              	.LVL153:
 591:MCSDK_v6.1.0-Full/MotorControl/MCSDK/MCLib/Any/Src/sto_pll_speed_pos_fdbk.c ****     }
 1201              		.loc 1 591 42 view .LVU482
 1202 0050 00EB4101 		add	r1, r0, r1, lsl #1
 1203              	.LVL154:
 591:MCSDK_v6.1.0-Full/MotorControl/MCSDK/MCLib/Any/Src/sto_pll_speed_pos_fdbk.c ****     }
 1204              		.loc 1 591 42 view .LVU483
 1205 0054 B1F90420 		ldrsh	r2, [r1, #4]
 1206              	.LVL155:
 591:MCSDK_v6.1.0-Full/MotorControl/MCSDK/MCLib/Any/Src/sto_pll_speed_pos_fdbk.c ****     }
 1207              		.loc 1 591 19 view .LVU484
 1208 0058 2244     		add	r2, r2, r4
ARM GAS  /tmp/ccDchrQO.s 			page 43


 591:MCSDK_v6.1.0-Full/MotorControl/MCSDK/MCLib/Any/Src/sto_pll_speed_pos_fdbk.c ****     }
 1209              		.loc 1 591 77 view .LVU485
 1210 005a 3833     		adds	r3, r3, #56
 1211              	.LVL156:
 591:MCSDK_v6.1.0-Full/MotorControl/MCSDK/MCLib/Any/Src/sto_pll_speed_pos_fdbk.c ****     }
 1212              		.loc 1 591 77 view .LVU486
 1213 005c 00EB4303 		add	r3, r0, r3, lsl #1
 1214 0060 B3F90430 		ldrsh	r3, [r3, #4]
 591:MCSDK_v6.1.0-Full/MotorControl/MCSDK/MCLib/Any/Src/sto_pll_speed_pos_fdbk.c ****     }
 1215              		.loc 1 591 12 view .LVU487
 1216 0064 D31A     		subs	r3, r2, r3
 1217              	.LVL157:
 591:MCSDK_v6.1.0-Full/MotorControl/MCSDK/MCLib/Any/Src/sto_pll_speed_pos_fdbk.c ****     }
 1218              		.loc 1 591 12 view .LVU488
 1219 0066 E2E7     		b	.L57
 1220              		.cfi_endproc
 1221              	.LFE1441:
 1223              		.section	.text.STO_PLL_Clear,"ax",%progbits
 1224              		.align	1
 1225              		.weak	STO_PLL_Clear
 1226              		.syntax unified
 1227              		.thumb
 1228              		.thumb_func
 1229              		.fpu fpv4-sp-d16
 1231              	STO_PLL_Clear:
 1232              	.LVL158:
 1233              	.LFB1442:
 620:MCSDK_v6.1.0-Full/MotorControl/MCSDK/MCLib/Any/Src/sto_pll_speed_pos_fdbk.c **** #ifdef NULL_PTR_STO_PLL_SPD_POS_FDB
 1234              		.loc 1 620 1 is_stmt 1 view -0
 1235              		.cfi_startproc
 1236              		@ args = 0, pretend = 0, frame = 0
 1237              		@ frame_needed = 0, uses_anonymous_args = 0
 620:MCSDK_v6.1.0-Full/MotorControl/MCSDK/MCLib/Any/Src/sto_pll_speed_pos_fdbk.c **** #ifdef NULL_PTR_STO_PLL_SPD_POS_FDB
 1238              		.loc 1 620 1 is_stmt 0 view .LVU490
 1239 0000 38B5     		push	{r3, r4, r5, lr}
 1240              		.cfi_def_cfa_offset 16
 1241              		.cfi_offset 3, -16
 1242              		.cfi_offset 4, -12
 1243              		.cfi_offset 5, -8
 1244              		.cfi_offset 14, -4
 1245 0002 0446     		mov	r4, r0
 629:MCSDK_v6.1.0-Full/MotorControl/MCSDK/MCLib/Any/Src/sto_pll_speed_pos_fdbk.c ****     pHandle->Ibeta_est = (int32_t)0;
 1246              		.loc 1 629 5 is_stmt 1 view .LVU491
 629:MCSDK_v6.1.0-Full/MotorControl/MCSDK/MCLib/Any/Src/sto_pll_speed_pos_fdbk.c ****     pHandle->Ibeta_est = (int32_t)0;
 1247              		.loc 1 629 24 is_stmt 0 view .LVU492
 1248 0004 0025     		movs	r5, #0
 1249 0006 0566     		str	r5, [r0, #96]
 630:MCSDK_v6.1.0-Full/MotorControl/MCSDK/MCLib/Any/Src/sto_pll_speed_pos_fdbk.c ****     pHandle->wBemf_alfa_est = (int32_t)0;
 1250              		.loc 1 630 5 is_stmt 1 view .LVU493
 630:MCSDK_v6.1.0-Full/MotorControl/MCSDK/MCLib/Any/Src/sto_pll_speed_pos_fdbk.c ****     pHandle->wBemf_alfa_est = (int32_t)0;
 1251              		.loc 1 630 24 is_stmt 0 view .LVU494
 1252 0008 4566     		str	r5, [r0, #100]
 631:MCSDK_v6.1.0-Full/MotorControl/MCSDK/MCLib/Any/Src/sto_pll_speed_pos_fdbk.c ****     pHandle->wBemf_beta_est = (int32_t)0;
 1253              		.loc 1 631 5 is_stmt 1 view .LVU495
 631:MCSDK_v6.1.0-Full/MotorControl/MCSDK/MCLib/Any/Src/sto_pll_speed_pos_fdbk.c ****     pHandle->wBemf_beta_est = (int32_t)0;
 1254              		.loc 1 631 29 is_stmt 0 view .LVU496
 1255 000a 8566     		str	r5, [r0, #104]
ARM GAS  /tmp/ccDchrQO.s 			page 44


 632:MCSDK_v6.1.0-Full/MotorControl/MCSDK/MCLib/Any/Src/sto_pll_speed_pos_fdbk.c ****     pHandle->_Super.hElAngle = (int16_t)0;
 1256              		.loc 1 632 5 is_stmt 1 view .LVU497
 632:MCSDK_v6.1.0-Full/MotorControl/MCSDK/MCLib/Any/Src/sto_pll_speed_pos_fdbk.c ****     pHandle->_Super.hElAngle = (int16_t)0;
 1257              		.loc 1 632 29 is_stmt 0 view .LVU498
 1258 000c C566     		str	r5, [r0, #108]
 633:MCSDK_v6.1.0-Full/MotorControl/MCSDK/MCLib/Any/Src/sto_pll_speed_pos_fdbk.c ****     pHandle->_Super.hElSpeedDpp = (int16_t)0;
 1259              		.loc 1 633 5 is_stmt 1 view .LVU499
 633:MCSDK_v6.1.0-Full/MotorControl/MCSDK/MCLib/Any/Src/sto_pll_speed_pos_fdbk.c ****     pHandle->_Super.hElSpeedDpp = (int16_t)0;
 1260              		.loc 1 633 30 is_stmt 0 view .LVU500
 1261 000e 8580     		strh	r5, [r0, #4]	@ movhi
 634:MCSDK_v6.1.0-Full/MotorControl/MCSDK/MCLib/Any/Src/sto_pll_speed_pos_fdbk.c ****     pHandle->ConsistencyCounter = 0u;
 1262              		.loc 1 634 5 is_stmt 1 view .LVU501
 634:MCSDK_v6.1.0-Full/MotorControl/MCSDK/MCLib/Any/Src/sto_pll_speed_pos_fdbk.c ****     pHandle->ConsistencyCounter = 0u;
 1263              		.loc 1 634 33 is_stmt 0 view .LVU502
 1264 0010 C581     		strh	r5, [r0, #14]	@ movhi
 635:MCSDK_v6.1.0-Full/MotorControl/MCSDK/MCLib/Any/Src/sto_pll_speed_pos_fdbk.c ****     pHandle->ReliabilityCounter = 0u;
 1265              		.loc 1 635 5 is_stmt 1 view .LVU503
 635:MCSDK_v6.1.0-Full/MotorControl/MCSDK/MCLib/Any/Src/sto_pll_speed_pos_fdbk.c ****     pHandle->ReliabilityCounter = 0u;
 1266              		.loc 1 635 33 is_stmt 0 view .LVU504
 1267 0012 80F8F650 		strb	r5, [r0, #246]
 636:MCSDK_v6.1.0-Full/MotorControl/MCSDK/MCLib/Any/Src/sto_pll_speed_pos_fdbk.c ****     pHandle->IsAlgorithmConverged = false;
 1268              		.loc 1 636 5 is_stmt 1 view .LVU505
 636:MCSDK_v6.1.0-Full/MotorControl/MCSDK/MCLib/Any/Src/sto_pll_speed_pos_fdbk.c ****     pHandle->IsAlgorithmConverged = false;
 1269              		.loc 1 636 33 is_stmt 0 view .LVU506
 1270 0016 80F8F750 		strb	r5, [r0, #247]
 637:MCSDK_v6.1.0-Full/MotorControl/MCSDK/MCLib/Any/Src/sto_pll_speed_pos_fdbk.c ****     pHandle->IsBemfConsistent = false;
 1271              		.loc 1 637 5 is_stmt 1 view .LVU507
 637:MCSDK_v6.1.0-Full/MotorControl/MCSDK/MCLib/Any/Src/sto_pll_speed_pos_fdbk.c ****     pHandle->IsBemfConsistent = false;
 1272              		.loc 1 637 35 is_stmt 0 view .LVU508
 1273 001a 80F8F850 		strb	r5, [r0, #248]
 638:MCSDK_v6.1.0-Full/MotorControl/MCSDK/MCLib/Any/Src/sto_pll_speed_pos_fdbk.c ****     pHandle->Obs_Bemf_Level = (int32_t)0;
 1274              		.loc 1 638 5 is_stmt 1 view .LVU509
 638:MCSDK_v6.1.0-Full/MotorControl/MCSDK/MCLib/Any/Src/sto_pll_speed_pos_fdbk.c ****     pHandle->Obs_Bemf_Level = (int32_t)0;
 1275              		.loc 1 638 31 is_stmt 0 view .LVU510
 1276 001e 80F8F950 		strb	r5, [r0, #249]
 639:MCSDK_v6.1.0-Full/MotorControl/MCSDK/MCLib/Any/Src/sto_pll_speed_pos_fdbk.c ****     pHandle->Est_Bemf_Level = (int32_t)0;
 1277              		.loc 1 639 5 is_stmt 1 view .LVU511
 639:MCSDK_v6.1.0-Full/MotorControl/MCSDK/MCLib/Any/Src/sto_pll_speed_pos_fdbk.c ****     pHandle->Est_Bemf_Level = (int32_t)0;
 1278              		.loc 1 639 29 is_stmt 0 view .LVU512
 1279 0022 C0F8FC50 		str	r5, [r0, #252]
 640:MCSDK_v6.1.0-Full/MotorControl/MCSDK/MCLib/Any/Src/sto_pll_speed_pos_fdbk.c ****     pHandle->DppBufferSum = (int32_t)0;
 1280              		.loc 1 640 5 is_stmt 1 view .LVU513
 640:MCSDK_v6.1.0-Full/MotorControl/MCSDK/MCLib/Any/Src/sto_pll_speed_pos_fdbk.c ****     pHandle->DppBufferSum = (int32_t)0;
 1281              		.loc 1 640 29 is_stmt 0 view .LVU514
 1282 0026 C0F80051 		str	r5, [r0, #256]
 641:MCSDK_v6.1.0-Full/MotorControl/MCSDK/MCLib/Any/Src/sto_pll_speed_pos_fdbk.c ****     pHandle->ForceConvergency = false;
 1283              		.loc 1 641 5 is_stmt 1 view .LVU515
 641:MCSDK_v6.1.0-Full/MotorControl/MCSDK/MCLib/Any/Src/sto_pll_speed_pos_fdbk.c ****     pHandle->ForceConvergency = false;
 1284              		.loc 1 641 27 is_stmt 0 view .LVU516
 1285 002a C0F80851 		str	r5, [r0, #264]
 642:MCSDK_v6.1.0-Full/MotorControl/MCSDK/MCLib/Any/Src/sto_pll_speed_pos_fdbk.c ****     pHandle->ForceConvergency2 = false;
 1286              		.loc 1 642 5 is_stmt 1 view .LVU517
 642:MCSDK_v6.1.0-Full/MotorControl/MCSDK/MCLib/Any/Src/sto_pll_speed_pos_fdbk.c ****     pHandle->ForceConvergency2 = false;
 1287              		.loc 1 642 31 is_stmt 0 view .LVU518
 1288 002e 80F82251 		strb	r5, [r0, #290]
 643:MCSDK_v6.1.0-Full/MotorControl/MCSDK/MCLib/Any/Src/sto_pll_speed_pos_fdbk.c **** 
 1289              		.loc 1 643 5 is_stmt 1 view .LVU519
ARM GAS  /tmp/ccDchrQO.s 			page 45


 643:MCSDK_v6.1.0-Full/MotorControl/MCSDK/MCLib/Any/Src/sto_pll_speed_pos_fdbk.c **** 
 1290              		.loc 1 643 32 is_stmt 0 view .LVU520
 1291 0032 80F82351 		strb	r5, [r0, #291]
 645:MCSDK_v6.1.0-Full/MotorControl/MCSDK/MCLib/Any/Src/sto_pll_speed_pos_fdbk.c ****     PID_SetIntegralTerm(& pHandle->PIRegulator, (int32_t)0);
 1292              		.loc 1 645 5 is_stmt 1 view .LVU521
 1293 0036 FFF7FEFF 		bl	STO_InitSpeedBuffer
 1294              	.LVL159:
 646:MCSDK_v6.1.0-Full/MotorControl/MCSDK/MCLib/Any/Src/sto_pll_speed_pos_fdbk.c **** #ifdef NULL_PTR_STO_PLL_SPD_POS_FDB
 1295              		.loc 1 646 5 view .LVU522
 1296 003a 2946     		mov	r1, r5
 1297 003c 04F13400 		add	r0, r4, #52
 1298 0040 FFF7FEFF 		bl	PID_SetIntegralTerm
 1299              	.LVL160:
 650:MCSDK_v6.1.0-Full/MotorControl/MCSDK/MCLib/Any/Src/sto_pll_speed_pos_fdbk.c **** 
 1300              		.loc 1 650 1 is_stmt 0 view .LVU523
 1301 0044 38BD     		pop	{r3, r4, r5, pc}
 650:MCSDK_v6.1.0-Full/MotorControl/MCSDK/MCLib/Any/Src/sto_pll_speed_pos_fdbk.c **** 
 1302              		.loc 1 650 1 view .LVU524
 1303              		.cfi_endproc
 1304              	.LFE1442:
 1306              		.section	.text.STO_PLL_Init,"ax",%progbits
 1307              		.align	1
 1308              		.weak	STO_PLL_Init
 1309              		.syntax unified
 1310              		.thumb
 1311              		.thumb_func
 1312              		.fpu fpv4-sp-d16
 1314              	STO_PLL_Init:
 1315              	.LVL161:
 1316              	.LFB1437:
  64:MCSDK_v6.1.0-Full/MotorControl/MCSDK/MCLib/Any/Src/sto_pll_speed_pos_fdbk.c **** #ifdef NULL_PTR_STO_PLL_SPD_POS_FDB
 1317              		.loc 1 64 1 is_stmt 1 view -0
 1318              		.cfi_startproc
 1319              		@ args = 0, pretend = 0, frame = 0
 1320              		@ frame_needed = 0, uses_anonymous_args = 0
  64:MCSDK_v6.1.0-Full/MotorControl/MCSDK/MCLib/Any/Src/sto_pll_speed_pos_fdbk.c **** #ifdef NULL_PTR_STO_PLL_SPD_POS_FDB
 1321              		.loc 1 64 1 is_stmt 0 view .LVU526
 1322 0000 10B5     		push	{r4, lr}
 1323              		.cfi_def_cfa_offset 8
 1324              		.cfi_offset 4, -8
 1325              		.cfi_offset 14, -4
 1326 0002 0446     		mov	r4, r0
  73:MCSDK_v6.1.0-Full/MotorControl/MCSDK/MCLib/Any/Src/sto_pll_speed_pos_fdbk.c ****     int32_t wAux;
 1327              		.loc 1 73 5 is_stmt 1 view .LVU527
  74:MCSDK_v6.1.0-Full/MotorControl/MCSDK/MCLib/Any/Src/sto_pll_speed_pos_fdbk.c **** 
 1328              		.loc 1 74 5 view .LVU528
  76:MCSDK_v6.1.0-Full/MotorControl/MCSDK/MCLib/Any/Src/sto_pll_speed_pos_fdbk.c ****     pHandle->EnableDualCheck = true;
 1329              		.loc 1 76 5 view .LVU529
  76:MCSDK_v6.1.0-Full/MotorControl/MCSDK/MCLib/Any/Src/sto_pll_speed_pos_fdbk.c ****     pHandle->EnableDualCheck = true;
 1330              		.loc 1 76 42 is_stmt 0 view .LVU530
 1331 0004 90F81631 		ldrb	r3, [r0, #278]	@ zero_extendqisi2
  76:MCSDK_v6.1.0-Full/MotorControl/MCSDK/MCLib/Any/Src/sto_pll_speed_pos_fdbk.c ****     pHandle->EnableDualCheck = true;
 1332              		.loc 1 76 33 view .LVU531
 1333 0008 80F8F630 		strb	r3, [r0, #246]
  77:MCSDK_v6.1.0-Full/MotorControl/MCSDK/MCLib/Any/Src/sto_pll_speed_pos_fdbk.c **** 
 1334              		.loc 1 77 5 is_stmt 1 view .LVU532
  77:MCSDK_v6.1.0-Full/MotorControl/MCSDK/MCLib/Any/Src/sto_pll_speed_pos_fdbk.c **** 
ARM GAS  /tmp/ccDchrQO.s 			page 46


 1335              		.loc 1 77 30 is_stmt 0 view .LVU533
 1336 000c 0121     		movs	r1, #1
 1337 000e 80F80411 		strb	r1, [r0, #260]
  79:MCSDK_v6.1.0-Full/MotorControl/MCSDK/MCLib/Any/Src/sto_pll_speed_pos_fdbk.c ****     pHandle->F3POW2 = 0U;
 1338              		.loc 1 79 5 is_stmt 1 view .LVU534
 1339              	.LVL162:
  80:MCSDK_v6.1.0-Full/MotorControl/MCSDK/MCLib/Any/Src/sto_pll_speed_pos_fdbk.c **** 
 1340              		.loc 1 80 5 view .LVU535
  80:MCSDK_v6.1.0-Full/MotorControl/MCSDK/MCLib/Any/Src/sto_pll_speed_pos_fdbk.c **** 
 1341              		.loc 1 80 21 is_stmt 0 view .LVU536
 1342 0012 0023     		movs	r3, #0
 1343 0014 4386     		strh	r3, [r0, #50]	@ movhi
  82:MCSDK_v6.1.0-Full/MotorControl/MCSDK/MCLib/Any/Src/sto_pll_speed_pos_fdbk.c **** 
 1344              		.loc 1 82 5 is_stmt 1 view .LVU537
  82:MCSDK_v6.1.0-Full/MotorControl/MCSDK/MCLib/Any/Src/sto_pll_speed_pos_fdbk.c **** 
 1345              		.loc 1 82 48 is_stmt 0 view .LVU538
 1346 0016 B0F92E00 		ldrsh	r0, [r0, #46]
 1347              	.LVL163:
  82:MCSDK_v6.1.0-Full/MotorControl/MCSDK/MCLib/Any/Src/sto_pll_speed_pos_fdbk.c **** 
 1348              		.loc 1 82 39 view .LVU539
 1349 001a 114B     		ldr	r3, .L67
 1350 001c 93FBF0F3 		sdiv	r3, r3, r0
  82:MCSDK_v6.1.0-Full/MotorControl/MCSDK/MCLib/Any/Src/sto_pll_speed_pos_fdbk.c **** 
 1351              		.loc 1 82 12 view .LVU540
 1352 0020 1BB2     		sxth	r3, r3
 1353              	.LVL164:
  84:MCSDK_v6.1.0-Full/MotorControl/MCSDK/MCLib/Any/Src/sto_pll_speed_pos_fdbk.c ****     {
 1354              		.loc 1 84 5 is_stmt 1 view .LVU541
 1355              	.L63:
  84:MCSDK_v6.1.0-Full/MotorControl/MCSDK/MCLib/Any/Src/sto_pll_speed_pos_fdbk.c ****     {
 1356              		.loc 1 84 11 view .LVU542
 1357 0022 3BB1     		cbz	r3, .L66
  86:MCSDK_v6.1.0-Full/MotorControl/MCSDK/MCLib/Any/Src/sto_pll_speed_pos_fdbk.c ****       wAux *= ((int32_t)2);
 1358              		.loc 1 86 7 view .LVU543
  86:MCSDK_v6.1.0-Full/MotorControl/MCSDK/MCLib/Any/Src/sto_pll_speed_pos_fdbk.c ****       wAux *= ((int32_t)2);
 1359              		.loc 1 86 14 is_stmt 0 view .LVU544
 1360 0024 03EBD373 		add	r3, r3, r3, lsr #31
 1361              	.LVL165:
  86:MCSDK_v6.1.0-Full/MotorControl/MCSDK/MCLib/Any/Src/sto_pll_speed_pos_fdbk.c ****       wAux *= ((int32_t)2);
 1362              		.loc 1 86 14 view .LVU545
 1363 0028 5B10     		asrs	r3, r3, #1
 1364              	.LVL166:
  87:MCSDK_v6.1.0-Full/MotorControl/MCSDK/MCLib/Any/Src/sto_pll_speed_pos_fdbk.c ****       pHandle->F3POW2++;
 1365              		.loc 1 87 7 is_stmt 1 view .LVU546
  87:MCSDK_v6.1.0-Full/MotorControl/MCSDK/MCLib/Any/Src/sto_pll_speed_pos_fdbk.c ****       pHandle->F3POW2++;
 1366              		.loc 1 87 12 is_stmt 0 view .LVU547
 1367 002a 4900     		lsls	r1, r1, #1
 1368              	.LVL167:
  88:MCSDK_v6.1.0-Full/MotorControl/MCSDK/MCLib/Any/Src/sto_pll_speed_pos_fdbk.c ****     }
 1369              		.loc 1 88 7 is_stmt 1 view .LVU548
  88:MCSDK_v6.1.0-Full/MotorControl/MCSDK/MCLib/Any/Src/sto_pll_speed_pos_fdbk.c ****     }
 1370              		.loc 1 88 14 is_stmt 0 view .LVU549
 1371 002c 628E     		ldrh	r2, [r4, #50]
  88:MCSDK_v6.1.0-Full/MotorControl/MCSDK/MCLib/Any/Src/sto_pll_speed_pos_fdbk.c ****     }
 1372              		.loc 1 88 22 view .LVU550
 1373 002e 0132     		adds	r2, r2, #1
 1374 0030 6286     		strh	r2, [r4, #50]	@ movhi
ARM GAS  /tmp/ccDchrQO.s 			page 47


 1375 0032 F6E7     		b	.L63
 1376              	.L66:
  91:MCSDK_v6.1.0-Full/MotorControl/MCSDK/MCLib/Any/Src/sto_pll_speed_pos_fdbk.c ****     wAux = ((int32_t)(pHandle->hF2)) * pHandle->hF3;
 1377              		.loc 1 91 5 is_stmt 1 view .LVU551
  91:MCSDK_v6.1.0-Full/MotorControl/MCSDK/MCLib/Any/Src/sto_pll_speed_pos_fdbk.c ****     wAux = ((int32_t)(pHandle->hF2)) * pHandle->hF3;
 1378              		.loc 1 91 20 is_stmt 0 view .LVU552
 1379 0034 09B2     		sxth	r1, r1
 1380              	.LVL168:
  91:MCSDK_v6.1.0-Full/MotorControl/MCSDK/MCLib/Any/Src/sto_pll_speed_pos_fdbk.c ****     wAux = ((int32_t)(pHandle->hF2)) * pHandle->hF3;
 1381              		.loc 1 91 18 view .LVU553
 1382 0036 2186     		strh	r1, [r4, #48]	@ movhi
  92:MCSDK_v6.1.0-Full/MotorControl/MCSDK/MCLib/Any/Src/sto_pll_speed_pos_fdbk.c ****     pHandle->hC6 = (int16_t)(wAux / C6_COMP_CONST2);
 1383              		.loc 1 92 5 is_stmt 1 view .LVU554
  92:MCSDK_v6.1.0-Full/MotorControl/MCSDK/MCLib/Any/Src/sto_pll_speed_pos_fdbk.c ****     pHandle->hC6 = (int16_t)(wAux / C6_COMP_CONST2);
 1384              		.loc 1 92 10 is_stmt 0 view .LVU555
 1385 0038 01FB00F1 		mul	r1, r1, r0
 1386              	.LVL169:
  93:MCSDK_v6.1.0-Full/MotorControl/MCSDK/MCLib/Any/Src/sto_pll_speed_pos_fdbk.c **** 
 1387              		.loc 1 93 5 is_stmt 1 view .LVU556
  93:MCSDK_v6.1.0-Full/MotorControl/MCSDK/MCLib/Any/Src/sto_pll_speed_pos_fdbk.c **** 
 1388              		.loc 1 93 35 is_stmt 0 view .LVU557
 1389 003c 094B     		ldr	r3, .L67+4
 1390              	.LVL170:
  93:MCSDK_v6.1.0-Full/MotorControl/MCSDK/MCLib/Any/Src/sto_pll_speed_pos_fdbk.c **** 
 1391              		.loc 1 93 35 view .LVU558
 1392 003e 83FB0123 		smull	r2, r3, r3, r1
 1393 0042 C917     		asrs	r1, r1, #31
 1394              	.LVL171:
  93:MCSDK_v6.1.0-Full/MotorControl/MCSDK/MCLib/Any/Src/sto_pll_speed_pos_fdbk.c **** 
 1395              		.loc 1 93 35 view .LVU559
 1396 0044 C1EB2321 		rsb	r1, r1, r3, asr #8
  93:MCSDK_v6.1.0-Full/MotorControl/MCSDK/MCLib/Any/Src/sto_pll_speed_pos_fdbk.c **** 
 1397              		.loc 1 93 18 view .LVU560
 1398 0048 6185     		strh	r1, [r4, #42]	@ movhi
  95:MCSDK_v6.1.0-Full/MotorControl/MCSDK/MCLib/Any/Src/sto_pll_speed_pos_fdbk.c **** 
 1399              		.loc 1 95 5 is_stmt 1 view .LVU561
 1400 004a 2046     		mov	r0, r4
 1401 004c FFF7FEFF 		bl	STO_PLL_Clear
 1402              	.LVL172:
  97:MCSDK_v6.1.0-Full/MotorControl/MCSDK/MCLib/Any/Src/sto_pll_speed_pos_fdbk.c **** 
 1403              		.loc 1 97 5 view .LVU562
 1404 0050 04F13400 		add	r0, r4, #52
 1405 0054 FFF7FEFF 		bl	PID_HandleInit
 1406              	.LVL173:
 100:MCSDK_v6.1.0-Full/MotorControl/MCSDK/MCLib/Any/Src/sto_pll_speed_pos_fdbk.c **** #ifdef NULL_PTR_STO_PLL_SPD_POS_FDB
 1407              		.loc 1 100 5 view .LVU563
 100:MCSDK_v6.1.0-Full/MotorControl/MCSDK/MCLib/Any/Src/sto_pll_speed_pos_fdbk.c **** #ifdef NULL_PTR_STO_PLL_SPD_POS_FDB
 1408              		.loc 1 100 36 is_stmt 0 view .LVU564
 1409 0058 0023     		movs	r3, #0
 1410 005a 6382     		strh	r3, [r4, #18]	@ movhi
 104:MCSDK_v6.1.0-Full/MotorControl/MCSDK/MCLib/Any/Src/sto_pll_speed_pos_fdbk.c **** }
 1411              		.loc 1 104 3 is_stmt 1 view .LVU565
 105:MCSDK_v6.1.0-Full/MotorControl/MCSDK/MCLib/Any/Src/sto_pll_speed_pos_fdbk.c **** 
 1412              		.loc 1 105 1 is_stmt 0 view .LVU566
 1413 005c 10BD     		pop	{r4, pc}
 1414              	.LVL174:
 1415              	.L68:
ARM GAS  /tmp/ccDchrQO.s 			page 48


 105:MCSDK_v6.1.0-Full/MotorControl/MCSDK/MCLib/Any/Src/sto_pll_speed_pos_fdbk.c **** 
 1416              		.loc 1 105 1 view .LVU567
 1417 005e 00BF     		.align	2
 1418              	.L67:
 1419 0060 5EEA0F00 		.word	1043038
 1420 0064 C58D4806 		.word	105418181
 1421              		.cfi_endproc
 1422              	.LFE1437:
 1424              		.section	.text.STO_PLL_IsObserverConverged,"ax",%progbits
 1425              		.align	1
 1426              		.weak	STO_PLL_IsObserverConverged
 1427              		.syntax unified
 1428              		.thumb
 1429              		.thumb_func
 1430              		.fpu fpv4-sp-d16
 1432              	STO_PLL_IsObserverConverged:
 1433              	.LVL175:
 1434              	.LFB1446:
 730:MCSDK_v6.1.0-Full/MotorControl/MCSDK/MCLib/Any/Src/sto_pll_speed_pos_fdbk.c **** 
 731:MCSDK_v6.1.0-Full/MotorControl/MCSDK/MCLib/Any/Src/sto_pll_speed_pos_fdbk.c **** /**
 732:MCSDK_v6.1.0-Full/MotorControl/MCSDK/MCLib/Any/Src/sto_pll_speed_pos_fdbk.c ****   * @brief  Checks if the state observer algorithm converged.
 733:MCSDK_v6.1.0-Full/MotorControl/MCSDK/MCLib/Any/Src/sto_pll_speed_pos_fdbk.c ****   * 
 734:MCSDK_v6.1.0-Full/MotorControl/MCSDK/MCLib/Any/Src/sto_pll_speed_pos_fdbk.c ****   * Internally performs a set of checks necessary to state whether
 735:MCSDK_v6.1.0-Full/MotorControl/MCSDK/MCLib/Any/Src/sto_pll_speed_pos_fdbk.c ****   * the state observer algorithm converged. To be periodically called
 736:MCSDK_v6.1.0-Full/MotorControl/MCSDK/MCLib/Any/Src/sto_pll_speed_pos_fdbk.c ****   * during motor open-loop ramp-up (e.g. at the same frequency of
 737:MCSDK_v6.1.0-Full/MotorControl/MCSDK/MCLib/Any/Src/sto_pll_speed_pos_fdbk.c ****   * SPD_CalcElAngle), it returns true if the estimated angle and speed
 738:MCSDK_v6.1.0-Full/MotorControl/MCSDK/MCLib/Any/Src/sto_pll_speed_pos_fdbk.c ****   * can be considered reliable, false otherwise.
 739:MCSDK_v6.1.0-Full/MotorControl/MCSDK/MCLib/Any/Src/sto_pll_speed_pos_fdbk.c ****   * 
 740:MCSDK_v6.1.0-Full/MotorControl/MCSDK/MCLib/Any/Src/sto_pll_speed_pos_fdbk.c ****   * @param  pHandle: Handler of the current instance of the STO component.
 741:MCSDK_v6.1.0-Full/MotorControl/MCSDK/MCLib/Any/Src/sto_pll_speed_pos_fdbk.c ****   * @param  hForcedMecSpeedUnit: Mechanical speed in 0.1Hz unit as forced by VSS.
 742:MCSDK_v6.1.0-Full/MotorControl/MCSDK/MCLib/Any/Src/sto_pll_speed_pos_fdbk.c ****   * @retval bool True if the estimated angle and speed are reliables, false otherwise.
 743:MCSDK_v6.1.0-Full/MotorControl/MCSDK/MCLib/Any/Src/sto_pll_speed_pos_fdbk.c ****   */
 744:MCSDK_v6.1.0-Full/MotorControl/MCSDK/MCLib/Any/Src/sto_pll_speed_pos_fdbk.c **** __weak bool STO_PLL_IsObserverConverged(STO_PLL_Handle_t *pHandle, int16_t *phForcedMecSpeedUnit)
 745:MCSDK_v6.1.0-Full/MotorControl/MCSDK/MCLib/Any/Src/sto_pll_speed_pos_fdbk.c **** {
 1435              		.loc 1 745 1 is_stmt 1 view -0
 1436              		.cfi_startproc
 1437              		@ args = 0, pretend = 0, frame = 0
 1438              		@ frame_needed = 0, uses_anonymous_args = 0
 1439              		@ link register save eliminated.
 1440              		.loc 1 745 1 is_stmt 0 view .LVU569
 1441 0000 0346     		mov	r3, r0
 746:MCSDK_v6.1.0-Full/MotorControl/MCSDK/MCLib/Any/Src/sto_pll_speed_pos_fdbk.c ****   bool bAux = false;
 1442              		.loc 1 746 3 is_stmt 1 view .LVU570
 1443              	.LVL176:
 747:MCSDK_v6.1.0-Full/MotorControl/MCSDK/MCLib/Any/Src/sto_pll_speed_pos_fdbk.c **** #ifdef NULL_PTR_STO_PLL_SPD_POS_FDB
 748:MCSDK_v6.1.0-Full/MotorControl/MCSDK/MCLib/Any/Src/sto_pll_speed_pos_fdbk.c ****   if ((MC_NULL == pHandle) || (MC_NULL == phForcedMecSpeedUnit))
 749:MCSDK_v6.1.0-Full/MotorControl/MCSDK/MCLib/Any/Src/sto_pll_speed_pos_fdbk.c ****   {
 750:MCSDK_v6.1.0-Full/MotorControl/MCSDK/MCLib/Any/Src/sto_pll_speed_pos_fdbk.c ****     /* Nothing to do */
 751:MCSDK_v6.1.0-Full/MotorControl/MCSDK/MCLib/Any/Src/sto_pll_speed_pos_fdbk.c ****   }
 752:MCSDK_v6.1.0-Full/MotorControl/MCSDK/MCLib/Any/Src/sto_pll_speed_pos_fdbk.c ****   else
 753:MCSDK_v6.1.0-Full/MotorControl/MCSDK/MCLib/Any/Src/sto_pll_speed_pos_fdbk.c ****   {
 754:MCSDK_v6.1.0-Full/MotorControl/MCSDK/MCLib/Any/Src/sto_pll_speed_pos_fdbk.c **** #endif
 755:MCSDK_v6.1.0-Full/MotorControl/MCSDK/MCLib/Any/Src/sto_pll_speed_pos_fdbk.c ****     int16_t hEstimatedSpeedUnit;
 1444              		.loc 1 755 5 view .LVU571
 756:MCSDK_v6.1.0-Full/MotorControl/MCSDK/MCLib/Any/Src/sto_pll_speed_pos_fdbk.c ****     int16_t hUpperThreshold;
 1445              		.loc 1 756 5 view .LVU572
 757:MCSDK_v6.1.0-Full/MotorControl/MCSDK/MCLib/Any/Src/sto_pll_speed_pos_fdbk.c ****     int16_t hLowerThreshold;
ARM GAS  /tmp/ccDchrQO.s 			page 49


 1446              		.loc 1 757 5 view .LVU573
 758:MCSDK_v6.1.0-Full/MotorControl/MCSDK/MCLib/Any/Src/sto_pll_speed_pos_fdbk.c ****     int32_t wAux;
 1447              		.loc 1 758 5 view .LVU574
 759:MCSDK_v6.1.0-Full/MotorControl/MCSDK/MCLib/Any/Src/sto_pll_speed_pos_fdbk.c ****     int32_t wtemp;
 1448              		.loc 1 759 5 view .LVU575
 760:MCSDK_v6.1.0-Full/MotorControl/MCSDK/MCLib/Any/Src/sto_pll_speed_pos_fdbk.c **** 
 761:MCSDK_v6.1.0-Full/MotorControl/MCSDK/MCLib/Any/Src/sto_pll_speed_pos_fdbk.c ****     if (true == pHandle->ForceConvergency2)
 1449              		.loc 1 761 5 view .LVU576
 1450              		.loc 1 761 24 is_stmt 0 view .LVU577
 1451 0002 90F82321 		ldrb	r2, [r0, #291]	@ zero_extendqisi2
 1452              		.loc 1 761 8 view .LVU578
 1453 0006 12B1     		cbz	r2, .L70
 762:MCSDK_v6.1.0-Full/MotorControl/MCSDK/MCLib/Any/Src/sto_pll_speed_pos_fdbk.c ****     {
 763:MCSDK_v6.1.0-Full/MotorControl/MCSDK/MCLib/Any/Src/sto_pll_speed_pos_fdbk.c ****       *phForcedMecSpeedUnit = pHandle->_Super.hAvrMecSpeedUnit;
 1454              		.loc 1 763 7 is_stmt 1 view .LVU579
 1455              		.loc 1 763 46 is_stmt 0 view .LVU580
 1456 0008 B0F90C20 		ldrsh	r2, [r0, #12]
 1457              		.loc 1 763 29 view .LVU581
 1458 000c 0A80     		strh	r2, [r1]	@ movhi
 1459              	.L70:
 764:MCSDK_v6.1.0-Full/MotorControl/MCSDK/MCLib/Any/Src/sto_pll_speed_pos_fdbk.c ****     }
 765:MCSDK_v6.1.0-Full/MotorControl/MCSDK/MCLib/Any/Src/sto_pll_speed_pos_fdbk.c **** 
 766:MCSDK_v6.1.0-Full/MotorControl/MCSDK/MCLib/Any/Src/sto_pll_speed_pos_fdbk.c ****     if (true == pHandle->ForceConvergency)
 1460              		.loc 1 766 5 is_stmt 1 view .LVU582
 1461              		.loc 1 766 24 is_stmt 0 view .LVU583
 1462 000e 93F82201 		ldrb	r0, [r3, #290]	@ zero_extendqisi2
 1463              	.LVL177:
 1464              		.loc 1 766 8 view .LVU584
 1465 0012 28B1     		cbz	r0, .L71
 767:MCSDK_v6.1.0-Full/MotorControl/MCSDK/MCLib/Any/Src/sto_pll_speed_pos_fdbk.c ****     {
 768:MCSDK_v6.1.0-Full/MotorControl/MCSDK/MCLib/Any/Src/sto_pll_speed_pos_fdbk.c ****       bAux = true;
 1466              		.loc 1 768 7 is_stmt 1 view .LVU585
 1467              	.LVL178:
 769:MCSDK_v6.1.0-Full/MotorControl/MCSDK/MCLib/Any/Src/sto_pll_speed_pos_fdbk.c ****       pHandle->IsAlgorithmConverged = true;
 1468              		.loc 1 769 7 view .LVU586
 1469              		.loc 1 769 37 is_stmt 0 view .LVU587
 1470 0014 0122     		movs	r2, #1
 1471 0016 83F8F820 		strb	r2, [r3, #248]
 770:MCSDK_v6.1.0-Full/MotorControl/MCSDK/MCLib/Any/Src/sto_pll_speed_pos_fdbk.c ****       pHandle->_Super.bSpeedErrorNumber = 0U;
 1472              		.loc 1 770 7 is_stmt 1 view .LVU588
 1473              		.loc 1 770 41 is_stmt 0 view .LVU589
 1474 001a 0022     		movs	r2, #0
 1475 001c 1A70     		strb	r2, [r3]
 1476              	.LVL179:
 771:MCSDK_v6.1.0-Full/MotorControl/MCSDK/MCLib/Any/Src/sto_pll_speed_pos_fdbk.c ****     }
 772:MCSDK_v6.1.0-Full/MotorControl/MCSDK/MCLib/Any/Src/sto_pll_speed_pos_fdbk.c ****     else
 773:MCSDK_v6.1.0-Full/MotorControl/MCSDK/MCLib/Any/Src/sto_pll_speed_pos_fdbk.c ****     {
 774:MCSDK_v6.1.0-Full/MotorControl/MCSDK/MCLib/Any/Src/sto_pll_speed_pos_fdbk.c ****       hEstimatedSpeedUnit = pHandle->_Super.hAvrMecSpeedUnit;
 775:MCSDK_v6.1.0-Full/MotorControl/MCSDK/MCLib/Any/Src/sto_pll_speed_pos_fdbk.c **** 
 776:MCSDK_v6.1.0-Full/MotorControl/MCSDK/MCLib/Any/Src/sto_pll_speed_pos_fdbk.c ****       wtemp = ((int32_t)hEstimatedSpeedUnit) * ((int32_t)*phForcedMecSpeedUnit);
 777:MCSDK_v6.1.0-Full/MotorControl/MCSDK/MCLib/Any/Src/sto_pll_speed_pos_fdbk.c **** 
 778:MCSDK_v6.1.0-Full/MotorControl/MCSDK/MCLib/Any/Src/sto_pll_speed_pos_fdbk.c ****       if (wtemp > 0)
 779:MCSDK_v6.1.0-Full/MotorControl/MCSDK/MCLib/Any/Src/sto_pll_speed_pos_fdbk.c ****       {
 780:MCSDK_v6.1.0-Full/MotorControl/MCSDK/MCLib/Any/Src/sto_pll_speed_pos_fdbk.c ****         if (hEstimatedSpeedUnit < 0)
 781:MCSDK_v6.1.0-Full/MotorControl/MCSDK/MCLib/Any/Src/sto_pll_speed_pos_fdbk.c ****         {
 782:MCSDK_v6.1.0-Full/MotorControl/MCSDK/MCLib/Any/Src/sto_pll_speed_pos_fdbk.c ****           hEstimatedSpeedUnit = -hEstimatedSpeedUnit;
 783:MCSDK_v6.1.0-Full/MotorControl/MCSDK/MCLib/Any/Src/sto_pll_speed_pos_fdbk.c ****         }
ARM GAS  /tmp/ccDchrQO.s 			page 50


 784:MCSDK_v6.1.0-Full/MotorControl/MCSDK/MCLib/Any/Src/sto_pll_speed_pos_fdbk.c **** 
 785:MCSDK_v6.1.0-Full/MotorControl/MCSDK/MCLib/Any/Src/sto_pll_speed_pos_fdbk.c ****         if (*phForcedMecSpeedUnit < 0)
 786:MCSDK_v6.1.0-Full/MotorControl/MCSDK/MCLib/Any/Src/sto_pll_speed_pos_fdbk.c ****         {
 787:MCSDK_v6.1.0-Full/MotorControl/MCSDK/MCLib/Any/Src/sto_pll_speed_pos_fdbk.c ****           *phForcedMecSpeedUnit = -*phForcedMecSpeedUnit;
 788:MCSDK_v6.1.0-Full/MotorControl/MCSDK/MCLib/Any/Src/sto_pll_speed_pos_fdbk.c ****         }
 789:MCSDK_v6.1.0-Full/MotorControl/MCSDK/MCLib/Any/Src/sto_pll_speed_pos_fdbk.c ****         wAux = ((int32_t)*phForcedMecSpeedUnit) * ((int16_t)pHandle->SpeedValidationBand_H);
 790:MCSDK_v6.1.0-Full/MotorControl/MCSDK/MCLib/Any/Src/sto_pll_speed_pos_fdbk.c ****         hUpperThreshold = (int16_t)(wAux / ((int32_t)16));
 791:MCSDK_v6.1.0-Full/MotorControl/MCSDK/MCLib/Any/Src/sto_pll_speed_pos_fdbk.c **** 
 792:MCSDK_v6.1.0-Full/MotorControl/MCSDK/MCLib/Any/Src/sto_pll_speed_pos_fdbk.c ****         wAux = ((int32_t)*phForcedMecSpeedUnit) * ((int16_t)pHandle->SpeedValidationBand_L);
 793:MCSDK_v6.1.0-Full/MotorControl/MCSDK/MCLib/Any/Src/sto_pll_speed_pos_fdbk.c ****         hLowerThreshold = (int16_t)(wAux / ((int32_t)16));
 794:MCSDK_v6.1.0-Full/MotorControl/MCSDK/MCLib/Any/Src/sto_pll_speed_pos_fdbk.c **** 
 795:MCSDK_v6.1.0-Full/MotorControl/MCSDK/MCLib/Any/Src/sto_pll_speed_pos_fdbk.c ****         /* If the variance of the estimated speed is low enough...*/
 796:MCSDK_v6.1.0-Full/MotorControl/MCSDK/MCLib/Any/Src/sto_pll_speed_pos_fdbk.c ****         if (true == pHandle->IsSpeedReliable)
 797:MCSDK_v6.1.0-Full/MotorControl/MCSDK/MCLib/Any/Src/sto_pll_speed_pos_fdbk.c ****         {
 798:MCSDK_v6.1.0-Full/MotorControl/MCSDK/MCLib/Any/Src/sto_pll_speed_pos_fdbk.c ****           if ((uint16_t)hEstimatedSpeedUnit > pHandle->MinStartUpValidSpeed)
 799:MCSDK_v6.1.0-Full/MotorControl/MCSDK/MCLib/Any/Src/sto_pll_speed_pos_fdbk.c ****           {
 800:MCSDK_v6.1.0-Full/MotorControl/MCSDK/MCLib/Any/Src/sto_pll_speed_pos_fdbk.c ****             /*...and the estimated value is quite close to the expected value... */
 801:MCSDK_v6.1.0-Full/MotorControl/MCSDK/MCLib/Any/Src/sto_pll_speed_pos_fdbk.c ****             if (hEstimatedSpeedUnit >= hLowerThreshold)
 802:MCSDK_v6.1.0-Full/MotorControl/MCSDK/MCLib/Any/Src/sto_pll_speed_pos_fdbk.c ****             {
 803:MCSDK_v6.1.0-Full/MotorControl/MCSDK/MCLib/Any/Src/sto_pll_speed_pos_fdbk.c ****               if (hEstimatedSpeedUnit <= hUpperThreshold)
 804:MCSDK_v6.1.0-Full/MotorControl/MCSDK/MCLib/Any/Src/sto_pll_speed_pos_fdbk.c ****               {
 805:MCSDK_v6.1.0-Full/MotorControl/MCSDK/MCLib/Any/Src/sto_pll_speed_pos_fdbk.c ****                 pHandle->ConsistencyCounter++;
 806:MCSDK_v6.1.0-Full/MotorControl/MCSDK/MCLib/Any/Src/sto_pll_speed_pos_fdbk.c **** 
 807:MCSDK_v6.1.0-Full/MotorControl/MCSDK/MCLib/Any/Src/sto_pll_speed_pos_fdbk.c ****                 /*... for hConsistencyThreshold consecutive times... */
 808:MCSDK_v6.1.0-Full/MotorControl/MCSDK/MCLib/Any/Src/sto_pll_speed_pos_fdbk.c ****                 if (pHandle->ConsistencyCounter >= pHandle->StartUpConsistThreshold)
 809:MCSDK_v6.1.0-Full/MotorControl/MCSDK/MCLib/Any/Src/sto_pll_speed_pos_fdbk.c ****                 {
 810:MCSDK_v6.1.0-Full/MotorControl/MCSDK/MCLib/Any/Src/sto_pll_speed_pos_fdbk.c **** 
 811:MCSDK_v6.1.0-Full/MotorControl/MCSDK/MCLib/Any/Src/sto_pll_speed_pos_fdbk.c ****                   /* the algorithm converged.*/
 812:MCSDK_v6.1.0-Full/MotorControl/MCSDK/MCLib/Any/Src/sto_pll_speed_pos_fdbk.c ****                   bAux = true;
 813:MCSDK_v6.1.0-Full/MotorControl/MCSDK/MCLib/Any/Src/sto_pll_speed_pos_fdbk.c ****                   pHandle->IsAlgorithmConverged = true;
 814:MCSDK_v6.1.0-Full/MotorControl/MCSDK/MCLib/Any/Src/sto_pll_speed_pos_fdbk.c ****                   pHandle->_Super.bSpeedErrorNumber = 0U;
 815:MCSDK_v6.1.0-Full/MotorControl/MCSDK/MCLib/Any/Src/sto_pll_speed_pos_fdbk.c ****                 }
 816:MCSDK_v6.1.0-Full/MotorControl/MCSDK/MCLib/Any/Src/sto_pll_speed_pos_fdbk.c ****               }
 817:MCSDK_v6.1.0-Full/MotorControl/MCSDK/MCLib/Any/Src/sto_pll_speed_pos_fdbk.c ****               else
 818:MCSDK_v6.1.0-Full/MotorControl/MCSDK/MCLib/Any/Src/sto_pll_speed_pos_fdbk.c ****               {
 819:MCSDK_v6.1.0-Full/MotorControl/MCSDK/MCLib/Any/Src/sto_pll_speed_pos_fdbk.c ****                 pHandle->ConsistencyCounter = 0U;
 820:MCSDK_v6.1.0-Full/MotorControl/MCSDK/MCLib/Any/Src/sto_pll_speed_pos_fdbk.c ****               }
 821:MCSDK_v6.1.0-Full/MotorControl/MCSDK/MCLib/Any/Src/sto_pll_speed_pos_fdbk.c ****             }
 822:MCSDK_v6.1.0-Full/MotorControl/MCSDK/MCLib/Any/Src/sto_pll_speed_pos_fdbk.c ****             else
 823:MCSDK_v6.1.0-Full/MotorControl/MCSDK/MCLib/Any/Src/sto_pll_speed_pos_fdbk.c ****             {
 824:MCSDK_v6.1.0-Full/MotorControl/MCSDK/MCLib/Any/Src/sto_pll_speed_pos_fdbk.c ****               pHandle->ConsistencyCounter = 0U;
 825:MCSDK_v6.1.0-Full/MotorControl/MCSDK/MCLib/Any/Src/sto_pll_speed_pos_fdbk.c ****             }
 826:MCSDK_v6.1.0-Full/MotorControl/MCSDK/MCLib/Any/Src/sto_pll_speed_pos_fdbk.c ****           }
 827:MCSDK_v6.1.0-Full/MotorControl/MCSDK/MCLib/Any/Src/sto_pll_speed_pos_fdbk.c ****           else
 828:MCSDK_v6.1.0-Full/MotorControl/MCSDK/MCLib/Any/Src/sto_pll_speed_pos_fdbk.c ****           {
 829:MCSDK_v6.1.0-Full/MotorControl/MCSDK/MCLib/Any/Src/sto_pll_speed_pos_fdbk.c ****             pHandle->ConsistencyCounter = 0U;
 830:MCSDK_v6.1.0-Full/MotorControl/MCSDK/MCLib/Any/Src/sto_pll_speed_pos_fdbk.c ****           }
 831:MCSDK_v6.1.0-Full/MotorControl/MCSDK/MCLib/Any/Src/sto_pll_speed_pos_fdbk.c ****         }
 832:MCSDK_v6.1.0-Full/MotorControl/MCSDK/MCLib/Any/Src/sto_pll_speed_pos_fdbk.c ****         else
 833:MCSDK_v6.1.0-Full/MotorControl/MCSDK/MCLib/Any/Src/sto_pll_speed_pos_fdbk.c ****         {
 834:MCSDK_v6.1.0-Full/MotorControl/MCSDK/MCLib/Any/Src/sto_pll_speed_pos_fdbk.c ****           pHandle->ConsistencyCounter = 0U;
 835:MCSDK_v6.1.0-Full/MotorControl/MCSDK/MCLib/Any/Src/sto_pll_speed_pos_fdbk.c ****         }
 836:MCSDK_v6.1.0-Full/MotorControl/MCSDK/MCLib/Any/Src/sto_pll_speed_pos_fdbk.c ****       }
 837:MCSDK_v6.1.0-Full/MotorControl/MCSDK/MCLib/Any/Src/sto_pll_speed_pos_fdbk.c ****     }
 838:MCSDK_v6.1.0-Full/MotorControl/MCSDK/MCLib/Any/Src/sto_pll_speed_pos_fdbk.c **** #ifdef NULL_PTR_STO_PLL_SPD_POS_FDB
 839:MCSDK_v6.1.0-Full/MotorControl/MCSDK/MCLib/Any/Src/sto_pll_speed_pos_fdbk.c ****   }
 840:MCSDK_v6.1.0-Full/MotorControl/MCSDK/MCLib/Any/Src/sto_pll_speed_pos_fdbk.c **** #endif
ARM GAS  /tmp/ccDchrQO.s 			page 51


 841:MCSDK_v6.1.0-Full/MotorControl/MCSDK/MCLib/Any/Src/sto_pll_speed_pos_fdbk.c ****   return (bAux);
 1477              		.loc 1 841 3 is_stmt 1 view .LVU590
 842:MCSDK_v6.1.0-Full/MotorControl/MCSDK/MCLib/Any/Src/sto_pll_speed_pos_fdbk.c **** }
 1478              		.loc 1 842 1 is_stmt 0 view .LVU591
 1479 001e 7047     		bx	lr
 1480              	.LVL180:
 1481              	.L71:
 745:MCSDK_v6.1.0-Full/MotorControl/MCSDK/MCLib/Any/Src/sto_pll_speed_pos_fdbk.c ****   bool bAux = false;
 1482              		.loc 1 745 1 view .LVU592
 1483 0020 F0B4     		push	{r4, r5, r6, r7}
 1484              		.cfi_def_cfa_offset 16
 1485              		.cfi_offset 4, -16
 1486              		.cfi_offset 5, -12
 1487              		.cfi_offset 6, -8
 1488              		.cfi_offset 7, -4
 774:MCSDK_v6.1.0-Full/MotorControl/MCSDK/MCLib/Any/Src/sto_pll_speed_pos_fdbk.c **** 
 1489              		.loc 1 774 7 is_stmt 1 view .LVU593
 774:MCSDK_v6.1.0-Full/MotorControl/MCSDK/MCLib/Any/Src/sto_pll_speed_pos_fdbk.c **** 
 1490              		.loc 1 774 27 is_stmt 0 view .LVU594
 1491 0022 B3F90C40 		ldrsh	r4, [r3, #12]
 1492              	.LVL181:
 776:MCSDK_v6.1.0-Full/MotorControl/MCSDK/MCLib/Any/Src/sto_pll_speed_pos_fdbk.c **** 
 1493              		.loc 1 776 7 is_stmt 1 view .LVU595
 776:MCSDK_v6.1.0-Full/MotorControl/MCSDK/MCLib/Any/Src/sto_pll_speed_pos_fdbk.c **** 
 1494              		.loc 1 776 58 is_stmt 0 view .LVU596
 1495 0026 B1F90020 		ldrsh	r2, [r1]
 776:MCSDK_v6.1.0-Full/MotorControl/MCSDK/MCLib/Any/Src/sto_pll_speed_pos_fdbk.c **** 
 1496              		.loc 1 776 13 view .LVU597
 1497 002a 02FB04F5 		mul	r5, r2, r4
 1498              	.LVL182:
 778:MCSDK_v6.1.0-Full/MotorControl/MCSDK/MCLib/Any/Src/sto_pll_speed_pos_fdbk.c ****       {
 1499              		.loc 1 778 7 is_stmt 1 view .LVU598
 778:MCSDK_v6.1.0-Full/MotorControl/MCSDK/MCLib/Any/Src/sto_pll_speed_pos_fdbk.c ****       {
 1500              		.loc 1 778 10 is_stmt 0 view .LVU599
 1501 002e 002D     		cmp	r5, #0
 1502 0030 4DDD     		ble	.L72
 780:MCSDK_v6.1.0-Full/MotorControl/MCSDK/MCLib/Any/Src/sto_pll_speed_pos_fdbk.c ****         {
 1503              		.loc 1 780 9 is_stmt 1 view .LVU600
 780:MCSDK_v6.1.0-Full/MotorControl/MCSDK/MCLib/Any/Src/sto_pll_speed_pos_fdbk.c ****         {
 1504              		.loc 1 780 12 is_stmt 0 view .LVU601
 1505 0032 002C     		cmp	r4, #0
 1506 0034 30DB     		blt	.L84
 1507              	.L73:
 785:MCSDK_v6.1.0-Full/MotorControl/MCSDK/MCLib/Any/Src/sto_pll_speed_pos_fdbk.c ****         {
 1508              		.loc 1 785 9 is_stmt 1 view .LVU602
 785:MCSDK_v6.1.0-Full/MotorControl/MCSDK/MCLib/Any/Src/sto_pll_speed_pos_fdbk.c ****         {
 1509              		.loc 1 785 12 is_stmt 0 view .LVU603
 1510 0036 002A     		cmp	r2, #0
 1511 0038 31DB     		blt	.L85
 1512              	.L74:
 789:MCSDK_v6.1.0-Full/MotorControl/MCSDK/MCLib/Any/Src/sto_pll_speed_pos_fdbk.c ****         hUpperThreshold = (int16_t)(wAux / ((int32_t)16));
 1513              		.loc 1 789 9 is_stmt 1 view .LVU604
 789:MCSDK_v6.1.0-Full/MotorControl/MCSDK/MCLib/Any/Src/sto_pll_speed_pos_fdbk.c ****         hUpperThreshold = (int16_t)(wAux / ((int32_t)16));
 1514              		.loc 1 789 26 is_stmt 0 view .LVU605
 1515 003a B1F90050 		ldrsh	r5, [r1]
 1516              	.LVL183:
 789:MCSDK_v6.1.0-Full/MotorControl/MCSDK/MCLib/Any/Src/sto_pll_speed_pos_fdbk.c ****         hUpperThreshold = (int16_t)(wAux / ((int32_t)16));
ARM GAS  /tmp/ccDchrQO.s 			page 52


 1517              		.loc 1 789 68 view .LVU606
 1518 003e 93F81211 		ldrb	r1, [r3, #274]	@ zero_extendqisi2
 1519              	.LVL184:
 789:MCSDK_v6.1.0-Full/MotorControl/MCSDK/MCLib/Any/Src/sto_pll_speed_pos_fdbk.c ****         hUpperThreshold = (int16_t)(wAux / ((int32_t)16));
 1520              		.loc 1 789 14 view .LVU607
 1521 0042 01FB05F1 		mul	r1, r1, r5
 790:MCSDK_v6.1.0-Full/MotorControl/MCSDK/MCLib/Any/Src/sto_pll_speed_pos_fdbk.c **** 
 1522              		.loc 1 790 9 is_stmt 1 view .LVU608
 790:MCSDK_v6.1.0-Full/MotorControl/MCSDK/MCLib/Any/Src/sto_pll_speed_pos_fdbk.c **** 
 1523              		.loc 1 790 42 is_stmt 0 view .LVU609
 1524 0046 0029     		cmp	r1, #0
 1525 0048 2DDB     		blt	.L86
 1526              	.L75:
 790:MCSDK_v6.1.0-Full/MotorControl/MCSDK/MCLib/Any/Src/sto_pll_speed_pos_fdbk.c **** 
 1527              		.loc 1 790 25 view .LVU610
 1528 004a 41F30F11 		sbfx	r1, r1, #4, #16
 1529              	.LVL185:
 792:MCSDK_v6.1.0-Full/MotorControl/MCSDK/MCLib/Any/Src/sto_pll_speed_pos_fdbk.c ****         hLowerThreshold = (int16_t)(wAux / ((int32_t)16));
 1530              		.loc 1 792 9 is_stmt 1 view .LVU611
 792:MCSDK_v6.1.0-Full/MotorControl/MCSDK/MCLib/Any/Src/sto_pll_speed_pos_fdbk.c ****         hLowerThreshold = (int16_t)(wAux / ((int32_t)16));
 1531              		.loc 1 792 68 is_stmt 0 view .LVU612
 1532 004e 93F81321 		ldrb	r2, [r3, #275]	@ zero_extendqisi2
 792:MCSDK_v6.1.0-Full/MotorControl/MCSDK/MCLib/Any/Src/sto_pll_speed_pos_fdbk.c ****         hLowerThreshold = (int16_t)(wAux / ((int32_t)16));
 1533              		.loc 1 792 14 view .LVU613
 1534 0052 02FB05F2 		mul	r2, r2, r5
 793:MCSDK_v6.1.0-Full/MotorControl/MCSDK/MCLib/Any/Src/sto_pll_speed_pos_fdbk.c **** 
 1535              		.loc 1 793 9 is_stmt 1 view .LVU614
 793:MCSDK_v6.1.0-Full/MotorControl/MCSDK/MCLib/Any/Src/sto_pll_speed_pos_fdbk.c **** 
 1536              		.loc 1 793 42 is_stmt 0 view .LVU615
 1537 0056 002A     		cmp	r2, #0
 1538 0058 27DB     		blt	.L87
 1539              	.L76:
 793:MCSDK_v6.1.0-Full/MotorControl/MCSDK/MCLib/Any/Src/sto_pll_speed_pos_fdbk.c **** 
 1540              		.loc 1 793 25 view .LVU616
 1541 005a 42F30F12 		sbfx	r2, r2, #4, #16
 1542              	.LVL186:
 796:MCSDK_v6.1.0-Full/MotorControl/MCSDK/MCLib/Any/Src/sto_pll_speed_pos_fdbk.c ****         {
 1543              		.loc 1 796 9 is_stmt 1 view .LVU617
 796:MCSDK_v6.1.0-Full/MotorControl/MCSDK/MCLib/Any/Src/sto_pll_speed_pos_fdbk.c ****         {
 1544              		.loc 1 796 28 is_stmt 0 view .LVU618
 1545 005e 93F8F550 		ldrb	r5, [r3, #245]	@ zero_extendqisi2
 796:MCSDK_v6.1.0-Full/MotorControl/MCSDK/MCLib/Any/Src/sto_pll_speed_pos_fdbk.c ****         {
 1546              		.loc 1 796 12 view .LVU619
 1547 0062 85B3     		cbz	r5, .L77
 798:MCSDK_v6.1.0-Full/MotorControl/MCSDK/MCLib/Any/Src/sto_pll_speed_pos_fdbk.c ****           {
 1548              		.loc 1 798 11 is_stmt 1 view .LVU620
 798:MCSDK_v6.1.0-Full/MotorControl/MCSDK/MCLib/Any/Src/sto_pll_speed_pos_fdbk.c ****           {
 1549              		.loc 1 798 54 is_stmt 0 view .LVU621
 1550 0064 B3F81471 		ldrh	r7, [r3, #276]
 798:MCSDK_v6.1.0-Full/MotorControl/MCSDK/MCLib/Any/Src/sto_pll_speed_pos_fdbk.c ****           {
 1551              		.loc 1 798 45 view .LVU622
 1552 0068 A6B2     		uxth	r6, r4
 798:MCSDK_v6.1.0-Full/MotorControl/MCSDK/MCLib/Any/Src/sto_pll_speed_pos_fdbk.c ****           {
 1553              		.loc 1 798 14 view .LVU623
 1554 006a B742     		cmp	r7, r6
 1555 006c 27D2     		bcs	.L78
 801:MCSDK_v6.1.0-Full/MotorControl/MCSDK/MCLib/Any/Src/sto_pll_speed_pos_fdbk.c ****             {
ARM GAS  /tmp/ccDchrQO.s 			page 53


 1556              		.loc 1 801 13 is_stmt 1 view .LVU624
 801:MCSDK_v6.1.0-Full/MotorControl/MCSDK/MCLib/Any/Src/sto_pll_speed_pos_fdbk.c ****             {
 1557              		.loc 1 801 16 is_stmt 0 view .LVU625
 1558 006e 9442     		cmp	r4, r2
 1559 0070 21DB     		blt	.L79
 803:MCSDK_v6.1.0-Full/MotorControl/MCSDK/MCLib/Any/Src/sto_pll_speed_pos_fdbk.c ****               {
 1560              		.loc 1 803 15 is_stmt 1 view .LVU626
 803:MCSDK_v6.1.0-Full/MotorControl/MCSDK/MCLib/Any/Src/sto_pll_speed_pos_fdbk.c ****               {
 1561              		.loc 1 803 18 is_stmt 0 view .LVU627
 1562 0072 8C42     		cmp	r4, r1
 1563 0074 1BDC     		bgt	.L80
 805:MCSDK_v6.1.0-Full/MotorControl/MCSDK/MCLib/Any/Src/sto_pll_speed_pos_fdbk.c **** 
 1564              		.loc 1 805 17 is_stmt 1 view .LVU628
 805:MCSDK_v6.1.0-Full/MotorControl/MCSDK/MCLib/Any/Src/sto_pll_speed_pos_fdbk.c **** 
 1565              		.loc 1 805 24 is_stmt 0 view .LVU629
 1566 0076 93F8F620 		ldrb	r2, [r3, #246]	@ zero_extendqisi2
 1567              	.LVL187:
 805:MCSDK_v6.1.0-Full/MotorControl/MCSDK/MCLib/Any/Src/sto_pll_speed_pos_fdbk.c **** 
 1568              		.loc 1 805 44 view .LVU630
 1569 007a 0132     		adds	r2, r2, #1
 1570 007c D2B2     		uxtb	r2, r2
 1571 007e 83F8F620 		strb	r2, [r3, #246]
 808:MCSDK_v6.1.0-Full/MotorControl/MCSDK/MCLib/Any/Src/sto_pll_speed_pos_fdbk.c ****                 {
 1572              		.loc 1 808 17 is_stmt 1 view .LVU631
 808:MCSDK_v6.1.0-Full/MotorControl/MCSDK/MCLib/Any/Src/sto_pll_speed_pos_fdbk.c ****                 {
 1573              		.loc 1 808 59 is_stmt 0 view .LVU632
 1574 0082 93F81611 		ldrb	r1, [r3, #278]	@ zero_extendqisi2
 1575              	.LVL188:
 808:MCSDK_v6.1.0-Full/MotorControl/MCSDK/MCLib/Any/Src/sto_pll_speed_pos_fdbk.c ****                 {
 1576              		.loc 1 808 20 view .LVU633
 1577 0086 8A42     		cmp	r2, r1
 1578 0088 21D3     		bcc	.L72
 812:MCSDK_v6.1.0-Full/MotorControl/MCSDK/MCLib/Any/Src/sto_pll_speed_pos_fdbk.c ****                   pHandle->IsAlgorithmConverged = true;
 1579              		.loc 1 812 19 is_stmt 1 view .LVU634
 1580              	.LVL189:
 813:MCSDK_v6.1.0-Full/MotorControl/MCSDK/MCLib/Any/Src/sto_pll_speed_pos_fdbk.c ****                   pHandle->_Super.bSpeedErrorNumber = 0U;
 1581              		.loc 1 813 19 view .LVU635
 813:MCSDK_v6.1.0-Full/MotorControl/MCSDK/MCLib/Any/Src/sto_pll_speed_pos_fdbk.c ****                   pHandle->_Super.bSpeedErrorNumber = 0U;
 1582              		.loc 1 813 49 is_stmt 0 view .LVU636
 1583 008a 0122     		movs	r2, #1
 1584 008c 83F8F820 		strb	r2, [r3, #248]
 814:MCSDK_v6.1.0-Full/MotorControl/MCSDK/MCLib/Any/Src/sto_pll_speed_pos_fdbk.c ****                 }
 1585              		.loc 1 814 19 is_stmt 1 view .LVU637
 814:MCSDK_v6.1.0-Full/MotorControl/MCSDK/MCLib/Any/Src/sto_pll_speed_pos_fdbk.c ****                 }
 1586              		.loc 1 814 53 is_stmt 0 view .LVU638
 1587 0090 0022     		movs	r2, #0
 1588 0092 1A70     		strb	r2, [r3]
 812:MCSDK_v6.1.0-Full/MotorControl/MCSDK/MCLib/Any/Src/sto_pll_speed_pos_fdbk.c ****                   pHandle->IsAlgorithmConverged = true;
 1589              		.loc 1 812 24 view .LVU639
 1590 0094 2846     		mov	r0, r5
 1591 0096 1AE0     		b	.L72
 1592              	.LVL190:
 1593              	.L84:
 782:MCSDK_v6.1.0-Full/MotorControl/MCSDK/MCLib/Any/Src/sto_pll_speed_pos_fdbk.c ****         }
 1594              		.loc 1 782 11 is_stmt 1 view .LVU640
 782:MCSDK_v6.1.0-Full/MotorControl/MCSDK/MCLib/Any/Src/sto_pll_speed_pos_fdbk.c ****         }
 1595              		.loc 1 782 31 is_stmt 0 view .LVU641
ARM GAS  /tmp/ccDchrQO.s 			page 54


 1596 0098 6442     		rsbs	r4, r4, #0
 1597              	.LVL191:
 782:MCSDK_v6.1.0-Full/MotorControl/MCSDK/MCLib/Any/Src/sto_pll_speed_pos_fdbk.c ****         }
 1598              		.loc 1 782 31 view .LVU642
 1599 009a 24B2     		sxth	r4, r4
 1600              	.LVL192:
 782:MCSDK_v6.1.0-Full/MotorControl/MCSDK/MCLib/Any/Src/sto_pll_speed_pos_fdbk.c ****         }
 1601              		.loc 1 782 31 view .LVU643
 1602 009c CBE7     		b	.L73
 1603              	.L85:
 787:MCSDK_v6.1.0-Full/MotorControl/MCSDK/MCLib/Any/Src/sto_pll_speed_pos_fdbk.c ****         }
 1604              		.loc 1 787 11 is_stmt 1 view .LVU644
 787:MCSDK_v6.1.0-Full/MotorControl/MCSDK/MCLib/Any/Src/sto_pll_speed_pos_fdbk.c ****         }
 1605              		.loc 1 787 36 is_stmt 0 view .LVU645
 1606 009e 92B2     		uxth	r2, r2
 787:MCSDK_v6.1.0-Full/MotorControl/MCSDK/MCLib/Any/Src/sto_pll_speed_pos_fdbk.c ****         }
 1607              		.loc 1 787 33 view .LVU646
 1608 00a0 5242     		rsbs	r2, r2, #0
 1609 00a2 0A80     		strh	r2, [r1]	@ movhi
 1610 00a4 C9E7     		b	.L74
 1611              	.LVL193:
 1612              	.L86:
 790:MCSDK_v6.1.0-Full/MotorControl/MCSDK/MCLib/Any/Src/sto_pll_speed_pos_fdbk.c **** 
 1613              		.loc 1 790 42 view .LVU647
 1614 00a6 0F31     		adds	r1, r1, #15
 1615 00a8 CFE7     		b	.L75
 1616              	.LVL194:
 1617              	.L87:
 793:MCSDK_v6.1.0-Full/MotorControl/MCSDK/MCLib/Any/Src/sto_pll_speed_pos_fdbk.c **** 
 1618              		.loc 1 793 42 view .LVU648
 1619 00aa 0F32     		adds	r2, r2, #15
 1620 00ac D5E7     		b	.L76
 1621              	.LVL195:
 1622              	.L80:
 819:MCSDK_v6.1.0-Full/MotorControl/MCSDK/MCLib/Any/Src/sto_pll_speed_pos_fdbk.c ****               }
 1623              		.loc 1 819 17 is_stmt 1 view .LVU649
 819:MCSDK_v6.1.0-Full/MotorControl/MCSDK/MCLib/Any/Src/sto_pll_speed_pos_fdbk.c ****               }
 1624              		.loc 1 819 45 is_stmt 0 view .LVU650
 1625 00ae 0022     		movs	r2, #0
 1626              	.LVL196:
 819:MCSDK_v6.1.0-Full/MotorControl/MCSDK/MCLib/Any/Src/sto_pll_speed_pos_fdbk.c ****               }
 1627              		.loc 1 819 45 view .LVU651
 1628 00b0 83F8F620 		strb	r2, [r3, #246]
 1629 00b4 0BE0     		b	.L72
 1630              	.LVL197:
 1631              	.L79:
 824:MCSDK_v6.1.0-Full/MotorControl/MCSDK/MCLib/Any/Src/sto_pll_speed_pos_fdbk.c ****             }
 1632              		.loc 1 824 15 is_stmt 1 view .LVU652
 824:MCSDK_v6.1.0-Full/MotorControl/MCSDK/MCLib/Any/Src/sto_pll_speed_pos_fdbk.c ****             }
 1633              		.loc 1 824 43 is_stmt 0 view .LVU653
 1634 00b6 0022     		movs	r2, #0
 1635              	.LVL198:
 824:MCSDK_v6.1.0-Full/MotorControl/MCSDK/MCLib/Any/Src/sto_pll_speed_pos_fdbk.c ****             }
 1636              		.loc 1 824 43 view .LVU654
 1637 00b8 83F8F620 		strb	r2, [r3, #246]
 1638 00bc 07E0     		b	.L72
 1639              	.LVL199:
ARM GAS  /tmp/ccDchrQO.s 			page 55


 1640              	.L78:
 829:MCSDK_v6.1.0-Full/MotorControl/MCSDK/MCLib/Any/Src/sto_pll_speed_pos_fdbk.c ****           }
 1641              		.loc 1 829 13 is_stmt 1 view .LVU655
 829:MCSDK_v6.1.0-Full/MotorControl/MCSDK/MCLib/Any/Src/sto_pll_speed_pos_fdbk.c ****           }
 1642              		.loc 1 829 41 is_stmt 0 view .LVU656
 1643 00be 0022     		movs	r2, #0
 1644              	.LVL200:
 829:MCSDK_v6.1.0-Full/MotorControl/MCSDK/MCLib/Any/Src/sto_pll_speed_pos_fdbk.c ****           }
 1645              		.loc 1 829 41 view .LVU657
 1646 00c0 83F8F620 		strb	r2, [r3, #246]
 1647 00c4 03E0     		b	.L72
 1648              	.LVL201:
 1649              	.L77:
 834:MCSDK_v6.1.0-Full/MotorControl/MCSDK/MCLib/Any/Src/sto_pll_speed_pos_fdbk.c ****         }
 1650              		.loc 1 834 11 is_stmt 1 view .LVU658
 834:MCSDK_v6.1.0-Full/MotorControl/MCSDK/MCLib/Any/Src/sto_pll_speed_pos_fdbk.c ****         }
 1651              		.loc 1 834 39 is_stmt 0 view .LVU659
 1652 00c6 0022     		movs	r2, #0
 1653              	.LVL202:
 834:MCSDK_v6.1.0-Full/MotorControl/MCSDK/MCLib/Any/Src/sto_pll_speed_pos_fdbk.c ****         }
 1654              		.loc 1 834 39 view .LVU660
 1655 00c8 83F8F620 		strb	r2, [r3, #246]
 746:MCSDK_v6.1.0-Full/MotorControl/MCSDK/MCLib/Any/Src/sto_pll_speed_pos_fdbk.c **** #ifdef NULL_PTR_STO_PLL_SPD_POS_FDB
 1656              		.loc 1 746 8 view .LVU661
 1657 00cc 2846     		mov	r0, r5
 1658              	.LVL203:
 1659              	.L72:
 841:MCSDK_v6.1.0-Full/MotorControl/MCSDK/MCLib/Any/Src/sto_pll_speed_pos_fdbk.c **** }
 1660              		.loc 1 841 3 is_stmt 1 view .LVU662
 1661              		.loc 1 842 1 is_stmt 0 view .LVU663
 1662 00ce F0BC     		pop	{r4, r5, r6, r7}
 1663              		.cfi_restore 7
 1664              		.cfi_restore 6
 1665              		.cfi_restore 5
 1666              		.cfi_restore 4
 1667              		.cfi_def_cfa_offset 0
 1668              	.LVL204:
 1669              		.loc 1 842 1 view .LVU664
 1670 00d0 7047     		bx	lr
 1671              		.cfi_endproc
 1672              	.LFE1446:
 1674              		.section	.text.STO_PLL_GetEstimatedBemf,"ax",%progbits
 1675              		.align	1
 1676              		.weak	STO_PLL_GetEstimatedBemf
 1677              		.syntax unified
 1678              		.thumb
 1679              		.thumb_func
 1680              		.fpu fpv4-sp-d16
 1682              	STO_PLL_GetEstimatedBemf:
 1683              	.LVL205:
 1684              	.LFB1447:
 843:MCSDK_v6.1.0-Full/MotorControl/MCSDK/MCLib/Any/Src/sto_pll_speed_pos_fdbk.c **** 
 844:MCSDK_v6.1.0-Full/MotorControl/MCSDK/MCLib/Any/Src/sto_pll_speed_pos_fdbk.c **** /**
 845:MCSDK_v6.1.0-Full/MotorControl/MCSDK/MCLib/Any/Src/sto_pll_speed_pos_fdbk.c ****   * @brief  Exports estimated Bemf alpha-beta from @p pHandle.
 846:MCSDK_v6.1.0-Full/MotorControl/MCSDK/MCLib/Any/Src/sto_pll_speed_pos_fdbk.c ****   * 
 847:MCSDK_v6.1.0-Full/MotorControl/MCSDK/MCLib/Any/Src/sto_pll_speed_pos_fdbk.c ****   * @retval alphabeta_t Bemf alpha-beta.
 848:MCSDK_v6.1.0-Full/MotorControl/MCSDK/MCLib/Any/Src/sto_pll_speed_pos_fdbk.c ****   */
ARM GAS  /tmp/ccDchrQO.s 			page 56


 849:MCSDK_v6.1.0-Full/MotorControl/MCSDK/MCLib/Any/Src/sto_pll_speed_pos_fdbk.c **** __weak alphabeta_t STO_PLL_GetEstimatedBemf(STO_PLL_Handle_t *pHandle)
 850:MCSDK_v6.1.0-Full/MotorControl/MCSDK/MCLib/Any/Src/sto_pll_speed_pos_fdbk.c **** {
 1685              		.loc 1 850 1 is_stmt 1 view -0
 1686              		.cfi_startproc
 1687              		@ args = 0, pretend = 0, frame = 8
 1688              		@ frame_needed = 0, uses_anonymous_args = 0
 1689              		@ link register save eliminated.
 1690              		.loc 1 850 1 is_stmt 0 view .LVU666
 1691 0000 82B0     		sub	sp, sp, #8
 1692              		.cfi_def_cfa_offset 8
 851:MCSDK_v6.1.0-Full/MotorControl/MCSDK/MCLib/Any/Src/sto_pll_speed_pos_fdbk.c ****   alphabeta_t vaux;
 1693              		.loc 1 851 3 is_stmt 1 view .LVU667
 852:MCSDK_v6.1.0-Full/MotorControl/MCSDK/MCLib/Any/Src/sto_pll_speed_pos_fdbk.c **** #ifdef NULL_PTR_STO_PLL_SPD_POS_FDB
 853:MCSDK_v6.1.0-Full/MotorControl/MCSDK/MCLib/Any/Src/sto_pll_speed_pos_fdbk.c ****   if (MC_NULL == pHandle)
 854:MCSDK_v6.1.0-Full/MotorControl/MCSDK/MCLib/Any/Src/sto_pll_speed_pos_fdbk.c ****   {
 855:MCSDK_v6.1.0-Full/MotorControl/MCSDK/MCLib/Any/Src/sto_pll_speed_pos_fdbk.c ****     vaux.alpha = 0;
 856:MCSDK_v6.1.0-Full/MotorControl/MCSDK/MCLib/Any/Src/sto_pll_speed_pos_fdbk.c ****     vaux.beta = 0;
 857:MCSDK_v6.1.0-Full/MotorControl/MCSDK/MCLib/Any/Src/sto_pll_speed_pos_fdbk.c ****   }
 858:MCSDK_v6.1.0-Full/MotorControl/MCSDK/MCLib/Any/Src/sto_pll_speed_pos_fdbk.c ****   else
 859:MCSDK_v6.1.0-Full/MotorControl/MCSDK/MCLib/Any/Src/sto_pll_speed_pos_fdbk.c ****   {
 860:MCSDK_v6.1.0-Full/MotorControl/MCSDK/MCLib/Any/Src/sto_pll_speed_pos_fdbk.c **** #endif
 861:MCSDK_v6.1.0-Full/MotorControl/MCSDK/MCLib/Any/Src/sto_pll_speed_pos_fdbk.c ****     vaux.alpha = pHandle->hBemf_alfa_est;
 1694              		.loc 1 861 5 view .LVU668
 1695              		.loc 1 861 25 is_stmt 0 view .LVU669
 1696 0002 B0F97030 		ldrsh	r3, [r0, #112]
 1697              		.loc 1 861 16 view .LVU670
 1698 0006 ADF80030 		strh	r3, [sp]	@ movhi
 862:MCSDK_v6.1.0-Full/MotorControl/MCSDK/MCLib/Any/Src/sto_pll_speed_pos_fdbk.c ****     vaux.beta = pHandle->hBemf_beta_est;
 1699              		.loc 1 862 5 is_stmt 1 view .LVU671
 1700              		.loc 1 862 24 is_stmt 0 view .LVU672
 1701 000a B0F97230 		ldrsh	r3, [r0, #114]
 1702              		.loc 1 862 15 view .LVU673
 1703 000e ADF80230 		strh	r3, [sp, #2]	@ movhi
 863:MCSDK_v6.1.0-Full/MotorControl/MCSDK/MCLib/Any/Src/sto_pll_speed_pos_fdbk.c **** #ifdef NULL_PTR_STO_PLL_SPD_POS_FDB
 864:MCSDK_v6.1.0-Full/MotorControl/MCSDK/MCLib/Any/Src/sto_pll_speed_pos_fdbk.c ****   }
 865:MCSDK_v6.1.0-Full/MotorControl/MCSDK/MCLib/Any/Src/sto_pll_speed_pos_fdbk.c **** #endif
 866:MCSDK_v6.1.0-Full/MotorControl/MCSDK/MCLib/Any/Src/sto_pll_speed_pos_fdbk.c ****   return (vaux);
 1704              		.loc 1 866 3 is_stmt 1 view .LVU674
 1705              		.loc 1 866 10 is_stmt 0 view .LVU675
 1706 0012 009B     		ldr	r3, [sp]
 1707 0014 0020     		movs	r0, #0
 1708              	.LVL206:
 1709              		.loc 1 866 10 view .LVU676
 1710 0016 9AB2     		uxth	r2, r3
 1711 0018 62F30F00 		bfi	r0, r2, #0, #16
 1712 001c 1B0C     		lsrs	r3, r3, #16
 1713 001e 63F31F40 		bfi	r0, r3, #16, #16
 867:MCSDK_v6.1.0-Full/MotorControl/MCSDK/MCLib/Any/Src/sto_pll_speed_pos_fdbk.c **** }
 1714              		.loc 1 867 1 view .LVU677
 1715 0022 02B0     		add	sp, sp, #8
 1716              		.cfi_def_cfa_offset 0
 1717              		@ sp needed
 1718 0024 7047     		bx	lr
 1719              		.cfi_endproc
 1720              	.LFE1447:
 1722              		.section	.text.STO_PLL_GetEstimatedCurrent,"ax",%progbits
 1723              		.align	1
ARM GAS  /tmp/ccDchrQO.s 			page 57


 1724              		.weak	STO_PLL_GetEstimatedCurrent
 1725              		.syntax unified
 1726              		.thumb
 1727              		.thumb_func
 1728              		.fpu fpv4-sp-d16
 1730              	STO_PLL_GetEstimatedCurrent:
 1731              	.LVL207:
 1732              	.LFB1448:
 868:MCSDK_v6.1.0-Full/MotorControl/MCSDK/MCLib/Any/Src/sto_pll_speed_pos_fdbk.c **** 
 869:MCSDK_v6.1.0-Full/MotorControl/MCSDK/MCLib/Any/Src/sto_pll_speed_pos_fdbk.c **** 
 870:MCSDK_v6.1.0-Full/MotorControl/MCSDK/MCLib/Any/Src/sto_pll_speed_pos_fdbk.c **** /**
 871:MCSDK_v6.1.0-Full/MotorControl/MCSDK/MCLib/Any/Src/sto_pll_speed_pos_fdbk.c ****   * @brief  Exports from @p pHandle the stator current alpha-beta as estimated by state observer.
 872:MCSDK_v6.1.0-Full/MotorControl/MCSDK/MCLib/Any/Src/sto_pll_speed_pos_fdbk.c ****   * 
 873:MCSDK_v6.1.0-Full/MotorControl/MCSDK/MCLib/Any/Src/sto_pll_speed_pos_fdbk.c ****   * @retval alphabeta_t State observer estimated stator current Ialpha-beta.
 874:MCSDK_v6.1.0-Full/MotorControl/MCSDK/MCLib/Any/Src/sto_pll_speed_pos_fdbk.c ****   */
 875:MCSDK_v6.1.0-Full/MotorControl/MCSDK/MCLib/Any/Src/sto_pll_speed_pos_fdbk.c **** __weak alphabeta_t STO_PLL_GetEstimatedCurrent(STO_PLL_Handle_t *pHandle)
 876:MCSDK_v6.1.0-Full/MotorControl/MCSDK/MCLib/Any/Src/sto_pll_speed_pos_fdbk.c **** {
 1733              		.loc 1 876 1 is_stmt 1 view -0
 1734              		.cfi_startproc
 1735              		@ args = 0, pretend = 0, frame = 8
 1736              		@ frame_needed = 0, uses_anonymous_args = 0
 1737              		@ link register save eliminated.
 1738              		.loc 1 876 1 is_stmt 0 view .LVU679
 1739 0000 82B0     		sub	sp, sp, #8
 1740              		.cfi_def_cfa_offset 8
 877:MCSDK_v6.1.0-Full/MotorControl/MCSDK/MCLib/Any/Src/sto_pll_speed_pos_fdbk.c ****   alphabeta_t iaux;
 1741              		.loc 1 877 3 is_stmt 1 view .LVU680
 878:MCSDK_v6.1.0-Full/MotorControl/MCSDK/MCLib/Any/Src/sto_pll_speed_pos_fdbk.c **** #ifdef NULL_PTR_STO_PLL_SPD_POS_FDB
 879:MCSDK_v6.1.0-Full/MotorControl/MCSDK/MCLib/Any/Src/sto_pll_speed_pos_fdbk.c ****   if (MC_NULL == pHandle)
 880:MCSDK_v6.1.0-Full/MotorControl/MCSDK/MCLib/Any/Src/sto_pll_speed_pos_fdbk.c ****   {
 881:MCSDK_v6.1.0-Full/MotorControl/MCSDK/MCLib/Any/Src/sto_pll_speed_pos_fdbk.c ****     iaux.alpha = 0;
 882:MCSDK_v6.1.0-Full/MotorControl/MCSDK/MCLib/Any/Src/sto_pll_speed_pos_fdbk.c ****     iaux.beta = 0;
 883:MCSDK_v6.1.0-Full/MotorControl/MCSDK/MCLib/Any/Src/sto_pll_speed_pos_fdbk.c ****   }
 884:MCSDK_v6.1.0-Full/MotorControl/MCSDK/MCLib/Any/Src/sto_pll_speed_pos_fdbk.c ****   else
 885:MCSDK_v6.1.0-Full/MotorControl/MCSDK/MCLib/Any/Src/sto_pll_speed_pos_fdbk.c ****   {
 886:MCSDK_v6.1.0-Full/MotorControl/MCSDK/MCLib/Any/Src/sto_pll_speed_pos_fdbk.c **** #endif
 887:MCSDK_v6.1.0-Full/MotorControl/MCSDK/MCLib/Any/Src/sto_pll_speed_pos_fdbk.c **** #ifndef FULL_MISRA_C_COMPLIANCY_STO_PLL
 888:MCSDK_v6.1.0-Full/MotorControl/MCSDK/MCLib/Any/Src/sto_pll_speed_pos_fdbk.c ****   //cstat !MISRAC2012-Rule-1.3_n !ATH-shift-neg !MISRAC2012-Rule-10.1_R6
 889:MCSDK_v6.1.0-Full/MotorControl/MCSDK/MCLib/Any/Src/sto_pll_speed_pos_fdbk.c ****   iaux.alpha = (int16_t)(pHandle->Ialfa_est >> pHandle->F1LOG);
 1742              		.loc 1 889 3 view .LVU681
 1743              		.loc 1 889 33 is_stmt 0 view .LVU682
 1744 0002 026E     		ldr	r2, [r0, #96]
 1745              		.loc 1 889 55 view .LVU683
 1746 0004 B0F81C11 		ldrh	r1, [r0, #284]
 1747              		.loc 1 889 45 view .LVU684
 1748 0008 0A41     		asrs	r2, r2, r1
 1749              		.loc 1 889 14 view .LVU685
 1750 000a ADF80020 		strh	r2, [sp]	@ movhi
 890:MCSDK_v6.1.0-Full/MotorControl/MCSDK/MCLib/Any/Src/sto_pll_speed_pos_fdbk.c **** #else
 891:MCSDK_v6.1.0-Full/MotorControl/MCSDK/MCLib/Any/Src/sto_pll_speed_pos_fdbk.c ****   iaux.alpha = (int16_t)(pHandle->Ialfa_est / pHandle->hF1);
 892:MCSDK_v6.1.0-Full/MotorControl/MCSDK/MCLib/Any/Src/sto_pll_speed_pos_fdbk.c **** #endif
 893:MCSDK_v6.1.0-Full/MotorControl/MCSDK/MCLib/Any/Src/sto_pll_speed_pos_fdbk.c **** 
 894:MCSDK_v6.1.0-Full/MotorControl/MCSDK/MCLib/Any/Src/sto_pll_speed_pos_fdbk.c **** #ifndef FULL_MISRA_C_COMPLIANCY_STO_PLL
 895:MCSDK_v6.1.0-Full/MotorControl/MCSDK/MCLib/Any/Src/sto_pll_speed_pos_fdbk.c ****   //cstat !MISRAC2012-Rule-1.3_n !ATH-shift-neg !MISRAC2012-Rule-10.1_R6
 896:MCSDK_v6.1.0-Full/MotorControl/MCSDK/MCLib/Any/Src/sto_pll_speed_pos_fdbk.c ****   iaux.beta = (int16_t)(pHandle->Ibeta_est >> pHandle->F1LOG);
 1751              		.loc 1 896 3 is_stmt 1 view .LVU686
 1752              		.loc 1 896 32 is_stmt 0 view .LVU687
ARM GAS  /tmp/ccDchrQO.s 			page 58


 1753 000e 436E     		ldr	r3, [r0, #100]
 1754              		.loc 1 896 44 view .LVU688
 1755 0010 0B41     		asrs	r3, r3, r1
 1756              		.loc 1 896 13 view .LVU689
 1757 0012 ADF80230 		strh	r3, [sp, #2]	@ movhi
 897:MCSDK_v6.1.0-Full/MotorControl/MCSDK/MCLib/Any/Src/sto_pll_speed_pos_fdbk.c **** #else
 898:MCSDK_v6.1.0-Full/MotorControl/MCSDK/MCLib/Any/Src/sto_pll_speed_pos_fdbk.c ****   iaux.beta = (int16_t)(pHandle->Ibeta_est / pHandle->hF1);
 899:MCSDK_v6.1.0-Full/MotorControl/MCSDK/MCLib/Any/Src/sto_pll_speed_pos_fdbk.c **** #endif
 900:MCSDK_v6.1.0-Full/MotorControl/MCSDK/MCLib/Any/Src/sto_pll_speed_pos_fdbk.c **** #ifdef NULL_PTR_STO_PLL_SPD_POS_FDB
 901:MCSDK_v6.1.0-Full/MotorControl/MCSDK/MCLib/Any/Src/sto_pll_speed_pos_fdbk.c ****   }
 902:MCSDK_v6.1.0-Full/MotorControl/MCSDK/MCLib/Any/Src/sto_pll_speed_pos_fdbk.c **** #endif
 903:MCSDK_v6.1.0-Full/MotorControl/MCSDK/MCLib/Any/Src/sto_pll_speed_pos_fdbk.c ****   return (iaux);
 1758              		.loc 1 903 3 is_stmt 1 view .LVU690
 1759              		.loc 1 903 10 is_stmt 0 view .LVU691
 1760 0016 009B     		ldr	r3, [sp]
 1761 0018 0020     		movs	r0, #0
 1762              	.LVL208:
 1763              		.loc 1 903 10 view .LVU692
 1764 001a 9AB2     		uxth	r2, r3
 1765 001c 62F30F00 		bfi	r0, r2, #0, #16
 1766 0020 1B0C     		lsrs	r3, r3, #16
 1767 0022 63F31F40 		bfi	r0, r3, #16, #16
 904:MCSDK_v6.1.0-Full/MotorControl/MCSDK/MCLib/Any/Src/sto_pll_speed_pos_fdbk.c **** }
 1768              		.loc 1 904 1 view .LVU693
 1769 0026 02B0     		add	sp, sp, #8
 1770              		.cfi_def_cfa_offset 0
 1771              		@ sp needed
 1772 0028 7047     		bx	lr
 1773              		.cfi_endproc
 1774              	.LFE1448:
 1776              		.section	.text.STO_PLL_GetObserverGains,"ax",%progbits
 1777              		.align	1
 1778              		.weak	STO_PLL_GetObserverGains
 1779              		.syntax unified
 1780              		.thumb
 1781              		.thumb_func
 1782              		.fpu fpv4-sp-d16
 1784              	STO_PLL_GetObserverGains:
 1785              	.LVL209:
 1786              	.LFB1449:
 905:MCSDK_v6.1.0-Full/MotorControl/MCSDK/MCLib/Any/Src/sto_pll_speed_pos_fdbk.c **** 
 906:MCSDK_v6.1.0-Full/MotorControl/MCSDK/MCLib/Any/Src/sto_pll_speed_pos_fdbk.c **** /**
 907:MCSDK_v6.1.0-Full/MotorControl/MCSDK/MCLib/Any/Src/sto_pll_speed_pos_fdbk.c ****   * @brief  Exports current observer gains from @p pHandle and to parameters @p phC2 and @p phC4.
 908:MCSDK_v6.1.0-Full/MotorControl/MCSDK/MCLib/Any/Src/sto_pll_speed_pos_fdbk.c ****   * 
 909:MCSDK_v6.1.0-Full/MotorControl/MCSDK/MCLib/Any/Src/sto_pll_speed_pos_fdbk.c ****   */
 910:MCSDK_v6.1.0-Full/MotorControl/MCSDK/MCLib/Any/Src/sto_pll_speed_pos_fdbk.c **** __weak void STO_PLL_GetObserverGains(STO_PLL_Handle_t *pHandle, int16_t *phC2, int16_t *phC4)
 911:MCSDK_v6.1.0-Full/MotorControl/MCSDK/MCLib/Any/Src/sto_pll_speed_pos_fdbk.c **** {
 1787              		.loc 1 911 1 is_stmt 1 view -0
 1788              		.cfi_startproc
 1789              		@ args = 0, pretend = 0, frame = 0
 1790              		@ frame_needed = 0, uses_anonymous_args = 0
 1791              		@ link register save eliminated.
 912:MCSDK_v6.1.0-Full/MotorControl/MCSDK/MCLib/Any/Src/sto_pll_speed_pos_fdbk.c **** #ifdef NULL_PTR_STO_PLL_SPD_POS_FDB
 913:MCSDK_v6.1.0-Full/MotorControl/MCSDK/MCLib/Any/Src/sto_pll_speed_pos_fdbk.c ****   if ((MC_NULL == pHandle) || (MC_NULL == phC2) || (MC_NULL == phC4))
 914:MCSDK_v6.1.0-Full/MotorControl/MCSDK/MCLib/Any/Src/sto_pll_speed_pos_fdbk.c ****   {
 915:MCSDK_v6.1.0-Full/MotorControl/MCSDK/MCLib/Any/Src/sto_pll_speed_pos_fdbk.c ****     /* Nothing to do */
 916:MCSDK_v6.1.0-Full/MotorControl/MCSDK/MCLib/Any/Src/sto_pll_speed_pos_fdbk.c ****   }
ARM GAS  /tmp/ccDchrQO.s 			page 59


 917:MCSDK_v6.1.0-Full/MotorControl/MCSDK/MCLib/Any/Src/sto_pll_speed_pos_fdbk.c ****   else
 918:MCSDK_v6.1.0-Full/MotorControl/MCSDK/MCLib/Any/Src/sto_pll_speed_pos_fdbk.c ****   {
 919:MCSDK_v6.1.0-Full/MotorControl/MCSDK/MCLib/Any/Src/sto_pll_speed_pos_fdbk.c **** #endif
 920:MCSDK_v6.1.0-Full/MotorControl/MCSDK/MCLib/Any/Src/sto_pll_speed_pos_fdbk.c ****     *phC2 = pHandle->hC2;
 1792              		.loc 1 920 5 view .LVU695
 1793              		.loc 1 920 20 is_stmt 0 view .LVU696
 1794 0000 B0F92230 		ldrsh	r3, [r0, #34]
 1795              		.loc 1 920 11 view .LVU697
 1796 0004 0B80     		strh	r3, [r1]	@ movhi
 921:MCSDK_v6.1.0-Full/MotorControl/MCSDK/MCLib/Any/Src/sto_pll_speed_pos_fdbk.c ****     *phC4 = pHandle->hC4;
 1797              		.loc 1 921 5 is_stmt 1 view .LVU698
 1798              		.loc 1 921 20 is_stmt 0 view .LVU699
 1799 0006 B0F92630 		ldrsh	r3, [r0, #38]
 1800              		.loc 1 921 11 view .LVU700
 1801 000a 1380     		strh	r3, [r2]	@ movhi
 922:MCSDK_v6.1.0-Full/MotorControl/MCSDK/MCLib/Any/Src/sto_pll_speed_pos_fdbk.c **** #ifdef NULL_PTR_STO_PLL_SPD_POS_FDB
 923:MCSDK_v6.1.0-Full/MotorControl/MCSDK/MCLib/Any/Src/sto_pll_speed_pos_fdbk.c ****   }
 924:MCSDK_v6.1.0-Full/MotorControl/MCSDK/MCLib/Any/Src/sto_pll_speed_pos_fdbk.c **** #endif
 925:MCSDK_v6.1.0-Full/MotorControl/MCSDK/MCLib/Any/Src/sto_pll_speed_pos_fdbk.c **** }
 1802              		.loc 1 925 1 view .LVU701
 1803 000c 7047     		bx	lr
 1804              		.cfi_endproc
 1805              	.LFE1449:
 1807              		.section	.text.STO_PLL_SetObserverGains,"ax",%progbits
 1808              		.align	1
 1809              		.weak	STO_PLL_SetObserverGains
 1810              		.syntax unified
 1811              		.thumb
 1812              		.thumb_func
 1813              		.fpu fpv4-sp-d16
 1815              	STO_PLL_SetObserverGains:
 1816              	.LVL210:
 1817              	.LFB1450:
 926:MCSDK_v6.1.0-Full/MotorControl/MCSDK/MCLib/Any/Src/sto_pll_speed_pos_fdbk.c **** 
 927:MCSDK_v6.1.0-Full/MotorControl/MCSDK/MCLib/Any/Src/sto_pll_speed_pos_fdbk.c **** /**
 928:MCSDK_v6.1.0-Full/MotorControl/MCSDK/MCLib/Any/Src/sto_pll_speed_pos_fdbk.c ****   * @brief  Stores in @p pHandle the new values @p hhC1 and @p hhC2 for observer gains.
 929:MCSDK_v6.1.0-Full/MotorControl/MCSDK/MCLib/Any/Src/sto_pll_speed_pos_fdbk.c ****   * 
 930:MCSDK_v6.1.0-Full/MotorControl/MCSDK/MCLib/Any/Src/sto_pll_speed_pos_fdbk.c ****   */
 931:MCSDK_v6.1.0-Full/MotorControl/MCSDK/MCLib/Any/Src/sto_pll_speed_pos_fdbk.c **** __weak void STO_PLL_SetObserverGains(STO_PLL_Handle_t *pHandle, int16_t hhC1, int16_t hhC2)
 932:MCSDK_v6.1.0-Full/MotorControl/MCSDK/MCLib/Any/Src/sto_pll_speed_pos_fdbk.c **** {
 1818              		.loc 1 932 1 is_stmt 1 view -0
 1819              		.cfi_startproc
 1820              		@ args = 0, pretend = 0, frame = 0
 1821              		@ frame_needed = 0, uses_anonymous_args = 0
 1822              		@ link register save eliminated.
 933:MCSDK_v6.1.0-Full/MotorControl/MCSDK/MCLib/Any/Src/sto_pll_speed_pos_fdbk.c **** #ifdef NULL_PTR_STO_PLL_SPD_POS_FDB
 934:MCSDK_v6.1.0-Full/MotorControl/MCSDK/MCLib/Any/Src/sto_pll_speed_pos_fdbk.c ****   if (MC_NULL == pHandle)
 935:MCSDK_v6.1.0-Full/MotorControl/MCSDK/MCLib/Any/Src/sto_pll_speed_pos_fdbk.c ****   {
 936:MCSDK_v6.1.0-Full/MotorControl/MCSDK/MCLib/Any/Src/sto_pll_speed_pos_fdbk.c ****     /* Nothing to do */
 937:MCSDK_v6.1.0-Full/MotorControl/MCSDK/MCLib/Any/Src/sto_pll_speed_pos_fdbk.c ****   }
 938:MCSDK_v6.1.0-Full/MotorControl/MCSDK/MCLib/Any/Src/sto_pll_speed_pos_fdbk.c ****   else
 939:MCSDK_v6.1.0-Full/MotorControl/MCSDK/MCLib/Any/Src/sto_pll_speed_pos_fdbk.c ****   {
 940:MCSDK_v6.1.0-Full/MotorControl/MCSDK/MCLib/Any/Src/sto_pll_speed_pos_fdbk.c **** #endif
 941:MCSDK_v6.1.0-Full/MotorControl/MCSDK/MCLib/Any/Src/sto_pll_speed_pos_fdbk.c ****     pHandle->hC2 = hhC1;
 1823              		.loc 1 941 5 view .LVU703
 1824              		.loc 1 941 18 is_stmt 0 view .LVU704
 1825 0000 4184     		strh	r1, [r0, #34]	@ movhi
ARM GAS  /tmp/ccDchrQO.s 			page 60


 942:MCSDK_v6.1.0-Full/MotorControl/MCSDK/MCLib/Any/Src/sto_pll_speed_pos_fdbk.c ****     pHandle->hC4 = hhC2;
 1826              		.loc 1 942 5 is_stmt 1 view .LVU705
 1827              		.loc 1 942 18 is_stmt 0 view .LVU706
 1828 0002 C284     		strh	r2, [r0, #38]	@ movhi
 943:MCSDK_v6.1.0-Full/MotorControl/MCSDK/MCLib/Any/Src/sto_pll_speed_pos_fdbk.c **** #ifdef NULL_PTR_STO_PLL_SPD_POS_FDB
 944:MCSDK_v6.1.0-Full/MotorControl/MCSDK/MCLib/Any/Src/sto_pll_speed_pos_fdbk.c ****   }
 945:MCSDK_v6.1.0-Full/MotorControl/MCSDK/MCLib/Any/Src/sto_pll_speed_pos_fdbk.c **** #endif
 946:MCSDK_v6.1.0-Full/MotorControl/MCSDK/MCLib/Any/Src/sto_pll_speed_pos_fdbk.c **** }
 1829              		.loc 1 946 1 view .LVU707
 1830 0004 7047     		bx	lr
 1831              		.cfi_endproc
 1832              	.LFE1450:
 1834              		.section	.text.STO_GetPLLGains,"ax",%progbits
 1835              		.align	1
 1836              		.weak	STO_GetPLLGains
 1837              		.syntax unified
 1838              		.thumb
 1839              		.thumb_func
 1840              		.fpu fpv4-sp-d16
 1842              	STO_GetPLLGains:
 1843              	.LVL211:
 1844              	.LFB1451:
 947:MCSDK_v6.1.0-Full/MotorControl/MCSDK/MCLib/Any/Src/sto_pll_speed_pos_fdbk.c **** 
 948:MCSDK_v6.1.0-Full/MotorControl/MCSDK/MCLib/Any/Src/sto_pll_speed_pos_fdbk.c **** /**
 949:MCSDK_v6.1.0-Full/MotorControl/MCSDK/MCLib/Any/Src/sto_pll_speed_pos_fdbk.c ****   * @brief  Exports current PLL gains from @p pHandle to @p pPgain and @p pIgain.
 950:MCSDK_v6.1.0-Full/MotorControl/MCSDK/MCLib/Any/Src/sto_pll_speed_pos_fdbk.c ****   * 
 951:MCSDK_v6.1.0-Full/MotorControl/MCSDK/MCLib/Any/Src/sto_pll_speed_pos_fdbk.c ****   */
 952:MCSDK_v6.1.0-Full/MotorControl/MCSDK/MCLib/Any/Src/sto_pll_speed_pos_fdbk.c **** __weak void STO_GetPLLGains(STO_PLL_Handle_t *pHandle, int16_t *pPgain, int16_t *pIgain)
 953:MCSDK_v6.1.0-Full/MotorControl/MCSDK/MCLib/Any/Src/sto_pll_speed_pos_fdbk.c **** {
 1845              		.loc 1 953 1 is_stmt 1 view -0
 1846              		.cfi_startproc
 1847              		@ args = 0, pretend = 0, frame = 0
 1848              		@ frame_needed = 0, uses_anonymous_args = 0
 1849              		.loc 1 953 1 is_stmt 0 view .LVU709
 1850 0000 70B5     		push	{r4, r5, r6, lr}
 1851              		.cfi_def_cfa_offset 16
 1852              		.cfi_offset 4, -16
 1853              		.cfi_offset 5, -12
 1854              		.cfi_offset 6, -8
 1855              		.cfi_offset 14, -4
 1856 0002 0E46     		mov	r6, r1
 1857 0004 1546     		mov	r5, r2
 954:MCSDK_v6.1.0-Full/MotorControl/MCSDK/MCLib/Any/Src/sto_pll_speed_pos_fdbk.c **** #ifdef NULL_PTR_STO_PLL_SPD_POS_FDB
 955:MCSDK_v6.1.0-Full/MotorControl/MCSDK/MCLib/Any/Src/sto_pll_speed_pos_fdbk.c ****   if ((MC_NULL == pHandle) || (MC_NULL == pPgain) || (MC_NULL == pIgain))
 956:MCSDK_v6.1.0-Full/MotorControl/MCSDK/MCLib/Any/Src/sto_pll_speed_pos_fdbk.c ****   {
 957:MCSDK_v6.1.0-Full/MotorControl/MCSDK/MCLib/Any/Src/sto_pll_speed_pos_fdbk.c ****     /* Nothing to do */
 958:MCSDK_v6.1.0-Full/MotorControl/MCSDK/MCLib/Any/Src/sto_pll_speed_pos_fdbk.c ****   }
 959:MCSDK_v6.1.0-Full/MotorControl/MCSDK/MCLib/Any/Src/sto_pll_speed_pos_fdbk.c ****   else
 960:MCSDK_v6.1.0-Full/MotorControl/MCSDK/MCLib/Any/Src/sto_pll_speed_pos_fdbk.c ****   {
 961:MCSDK_v6.1.0-Full/MotorControl/MCSDK/MCLib/Any/Src/sto_pll_speed_pos_fdbk.c **** #endif
 962:MCSDK_v6.1.0-Full/MotorControl/MCSDK/MCLib/Any/Src/sto_pll_speed_pos_fdbk.c ****     *pPgain = PID_GetKP(& pHandle->PIRegulator);
 1858              		.loc 1 962 5 is_stmt 1 view .LVU710
 1859              		.loc 1 962 15 is_stmt 0 view .LVU711
 1860 0006 00F13404 		add	r4, r0, #52
 1861 000a 2046     		mov	r0, r4
 1862              	.LVL212:
 1863              		.loc 1 962 15 view .LVU712
ARM GAS  /tmp/ccDchrQO.s 			page 61


 1864 000c FFF7FEFF 		bl	PID_GetKP
 1865              	.LVL213:
 1866              		.loc 1 962 13 view .LVU713
 1867 0010 3080     		strh	r0, [r6]	@ movhi
 963:MCSDK_v6.1.0-Full/MotorControl/MCSDK/MCLib/Any/Src/sto_pll_speed_pos_fdbk.c ****     *pIgain = PID_GetKI(& pHandle->PIRegulator);
 1868              		.loc 1 963 5 is_stmt 1 view .LVU714
 1869              		.loc 1 963 15 is_stmt 0 view .LVU715
 1870 0012 2046     		mov	r0, r4
 1871 0014 FFF7FEFF 		bl	PID_GetKI
 1872              	.LVL214:
 1873              		.loc 1 963 13 view .LVU716
 1874 0018 2880     		strh	r0, [r5]	@ movhi
 964:MCSDK_v6.1.0-Full/MotorControl/MCSDK/MCLib/Any/Src/sto_pll_speed_pos_fdbk.c **** #ifdef NULL_PTR_STO_PLL_SPD_POS_FDB
 965:MCSDK_v6.1.0-Full/MotorControl/MCSDK/MCLib/Any/Src/sto_pll_speed_pos_fdbk.c ****   }
 966:MCSDK_v6.1.0-Full/MotorControl/MCSDK/MCLib/Any/Src/sto_pll_speed_pos_fdbk.c **** #endif
 967:MCSDK_v6.1.0-Full/MotorControl/MCSDK/MCLib/Any/Src/sto_pll_speed_pos_fdbk.c **** }
 1875              		.loc 1 967 1 view .LVU717
 1876 001a 70BD     		pop	{r4, r5, r6, pc}
 1877              		.loc 1 967 1 view .LVU718
 1878              		.cfi_endproc
 1879              	.LFE1451:
 1881              		.section	.text.STO_SetPLLGains,"ax",%progbits
 1882              		.align	1
 1883              		.weak	STO_SetPLLGains
 1884              		.syntax unified
 1885              		.thumb
 1886              		.thumb_func
 1887              		.fpu fpv4-sp-d16
 1889              	STO_SetPLLGains:
 1890              	.LVL215:
 1891              	.LFB1452:
 968:MCSDK_v6.1.0-Full/MotorControl/MCSDK/MCLib/Any/Src/sto_pll_speed_pos_fdbk.c **** 
 969:MCSDK_v6.1.0-Full/MotorControl/MCSDK/MCLib/Any/Src/sto_pll_speed_pos_fdbk.c **** 
 970:MCSDK_v6.1.0-Full/MotorControl/MCSDK/MCLib/Any/Src/sto_pll_speed_pos_fdbk.c **** /**
 971:MCSDK_v6.1.0-Full/MotorControl/MCSDK/MCLib/Any/Src/sto_pll_speed_pos_fdbk.c ****   * @brief  Stores in @p pHandle the new values @p hPgain and @p hIgain for PLL gains.
 972:MCSDK_v6.1.0-Full/MotorControl/MCSDK/MCLib/Any/Src/sto_pll_speed_pos_fdbk.c ****   * 
 973:MCSDK_v6.1.0-Full/MotorControl/MCSDK/MCLib/Any/Src/sto_pll_speed_pos_fdbk.c ****   */
 974:MCSDK_v6.1.0-Full/MotorControl/MCSDK/MCLib/Any/Src/sto_pll_speed_pos_fdbk.c **** __weak void STO_SetPLLGains(STO_PLL_Handle_t *pHandle, int16_t hPgain, int16_t hIgain)
 975:MCSDK_v6.1.0-Full/MotorControl/MCSDK/MCLib/Any/Src/sto_pll_speed_pos_fdbk.c **** {
 1892              		.loc 1 975 1 is_stmt 1 view -0
 1893              		.cfi_startproc
 1894              		@ args = 0, pretend = 0, frame = 0
 1895              		@ frame_needed = 0, uses_anonymous_args = 0
 1896              		.loc 1 975 1 is_stmt 0 view .LVU720
 1897 0000 38B5     		push	{r3, r4, r5, lr}
 1898              		.cfi_def_cfa_offset 16
 1899              		.cfi_offset 3, -16
 1900              		.cfi_offset 4, -12
 1901              		.cfi_offset 5, -8
 1902              		.cfi_offset 14, -4
 1903 0002 1546     		mov	r5, r2
 976:MCSDK_v6.1.0-Full/MotorControl/MCSDK/MCLib/Any/Src/sto_pll_speed_pos_fdbk.c **** #ifdef NULL_PTR_STO_PLL_SPD_POS_FDB
 977:MCSDK_v6.1.0-Full/MotorControl/MCSDK/MCLib/Any/Src/sto_pll_speed_pos_fdbk.c ****   if (MC_NULL == pHandle)
 978:MCSDK_v6.1.0-Full/MotorControl/MCSDK/MCLib/Any/Src/sto_pll_speed_pos_fdbk.c ****   {
 979:MCSDK_v6.1.0-Full/MotorControl/MCSDK/MCLib/Any/Src/sto_pll_speed_pos_fdbk.c ****     /* Nothing to do */
 980:MCSDK_v6.1.0-Full/MotorControl/MCSDK/MCLib/Any/Src/sto_pll_speed_pos_fdbk.c ****   }
 981:MCSDK_v6.1.0-Full/MotorControl/MCSDK/MCLib/Any/Src/sto_pll_speed_pos_fdbk.c ****   else
ARM GAS  /tmp/ccDchrQO.s 			page 62


 982:MCSDK_v6.1.0-Full/MotorControl/MCSDK/MCLib/Any/Src/sto_pll_speed_pos_fdbk.c ****   {
 983:MCSDK_v6.1.0-Full/MotorControl/MCSDK/MCLib/Any/Src/sto_pll_speed_pos_fdbk.c **** #endif
 984:MCSDK_v6.1.0-Full/MotorControl/MCSDK/MCLib/Any/Src/sto_pll_speed_pos_fdbk.c ****     PID_SetKP(&pHandle->PIRegulator, hPgain);
 1904              		.loc 1 984 5 is_stmt 1 view .LVU721
 1905 0004 00F13404 		add	r4, r0, #52
 1906 0008 2046     		mov	r0, r4
 1907              	.LVL216:
 1908              		.loc 1 984 5 is_stmt 0 view .LVU722
 1909 000a FFF7FEFF 		bl	PID_SetKP
 1910              	.LVL217:
 985:MCSDK_v6.1.0-Full/MotorControl/MCSDK/MCLib/Any/Src/sto_pll_speed_pos_fdbk.c ****     PID_SetKI(&pHandle->PIRegulator, hIgain);
 1911              		.loc 1 985 5 is_stmt 1 view .LVU723
 1912 000e 2946     		mov	r1, r5
 1913 0010 2046     		mov	r0, r4
 1914 0012 FFF7FEFF 		bl	PID_SetKI
 1915              	.LVL218:
 986:MCSDK_v6.1.0-Full/MotorControl/MCSDK/MCLib/Any/Src/sto_pll_speed_pos_fdbk.c **** #ifdef NULL_PTR_STO_PLL_SPD_POS_FDB
 987:MCSDK_v6.1.0-Full/MotorControl/MCSDK/MCLib/Any/Src/sto_pll_speed_pos_fdbk.c ****   }
 988:MCSDK_v6.1.0-Full/MotorControl/MCSDK/MCLib/Any/Src/sto_pll_speed_pos_fdbk.c **** #endif
 989:MCSDK_v6.1.0-Full/MotorControl/MCSDK/MCLib/Any/Src/sto_pll_speed_pos_fdbk.c **** }
 1916              		.loc 1 989 1 is_stmt 0 view .LVU724
 1917 0016 38BD     		pop	{r3, r4, r5, pc}
 1918              		.loc 1 989 1 view .LVU725
 1919              		.cfi_endproc
 1920              	.LFE1452:
 1922              		.section	.text.STO_PLL_SetMecAngle,"ax",%progbits
 1923              		.align	1
 1924              		.weak	STO_PLL_SetMecAngle
 1925              		.syntax unified
 1926              		.thumb
 1927              		.thumb_func
 1928              		.fpu fpv4-sp-d16
 1930              	STO_PLL_SetMecAngle:
 1931              	.LVL219:
 1932              	.LFB1453:
 990:MCSDK_v6.1.0-Full/MotorControl/MCSDK/MCLib/Any/Src/sto_pll_speed_pos_fdbk.c **** 
 991:MCSDK_v6.1.0-Full/MotorControl/MCSDK/MCLib/Any/Src/sto_pll_speed_pos_fdbk.c **** 
 992:MCSDK_v6.1.0-Full/MotorControl/MCSDK/MCLib/Any/Src/sto_pll_speed_pos_fdbk.c **** /**
 993:MCSDK_v6.1.0-Full/MotorControl/MCSDK/MCLib/Any/Src/sto_pll_speed_pos_fdbk.c ****   * @brief  Empty function. Could be declared to set instantaneous information on rotor mechanical 
 994:MCSDK_v6.1.0-Full/MotorControl/MCSDK/MCLib/Any/Src/sto_pll_speed_pos_fdbk.c ****   * 
 995:MCSDK_v6.1.0-Full/MotorControl/MCSDK/MCLib/Any/Src/sto_pll_speed_pos_fdbk.c ****   * Note: Mechanical angle management is not implemented in this
 996:MCSDK_v6.1.0-Full/MotorControl/MCSDK/MCLib/Any/Src/sto_pll_speed_pos_fdbk.c ****   * version of State observer sensor class.
 997:MCSDK_v6.1.0-Full/MotorControl/MCSDK/MCLib/Any/Src/sto_pll_speed_pos_fdbk.c ****   * 
 998:MCSDK_v6.1.0-Full/MotorControl/MCSDK/MCLib/Any/Src/sto_pll_speed_pos_fdbk.c ****   * @param  pHandle: Handler of the current instance of the STO component.
 999:MCSDK_v6.1.0-Full/MotorControl/MCSDK/MCLib/Any/Src/sto_pll_speed_pos_fdbk.c ****   * @param  hMecAngle: Instantaneous measure of rotor mechanical angle.
1000:MCSDK_v6.1.0-Full/MotorControl/MCSDK/MCLib/Any/Src/sto_pll_speed_pos_fdbk.c ****   */
1001:MCSDK_v6.1.0-Full/MotorControl/MCSDK/MCLib/Any/Src/sto_pll_speed_pos_fdbk.c **** //cstat !RED-func-no-effect
1002:MCSDK_v6.1.0-Full/MotorControl/MCSDK/MCLib/Any/Src/sto_pll_speed_pos_fdbk.c **** __weak void STO_PLL_SetMecAngle(STO_PLL_Handle_t *pHandle, int16_t hMecAngle)
1003:MCSDK_v6.1.0-Full/MotorControl/MCSDK/MCLib/Any/Src/sto_pll_speed_pos_fdbk.c **** {
 1933              		.loc 1 1003 1 is_stmt 1 view -0
 1934              		.cfi_startproc
 1935              		@ args = 0, pretend = 0, frame = 0
 1936              		@ frame_needed = 0, uses_anonymous_args = 0
 1937              		@ link register save eliminated.
1004:MCSDK_v6.1.0-Full/MotorControl/MCSDK/MCLib/Any/Src/sto_pll_speed_pos_fdbk.c **** #ifdef NULL_PTR_STO_PLL_SPD_POS_FDB
1005:MCSDK_v6.1.0-Full/MotorControl/MCSDK/MCLib/Any/Src/sto_pll_speed_pos_fdbk.c ****   if ((MC_NULL == (void *)pHandle) || ((int16_t)0 == hMecAngle))
1006:MCSDK_v6.1.0-Full/MotorControl/MCSDK/MCLib/Any/Src/sto_pll_speed_pos_fdbk.c ****   {
ARM GAS  /tmp/ccDchrQO.s 			page 63


1007:MCSDK_v6.1.0-Full/MotorControl/MCSDK/MCLib/Any/Src/sto_pll_speed_pos_fdbk.c ****     /* Nothing to do */
1008:MCSDK_v6.1.0-Full/MotorControl/MCSDK/MCLib/Any/Src/sto_pll_speed_pos_fdbk.c ****   }
1009:MCSDK_v6.1.0-Full/MotorControl/MCSDK/MCLib/Any/Src/sto_pll_speed_pos_fdbk.c ****   else
1010:MCSDK_v6.1.0-Full/MotorControl/MCSDK/MCLib/Any/Src/sto_pll_speed_pos_fdbk.c ****   {
1011:MCSDK_v6.1.0-Full/MotorControl/MCSDK/MCLib/Any/Src/sto_pll_speed_pos_fdbk.c ****     /* nothing to do */
1012:MCSDK_v6.1.0-Full/MotorControl/MCSDK/MCLib/Any/Src/sto_pll_speed_pos_fdbk.c ****   }
1013:MCSDK_v6.1.0-Full/MotorControl/MCSDK/MCLib/Any/Src/sto_pll_speed_pos_fdbk.c **** #endif
1014:MCSDK_v6.1.0-Full/MotorControl/MCSDK/MCLib/Any/Src/sto_pll_speed_pos_fdbk.c **** }
 1938              		.loc 1 1014 1 view .LVU727
 1939 0000 7047     		bx	lr
 1940              		.cfi_endproc
 1941              	.LFE1453:
 1943              		.section	.text.STO_OTF_ResetPLL,"ax",%progbits
 1944              		.align	1
 1945              		.weak	STO_OTF_ResetPLL
 1946              		.syntax unified
 1947              		.thumb
 1948              		.thumb_func
 1949              		.fpu fpv4-sp-d16
 1951              	STO_OTF_ResetPLL:
 1952              	.LVL220:
 1953              	.LFB1454:
1015:MCSDK_v6.1.0-Full/MotorControl/MCSDK/MCLib/Any/Src/sto_pll_speed_pos_fdbk.c **** 
1016:MCSDK_v6.1.0-Full/MotorControl/MCSDK/MCLib/Any/Src/sto_pll_speed_pos_fdbk.c **** /**
1017:MCSDK_v6.1.0-Full/MotorControl/MCSDK/MCLib/Any/Src/sto_pll_speed_pos_fdbk.c ****   * @brief  Resets the PLL integral term during on-the-fly startup.
1018:MCSDK_v6.1.0-Full/MotorControl/MCSDK/MCLib/Any/Src/sto_pll_speed_pos_fdbk.c ****   * 
1019:MCSDK_v6.1.0-Full/MotorControl/MCSDK/MCLib/Any/Src/sto_pll_speed_pos_fdbk.c ****   * @param  pHandle: Handler of the current instance of the STO component.
1020:MCSDK_v6.1.0-Full/MotorControl/MCSDK/MCLib/Any/Src/sto_pll_speed_pos_fdbk.c ****   */
1021:MCSDK_v6.1.0-Full/MotorControl/MCSDK/MCLib/Any/Src/sto_pll_speed_pos_fdbk.c **** __weak void STO_OTF_ResetPLL(STO_Handle_t * pHandle)
1022:MCSDK_v6.1.0-Full/MotorControl/MCSDK/MCLib/Any/Src/sto_pll_speed_pos_fdbk.c **** {
 1954              		.loc 1 1022 1 view -0
 1955              		.cfi_startproc
 1956              		@ args = 0, pretend = 0, frame = 0
 1957              		@ frame_needed = 0, uses_anonymous_args = 0
 1958              		.loc 1 1022 1 is_stmt 0 view .LVU729
 1959 0000 08B5     		push	{r3, lr}
 1960              		.cfi_def_cfa_offset 8
 1961              		.cfi_offset 3, -8
 1962              		.cfi_offset 14, -4
1023:MCSDK_v6.1.0-Full/MotorControl/MCSDK/MCLib/Any/Src/sto_pll_speed_pos_fdbk.c **** #ifdef NULL_PTR_STO_PLL_SPD_POS_FDB
1024:MCSDK_v6.1.0-Full/MotorControl/MCSDK/MCLib/Any/Src/sto_pll_speed_pos_fdbk.c ****   if (MC_NULL == pHandle)
1025:MCSDK_v6.1.0-Full/MotorControl/MCSDK/MCLib/Any/Src/sto_pll_speed_pos_fdbk.c ****   {
1026:MCSDK_v6.1.0-Full/MotorControl/MCSDK/MCLib/Any/Src/sto_pll_speed_pos_fdbk.c ****     /* Nothing to do */
1027:MCSDK_v6.1.0-Full/MotorControl/MCSDK/MCLib/Any/Src/sto_pll_speed_pos_fdbk.c ****   }
1028:MCSDK_v6.1.0-Full/MotorControl/MCSDK/MCLib/Any/Src/sto_pll_speed_pos_fdbk.c ****   else
1029:MCSDK_v6.1.0-Full/MotorControl/MCSDK/MCLib/Any/Src/sto_pll_speed_pos_fdbk.c ****   {
1030:MCSDK_v6.1.0-Full/MotorControl/MCSDK/MCLib/Any/Src/sto_pll_speed_pos_fdbk.c **** #endif
1031:MCSDK_v6.1.0-Full/MotorControl/MCSDK/MCLib/Any/Src/sto_pll_speed_pos_fdbk.c ****     STO_PLL_Handle_t *pHdl = (STO_PLL_Handle_t *)pHandle->_Super; //cstat !MISRAC2012-Rule-11.3
 1963              		.loc 1 1031 5 is_stmt 1 view .LVU730
 1964              		.loc 1 1031 23 is_stmt 0 view .LVU731
 1965 0002 0068     		ldr	r0, [r0]
 1966              	.LVL221:
1032:MCSDK_v6.1.0-Full/MotorControl/MCSDK/MCLib/Any/Src/sto_pll_speed_pos_fdbk.c ****     PID_SetIntegralTerm(&pHdl->PIRegulator, (int32_t)0);
 1967              		.loc 1 1032 5 is_stmt 1 view .LVU732
 1968 0004 0021     		movs	r1, #0
 1969 0006 3430     		adds	r0, r0, #52
 1970              	.LVL222:
ARM GAS  /tmp/ccDchrQO.s 			page 64


 1971              		.loc 1 1032 5 is_stmt 0 view .LVU733
 1972 0008 FFF7FEFF 		bl	PID_SetIntegralTerm
 1973              	.LVL223:
1033:MCSDK_v6.1.0-Full/MotorControl/MCSDK/MCLib/Any/Src/sto_pll_speed_pos_fdbk.c **** #ifdef NULL_PTR_STO_PLL_SPD_POS_FDB
1034:MCSDK_v6.1.0-Full/MotorControl/MCSDK/MCLib/Any/Src/sto_pll_speed_pos_fdbk.c ****   }
1035:MCSDK_v6.1.0-Full/MotorControl/MCSDK/MCLib/Any/Src/sto_pll_speed_pos_fdbk.c **** #endif
1036:MCSDK_v6.1.0-Full/MotorControl/MCSDK/MCLib/Any/Src/sto_pll_speed_pos_fdbk.c **** }
 1974              		.loc 1 1036 1 view .LVU734
 1975 000c 08BD     		pop	{r3, pc}
 1976              		.cfi_endproc
 1977              	.LFE1454:
 1979              		.section	.text.STO_ResetPLL,"ax",%progbits
 1980              		.align	1
 1981              		.weak	STO_ResetPLL
 1982              		.syntax unified
 1983              		.thumb
 1984              		.thumb_func
 1985              		.fpu fpv4-sp-d16
 1987              	STO_ResetPLL:
 1988              	.LVL224:
 1989              	.LFB1455:
1037:MCSDK_v6.1.0-Full/MotorControl/MCSDK/MCLib/Any/Src/sto_pll_speed_pos_fdbk.c **** 
1038:MCSDK_v6.1.0-Full/MotorControl/MCSDK/MCLib/Any/Src/sto_pll_speed_pos_fdbk.c **** #if defined (CCMRAM)
1039:MCSDK_v6.1.0-Full/MotorControl/MCSDK/MCLib/Any/Src/sto_pll_speed_pos_fdbk.c **** #if defined (__ICCARM__)
1040:MCSDK_v6.1.0-Full/MotorControl/MCSDK/MCLib/Any/Src/sto_pll_speed_pos_fdbk.c **** #pragma location = ".ccmram"
1041:MCSDK_v6.1.0-Full/MotorControl/MCSDK/MCLib/Any/Src/sto_pll_speed_pos_fdbk.c **** #elif defined (__CC_ARM) || defined(__GNUC__)
1042:MCSDK_v6.1.0-Full/MotorControl/MCSDK/MCLib/Any/Src/sto_pll_speed_pos_fdbk.c **** __attribute__( ( section ( ".ccmram" ) ) )
1043:MCSDK_v6.1.0-Full/MotorControl/MCSDK/MCLib/Any/Src/sto_pll_speed_pos_fdbk.c **** #endif
1044:MCSDK_v6.1.0-Full/MotorControl/MCSDK/MCLib/Any/Src/sto_pll_speed_pos_fdbk.c **** #endif
1045:MCSDK_v6.1.0-Full/MotorControl/MCSDK/MCLib/Any/Src/sto_pll_speed_pos_fdbk.c **** /**
1046:MCSDK_v6.1.0-Full/MotorControl/MCSDK/MCLib/Any/Src/sto_pll_speed_pos_fdbk.c ****   * @brief  Resets the PLL integral term.
1047:MCSDK_v6.1.0-Full/MotorControl/MCSDK/MCLib/Any/Src/sto_pll_speed_pos_fdbk.c ****   * 
1048:MCSDK_v6.1.0-Full/MotorControl/MCSDK/MCLib/Any/Src/sto_pll_speed_pos_fdbk.c ****   * @param  pHandle: Handler of the current instance of the STO component.
1049:MCSDK_v6.1.0-Full/MotorControl/MCSDK/MCLib/Any/Src/sto_pll_speed_pos_fdbk.c ****   */
1050:MCSDK_v6.1.0-Full/MotorControl/MCSDK/MCLib/Any/Src/sto_pll_speed_pos_fdbk.c **** __weak void STO_ResetPLL(STO_PLL_Handle_t *pHandle)
1051:MCSDK_v6.1.0-Full/MotorControl/MCSDK/MCLib/Any/Src/sto_pll_speed_pos_fdbk.c **** {
 1990              		.loc 1 1051 1 is_stmt 1 view -0
 1991              		.cfi_startproc
 1992              		@ args = 0, pretend = 0, frame = 0
 1993              		@ frame_needed = 0, uses_anonymous_args = 0
 1994              		.loc 1 1051 1 is_stmt 0 view .LVU736
 1995 0000 08B5     		push	{r3, lr}
 1996              		.cfi_def_cfa_offset 8
 1997              		.cfi_offset 3, -8
 1998              		.cfi_offset 14, -4
1052:MCSDK_v6.1.0-Full/MotorControl/MCSDK/MCLib/Any/Src/sto_pll_speed_pos_fdbk.c **** #ifdef NULL_PTR_STO_PLL_SPD_POS_FDB
1053:MCSDK_v6.1.0-Full/MotorControl/MCSDK/MCLib/Any/Src/sto_pll_speed_pos_fdbk.c ****   if (MC_NULL == pHandle)
1054:MCSDK_v6.1.0-Full/MotorControl/MCSDK/MCLib/Any/Src/sto_pll_speed_pos_fdbk.c ****   {
1055:MCSDK_v6.1.0-Full/MotorControl/MCSDK/MCLib/Any/Src/sto_pll_speed_pos_fdbk.c ****     /* Nothing to do */
1056:MCSDK_v6.1.0-Full/MotorControl/MCSDK/MCLib/Any/Src/sto_pll_speed_pos_fdbk.c ****   }
1057:MCSDK_v6.1.0-Full/MotorControl/MCSDK/MCLib/Any/Src/sto_pll_speed_pos_fdbk.c ****   else
1058:MCSDK_v6.1.0-Full/MotorControl/MCSDK/MCLib/Any/Src/sto_pll_speed_pos_fdbk.c ****   {
1059:MCSDK_v6.1.0-Full/MotorControl/MCSDK/MCLib/Any/Src/sto_pll_speed_pos_fdbk.c **** #endif
1060:MCSDK_v6.1.0-Full/MotorControl/MCSDK/MCLib/Any/Src/sto_pll_speed_pos_fdbk.c ****     PID_SetIntegralTerm(&pHandle->PIRegulator, (int32_t)0);
 1999              		.loc 1 1060 5 is_stmt 1 view .LVU737
 2000 0002 0021     		movs	r1, #0
 2001 0004 3430     		adds	r0, r0, #52
ARM GAS  /tmp/ccDchrQO.s 			page 65


 2002              	.LVL225:
 2003              		.loc 1 1060 5 is_stmt 0 view .LVU738
 2004 0006 FFF7FEFF 		bl	PID_SetIntegralTerm
 2005              	.LVL226:
1061:MCSDK_v6.1.0-Full/MotorControl/MCSDK/MCLib/Any/Src/sto_pll_speed_pos_fdbk.c **** #ifdef NULL_PTR_STO_PLL_SPD_POS_FDB
1062:MCSDK_v6.1.0-Full/MotorControl/MCSDK/MCLib/Any/Src/sto_pll_speed_pos_fdbk.c ****   }
1063:MCSDK_v6.1.0-Full/MotorControl/MCSDK/MCLib/Any/Src/sto_pll_speed_pos_fdbk.c **** #endif
1064:MCSDK_v6.1.0-Full/MotorControl/MCSDK/MCLib/Any/Src/sto_pll_speed_pos_fdbk.c **** }
 2006              		.loc 1 1064 1 view .LVU739
 2007 000a 08BD     		pop	{r3, pc}
 2008              		.cfi_endproc
 2009              	.LFE1455:
 2011              		.section	.text.STO_SetPLL,"ax",%progbits
 2012              		.align	1
 2013              		.weak	STO_SetPLL
 2014              		.syntax unified
 2015              		.thumb
 2016              		.thumb_func
 2017              		.fpu fpv4-sp-d16
 2019              	STO_SetPLL:
 2020              	.LVL227:
 2021              	.LFB1456:
1065:MCSDK_v6.1.0-Full/MotorControl/MCSDK/MCLib/Any/Src/sto_pll_speed_pos_fdbk.c **** 
1066:MCSDK_v6.1.0-Full/MotorControl/MCSDK/MCLib/Any/Src/sto_pll_speed_pos_fdbk.c **** /**
1067:MCSDK_v6.1.0-Full/MotorControl/MCSDK/MCLib/Any/Src/sto_pll_speed_pos_fdbk.c ****   * @brief  Sends locking info for PLL.
1068:MCSDK_v6.1.0-Full/MotorControl/MCSDK/MCLib/Any/Src/sto_pll_speed_pos_fdbk.c ****   * 
1069:MCSDK_v6.1.0-Full/MotorControl/MCSDK/MCLib/Any/Src/sto_pll_speed_pos_fdbk.c ****   * @param  pHandle: Handler of the current instance of the STO component.
1070:MCSDK_v6.1.0-Full/MotorControl/MCSDK/MCLib/Any/Src/sto_pll_speed_pos_fdbk.c ****   * @param  hElSpeedDpp: Estimated average electrical speed expressed in dpp.
1071:MCSDK_v6.1.0-Full/MotorControl/MCSDK/MCLib/Any/Src/sto_pll_speed_pos_fdbk.c ****   * @param  hElAngle: Estimated electrical angle expressed in s16Degrees.
1072:MCSDK_v6.1.0-Full/MotorControl/MCSDK/MCLib/Any/Src/sto_pll_speed_pos_fdbk.c ****   */
1073:MCSDK_v6.1.0-Full/MotorControl/MCSDK/MCLib/Any/Src/sto_pll_speed_pos_fdbk.c **** __weak void STO_SetPLL(STO_PLL_Handle_t *pHandle, int16_t hElSpeedDpp, int16_t hElAngle)
1074:MCSDK_v6.1.0-Full/MotorControl/MCSDK/MCLib/Any/Src/sto_pll_speed_pos_fdbk.c **** {
 2022              		.loc 1 1074 1 is_stmt 1 view -0
 2023              		.cfi_startproc
 2024              		@ args = 0, pretend = 0, frame = 0
 2025              		@ frame_needed = 0, uses_anonymous_args = 0
 2026              		.loc 1 1074 1 is_stmt 0 view .LVU741
 2027 0000 F8B5     		push	{r3, r4, r5, r6, r7, lr}
 2028              		.cfi_def_cfa_offset 24
 2029              		.cfi_offset 3, -24
 2030              		.cfi_offset 4, -20
 2031              		.cfi_offset 5, -16
 2032              		.cfi_offset 6, -12
 2033              		.cfi_offset 7, -8
 2034              		.cfi_offset 14, -4
 2035 0002 0446     		mov	r4, r0
 2036 0004 0E46     		mov	r6, r1
 2037 0006 1546     		mov	r5, r2
1075:MCSDK_v6.1.0-Full/MotorControl/MCSDK/MCLib/Any/Src/sto_pll_speed_pos_fdbk.c **** #ifdef NULL_PTR_STO_PLL_SPD_POS_FDB
1076:MCSDK_v6.1.0-Full/MotorControl/MCSDK/MCLib/Any/Src/sto_pll_speed_pos_fdbk.c ****   if (MC_NULL == pHandle)
1077:MCSDK_v6.1.0-Full/MotorControl/MCSDK/MCLib/Any/Src/sto_pll_speed_pos_fdbk.c ****   {
1078:MCSDK_v6.1.0-Full/MotorControl/MCSDK/MCLib/Any/Src/sto_pll_speed_pos_fdbk.c ****     /* Nothing to do */
1079:MCSDK_v6.1.0-Full/MotorControl/MCSDK/MCLib/Any/Src/sto_pll_speed_pos_fdbk.c ****   }
1080:MCSDK_v6.1.0-Full/MotorControl/MCSDK/MCLib/Any/Src/sto_pll_speed_pos_fdbk.c ****   else
1081:MCSDK_v6.1.0-Full/MotorControl/MCSDK/MCLib/Any/Src/sto_pll_speed_pos_fdbk.c ****   {
1082:MCSDK_v6.1.0-Full/MotorControl/MCSDK/MCLib/Any/Src/sto_pll_speed_pos_fdbk.c **** #endif
1083:MCSDK_v6.1.0-Full/MotorControl/MCSDK/MCLib/Any/Src/sto_pll_speed_pos_fdbk.c ****     PID_SetIntegralTerm(&pHandle->PIRegulator, ((int32_t)hElSpeedDpp)
ARM GAS  /tmp/ccDchrQO.s 			page 66


 2038              		.loc 1 1083 5 is_stmt 1 view .LVU742
 2039 0008 00F13407 		add	r7, r0, #52
1084:MCSDK_v6.1.0-Full/MotorControl/MCSDK/MCLib/Any/Src/sto_pll_speed_pos_fdbk.c ****                                               * (int32_t)(PID_GetKIDivisor(&pHandle->PIRegulator)))
 2040              		.loc 1 1084 59 is_stmt 0 view .LVU743
 2041 000c 3846     		mov	r0, r7
 2042              	.LVL228:
 2043              		.loc 1 1084 59 view .LVU744
 2044 000e FFF7FEFF 		bl	PID_GetKIDivisor
 2045              	.LVL229:
1083:MCSDK_v6.1.0-Full/MotorControl/MCSDK/MCLib/Any/Src/sto_pll_speed_pos_fdbk.c ****                                               * (int32_t)(PID_GetKIDivisor(&pHandle->PIRegulator)))
 2046              		.loc 1 1083 5 view .LVU745
 2047 0012 00FB06F1 		mul	r1, r0, r6
 2048 0016 3846     		mov	r0, r7
 2049 0018 FFF7FEFF 		bl	PID_SetIntegralTerm
 2050              	.LVL230:
1085:MCSDK_v6.1.0-Full/MotorControl/MCSDK/MCLib/Any/Src/sto_pll_speed_pos_fdbk.c ****     pHandle->_Super.hElAngle = hElAngle;
 2051              		.loc 1 1085 5 is_stmt 1 view .LVU746
 2052              		.loc 1 1085 30 is_stmt 0 view .LVU747
 2053 001c A580     		strh	r5, [r4, #4]	@ movhi
1086:MCSDK_v6.1.0-Full/MotorControl/MCSDK/MCLib/Any/Src/sto_pll_speed_pos_fdbk.c **** #ifdef NULL_PTR_STO_PLL_SPD_POS_FDB
1087:MCSDK_v6.1.0-Full/MotorControl/MCSDK/MCLib/Any/Src/sto_pll_speed_pos_fdbk.c ****   }
1088:MCSDK_v6.1.0-Full/MotorControl/MCSDK/MCLib/Any/Src/sto_pll_speed_pos_fdbk.c **** #endif
1089:MCSDK_v6.1.0-Full/MotorControl/MCSDK/MCLib/Any/Src/sto_pll_speed_pos_fdbk.c **** }
 2054              		.loc 1 1089 1 view .LVU748
 2055 001e F8BD     		pop	{r3, r4, r5, r6, r7, pc}
 2056              		.loc 1 1089 1 view .LVU749
 2057              		.cfi_endproc
 2058              	.LFE1456:
 2060              		.section	.text.STO_PLL_GetEstimatedBemfLevel,"ax",%progbits
 2061              		.align	1
 2062              		.weak	STO_PLL_GetEstimatedBemfLevel
 2063              		.syntax unified
 2064              		.thumb
 2065              		.thumb_func
 2066              		.fpu fpv4-sp-d16
 2068              	STO_PLL_GetEstimatedBemfLevel:
 2069              	.LVL231:
 2070              	.LFB1457:
1090:MCSDK_v6.1.0-Full/MotorControl/MCSDK/MCLib/Any/Src/sto_pll_speed_pos_fdbk.c **** 
1091:MCSDK_v6.1.0-Full/MotorControl/MCSDK/MCLib/Any/Src/sto_pll_speed_pos_fdbk.c **** /**
1092:MCSDK_v6.1.0-Full/MotorControl/MCSDK/MCLib/Any/Src/sto_pll_speed_pos_fdbk.c ****   * @brief  Exports estimated Bemf squared level stored in @p pHandle.
1093:MCSDK_v6.1.0-Full/MotorControl/MCSDK/MCLib/Any/Src/sto_pll_speed_pos_fdbk.c ****   * 
1094:MCSDK_v6.1.0-Full/MotorControl/MCSDK/MCLib/Any/Src/sto_pll_speed_pos_fdbk.c ****   * @retval int32_t Magnitude of estimated Bemf Level squared based on speed measurement.
1095:MCSDK_v6.1.0-Full/MotorControl/MCSDK/MCLib/Any/Src/sto_pll_speed_pos_fdbk.c ****   */
1096:MCSDK_v6.1.0-Full/MotorControl/MCSDK/MCLib/Any/Src/sto_pll_speed_pos_fdbk.c **** __weak int32_t STO_PLL_GetEstimatedBemfLevel(STO_PLL_Handle_t *pHandle)
1097:MCSDK_v6.1.0-Full/MotorControl/MCSDK/MCLib/Any/Src/sto_pll_speed_pos_fdbk.c **** {
 2071              		.loc 1 1097 1 is_stmt 1 view -0
 2072              		.cfi_startproc
 2073              		@ args = 0, pretend = 0, frame = 0
 2074              		@ frame_needed = 0, uses_anonymous_args = 0
 2075              		@ link register save eliminated.
1098:MCSDK_v6.1.0-Full/MotorControl/MCSDK/MCLib/Any/Src/sto_pll_speed_pos_fdbk.c **** #ifdef NULL_PTR_STO_PLL_SPD_POS_FDB
1099:MCSDK_v6.1.0-Full/MotorControl/MCSDK/MCLib/Any/Src/sto_pll_speed_pos_fdbk.c ****   return ((MC_NULL == pHandle) ? 0 : pHandle->Est_Bemf_Level);
1100:MCSDK_v6.1.0-Full/MotorControl/MCSDK/MCLib/Any/Src/sto_pll_speed_pos_fdbk.c **** #else
1101:MCSDK_v6.1.0-Full/MotorControl/MCSDK/MCLib/Any/Src/sto_pll_speed_pos_fdbk.c ****   return (pHandle->Est_Bemf_Level);
 2076              		.loc 1 1101 3 view .LVU751
1102:MCSDK_v6.1.0-Full/MotorControl/MCSDK/MCLib/Any/Src/sto_pll_speed_pos_fdbk.c **** #endif
ARM GAS  /tmp/ccDchrQO.s 			page 67


1103:MCSDK_v6.1.0-Full/MotorControl/MCSDK/MCLib/Any/Src/sto_pll_speed_pos_fdbk.c **** }
 2077              		.loc 1 1103 1 is_stmt 0 view .LVU752
 2078 0000 D0F80001 		ldr	r0, [r0, #256]
 2079              	.LVL232:
 2080              		.loc 1 1103 1 view .LVU753
 2081 0004 7047     		bx	lr
 2082              		.cfi_endproc
 2083              	.LFE1457:
 2085              		.section	.text.STO_PLL_GetObservedBemfLevel,"ax",%progbits
 2086              		.align	1
 2087              		.weak	STO_PLL_GetObservedBemfLevel
 2088              		.syntax unified
 2089              		.thumb
 2090              		.thumb_func
 2091              		.fpu fpv4-sp-d16
 2093              	STO_PLL_GetObservedBemfLevel:
 2094              	.LVL233:
 2095              	.LFB1458:
1104:MCSDK_v6.1.0-Full/MotorControl/MCSDK/MCLib/Any/Src/sto_pll_speed_pos_fdbk.c **** 
1105:MCSDK_v6.1.0-Full/MotorControl/MCSDK/MCLib/Any/Src/sto_pll_speed_pos_fdbk.c **** /**
1106:MCSDK_v6.1.0-Full/MotorControl/MCSDK/MCLib/Any/Src/sto_pll_speed_pos_fdbk.c ****   * @brief  Exports observed Bemf squared level stored in @p pHandle.
1107:MCSDK_v6.1.0-Full/MotorControl/MCSDK/MCLib/Any/Src/sto_pll_speed_pos_fdbk.c ****   *
1108:MCSDK_v6.1.0-Full/MotorControl/MCSDK/MCLib/Any/Src/sto_pll_speed_pos_fdbk.c ****   * @retval int32_t Magnitude of observed Bemf level squared.
1109:MCSDK_v6.1.0-Full/MotorControl/MCSDK/MCLib/Any/Src/sto_pll_speed_pos_fdbk.c ****   */
1110:MCSDK_v6.1.0-Full/MotorControl/MCSDK/MCLib/Any/Src/sto_pll_speed_pos_fdbk.c **** __weak int32_t STO_PLL_GetObservedBemfLevel(STO_PLL_Handle_t *pHandle)
1111:MCSDK_v6.1.0-Full/MotorControl/MCSDK/MCLib/Any/Src/sto_pll_speed_pos_fdbk.c **** {
 2096              		.loc 1 1111 1 is_stmt 1 view -0
 2097              		.cfi_startproc
 2098              		@ args = 0, pretend = 0, frame = 0
 2099              		@ frame_needed = 0, uses_anonymous_args = 0
 2100              		@ link register save eliminated.
1112:MCSDK_v6.1.0-Full/MotorControl/MCSDK/MCLib/Any/Src/sto_pll_speed_pos_fdbk.c **** #ifdef NULL_PTR_STO_PLL_SPD_POS_FDB
1113:MCSDK_v6.1.0-Full/MotorControl/MCSDK/MCLib/Any/Src/sto_pll_speed_pos_fdbk.c ****   return ((MC_NULL == pHandle) ? 0 : pHandle->Obs_Bemf_Level);
1114:MCSDK_v6.1.0-Full/MotorControl/MCSDK/MCLib/Any/Src/sto_pll_speed_pos_fdbk.c **** #else
1115:MCSDK_v6.1.0-Full/MotorControl/MCSDK/MCLib/Any/Src/sto_pll_speed_pos_fdbk.c ****   return (pHandle->Obs_Bemf_Level);
 2101              		.loc 1 1115 3 view .LVU755
1116:MCSDK_v6.1.0-Full/MotorControl/MCSDK/MCLib/Any/Src/sto_pll_speed_pos_fdbk.c **** #endif
1117:MCSDK_v6.1.0-Full/MotorControl/MCSDK/MCLib/Any/Src/sto_pll_speed_pos_fdbk.c **** }
 2102              		.loc 1 1117 1 is_stmt 0 view .LVU756
 2103 0000 D0F8FC00 		ldr	r0, [r0, #252]
 2104              	.LVL234:
 2105              		.loc 1 1117 1 view .LVU757
 2106 0004 7047     		bx	lr
 2107              		.cfi_endproc
 2108              	.LFE1458:
 2110              		.section	.text.STO_PLL_BemfConsistencyCheckSwitch,"ax",%progbits
 2111              		.align	1
 2112              		.weak	STO_PLL_BemfConsistencyCheckSwitch
 2113              		.syntax unified
 2114              		.thumb
 2115              		.thumb_func
 2116              		.fpu fpv4-sp-d16
 2118              	STO_PLL_BemfConsistencyCheckSwitch:
 2119              	.LVL235:
 2120              	.LFB1459:
1118:MCSDK_v6.1.0-Full/MotorControl/MCSDK/MCLib/Any/Src/sto_pll_speed_pos_fdbk.c **** 
1119:MCSDK_v6.1.0-Full/MotorControl/MCSDK/MCLib/Any/Src/sto_pll_speed_pos_fdbk.c **** /**
ARM GAS  /tmp/ccDchrQO.s 			page 68


1120:MCSDK_v6.1.0-Full/MotorControl/MCSDK/MCLib/Any/Src/sto_pll_speed_pos_fdbk.c ****   * @brief  Enables/Disables additional reliability check based on observed Bemf.
1121:MCSDK_v6.1.0-Full/MotorControl/MCSDK/MCLib/Any/Src/sto_pll_speed_pos_fdbk.c ****   * 
1122:MCSDK_v6.1.0-Full/MotorControl/MCSDK/MCLib/Any/Src/sto_pll_speed_pos_fdbk.c ****   * @param  pHandle: Handler of the current instance of the STO component.
1123:MCSDK_v6.1.0-Full/MotorControl/MCSDK/MCLib/Any/Src/sto_pll_speed_pos_fdbk.c ****   * @param  bSel Enable/Disable check.
1124:MCSDK_v6.1.0-Full/MotorControl/MCSDK/MCLib/Any/Src/sto_pll_speed_pos_fdbk.c ****   */
1125:MCSDK_v6.1.0-Full/MotorControl/MCSDK/MCLib/Any/Src/sto_pll_speed_pos_fdbk.c **** __weak void STO_PLL_BemfConsistencyCheckSwitch(STO_PLL_Handle_t *pHandle, bool bSel)
1126:MCSDK_v6.1.0-Full/MotorControl/MCSDK/MCLib/Any/Src/sto_pll_speed_pos_fdbk.c **** {
 2121              		.loc 1 1126 1 is_stmt 1 view -0
 2122              		.cfi_startproc
 2123              		@ args = 0, pretend = 0, frame = 0
 2124              		@ frame_needed = 0, uses_anonymous_args = 0
 2125              		@ link register save eliminated.
1127:MCSDK_v6.1.0-Full/MotorControl/MCSDK/MCLib/Any/Src/sto_pll_speed_pos_fdbk.c **** #ifdef NULL_PTR_STO_PLL_SPD_POS_FDB
1128:MCSDK_v6.1.0-Full/MotorControl/MCSDK/MCLib/Any/Src/sto_pll_speed_pos_fdbk.c ****   if (MC_NULL == pHandle)
1129:MCSDK_v6.1.0-Full/MotorControl/MCSDK/MCLib/Any/Src/sto_pll_speed_pos_fdbk.c ****   {
1130:MCSDK_v6.1.0-Full/MotorControl/MCSDK/MCLib/Any/Src/sto_pll_speed_pos_fdbk.c ****     /* Nothing to do */
1131:MCSDK_v6.1.0-Full/MotorControl/MCSDK/MCLib/Any/Src/sto_pll_speed_pos_fdbk.c ****   }
1132:MCSDK_v6.1.0-Full/MotorControl/MCSDK/MCLib/Any/Src/sto_pll_speed_pos_fdbk.c ****   else
1133:MCSDK_v6.1.0-Full/MotorControl/MCSDK/MCLib/Any/Src/sto_pll_speed_pos_fdbk.c ****   {
1134:MCSDK_v6.1.0-Full/MotorControl/MCSDK/MCLib/Any/Src/sto_pll_speed_pos_fdbk.c **** #endif
1135:MCSDK_v6.1.0-Full/MotorControl/MCSDK/MCLib/Any/Src/sto_pll_speed_pos_fdbk.c ****     pHandle->EnableDualCheck = bSel;
 2126              		.loc 1 1135 5 view .LVU759
 2127              		.loc 1 1135 30 is_stmt 0 view .LVU760
 2128 0000 80F80411 		strb	r1, [r0, #260]
1136:MCSDK_v6.1.0-Full/MotorControl/MCSDK/MCLib/Any/Src/sto_pll_speed_pos_fdbk.c **** #ifdef NULL_PTR_STO_PLL_SPD_POS_FDB
1137:MCSDK_v6.1.0-Full/MotorControl/MCSDK/MCLib/Any/Src/sto_pll_speed_pos_fdbk.c ****   }
1138:MCSDK_v6.1.0-Full/MotorControl/MCSDK/MCLib/Any/Src/sto_pll_speed_pos_fdbk.c **** #endif
1139:MCSDK_v6.1.0-Full/MotorControl/MCSDK/MCLib/Any/Src/sto_pll_speed_pos_fdbk.c **** }
 2129              		.loc 1 1139 1 view .LVU761
 2130 0004 7047     		bx	lr
 2131              		.cfi_endproc
 2132              	.LFE1459:
 2134              		.section	.text.STO_PLL_IsBemfConsistent,"ax",%progbits
 2135              		.align	1
 2136              		.weak	STO_PLL_IsBemfConsistent
 2137              		.syntax unified
 2138              		.thumb
 2139              		.thumb_func
 2140              		.fpu fpv4-sp-d16
 2142              	STO_PLL_IsBemfConsistent:
 2143              	.LVL236:
 2144              	.LFB1460:
1140:MCSDK_v6.1.0-Full/MotorControl/MCSDK/MCLib/Any/Src/sto_pll_speed_pos_fdbk.c **** 
1141:MCSDK_v6.1.0-Full/MotorControl/MCSDK/MCLib/Any/Src/sto_pll_speed_pos_fdbk.c **** /**
1142:MCSDK_v6.1.0-Full/MotorControl/MCSDK/MCLib/Any/Src/sto_pll_speed_pos_fdbk.c ****   * @brief  Checks if the Bemf is consistent.
1143:MCSDK_v6.1.0-Full/MotorControl/MCSDK/MCLib/Any/Src/sto_pll_speed_pos_fdbk.c ****   * 
1144:MCSDK_v6.1.0-Full/MotorControl/MCSDK/MCLib/Any/Src/sto_pll_speed_pos_fdbk.c ****   * @param  pHandle: Handler of the current instance of the STO component.
1145:MCSDK_v6.1.0-Full/MotorControl/MCSDK/MCLib/Any/Src/sto_pll_speed_pos_fdbk.c ****   * @retval bool True when observed Bemfs are consistent with expectation, false otherwise.
1146:MCSDK_v6.1.0-Full/MotorControl/MCSDK/MCLib/Any/Src/sto_pll_speed_pos_fdbk.c ****   */
1147:MCSDK_v6.1.0-Full/MotorControl/MCSDK/MCLib/Any/Src/sto_pll_speed_pos_fdbk.c **** __weak bool STO_PLL_IsBemfConsistent(STO_PLL_Handle_t *pHandle)
1148:MCSDK_v6.1.0-Full/MotorControl/MCSDK/MCLib/Any/Src/sto_pll_speed_pos_fdbk.c **** {
 2145              		.loc 1 1148 1 is_stmt 1 view -0
 2146              		.cfi_startproc
 2147              		@ args = 0, pretend = 0, frame = 0
 2148              		@ frame_needed = 0, uses_anonymous_args = 0
 2149              		@ link register save eliminated.
1149:MCSDK_v6.1.0-Full/MotorControl/MCSDK/MCLib/Any/Src/sto_pll_speed_pos_fdbk.c **** #ifdef NULL_PTR_STO_PLL_SPD_POS_FDB
ARM GAS  /tmp/ccDchrQO.s 			page 69


1150:MCSDK_v6.1.0-Full/MotorControl/MCSDK/MCLib/Any/Src/sto_pll_speed_pos_fdbk.c ****   return ((MC_NULL == pHandle) ? false : pHandle->IsBemfConsistent);
1151:MCSDK_v6.1.0-Full/MotorControl/MCSDK/MCLib/Any/Src/sto_pll_speed_pos_fdbk.c **** #else
1152:MCSDK_v6.1.0-Full/MotorControl/MCSDK/MCLib/Any/Src/sto_pll_speed_pos_fdbk.c ****   return (pHandle->IsBemfConsistent);
 2150              		.loc 1 1152 3 view .LVU763
1153:MCSDK_v6.1.0-Full/MotorControl/MCSDK/MCLib/Any/Src/sto_pll_speed_pos_fdbk.c **** #endif
1154:MCSDK_v6.1.0-Full/MotorControl/MCSDK/MCLib/Any/Src/sto_pll_speed_pos_fdbk.c **** }
 2151              		.loc 1 1154 1 is_stmt 0 view .LVU764
 2152 0000 90F8F900 		ldrb	r0, [r0, #249]	@ zero_extendqisi2
 2153              	.LVL237:
 2154              		.loc 1 1154 1 view .LVU765
 2155 0004 7047     		bx	lr
 2156              		.cfi_endproc
 2157              	.LFE1460:
 2159              		.section	.text.STO_PLL_IsVarianceTight,"ax",%progbits
 2160              		.align	1
 2161              		.weak	STO_PLL_IsVarianceTight
 2162              		.syntax unified
 2163              		.thumb
 2164              		.thumb_func
 2165              		.fpu fpv4-sp-d16
 2167              	STO_PLL_IsVarianceTight:
 2168              	.LVL238:
 2169              	.LFB1461:
1155:MCSDK_v6.1.0-Full/MotorControl/MCSDK/MCLib/Any/Src/sto_pll_speed_pos_fdbk.c **** 
1156:MCSDK_v6.1.0-Full/MotorControl/MCSDK/MCLib/Any/Src/sto_pll_speed_pos_fdbk.c **** /**
1157:MCSDK_v6.1.0-Full/MotorControl/MCSDK/MCLib/Any/Src/sto_pll_speed_pos_fdbk.c ****   * @brief  Checks the value of the variance.
1158:MCSDK_v6.1.0-Full/MotorControl/MCSDK/MCLib/Any/Src/sto_pll_speed_pos_fdbk.c ****   * 
1159:MCSDK_v6.1.0-Full/MotorControl/MCSDK/MCLib/Any/Src/sto_pll_speed_pos_fdbk.c ****   * @param  pHandle: Handler of the current instance of the STO component.
1160:MCSDK_v6.1.0-Full/MotorControl/MCSDK/MCLib/Any/Src/sto_pll_speed_pos_fdbk.c ****   * @retval bool True if the speed measurement variance is lower than threshold VariancePercentage,
1161:MCSDK_v6.1.0-Full/MotorControl/MCSDK/MCLib/Any/Src/sto_pll_speed_pos_fdbk.c ****   */
1162:MCSDK_v6.1.0-Full/MotorControl/MCSDK/MCLib/Any/Src/sto_pll_speed_pos_fdbk.c **** __weak bool STO_PLL_IsVarianceTight(const STO_Handle_t *pHandle)
1163:MCSDK_v6.1.0-Full/MotorControl/MCSDK/MCLib/Any/Src/sto_pll_speed_pos_fdbk.c **** {
 2170              		.loc 1 1163 1 is_stmt 1 view -0
 2171              		.cfi_startproc
 2172              		@ args = 0, pretend = 0, frame = 0
 2173              		@ frame_needed = 0, uses_anonymous_args = 0
 2174              		@ link register save eliminated.
1164:MCSDK_v6.1.0-Full/MotorControl/MCSDK/MCLib/Any/Src/sto_pll_speed_pos_fdbk.c ****   bool tempStatus;
 2175              		.loc 1 1164 3 view .LVU767
1165:MCSDK_v6.1.0-Full/MotorControl/MCSDK/MCLib/Any/Src/sto_pll_speed_pos_fdbk.c **** #ifdef NULL_PTR_STO_PLL_SPD_POS_FDB
1166:MCSDK_v6.1.0-Full/MotorControl/MCSDK/MCLib/Any/Src/sto_pll_speed_pos_fdbk.c ****   if (MC_NULL == pHandle)
1167:MCSDK_v6.1.0-Full/MotorControl/MCSDK/MCLib/Any/Src/sto_pll_speed_pos_fdbk.c ****   {
1168:MCSDK_v6.1.0-Full/MotorControl/MCSDK/MCLib/Any/Src/sto_pll_speed_pos_fdbk.c ****     tempStatus = false;
1169:MCSDK_v6.1.0-Full/MotorControl/MCSDK/MCLib/Any/Src/sto_pll_speed_pos_fdbk.c ****   }
1170:MCSDK_v6.1.0-Full/MotorControl/MCSDK/MCLib/Any/Src/sto_pll_speed_pos_fdbk.c ****   else
1171:MCSDK_v6.1.0-Full/MotorControl/MCSDK/MCLib/Any/Src/sto_pll_speed_pos_fdbk.c ****   {
1172:MCSDK_v6.1.0-Full/MotorControl/MCSDK/MCLib/Any/Src/sto_pll_speed_pos_fdbk.c **** #endif
1173:MCSDK_v6.1.0-Full/MotorControl/MCSDK/MCLib/Any/Src/sto_pll_speed_pos_fdbk.c ****     STO_PLL_Handle_t *pHdl = (STO_PLL_Handle_t *)pHandle->_Super; //cstat !MISRAC2012-Rule-11.3
 2176              		.loc 1 1173 5 view .LVU768
 2177              		.loc 1 1173 23 is_stmt 0 view .LVU769
 2178 0000 0368     		ldr	r3, [r0]
 2179              	.LVL239:
1174:MCSDK_v6.1.0-Full/MotorControl/MCSDK/MCLib/Any/Src/sto_pll_speed_pos_fdbk.c ****     tempStatus = pHdl->IsSpeedReliable;
 2180              		.loc 1 1174 5 is_stmt 1 view .LVU770
1175:MCSDK_v6.1.0-Full/MotorControl/MCSDK/MCLib/Any/Src/sto_pll_speed_pos_fdbk.c **** #ifdef NULL_PTR_STO_PLL_SPD_POS_FDB
1176:MCSDK_v6.1.0-Full/MotorControl/MCSDK/MCLib/Any/Src/sto_pll_speed_pos_fdbk.c ****   }
1177:MCSDK_v6.1.0-Full/MotorControl/MCSDK/MCLib/Any/Src/sto_pll_speed_pos_fdbk.c **** #endif
ARM GAS  /tmp/ccDchrQO.s 			page 70


1178:MCSDK_v6.1.0-Full/MotorControl/MCSDK/MCLib/Any/Src/sto_pll_speed_pos_fdbk.c ****   return (tempStatus);
 2181              		.loc 1 1178 3 view .LVU771
1179:MCSDK_v6.1.0-Full/MotorControl/MCSDK/MCLib/Any/Src/sto_pll_speed_pos_fdbk.c **** }
 2182              		.loc 1 1179 1 is_stmt 0 view .LVU772
 2183 0002 93F8F500 		ldrb	r0, [r3, #245]	@ zero_extendqisi2
 2184              	.LVL240:
 2185              		.loc 1 1179 1 view .LVU773
 2186 0006 7047     		bx	lr
 2187              		.cfi_endproc
 2188              	.LFE1461:
 2190              		.section	.text.STO_PLL_ForceConvergency1,"ax",%progbits
 2191              		.align	1
 2192              		.weak	STO_PLL_ForceConvergency1
 2193              		.syntax unified
 2194              		.thumb
 2195              		.thumb_func
 2196              		.fpu fpv4-sp-d16
 2198              	STO_PLL_ForceConvergency1:
 2199              	.LVL241:
 2200              	.LFB1462:
1180:MCSDK_v6.1.0-Full/MotorControl/MCSDK/MCLib/Any/Src/sto_pll_speed_pos_fdbk.c **** 
1181:MCSDK_v6.1.0-Full/MotorControl/MCSDK/MCLib/Any/Src/sto_pll_speed_pos_fdbk.c **** /**
1182:MCSDK_v6.1.0-Full/MotorControl/MCSDK/MCLib/Any/Src/sto_pll_speed_pos_fdbk.c ****   * @brief  Forces the state-observer to declare convergency.
1183:MCSDK_v6.1.0-Full/MotorControl/MCSDK/MCLib/Any/Src/sto_pll_speed_pos_fdbk.c ****   * 
1184:MCSDK_v6.1.0-Full/MotorControl/MCSDK/MCLib/Any/Src/sto_pll_speed_pos_fdbk.c ****   * @param  pHandle: Handler of the current instance of the STO component.
1185:MCSDK_v6.1.0-Full/MotorControl/MCSDK/MCLib/Any/Src/sto_pll_speed_pos_fdbk.c ****   */
1186:MCSDK_v6.1.0-Full/MotorControl/MCSDK/MCLib/Any/Src/sto_pll_speed_pos_fdbk.c **** __weak void STO_PLL_ForceConvergency1(STO_Handle_t *pHandle)
1187:MCSDK_v6.1.0-Full/MotorControl/MCSDK/MCLib/Any/Src/sto_pll_speed_pos_fdbk.c **** {
 2201              		.loc 1 1187 1 is_stmt 1 view -0
 2202              		.cfi_startproc
 2203              		@ args = 0, pretend = 0, frame = 0
 2204              		@ frame_needed = 0, uses_anonymous_args = 0
 2205              		@ link register save eliminated.
1188:MCSDK_v6.1.0-Full/MotorControl/MCSDK/MCLib/Any/Src/sto_pll_speed_pos_fdbk.c **** #ifdef NULL_PTR_STO_PLL_SPD_POS_FDB
1189:MCSDK_v6.1.0-Full/MotorControl/MCSDK/MCLib/Any/Src/sto_pll_speed_pos_fdbk.c ****   if (MC_NULL == pHandle)
1190:MCSDK_v6.1.0-Full/MotorControl/MCSDK/MCLib/Any/Src/sto_pll_speed_pos_fdbk.c ****   {
1191:MCSDK_v6.1.0-Full/MotorControl/MCSDK/MCLib/Any/Src/sto_pll_speed_pos_fdbk.c ****     /* Nothing to do */
1192:MCSDK_v6.1.0-Full/MotorControl/MCSDK/MCLib/Any/Src/sto_pll_speed_pos_fdbk.c ****   }
1193:MCSDK_v6.1.0-Full/MotorControl/MCSDK/MCLib/Any/Src/sto_pll_speed_pos_fdbk.c ****   else
1194:MCSDK_v6.1.0-Full/MotorControl/MCSDK/MCLib/Any/Src/sto_pll_speed_pos_fdbk.c ****   {
1195:MCSDK_v6.1.0-Full/MotorControl/MCSDK/MCLib/Any/Src/sto_pll_speed_pos_fdbk.c **** #endif
1196:MCSDK_v6.1.0-Full/MotorControl/MCSDK/MCLib/Any/Src/sto_pll_speed_pos_fdbk.c ****     STO_PLL_Handle_t *pHdl = (STO_PLL_Handle_t *)pHandle->_Super; //cstat !MISRAC2012-Rule-11.3
 2206              		.loc 1 1196 5 view .LVU775
 2207              		.loc 1 1196 23 is_stmt 0 view .LVU776
 2208 0000 0368     		ldr	r3, [r0]
 2209              	.LVL242:
1197:MCSDK_v6.1.0-Full/MotorControl/MCSDK/MCLib/Any/Src/sto_pll_speed_pos_fdbk.c ****     pHdl->ForceConvergency = true;
 2210              		.loc 1 1197 5 is_stmt 1 view .LVU777
 2211              		.loc 1 1197 28 is_stmt 0 view .LVU778
 2212 0002 0122     		movs	r2, #1
 2213 0004 83F82221 		strb	r2, [r3, #290]
1198:MCSDK_v6.1.0-Full/MotorControl/MCSDK/MCLib/Any/Src/sto_pll_speed_pos_fdbk.c **** #ifdef NULL_PTR_STO_PLL_SPD_POS_FDB
1199:MCSDK_v6.1.0-Full/MotorControl/MCSDK/MCLib/Any/Src/sto_pll_speed_pos_fdbk.c ****   }
1200:MCSDK_v6.1.0-Full/MotorControl/MCSDK/MCLib/Any/Src/sto_pll_speed_pos_fdbk.c **** #endif
1201:MCSDK_v6.1.0-Full/MotorControl/MCSDK/MCLib/Any/Src/sto_pll_speed_pos_fdbk.c **** }
 2214              		.loc 1 1201 1 view .LVU779
 2215 0008 7047     		bx	lr
ARM GAS  /tmp/ccDchrQO.s 			page 71


 2216              		.cfi_endproc
 2217              	.LFE1462:
 2219              		.section	.text.STO_PLL_ForceConvergency2,"ax",%progbits
 2220              		.align	1
 2221              		.weak	STO_PLL_ForceConvergency2
 2222              		.syntax unified
 2223              		.thumb
 2224              		.thumb_func
 2225              		.fpu fpv4-sp-d16
 2227              	STO_PLL_ForceConvergency2:
 2228              	.LVL243:
 2229              	.LFB1463:
1202:MCSDK_v6.1.0-Full/MotorControl/MCSDK/MCLib/Any/Src/sto_pll_speed_pos_fdbk.c **** 
1203:MCSDK_v6.1.0-Full/MotorControl/MCSDK/MCLib/Any/Src/sto_pll_speed_pos_fdbk.c **** /**
1204:MCSDK_v6.1.0-Full/MotorControl/MCSDK/MCLib/Any/Src/sto_pll_speed_pos_fdbk.c ****   * @brief  Forces the state-observer to declare convergency.
1205:MCSDK_v6.1.0-Full/MotorControl/MCSDK/MCLib/Any/Src/sto_pll_speed_pos_fdbk.c ****   * 
1206:MCSDK_v6.1.0-Full/MotorControl/MCSDK/MCLib/Any/Src/sto_pll_speed_pos_fdbk.c ****   * @param  pHandle: Handler of the current instance of the STO component.
1207:MCSDK_v6.1.0-Full/MotorControl/MCSDK/MCLib/Any/Src/sto_pll_speed_pos_fdbk.c ****   */
1208:MCSDK_v6.1.0-Full/MotorControl/MCSDK/MCLib/Any/Src/sto_pll_speed_pos_fdbk.c **** __weak void STO_PLL_ForceConvergency2(STO_Handle_t *pHandle)
1209:MCSDK_v6.1.0-Full/MotorControl/MCSDK/MCLib/Any/Src/sto_pll_speed_pos_fdbk.c **** {
 2230              		.loc 1 1209 1 is_stmt 1 view -0
 2231              		.cfi_startproc
 2232              		@ args = 0, pretend = 0, frame = 0
 2233              		@ frame_needed = 0, uses_anonymous_args = 0
 2234              		@ link register save eliminated.
1210:MCSDK_v6.1.0-Full/MotorControl/MCSDK/MCLib/Any/Src/sto_pll_speed_pos_fdbk.c **** #ifdef NULL_PTR_STO_PLL_SPD_POS_FDB
1211:MCSDK_v6.1.0-Full/MotorControl/MCSDK/MCLib/Any/Src/sto_pll_speed_pos_fdbk.c ****   if (MC_NULL == pHandle)
1212:MCSDK_v6.1.0-Full/MotorControl/MCSDK/MCLib/Any/Src/sto_pll_speed_pos_fdbk.c ****   {
1213:MCSDK_v6.1.0-Full/MotorControl/MCSDK/MCLib/Any/Src/sto_pll_speed_pos_fdbk.c ****     /* Nothing to do */
1214:MCSDK_v6.1.0-Full/MotorControl/MCSDK/MCLib/Any/Src/sto_pll_speed_pos_fdbk.c ****   }
1215:MCSDK_v6.1.0-Full/MotorControl/MCSDK/MCLib/Any/Src/sto_pll_speed_pos_fdbk.c ****   else
1216:MCSDK_v6.1.0-Full/MotorControl/MCSDK/MCLib/Any/Src/sto_pll_speed_pos_fdbk.c ****   {
1217:MCSDK_v6.1.0-Full/MotorControl/MCSDK/MCLib/Any/Src/sto_pll_speed_pos_fdbk.c **** #endif
1218:MCSDK_v6.1.0-Full/MotorControl/MCSDK/MCLib/Any/Src/sto_pll_speed_pos_fdbk.c ****     STO_PLL_Handle_t *pHdl = (STO_PLL_Handle_t *)pHandle->_Super; //cstat !MISRAC2012-Rule-11.3
 2235              		.loc 1 1218 5 view .LVU781
 2236              		.loc 1 1218 23 is_stmt 0 view .LVU782
 2237 0000 0368     		ldr	r3, [r0]
 2238              	.LVL244:
1219:MCSDK_v6.1.0-Full/MotorControl/MCSDK/MCLib/Any/Src/sto_pll_speed_pos_fdbk.c ****     pHdl->ForceConvergency2 = true;
 2239              		.loc 1 1219 5 is_stmt 1 view .LVU783
 2240              		.loc 1 1219 29 is_stmt 0 view .LVU784
 2241 0002 0122     		movs	r2, #1
 2242 0004 83F82321 		strb	r2, [r3, #291]
1220:MCSDK_v6.1.0-Full/MotorControl/MCSDK/MCLib/Any/Src/sto_pll_speed_pos_fdbk.c **** #ifdef NULL_PTR_STO_PLL_SPD_POS_FDB
1221:MCSDK_v6.1.0-Full/MotorControl/MCSDK/MCLib/Any/Src/sto_pll_speed_pos_fdbk.c ****   }
1222:MCSDK_v6.1.0-Full/MotorControl/MCSDK/MCLib/Any/Src/sto_pll_speed_pos_fdbk.c **** #endif
1223:MCSDK_v6.1.0-Full/MotorControl/MCSDK/MCLib/Any/Src/sto_pll_speed_pos_fdbk.c **** }
 2243              		.loc 1 1223 1 view .LVU785
 2244 0008 7047     		bx	lr
 2245              		.cfi_endproc
 2246              	.LFE1463:
 2248              		.section	.text.STO_SetMinStartUpValidSpeedUnit,"ax",%progbits
 2249              		.align	1
 2250              		.weak	STO_SetMinStartUpValidSpeedUnit
 2251              		.syntax unified
 2252              		.thumb
 2253              		.thumb_func
ARM GAS  /tmp/ccDchrQO.s 			page 72


 2254              		.fpu fpv4-sp-d16
 2256              	STO_SetMinStartUpValidSpeedUnit:
 2257              	.LVL245:
 2258              	.LFB1464:
1224:MCSDK_v6.1.0-Full/MotorControl/MCSDK/MCLib/Any/Src/sto_pll_speed_pos_fdbk.c **** 
1225:MCSDK_v6.1.0-Full/MotorControl/MCSDK/MCLib/Any/Src/sto_pll_speed_pos_fdbk.c **** /**
1226:MCSDK_v6.1.0-Full/MotorControl/MCSDK/MCLib/Any/Src/sto_pll_speed_pos_fdbk.c ****   * @brief  Sets the Absolute value of minimum mechanical speed (expressed in
1227:MCSDK_v6.1.0-Full/MotorControl/MCSDK/MCLib/Any/Src/sto_pll_speed_pos_fdbk.c ****   *         the unit defined by #SPEED_UNIT) required to validate the start-up.
1228:MCSDK_v6.1.0-Full/MotorControl/MCSDK/MCLib/Any/Src/sto_pll_speed_pos_fdbk.c ****   * 
1229:MCSDK_v6.1.0-Full/MotorControl/MCSDK/MCLib/Any/Src/sto_pll_speed_pos_fdbk.c ****   * @param  pHandle: Handler of the current instance of the STO component.
1230:MCSDK_v6.1.0-Full/MotorControl/MCSDK/MCLib/Any/Src/sto_pll_speed_pos_fdbk.c ****   * @param  hMinStartUpValidSpeed: Absolute value of minimum mechanical speed.
1231:MCSDK_v6.1.0-Full/MotorControl/MCSDK/MCLib/Any/Src/sto_pll_speed_pos_fdbk.c ****   */
1232:MCSDK_v6.1.0-Full/MotorControl/MCSDK/MCLib/Any/Src/sto_pll_speed_pos_fdbk.c **** __weak void STO_SetMinStartUpValidSpeedUnit(STO_PLL_Handle_t *pHandle, uint16_t hMinStartUpValidSpe
1233:MCSDK_v6.1.0-Full/MotorControl/MCSDK/MCLib/Any/Src/sto_pll_speed_pos_fdbk.c **** {
 2259              		.loc 1 1233 1 is_stmt 1 view -0
 2260              		.cfi_startproc
 2261              		@ args = 0, pretend = 0, frame = 0
 2262              		@ frame_needed = 0, uses_anonymous_args = 0
 2263              		@ link register save eliminated.
1234:MCSDK_v6.1.0-Full/MotorControl/MCSDK/MCLib/Any/Src/sto_pll_speed_pos_fdbk.c **** #ifdef NULL_PTR_STO_PLL_SPD_POS_FDB
1235:MCSDK_v6.1.0-Full/MotorControl/MCSDK/MCLib/Any/Src/sto_pll_speed_pos_fdbk.c ****   if (MC_NULL == pHandle)
1236:MCSDK_v6.1.0-Full/MotorControl/MCSDK/MCLib/Any/Src/sto_pll_speed_pos_fdbk.c ****   {
1237:MCSDK_v6.1.0-Full/MotorControl/MCSDK/MCLib/Any/Src/sto_pll_speed_pos_fdbk.c ****     /* Nothing to do */
1238:MCSDK_v6.1.0-Full/MotorControl/MCSDK/MCLib/Any/Src/sto_pll_speed_pos_fdbk.c ****   }
1239:MCSDK_v6.1.0-Full/MotorControl/MCSDK/MCLib/Any/Src/sto_pll_speed_pos_fdbk.c ****   else
1240:MCSDK_v6.1.0-Full/MotorControl/MCSDK/MCLib/Any/Src/sto_pll_speed_pos_fdbk.c ****   {
1241:MCSDK_v6.1.0-Full/MotorControl/MCSDK/MCLib/Any/Src/sto_pll_speed_pos_fdbk.c **** #endif
1242:MCSDK_v6.1.0-Full/MotorControl/MCSDK/MCLib/Any/Src/sto_pll_speed_pos_fdbk.c ****     pHandle->MinStartUpValidSpeed = hMinStartUpValidSpeed;
 2264              		.loc 1 1242 5 view .LVU787
 2265              		.loc 1 1242 35 is_stmt 0 view .LVU788
 2266 0000 A0F81411 		strh	r1, [r0, #276]	@ movhi
1243:MCSDK_v6.1.0-Full/MotorControl/MCSDK/MCLib/Any/Src/sto_pll_speed_pos_fdbk.c **** #ifdef NULL_PTR_STO_PLL_SPD_POS_FDB
1244:MCSDK_v6.1.0-Full/MotorControl/MCSDK/MCLib/Any/Src/sto_pll_speed_pos_fdbk.c ****   }
1245:MCSDK_v6.1.0-Full/MotorControl/MCSDK/MCLib/Any/Src/sto_pll_speed_pos_fdbk.c **** #endif
1246:MCSDK_v6.1.0-Full/MotorControl/MCSDK/MCLib/Any/Src/sto_pll_speed_pos_fdbk.c **** }
 2267              		.loc 1 1246 1 view .LVU789
 2268 0004 7047     		bx	lr
 2269              		.cfi_endproc
 2270              	.LFE1464:
 2272              		.section	.text.STO_SetDirection,"ax",%progbits
 2273              		.align	1
 2274              		.weak	STO_SetDirection
 2275              		.syntax unified
 2276              		.thumb
 2277              		.thumb_func
 2278              		.fpu fpv4-sp-d16
 2280              	STO_SetDirection:
 2281              	.LVL246:
 2282              	.LFB1465:
1247:MCSDK_v6.1.0-Full/MotorControl/MCSDK/MCLib/Any/Src/sto_pll_speed_pos_fdbk.c **** 
1248:MCSDK_v6.1.0-Full/MotorControl/MCSDK/MCLib/Any/Src/sto_pll_speed_pos_fdbk.c **** /**
1249:MCSDK_v6.1.0-Full/MotorControl/MCSDK/MCLib/Any/Src/sto_pll_speed_pos_fdbk.c ****   * @brief  Sets the rotation @p direction in @p pHandle.
1250:MCSDK_v6.1.0-Full/MotorControl/MCSDK/MCLib/Any/Src/sto_pll_speed_pos_fdbk.c ****   */
1251:MCSDK_v6.1.0-Full/MotorControl/MCSDK/MCLib/Any/Src/sto_pll_speed_pos_fdbk.c **** __weak void STO_SetDirection(STO_PLL_Handle_t *pHandle, int8_t direction)
1252:MCSDK_v6.1.0-Full/MotorControl/MCSDK/MCLib/Any/Src/sto_pll_speed_pos_fdbk.c **** {
 2283              		.loc 1 1252 1 is_stmt 1 view -0
 2284              		.cfi_startproc
ARM GAS  /tmp/ccDchrQO.s 			page 73


 2285              		@ args = 0, pretend = 0, frame = 0
 2286              		@ frame_needed = 0, uses_anonymous_args = 0
 2287              		@ link register save eliminated.
1253:MCSDK_v6.1.0-Full/MotorControl/MCSDK/MCLib/Any/Src/sto_pll_speed_pos_fdbk.c **** #ifdef NULL_PTR_STO_PLL_SPD_POS_FDB
1254:MCSDK_v6.1.0-Full/MotorControl/MCSDK/MCLib/Any/Src/sto_pll_speed_pos_fdbk.c ****   if (MC_NULL == pHandle)
1255:MCSDK_v6.1.0-Full/MotorControl/MCSDK/MCLib/Any/Src/sto_pll_speed_pos_fdbk.c ****   {
1256:MCSDK_v6.1.0-Full/MotorControl/MCSDK/MCLib/Any/Src/sto_pll_speed_pos_fdbk.c ****     /* Nothing to do */
1257:MCSDK_v6.1.0-Full/MotorControl/MCSDK/MCLib/Any/Src/sto_pll_speed_pos_fdbk.c ****   }
1258:MCSDK_v6.1.0-Full/MotorControl/MCSDK/MCLib/Any/Src/sto_pll_speed_pos_fdbk.c ****   else
1259:MCSDK_v6.1.0-Full/MotorControl/MCSDK/MCLib/Any/Src/sto_pll_speed_pos_fdbk.c ****   {
1260:MCSDK_v6.1.0-Full/MotorControl/MCSDK/MCLib/Any/Src/sto_pll_speed_pos_fdbk.c **** #endif
1261:MCSDK_v6.1.0-Full/MotorControl/MCSDK/MCLib/Any/Src/sto_pll_speed_pos_fdbk.c ****     pHandle->hForcedDirection = direction;
 2288              		.loc 1 1261 5 view .LVU791
 2289              		.loc 1 1261 31 is_stmt 0 view .LVU792
 2290 0000 80F82411 		strb	r1, [r0, #292]
1262:MCSDK_v6.1.0-Full/MotorControl/MCSDK/MCLib/Any/Src/sto_pll_speed_pos_fdbk.c **** #ifdef NULL_PTR_STO_PLL_SPD_POS_FDB
1263:MCSDK_v6.1.0-Full/MotorControl/MCSDK/MCLib/Any/Src/sto_pll_speed_pos_fdbk.c ****   }
1264:MCSDK_v6.1.0-Full/MotorControl/MCSDK/MCLib/Any/Src/sto_pll_speed_pos_fdbk.c **** #endif
1265:MCSDK_v6.1.0-Full/MotorControl/MCSDK/MCLib/Any/Src/sto_pll_speed_pos_fdbk.c **** }
 2291              		.loc 1 1265 1 view .LVU793
 2292 0004 7047     		bx	lr
 2293              		.cfi_endproc
 2294              	.LFE1465:
 2296              		.text
 2297              	.Letext0:
 2298              		.file 2 "/usr/lib/gcc/arm-none-eabi/9.2.1/include/stdint.h"
 2299              		.file 3 "Drivers/CMSIS/Include/core_cm4.h"
 2300              		.file 4 "Drivers/CMSIS/Device/ST/STM32G4xx/Include/system_stm32g4xx.h"
 2301              		.file 5 "Drivers/STM32G4xx_HAL_Driver/Inc/stm32g4xx_hal_def.h"
 2302              		.file 6 "Drivers/STM32G4xx_HAL_Driver/Inc/stm32g4xx_hal_flash.h"
 2303              		.file 7 "Drivers/STM32G4xx_HAL_Driver/Inc/stm32g4xx_hal.h"
 2304              		.file 8 "Drivers/STM32G4xx_HAL_Driver/Inc/stm32g4xx_ll_tim.h"
 2305              		.file 9 "Drivers/STM32G4xx_HAL_Driver/Inc/stm32g4xx_ll_usart.h"
 2306              		.file 10 "Drivers/STM32G4xx_HAL_Driver/Inc/stm32g4xx_ll_dma.h"
 2307              		.file 11 "MCSDK_v6.1.0-Full/MotorControl/MCSDK/MCLib/Any/Inc/mc_type.h"
 2308              		.file 12 "MCSDK_v6.1.0-Full/MotorControl/MCSDK/MCLib/Any/Inc/speed_pos_fdbk.h"
 2309              		.file 13 "MCSDK_v6.1.0-Full/MotorControl/MCSDK/MCLib/Any/Inc/sto_speed_pos_fdbk.h"
 2310              		.file 14 "MCSDK_v6.1.0-Full/MotorControl/MCSDK/MCLib/Any/Inc/pid_regulator.h"
 2311              		.file 15 "MCSDK_v6.1.0-Full/MotorControl/MCSDK/MCLib/Any/Inc/sto_pll_speed_pos_fdbk.h"
 2312              		.file 16 "Inc/mc_math.h"
ARM GAS  /tmp/ccDchrQO.s 			page 74


DEFINED SYMBOLS
                            *ABS*:0000000000000000 sto_pll_speed_pos_fdbk.c
     /tmp/ccDchrQO.s:18     .text.STO_InitSpeedBuffer:0000000000000000 $t
     /tmp/ccDchrQO.s:25     .text.STO_InitSpeedBuffer:0000000000000000 STO_InitSpeedBuffer
     /tmp/ccDchrQO.s:89     .text.STO_PLL_Return:0000000000000000 $t
     /tmp/ccDchrQO.s:96     .text.STO_PLL_Return:0000000000000000 STO_PLL_Return
     /tmp/ccDchrQO.s:111    .text.STO_PLL_CalcElAngle:0000000000000000 $t
     /tmp/ccDchrQO.s:118    .text.STO_PLL_CalcElAngle:0000000000000000 STO_PLL_CalcElAngle
     /tmp/ccDchrQO.s:683    .text.STO_PLL_CalcAvrgMecSpeedUnit:0000000000000000 $t
     /tmp/ccDchrQO.s:690    .text.STO_PLL_CalcAvrgMecSpeedUnit:0000000000000000 STO_PLL_CalcAvrgMecSpeedUnit
     /tmp/ccDchrQO.s:1079   .text.STO_PLL_CalcAvrgElSpeedDpp:0000000000000000 $t
     /tmp/ccDchrQO.s:1086   .text.STO_PLL_CalcAvrgElSpeedDpp:0000000000000000 STO_PLL_CalcAvrgElSpeedDpp
     /tmp/ccDchrQO.s:1224   .text.STO_PLL_Clear:0000000000000000 $t
     /tmp/ccDchrQO.s:1231   .text.STO_PLL_Clear:0000000000000000 STO_PLL_Clear
     /tmp/ccDchrQO.s:1307   .text.STO_PLL_Init:0000000000000000 $t
     /tmp/ccDchrQO.s:1314   .text.STO_PLL_Init:0000000000000000 STO_PLL_Init
     /tmp/ccDchrQO.s:1419   .text.STO_PLL_Init:0000000000000060 $d
     /tmp/ccDchrQO.s:1425   .text.STO_PLL_IsObserverConverged:0000000000000000 $t
     /tmp/ccDchrQO.s:1432   .text.STO_PLL_IsObserverConverged:0000000000000000 STO_PLL_IsObserverConverged
     /tmp/ccDchrQO.s:1675   .text.STO_PLL_GetEstimatedBemf:0000000000000000 $t
     /tmp/ccDchrQO.s:1682   .text.STO_PLL_GetEstimatedBemf:0000000000000000 STO_PLL_GetEstimatedBemf
     /tmp/ccDchrQO.s:1723   .text.STO_PLL_GetEstimatedCurrent:0000000000000000 $t
     /tmp/ccDchrQO.s:1730   .text.STO_PLL_GetEstimatedCurrent:0000000000000000 STO_PLL_GetEstimatedCurrent
     /tmp/ccDchrQO.s:1777   .text.STO_PLL_GetObserverGains:0000000000000000 $t
     /tmp/ccDchrQO.s:1784   .text.STO_PLL_GetObserverGains:0000000000000000 STO_PLL_GetObserverGains
     /tmp/ccDchrQO.s:1808   .text.STO_PLL_SetObserverGains:0000000000000000 $t
     /tmp/ccDchrQO.s:1815   .text.STO_PLL_SetObserverGains:0000000000000000 STO_PLL_SetObserverGains
     /tmp/ccDchrQO.s:1835   .text.STO_GetPLLGains:0000000000000000 $t
     /tmp/ccDchrQO.s:1842   .text.STO_GetPLLGains:0000000000000000 STO_GetPLLGains
     /tmp/ccDchrQO.s:1882   .text.STO_SetPLLGains:0000000000000000 $t
     /tmp/ccDchrQO.s:1889   .text.STO_SetPLLGains:0000000000000000 STO_SetPLLGains
     /tmp/ccDchrQO.s:1923   .text.STO_PLL_SetMecAngle:0000000000000000 $t
     /tmp/ccDchrQO.s:1930   .text.STO_PLL_SetMecAngle:0000000000000000 STO_PLL_SetMecAngle
     /tmp/ccDchrQO.s:1944   .text.STO_OTF_ResetPLL:0000000000000000 $t
     /tmp/ccDchrQO.s:1951   .text.STO_OTF_ResetPLL:0000000000000000 STO_OTF_ResetPLL
     /tmp/ccDchrQO.s:1980   .text.STO_ResetPLL:0000000000000000 $t
     /tmp/ccDchrQO.s:1987   .text.STO_ResetPLL:0000000000000000 STO_ResetPLL
     /tmp/ccDchrQO.s:2012   .text.STO_SetPLL:0000000000000000 $t
     /tmp/ccDchrQO.s:2019   .text.STO_SetPLL:0000000000000000 STO_SetPLL
     /tmp/ccDchrQO.s:2061   .text.STO_PLL_GetEstimatedBemfLevel:0000000000000000 $t
     /tmp/ccDchrQO.s:2068   .text.STO_PLL_GetEstimatedBemfLevel:0000000000000000 STO_PLL_GetEstimatedBemfLevel
     /tmp/ccDchrQO.s:2086   .text.STO_PLL_GetObservedBemfLevel:0000000000000000 $t
     /tmp/ccDchrQO.s:2093   .text.STO_PLL_GetObservedBemfLevel:0000000000000000 STO_PLL_GetObservedBemfLevel
     /tmp/ccDchrQO.s:2111   .text.STO_PLL_BemfConsistencyCheckSwitch:0000000000000000 $t
     /tmp/ccDchrQO.s:2118   .text.STO_PLL_BemfConsistencyCheckSwitch:0000000000000000 STO_PLL_BemfConsistencyCheckSwitch
     /tmp/ccDchrQO.s:2135   .text.STO_PLL_IsBemfConsistent:0000000000000000 $t
     /tmp/ccDchrQO.s:2142   .text.STO_PLL_IsBemfConsistent:0000000000000000 STO_PLL_IsBemfConsistent
     /tmp/ccDchrQO.s:2160   .text.STO_PLL_IsVarianceTight:0000000000000000 $t
     /tmp/ccDchrQO.s:2167   .text.STO_PLL_IsVarianceTight:0000000000000000 STO_PLL_IsVarianceTight
     /tmp/ccDchrQO.s:2191   .text.STO_PLL_ForceConvergency1:0000000000000000 $t
     /tmp/ccDchrQO.s:2198   .text.STO_PLL_ForceConvergency1:0000000000000000 STO_PLL_ForceConvergency1
     /tmp/ccDchrQO.s:2220   .text.STO_PLL_ForceConvergency2:0000000000000000 $t
     /tmp/ccDchrQO.s:2227   .text.STO_PLL_ForceConvergency2:0000000000000000 STO_PLL_ForceConvergency2
     /tmp/ccDchrQO.s:2249   .text.STO_SetMinStartUpValidSpeedUnit:0000000000000000 $t
     /tmp/ccDchrQO.s:2256   .text.STO_SetMinStartUpValidSpeedUnit:0000000000000000 STO_SetMinStartUpValidSpeedUnit
     /tmp/ccDchrQO.s:2273   .text.STO_SetDirection:0000000000000000 $t
     /tmp/ccDchrQO.s:2280   .text.STO_SetDirection:0000000000000000 STO_SetDirection
ARM GAS  /tmp/ccDchrQO.s 			page 75



UNDEFINED SYMBOLS
MCM_Trig_Functions
PI_Controller
SPD_IsMecSpeedReliable
PID_SetIntegralTerm
PID_HandleInit
PID_GetKP
PID_GetKI
PID_SetKP
PID_SetKI
PID_GetKIDivisor
