ARM GAS  /tmp/ccLjXLyq.s 			page 1


   1              		.cpu cortex-m4
   2              		.eabi_attribute 27, 1
   3              		.eabi_attribute 28, 1
   4              		.eabi_attribute 20, 1
   5              		.eabi_attribute 21, 1
   6              		.eabi_attribute 23, 3
   7              		.eabi_attribute 24, 1
   8              		.eabi_attribute 25, 1
   9              		.eabi_attribute 26, 1
  10              		.eabi_attribute 30, 1
  11              		.eabi_attribute 34, 1
  12              		.eabi_attribute 18, 4
  13              		.file	"sto_cordic_speed_pos_fdbk.c"
  14              		.text
  15              	.Ltext0:
  16              		.cfi_sections	.debug_frame
  17              		.section	.text.STO_CR_InitSpeedBuffer,"ax",%progbits
  18              		.align	1
  19              		.arch armv7e-m
  20              		.syntax unified
  21              		.thumb
  22              		.thumb_func
  23              		.fpu fpv4-sp-d16
  25              	STO_CR_InitSpeedBuffer:
  26              	.LVL0:
  27              	.LFB1442:
  28              		.file 1 "MCSDK_v6.0.0-Full/MotorControl/MCSDK/MCLib/Any/Src/sto_cordic_speed_pos_fdbk.c"
   1:MCSDK_v6.0.0-Full/MotorControl/MCSDK/MCLib/Any/Src/sto_cordic_speed_pos_fdbk.c **** /**
   2:MCSDK_v6.0.0-Full/MotorControl/MCSDK/MCLib/Any/Src/sto_cordic_speed_pos_fdbk.c ****   ******************************************************************************
   3:MCSDK_v6.0.0-Full/MotorControl/MCSDK/MCLib/Any/Src/sto_cordic_speed_pos_fdbk.c ****   * @file    sto_cordic_speed_pos_fdbk.c
   4:MCSDK_v6.0.0-Full/MotorControl/MCSDK/MCLib/Any/Src/sto_cordic_speed_pos_fdbk.c ****   * @author  Motor Control SDK Team, ST Microelectronics
   5:MCSDK_v6.0.0-Full/MotorControl/MCSDK/MCLib/Any/Src/sto_cordic_speed_pos_fdbk.c ****   * @brief   This file provides firmware functions that implement the features
   6:MCSDK_v6.0.0-Full/MotorControl/MCSDK/MCLib/Any/Src/sto_cordic_speed_pos_fdbk.c ****   *          of the State Observer + CORDIC Speed & Position Feedback component of the
   7:MCSDK_v6.0.0-Full/MotorControl/MCSDK/MCLib/Any/Src/sto_cordic_speed_pos_fdbk.c ****   *          Motor Control SDK.
   8:MCSDK_v6.0.0-Full/MotorControl/MCSDK/MCLib/Any/Src/sto_cordic_speed_pos_fdbk.c ****   *
   9:MCSDK_v6.0.0-Full/MotorControl/MCSDK/MCLib/Any/Src/sto_cordic_speed_pos_fdbk.c ****   ******************************************************************************
  10:MCSDK_v6.0.0-Full/MotorControl/MCSDK/MCLib/Any/Src/sto_cordic_speed_pos_fdbk.c ****   * @attention
  11:MCSDK_v6.0.0-Full/MotorControl/MCSDK/MCLib/Any/Src/sto_cordic_speed_pos_fdbk.c ****   *
  12:MCSDK_v6.0.0-Full/MotorControl/MCSDK/MCLib/Any/Src/sto_cordic_speed_pos_fdbk.c ****   * <h2><center>&copy; Copyright (c) 2022 STMicroelectronics International N.V.
  13:MCSDK_v6.0.0-Full/MotorControl/MCSDK/MCLib/Any/Src/sto_cordic_speed_pos_fdbk.c ****   * All rights reserved.</center></h2>
  14:MCSDK_v6.0.0-Full/MotorControl/MCSDK/MCLib/Any/Src/sto_cordic_speed_pos_fdbk.c ****   *
  15:MCSDK_v6.0.0-Full/MotorControl/MCSDK/MCLib/Any/Src/sto_cordic_speed_pos_fdbk.c ****   * Redistribution and use in source and binary forms, with or without
  16:MCSDK_v6.0.0-Full/MotorControl/MCSDK/MCLib/Any/Src/sto_cordic_speed_pos_fdbk.c ****   * modification, are permitted, provided that the following conditions are met:
  17:MCSDK_v6.0.0-Full/MotorControl/MCSDK/MCLib/Any/Src/sto_cordic_speed_pos_fdbk.c ****   *
  18:MCSDK_v6.0.0-Full/MotorControl/MCSDK/MCLib/Any/Src/sto_cordic_speed_pos_fdbk.c ****   * 1. Redistribution of source code must retain the above copyright notice,
  19:MCSDK_v6.0.0-Full/MotorControl/MCSDK/MCLib/Any/Src/sto_cordic_speed_pos_fdbk.c ****   *    this list of conditions and the following disclaimer.
  20:MCSDK_v6.0.0-Full/MotorControl/MCSDK/MCLib/Any/Src/sto_cordic_speed_pos_fdbk.c ****   * 2. Redistributions in binary form must reproduce the above copyright notice,
  21:MCSDK_v6.0.0-Full/MotorControl/MCSDK/MCLib/Any/Src/sto_cordic_speed_pos_fdbk.c ****   *    this list of conditions and the following disclaimer in the documentation
  22:MCSDK_v6.0.0-Full/MotorControl/MCSDK/MCLib/Any/Src/sto_cordic_speed_pos_fdbk.c ****   *    and/or other materials provided with the distribution.
  23:MCSDK_v6.0.0-Full/MotorControl/MCSDK/MCLib/Any/Src/sto_cordic_speed_pos_fdbk.c ****   * 3. Neither the name of STMicroelectronics nor the names of other
  24:MCSDK_v6.0.0-Full/MotorControl/MCSDK/MCLib/Any/Src/sto_cordic_speed_pos_fdbk.c ****   *    contributors to this software may be used to endorse or promote products
  25:MCSDK_v6.0.0-Full/MotorControl/MCSDK/MCLib/Any/Src/sto_cordic_speed_pos_fdbk.c ****   *    derived from this software without specific written permission.
  26:MCSDK_v6.0.0-Full/MotorControl/MCSDK/MCLib/Any/Src/sto_cordic_speed_pos_fdbk.c ****   * 4. This software, including modifications and/or derivative works of this
  27:MCSDK_v6.0.0-Full/MotorControl/MCSDK/MCLib/Any/Src/sto_cordic_speed_pos_fdbk.c ****   *    software, must execute solely and exclusively on microcontroller or
  28:MCSDK_v6.0.0-Full/MotorControl/MCSDK/MCLib/Any/Src/sto_cordic_speed_pos_fdbk.c ****   *    microprocessor devices manufactured by or for STMicroelectronics.
  29:MCSDK_v6.0.0-Full/MotorControl/MCSDK/MCLib/Any/Src/sto_cordic_speed_pos_fdbk.c ****   * 5. Redistribution and use of this software other than as permitted under
  30:MCSDK_v6.0.0-Full/MotorControl/MCSDK/MCLib/Any/Src/sto_cordic_speed_pos_fdbk.c ****   *    this license is void and will automatically terminate your rights under
ARM GAS  /tmp/ccLjXLyq.s 			page 2


  31:MCSDK_v6.0.0-Full/MotorControl/MCSDK/MCLib/Any/Src/sto_cordic_speed_pos_fdbk.c ****   *    this license.
  32:MCSDK_v6.0.0-Full/MotorControl/MCSDK/MCLib/Any/Src/sto_cordic_speed_pos_fdbk.c ****   *
  33:MCSDK_v6.0.0-Full/MotorControl/MCSDK/MCLib/Any/Src/sto_cordic_speed_pos_fdbk.c ****   * THIS SOFTWARE IS PROVIDED BY STMICROELECTRONICS AND CONTRIBUTORS "AS IS"
  34:MCSDK_v6.0.0-Full/MotorControl/MCSDK/MCLib/Any/Src/sto_cordic_speed_pos_fdbk.c ****   * AND ANY EXPRESS, IMPLIED OR STATUTORY WARRANTIES, INCLUDING, BUT NOT
  35:MCSDK_v6.0.0-Full/MotorControl/MCSDK/MCLib/Any/Src/sto_cordic_speed_pos_fdbk.c ****   * LIMITED TO, THE IMPLIED WARRANTIES OF MERCHANTABILITY, FITNESS FOR A
  36:MCSDK_v6.0.0-Full/MotorControl/MCSDK/MCLib/Any/Src/sto_cordic_speed_pos_fdbk.c ****   * PARTICULAR PURPOSE AND NON-INFRINGEMENT OF THIRD PARTY INTELLECTUAL PROPERTY
  37:MCSDK_v6.0.0-Full/MotorControl/MCSDK/MCLib/Any/Src/sto_cordic_speed_pos_fdbk.c ****   * RIGHTS ARE DISCLAIMED TO THE FULLEST EXTENT PERMITTED BY LAW. IN NO EVENT
  38:MCSDK_v6.0.0-Full/MotorControl/MCSDK/MCLib/Any/Src/sto_cordic_speed_pos_fdbk.c ****   * SHALL STMICROELECTRONICS OR CONTRIBUTORS BE LIABLE FOR ANY DIRECT, INDIRECT,
  39:MCSDK_v6.0.0-Full/MotorControl/MCSDK/MCLib/Any/Src/sto_cordic_speed_pos_fdbk.c ****   * INCIDENTAL, SPECIAL, EXEMPLARY, OR CONSEQUENTIAL DAMAGES (INCLUDING, BUT NOT
  40:MCSDK_v6.0.0-Full/MotorControl/MCSDK/MCLib/Any/Src/sto_cordic_speed_pos_fdbk.c ****   * LIMITED TO, PROCUREMENT OF SUBSTITUTE GOODS OR SERVICES; LOSS OF USE, DATA,
  41:MCSDK_v6.0.0-Full/MotorControl/MCSDK/MCLib/Any/Src/sto_cordic_speed_pos_fdbk.c ****   * OR PROFITS; OR BUSINESS INTERRUPTION) HOWEVER CAUSED AND ON ANY THEORY OF
  42:MCSDK_v6.0.0-Full/MotorControl/MCSDK/MCLib/Any/Src/sto_cordic_speed_pos_fdbk.c ****   * LIABILITY, WHETHER IN CONTRACT, STRICT LIABILITY, OR TORT (INCLUDING
  43:MCSDK_v6.0.0-Full/MotorControl/MCSDK/MCLib/Any/Src/sto_cordic_speed_pos_fdbk.c ****   * NEGLIGENCE OR OTHERWISE) ARISING IN ANY WAY OUT OF THE USE OF THIS SOFTWARE,
  44:MCSDK_v6.0.0-Full/MotorControl/MCSDK/MCLib/Any/Src/sto_cordic_speed_pos_fdbk.c ****   * EVEN IF ADVISED OF THE POSSIBILITY OF SUCH DAMAGE.
  45:MCSDK_v6.0.0-Full/MotorControl/MCSDK/MCLib/Any/Src/sto_cordic_speed_pos_fdbk.c ****   *
  46:MCSDK_v6.0.0-Full/MotorControl/MCSDK/MCLib/Any/Src/sto_cordic_speed_pos_fdbk.c ****   ******************************************************************************
  47:MCSDK_v6.0.0-Full/MotorControl/MCSDK/MCLib/Any/Src/sto_cordic_speed_pos_fdbk.c ****   */
  48:MCSDK_v6.0.0-Full/MotorControl/MCSDK/MCLib/Any/Src/sto_cordic_speed_pos_fdbk.c **** 
  49:MCSDK_v6.0.0-Full/MotorControl/MCSDK/MCLib/Any/Src/sto_cordic_speed_pos_fdbk.c **** /* Includes ------------------------------------------------------------------*/
  50:MCSDK_v6.0.0-Full/MotorControl/MCSDK/MCLib/Any/Src/sto_cordic_speed_pos_fdbk.c **** #include "sto_cordic_speed_pos_fdbk.h"
  51:MCSDK_v6.0.0-Full/MotorControl/MCSDK/MCLib/Any/Src/sto_cordic_speed_pos_fdbk.c **** #include "mc_math.h"
  52:MCSDK_v6.0.0-Full/MotorControl/MCSDK/MCLib/Any/Src/sto_cordic_speed_pos_fdbk.c **** 
  53:MCSDK_v6.0.0-Full/MotorControl/MCSDK/MCLib/Any/Src/sto_cordic_speed_pos_fdbk.c **** #include "mc_type.h"
  54:MCSDK_v6.0.0-Full/MotorControl/MCSDK/MCLib/Any/Src/sto_cordic_speed_pos_fdbk.c **** 
  55:MCSDK_v6.0.0-Full/MotorControl/MCSDK/MCLib/Any/Src/sto_cordic_speed_pos_fdbk.c **** /** @addtogroup MCSDK
  56:MCSDK_v6.0.0-Full/MotorControl/MCSDK/MCLib/Any/Src/sto_cordic_speed_pos_fdbk.c ****   * @{
  57:MCSDK_v6.0.0-Full/MotorControl/MCSDK/MCLib/Any/Src/sto_cordic_speed_pos_fdbk.c ****   */
  58:MCSDK_v6.0.0-Full/MotorControl/MCSDK/MCLib/Any/Src/sto_cordic_speed_pos_fdbk.c **** 
  59:MCSDK_v6.0.0-Full/MotorControl/MCSDK/MCLib/Any/Src/sto_cordic_speed_pos_fdbk.c **** /** @addtogroup SpeednPosFdbk
  60:MCSDK_v6.0.0-Full/MotorControl/MCSDK/MCLib/Any/Src/sto_cordic_speed_pos_fdbk.c ****   * @{
  61:MCSDK_v6.0.0-Full/MotorControl/MCSDK/MCLib/Any/Src/sto_cordic_speed_pos_fdbk.c ****   */
  62:MCSDK_v6.0.0-Full/MotorControl/MCSDK/MCLib/Any/Src/sto_cordic_speed_pos_fdbk.c **** 
  63:MCSDK_v6.0.0-Full/MotorControl/MCSDK/MCLib/Any/Src/sto_cordic_speed_pos_fdbk.c **** /** @defgroup STO_CORDIC_SpeednPosFdbk State Observer CORDIC Speed & Position Feedback
  64:MCSDK_v6.0.0-Full/MotorControl/MCSDK/MCLib/Any/Src/sto_cordic_speed_pos_fdbk.c ****   * @brief State Observer with CORDIC Speed & Position Feedback implementation
  65:MCSDK_v6.0.0-Full/MotorControl/MCSDK/MCLib/Any/Src/sto_cordic_speed_pos_fdbk.c ****   *
  66:MCSDK_v6.0.0-Full/MotorControl/MCSDK/MCLib/Any/Src/sto_cordic_speed_pos_fdbk.c ****   * This component uses a State Observer coupled with a CORDIC (COordinate Rotation DIgital
  67:MCSDK_v6.0.0-Full/MotorControl/MCSDK/MCLib/Any/Src/sto_cordic_speed_pos_fdbk.c ****   * Computer) to provide an estimation of the speed and the position of the rotor of the motor.
  68:MCSDK_v6.0.0-Full/MotorControl/MCSDK/MCLib/Any/Src/sto_cordic_speed_pos_fdbk.c ****   *
  69:MCSDK_v6.0.0-Full/MotorControl/MCSDK/MCLib/Any/Src/sto_cordic_speed_pos_fdbk.c ****   * @todo Document the State Observer + CORDIC Speed & Position Feedback "module".
  70:MCSDK_v6.0.0-Full/MotorControl/MCSDK/MCLib/Any/Src/sto_cordic_speed_pos_fdbk.c ****   *
  71:MCSDK_v6.0.0-Full/MotorControl/MCSDK/MCLib/Any/Src/sto_cordic_speed_pos_fdbk.c ****   * @{
  72:MCSDK_v6.0.0-Full/MotorControl/MCSDK/MCLib/Any/Src/sto_cordic_speed_pos_fdbk.c ****   */
  73:MCSDK_v6.0.0-Full/MotorControl/MCSDK/MCLib/Any/Src/sto_cordic_speed_pos_fdbk.c **** 
  74:MCSDK_v6.0.0-Full/MotorControl/MCSDK/MCLib/Any/Src/sto_cordic_speed_pos_fdbk.c **** /* Private defines -----------------------------------------------------------*/
  75:MCSDK_v6.0.0-Full/MotorControl/MCSDK/MCLib/Any/Src/sto_cordic_speed_pos_fdbk.c **** 
  76:MCSDK_v6.0.0-Full/MotorControl/MCSDK/MCLib/Any/Src/sto_cordic_speed_pos_fdbk.c **** #define C6_COMP_CONST1  (int32_t)1043038
  77:MCSDK_v6.0.0-Full/MotorControl/MCSDK/MCLib/Any/Src/sto_cordic_speed_pos_fdbk.c **** #define C6_COMP_CONST2  (int32_t)10430
  78:MCSDK_v6.0.0-Full/MotorControl/MCSDK/MCLib/Any/Src/sto_cordic_speed_pos_fdbk.c **** 
  79:MCSDK_v6.0.0-Full/MotorControl/MCSDK/MCLib/Any/Src/sto_cordic_speed_pos_fdbk.c **** /* Private functions prototypes ----------------------------------------------*/
  80:MCSDK_v6.0.0-Full/MotorControl/MCSDK/MCLib/Any/Src/sto_cordic_speed_pos_fdbk.c **** static void STO_CR_Store_Rotor_Speed(STO_CR_Handle_t *pHandle, int16_t hRotor_Speed, int16_t hOrRot
  81:MCSDK_v6.0.0-Full/MotorControl/MCSDK/MCLib/Any/Src/sto_cordic_speed_pos_fdbk.c **** static void STO_CR_InitSpeedBuffer(STO_CR_Handle_t *pHandle);
  82:MCSDK_v6.0.0-Full/MotorControl/MCSDK/MCLib/Any/Src/sto_cordic_speed_pos_fdbk.c **** 
  83:MCSDK_v6.0.0-Full/MotorControl/MCSDK/MCLib/Any/Src/sto_cordic_speed_pos_fdbk.c **** /**
  84:MCSDK_v6.0.0-Full/MotorControl/MCSDK/MCLib/Any/Src/sto_cordic_speed_pos_fdbk.c ****   * @brief  It initializes the state observer object
  85:MCSDK_v6.0.0-Full/MotorControl/MCSDK/MCLib/Any/Src/sto_cordic_speed_pos_fdbk.c ****   * @param  pHandle: handler of the current instance of the STO CORDIC component
  86:MCSDK_v6.0.0-Full/MotorControl/MCSDK/MCLib/Any/Src/sto_cordic_speed_pos_fdbk.c ****   * @retval none
  87:MCSDK_v6.0.0-Full/MotorControl/MCSDK/MCLib/Any/Src/sto_cordic_speed_pos_fdbk.c ****   */
ARM GAS  /tmp/ccLjXLyq.s 			page 3


  88:MCSDK_v6.0.0-Full/MotorControl/MCSDK/MCLib/Any/Src/sto_cordic_speed_pos_fdbk.c **** __weak void STO_CR_Init(STO_CR_Handle_t *pHandle)
  89:MCSDK_v6.0.0-Full/MotorControl/MCSDK/MCLib/Any/Src/sto_cordic_speed_pos_fdbk.c **** {
  90:MCSDK_v6.0.0-Full/MotorControl/MCSDK/MCLib/Any/Src/sto_cordic_speed_pos_fdbk.c **** #ifdef NULL_PTR_STO_COR_SPD_POS_FDB
  91:MCSDK_v6.0.0-Full/MotorControl/MCSDK/MCLib/Any/Src/sto_cordic_speed_pos_fdbk.c ****   if (NULL == pHandle)
  92:MCSDK_v6.0.0-Full/MotorControl/MCSDK/MCLib/Any/Src/sto_cordic_speed_pos_fdbk.c ****   {
  93:MCSDK_v6.0.0-Full/MotorControl/MCSDK/MCLib/Any/Src/sto_cordic_speed_pos_fdbk.c ****     /* Nothing to do */
  94:MCSDK_v6.0.0-Full/MotorControl/MCSDK/MCLib/Any/Src/sto_cordic_speed_pos_fdbk.c ****   }
  95:MCSDK_v6.0.0-Full/MotorControl/MCSDK/MCLib/Any/Src/sto_cordic_speed_pos_fdbk.c ****   else
  96:MCSDK_v6.0.0-Full/MotorControl/MCSDK/MCLib/Any/Src/sto_cordic_speed_pos_fdbk.c ****   {
  97:MCSDK_v6.0.0-Full/MotorControl/MCSDK/MCLib/Any/Src/sto_cordic_speed_pos_fdbk.c **** #endif
  98:MCSDK_v6.0.0-Full/MotorControl/MCSDK/MCLib/Any/Src/sto_cordic_speed_pos_fdbk.c ****     int32_t wAux;
  99:MCSDK_v6.0.0-Full/MotorControl/MCSDK/MCLib/Any/Src/sto_cordic_speed_pos_fdbk.c ****     int16_t htempk;
 100:MCSDK_v6.0.0-Full/MotorControl/MCSDK/MCLib/Any/Src/sto_cordic_speed_pos_fdbk.c **** 
 101:MCSDK_v6.0.0-Full/MotorControl/MCSDK/MCLib/Any/Src/sto_cordic_speed_pos_fdbk.c ****     pHandle->ConsistencyCounter = pHandle->StartUpConsistThreshold;
 102:MCSDK_v6.0.0-Full/MotorControl/MCSDK/MCLib/Any/Src/sto_cordic_speed_pos_fdbk.c ****     pHandle->EnableDualCheck = true;
 103:MCSDK_v6.0.0-Full/MotorControl/MCSDK/MCLib/Any/Src/sto_cordic_speed_pos_fdbk.c **** 
 104:MCSDK_v6.0.0-Full/MotorControl/MCSDK/MCLib/Any/Src/sto_cordic_speed_pos_fdbk.c ****     wAux = (int32_t)1;
 105:MCSDK_v6.0.0-Full/MotorControl/MCSDK/MCLib/Any/Src/sto_cordic_speed_pos_fdbk.c ****     pHandle->F3POW2 = 0u;
 106:MCSDK_v6.0.0-Full/MotorControl/MCSDK/MCLib/Any/Src/sto_cordic_speed_pos_fdbk.c **** 
 107:MCSDK_v6.0.0-Full/MotorControl/MCSDK/MCLib/Any/Src/sto_cordic_speed_pos_fdbk.c ****     htempk = (int16_t)(C6_COMP_CONST1 / (pHandle->hF2));
 108:MCSDK_v6.0.0-Full/MotorControl/MCSDK/MCLib/Any/Src/sto_cordic_speed_pos_fdbk.c **** 
 109:MCSDK_v6.0.0-Full/MotorControl/MCSDK/MCLib/Any/Src/sto_cordic_speed_pos_fdbk.c ****     while (htempk != 0)
 110:MCSDK_v6.0.0-Full/MotorControl/MCSDK/MCLib/Any/Src/sto_cordic_speed_pos_fdbk.c ****     {
 111:MCSDK_v6.0.0-Full/MotorControl/MCSDK/MCLib/Any/Src/sto_cordic_speed_pos_fdbk.c ****       htempk /= (int16_t)2;
 112:MCSDK_v6.0.0-Full/MotorControl/MCSDK/MCLib/Any/Src/sto_cordic_speed_pos_fdbk.c ****       wAux *= (int32_t)2;
 113:MCSDK_v6.0.0-Full/MotorControl/MCSDK/MCLib/Any/Src/sto_cordic_speed_pos_fdbk.c ****       pHandle->F3POW2++;
 114:MCSDK_v6.0.0-Full/MotorControl/MCSDK/MCLib/Any/Src/sto_cordic_speed_pos_fdbk.c ****     }
 115:MCSDK_v6.0.0-Full/MotorControl/MCSDK/MCLib/Any/Src/sto_cordic_speed_pos_fdbk.c **** 
 116:MCSDK_v6.0.0-Full/MotorControl/MCSDK/MCLib/Any/Src/sto_cordic_speed_pos_fdbk.c ****     pHandle->hF3 = (int16_t)wAux;
 117:MCSDK_v6.0.0-Full/MotorControl/MCSDK/MCLib/Any/Src/sto_cordic_speed_pos_fdbk.c ****     wAux = (int32_t)(pHandle->hF2) * pHandle->hF3;
 118:MCSDK_v6.0.0-Full/MotorControl/MCSDK/MCLib/Any/Src/sto_cordic_speed_pos_fdbk.c ****     pHandle->hC6 = (int16_t)(wAux / C6_COMP_CONST2);
 119:MCSDK_v6.0.0-Full/MotorControl/MCSDK/MCLib/Any/Src/sto_cordic_speed_pos_fdbk.c **** 
 120:MCSDK_v6.0.0-Full/MotorControl/MCSDK/MCLib/Any/Src/sto_cordic_speed_pos_fdbk.c ****     STO_CR_Clear(pHandle);
 121:MCSDK_v6.0.0-Full/MotorControl/MCSDK/MCLib/Any/Src/sto_cordic_speed_pos_fdbk.c **** 
 122:MCSDK_v6.0.0-Full/MotorControl/MCSDK/MCLib/Any/Src/sto_cordic_speed_pos_fdbk.c ****     /* Acceleration measurement set to zero */
 123:MCSDK_v6.0.0-Full/MotorControl/MCSDK/MCLib/Any/Src/sto_cordic_speed_pos_fdbk.c ****     pHandle->_Super.hMecAccelUnitP = 0;
 124:MCSDK_v6.0.0-Full/MotorControl/MCSDK/MCLib/Any/Src/sto_cordic_speed_pos_fdbk.c **** #ifdef NULL_PTR_STO_COR_SPD_POS_FDB
 125:MCSDK_v6.0.0-Full/MotorControl/MCSDK/MCLib/Any/Src/sto_cordic_speed_pos_fdbk.c ****   }
 126:MCSDK_v6.0.0-Full/MotorControl/MCSDK/MCLib/Any/Src/sto_cordic_speed_pos_fdbk.c **** #endif
 127:MCSDK_v6.0.0-Full/MotorControl/MCSDK/MCLib/Any/Src/sto_cordic_speed_pos_fdbk.c **** }
 128:MCSDK_v6.0.0-Full/MotorControl/MCSDK/MCLib/Any/Src/sto_cordic_speed_pos_fdbk.c **** 
 129:MCSDK_v6.0.0-Full/MotorControl/MCSDK/MCLib/Any/Src/sto_cordic_speed_pos_fdbk.c **** #if defined (CCMRAM)
 130:MCSDK_v6.0.0-Full/MotorControl/MCSDK/MCLib/Any/Src/sto_cordic_speed_pos_fdbk.c **** #if defined (__ICCARM__)
 131:MCSDK_v6.0.0-Full/MotorControl/MCSDK/MCLib/Any/Src/sto_cordic_speed_pos_fdbk.c **** #pragma location = ".ccmram"
 132:MCSDK_v6.0.0-Full/MotorControl/MCSDK/MCLib/Any/Src/sto_cordic_speed_pos_fdbk.c **** #elif defined (__CC_ARM) || defined(__GNUC__)
 133:MCSDK_v6.0.0-Full/MotorControl/MCSDK/MCLib/Any/Src/sto_cordic_speed_pos_fdbk.c **** __attribute__((section(".ccmram")))
 134:MCSDK_v6.0.0-Full/MotorControl/MCSDK/MCLib/Any/Src/sto_cordic_speed_pos_fdbk.c **** #endif
 135:MCSDK_v6.0.0-Full/MotorControl/MCSDK/MCLib/Any/Src/sto_cordic_speed_pos_fdbk.c **** #endif
 136:MCSDK_v6.0.0-Full/MotorControl/MCSDK/MCLib/Any/Src/sto_cordic_speed_pos_fdbk.c **** /**
 137:MCSDK_v6.0.0-Full/MotorControl/MCSDK/MCLib/Any/Src/sto_cordic_speed_pos_fdbk.c ****   * @brief  This method executes Luenberger state observer equations and calls
 138:MCSDK_v6.0.0-Full/MotorControl/MCSDK/MCLib/Any/Src/sto_cordic_speed_pos_fdbk.c ****   *         CORDIC with the purpose of computing a new speed estimation and
 139:MCSDK_v6.0.0-Full/MotorControl/MCSDK/MCLib/Any/Src/sto_cordic_speed_pos_fdbk.c ****   *         updating the estimated electrical angle.
 140:MCSDK_v6.0.0-Full/MotorControl/MCSDK/MCLib/Any/Src/sto_cordic_speed_pos_fdbk.c ****   * @param  pHandle: handler of the current instance of the STO CORDIC component
 141:MCSDK_v6.0.0-Full/MotorControl/MCSDK/MCLib/Any/Src/sto_cordic_speed_pos_fdbk.c ****   *         pInputs pointer to the observer inputs structure
 142:MCSDK_v6.0.0-Full/MotorControl/MCSDK/MCLib/Any/Src/sto_cordic_speed_pos_fdbk.c ****   * @retval int16_t rotor electrical angle (s16Degrees)
 143:MCSDK_v6.0.0-Full/MotorControl/MCSDK/MCLib/Any/Src/sto_cordic_speed_pos_fdbk.c ****   */
 144:MCSDK_v6.0.0-Full/MotorControl/MCSDK/MCLib/Any/Src/sto_cordic_speed_pos_fdbk.c **** __weak int16_t STO_CR_CalcElAngle(STO_CR_Handle_t *pHandle, Observer_Inputs_t *pInputs)
ARM GAS  /tmp/ccLjXLyq.s 			page 4


 145:MCSDK_v6.0.0-Full/MotorControl/MCSDK/MCLib/Any/Src/sto_cordic_speed_pos_fdbk.c **** {
 146:MCSDK_v6.0.0-Full/MotorControl/MCSDK/MCLib/Any/Src/sto_cordic_speed_pos_fdbk.c ****   int16_t returnvalue;
 147:MCSDK_v6.0.0-Full/MotorControl/MCSDK/MCLib/Any/Src/sto_cordic_speed_pos_fdbk.c **** #ifdef NULL_PTR_STO_COR_SPD_POS_FDB
 148:MCSDK_v6.0.0-Full/MotorControl/MCSDK/MCLib/Any/Src/sto_cordic_speed_pos_fdbk.c ****   if ((NULL == pHandle) || (NULL == pInputs))
 149:MCSDK_v6.0.0-Full/MotorControl/MCSDK/MCLib/Any/Src/sto_cordic_speed_pos_fdbk.c ****   {
 150:MCSDK_v6.0.0-Full/MotorControl/MCSDK/MCLib/Any/Src/sto_cordic_speed_pos_fdbk.c ****     returnvalue = 0;
 151:MCSDK_v6.0.0-Full/MotorControl/MCSDK/MCLib/Any/Src/sto_cordic_speed_pos_fdbk.c ****   }
 152:MCSDK_v6.0.0-Full/MotorControl/MCSDK/MCLib/Any/Src/sto_cordic_speed_pos_fdbk.c ****   else
 153:MCSDK_v6.0.0-Full/MotorControl/MCSDK/MCLib/Any/Src/sto_cordic_speed_pos_fdbk.c ****   {
 154:MCSDK_v6.0.0-Full/MotorControl/MCSDK/MCLib/Any/Src/sto_cordic_speed_pos_fdbk.c **** #endif
 155:MCSDK_v6.0.0-Full/MotorControl/MCSDK/MCLib/Any/Src/sto_cordic_speed_pos_fdbk.c ****     int32_t wAux, wDirection;
 156:MCSDK_v6.0.0-Full/MotorControl/MCSDK/MCLib/Any/Src/sto_cordic_speed_pos_fdbk.c ****     int32_t wAux_Alpha, wAux_Beta;
 157:MCSDK_v6.0.0-Full/MotorControl/MCSDK/MCLib/Any/Src/sto_cordic_speed_pos_fdbk.c ****     int32_t wIalfa_est_Next, wIbeta_est_Next;
 158:MCSDK_v6.0.0-Full/MotorControl/MCSDK/MCLib/Any/Src/sto_cordic_speed_pos_fdbk.c ****     int32_t wBemf_alfa_est_Next, wBemf_beta_est_Next;
 159:MCSDK_v6.0.0-Full/MotorControl/MCSDK/MCLib/Any/Src/sto_cordic_speed_pos_fdbk.c ****     int16_t hAux, hAux_Alfa, hAux_Beta, hIalfa_err, hIbeta_err, hRotor_Speed,
 160:MCSDK_v6.0.0-Full/MotorControl/MCSDK/MCLib/Any/Src/sto_cordic_speed_pos_fdbk.c ****             hOrRotor_Speed, hRotor_Acceleration, hRotor_Angle, hValfa, hVbeta;
 161:MCSDK_v6.0.0-Full/MotorControl/MCSDK/MCLib/Any/Src/sto_cordic_speed_pos_fdbk.c **** 
 162:MCSDK_v6.0.0-Full/MotorControl/MCSDK/MCLib/Any/Src/sto_cordic_speed_pos_fdbk.c ****     int16_t hPrev_Rotor_Angle = pHandle->_Super.hElAngle;
 163:MCSDK_v6.0.0-Full/MotorControl/MCSDK/MCLib/Any/Src/sto_cordic_speed_pos_fdbk.c ****     int16_t hPrev_Rotor_Speed = pHandle->_Super.hElSpeedDpp;
 164:MCSDK_v6.0.0-Full/MotorControl/MCSDK/MCLib/Any/Src/sto_cordic_speed_pos_fdbk.c ****     int16_t hMax_Instant_Accel = pHandle->MaxInstantElAcceleration;
 165:MCSDK_v6.0.0-Full/MotorControl/MCSDK/MCLib/Any/Src/sto_cordic_speed_pos_fdbk.c **** 
 166:MCSDK_v6.0.0-Full/MotorControl/MCSDK/MCLib/Any/Src/sto_cordic_speed_pos_fdbk.c ****     if (pHandle->wBemf_alfa_est > ((int32_t)pHandle->hF2 * INT16_MAX))
 167:MCSDK_v6.0.0-Full/MotorControl/MCSDK/MCLib/Any/Src/sto_cordic_speed_pos_fdbk.c ****     {
 168:MCSDK_v6.0.0-Full/MotorControl/MCSDK/MCLib/Any/Src/sto_cordic_speed_pos_fdbk.c ****       pHandle->wBemf_alfa_est = INT16_MAX * (int32_t)(pHandle->hF2);
 169:MCSDK_v6.0.0-Full/MotorControl/MCSDK/MCLib/Any/Src/sto_cordic_speed_pos_fdbk.c ****     }
 170:MCSDK_v6.0.0-Full/MotorControl/MCSDK/MCLib/Any/Src/sto_cordic_speed_pos_fdbk.c ****     else if (pHandle->wBemf_alfa_est <= (-INT16_MAX * (int32_t)(pHandle->hF2)))
 171:MCSDK_v6.0.0-Full/MotorControl/MCSDK/MCLib/Any/Src/sto_cordic_speed_pos_fdbk.c ****     {
 172:MCSDK_v6.0.0-Full/MotorControl/MCSDK/MCLib/Any/Src/sto_cordic_speed_pos_fdbk.c ****       pHandle->wBemf_alfa_est = -INT16_MAX * (int32_t)(pHandle->hF2);
 173:MCSDK_v6.0.0-Full/MotorControl/MCSDK/MCLib/Any/Src/sto_cordic_speed_pos_fdbk.c ****     }
 174:MCSDK_v6.0.0-Full/MotorControl/MCSDK/MCLib/Any/Src/sto_cordic_speed_pos_fdbk.c ****     else
 175:MCSDK_v6.0.0-Full/MotorControl/MCSDK/MCLib/Any/Src/sto_cordic_speed_pos_fdbk.c ****     {
 176:MCSDK_v6.0.0-Full/MotorControl/MCSDK/MCLib/Any/Src/sto_cordic_speed_pos_fdbk.c ****       /* Nothing to do */
 177:MCSDK_v6.0.0-Full/MotorControl/MCSDK/MCLib/Any/Src/sto_cordic_speed_pos_fdbk.c ****     }
 178:MCSDK_v6.0.0-Full/MotorControl/MCSDK/MCLib/Any/Src/sto_cordic_speed_pos_fdbk.c **** #ifndef FULL_MISRA_C_COMPLIANCY_STO_CORDIC
 179:MCSDK_v6.0.0-Full/MotorControl/MCSDK/MCLib/Any/Src/sto_cordic_speed_pos_fdbk.c ****     //cstat !MISRAC2012-Rule-1.3_n !ATH-shift-neg !MISRAC2012-Rule-10.1_R6
 180:MCSDK_v6.0.0-Full/MotorControl/MCSDK/MCLib/Any/Src/sto_cordic_speed_pos_fdbk.c ****       hAux_Alfa = (int16_t)(pHandle->wBemf_alfa_est >> pHandle->F2LOG);
 181:MCSDK_v6.0.0-Full/MotorControl/MCSDK/MCLib/Any/Src/sto_cordic_speed_pos_fdbk.c **** #else
 182:MCSDK_v6.0.0-Full/MotorControl/MCSDK/MCLib/Any/Src/sto_cordic_speed_pos_fdbk.c ****       hAux_Alfa = (int16_t)(pHandle->wBemf_alfa_est / pHandle->hF2);
 183:MCSDK_v6.0.0-Full/MotorControl/MCSDK/MCLib/Any/Src/sto_cordic_speed_pos_fdbk.c **** #endif
 184:MCSDK_v6.0.0-Full/MotorControl/MCSDK/MCLib/Any/Src/sto_cordic_speed_pos_fdbk.c **** 
 185:MCSDK_v6.0.0-Full/MotorControl/MCSDK/MCLib/Any/Src/sto_cordic_speed_pos_fdbk.c ****     if (pHandle->wBemf_beta_est > (INT16_MAX * (int32_t)(pHandle->hF2)))
 186:MCSDK_v6.0.0-Full/MotorControl/MCSDK/MCLib/Any/Src/sto_cordic_speed_pos_fdbk.c ****     {
 187:MCSDK_v6.0.0-Full/MotorControl/MCSDK/MCLib/Any/Src/sto_cordic_speed_pos_fdbk.c ****       pHandle->wBemf_beta_est = INT16_MAX * (int32_t)(pHandle->hF2);
 188:MCSDK_v6.0.0-Full/MotorControl/MCSDK/MCLib/Any/Src/sto_cordic_speed_pos_fdbk.c ****     }
 189:MCSDK_v6.0.0-Full/MotorControl/MCSDK/MCLib/Any/Src/sto_cordic_speed_pos_fdbk.c ****     else if (pHandle->wBemf_beta_est <= (-INT16_MAX * (int32_t)(pHandle->hF2)))
 190:MCSDK_v6.0.0-Full/MotorControl/MCSDK/MCLib/Any/Src/sto_cordic_speed_pos_fdbk.c ****     {
 191:MCSDK_v6.0.0-Full/MotorControl/MCSDK/MCLib/Any/Src/sto_cordic_speed_pos_fdbk.c ****       pHandle->wBemf_beta_est = -INT16_MAX * (int32_t)(pHandle->hF2);
 192:MCSDK_v6.0.0-Full/MotorControl/MCSDK/MCLib/Any/Src/sto_cordic_speed_pos_fdbk.c ****     }
 193:MCSDK_v6.0.0-Full/MotorControl/MCSDK/MCLib/Any/Src/sto_cordic_speed_pos_fdbk.c ****     else
 194:MCSDK_v6.0.0-Full/MotorControl/MCSDK/MCLib/Any/Src/sto_cordic_speed_pos_fdbk.c ****     {
 195:MCSDK_v6.0.0-Full/MotorControl/MCSDK/MCLib/Any/Src/sto_cordic_speed_pos_fdbk.c ****       /* Nothing to do */
 196:MCSDK_v6.0.0-Full/MotorControl/MCSDK/MCLib/Any/Src/sto_cordic_speed_pos_fdbk.c ****     }
 197:MCSDK_v6.0.0-Full/MotorControl/MCSDK/MCLib/Any/Src/sto_cordic_speed_pos_fdbk.c **** #ifndef FULL_MISRA_C_COMPLIANCY_STO_CORDIC
 198:MCSDK_v6.0.0-Full/MotorControl/MCSDK/MCLib/Any/Src/sto_cordic_speed_pos_fdbk.c ****       //cstat !MISRAC2012-Rule-1.3_n !ATH-shift-neg !MISRAC2012-Rule-10.1_R6
 199:MCSDK_v6.0.0-Full/MotorControl/MCSDK/MCLib/Any/Src/sto_cordic_speed_pos_fdbk.c ****       hAux_Beta = (int16_t)(pHandle->wBemf_beta_est >> pHandle->F2LOG);
 200:MCSDK_v6.0.0-Full/MotorControl/MCSDK/MCLib/Any/Src/sto_cordic_speed_pos_fdbk.c **** #else
 201:MCSDK_v6.0.0-Full/MotorControl/MCSDK/MCLib/Any/Src/sto_cordic_speed_pos_fdbk.c ****       hAux_Beta = (int16_t)(pHandle->wBemf_beta_est / pHandle->hF2);
ARM GAS  /tmp/ccLjXLyq.s 			page 5


 202:MCSDK_v6.0.0-Full/MotorControl/MCSDK/MCLib/Any/Src/sto_cordic_speed_pos_fdbk.c **** #endif
 203:MCSDK_v6.0.0-Full/MotorControl/MCSDK/MCLib/Any/Src/sto_cordic_speed_pos_fdbk.c **** 
 204:MCSDK_v6.0.0-Full/MotorControl/MCSDK/MCLib/Any/Src/sto_cordic_speed_pos_fdbk.c ****     if (pHandle->Ialfa_est > (INT16_MAX * (int32_t)(pHandle->hF1)))
 205:MCSDK_v6.0.0-Full/MotorControl/MCSDK/MCLib/Any/Src/sto_cordic_speed_pos_fdbk.c ****     {
 206:MCSDK_v6.0.0-Full/MotorControl/MCSDK/MCLib/Any/Src/sto_cordic_speed_pos_fdbk.c ****       pHandle->Ialfa_est = INT16_MAX * (int32_t)(pHandle->hF1);
 207:MCSDK_v6.0.0-Full/MotorControl/MCSDK/MCLib/Any/Src/sto_cordic_speed_pos_fdbk.c ****     }
 208:MCSDK_v6.0.0-Full/MotorControl/MCSDK/MCLib/Any/Src/sto_cordic_speed_pos_fdbk.c ****     else if (pHandle->Ialfa_est <= (-INT16_MAX * (int32_t)(pHandle->hF1)))
 209:MCSDK_v6.0.0-Full/MotorControl/MCSDK/MCLib/Any/Src/sto_cordic_speed_pos_fdbk.c ****     {
 210:MCSDK_v6.0.0-Full/MotorControl/MCSDK/MCLib/Any/Src/sto_cordic_speed_pos_fdbk.c ****       pHandle->Ialfa_est = -INT16_MAX * (int32_t)(pHandle->hF1);
 211:MCSDK_v6.0.0-Full/MotorControl/MCSDK/MCLib/Any/Src/sto_cordic_speed_pos_fdbk.c ****     }
 212:MCSDK_v6.0.0-Full/MotorControl/MCSDK/MCLib/Any/Src/sto_cordic_speed_pos_fdbk.c ****     else
 213:MCSDK_v6.0.0-Full/MotorControl/MCSDK/MCLib/Any/Src/sto_cordic_speed_pos_fdbk.c ****     {
 214:MCSDK_v6.0.0-Full/MotorControl/MCSDK/MCLib/Any/Src/sto_cordic_speed_pos_fdbk.c ****       /* Nothing to do */
 215:MCSDK_v6.0.0-Full/MotorControl/MCSDK/MCLib/Any/Src/sto_cordic_speed_pos_fdbk.c ****     }
 216:MCSDK_v6.0.0-Full/MotorControl/MCSDK/MCLib/Any/Src/sto_cordic_speed_pos_fdbk.c **** 
 217:MCSDK_v6.0.0-Full/MotorControl/MCSDK/MCLib/Any/Src/sto_cordic_speed_pos_fdbk.c ****     if (pHandle->Ibeta_est > (INT16_MAX * (int32_t)(pHandle->hF1)))
 218:MCSDK_v6.0.0-Full/MotorControl/MCSDK/MCLib/Any/Src/sto_cordic_speed_pos_fdbk.c ****     {
 219:MCSDK_v6.0.0-Full/MotorControl/MCSDK/MCLib/Any/Src/sto_cordic_speed_pos_fdbk.c ****       pHandle->Ibeta_est = INT16_MAX * (int32_t)(pHandle->hF1);
 220:MCSDK_v6.0.0-Full/MotorControl/MCSDK/MCLib/Any/Src/sto_cordic_speed_pos_fdbk.c ****     }
 221:MCSDK_v6.0.0-Full/MotorControl/MCSDK/MCLib/Any/Src/sto_cordic_speed_pos_fdbk.c ****     else if (pHandle->Ibeta_est <= (-INT16_MAX * (int32_t)(pHandle->hF1)))
 222:MCSDK_v6.0.0-Full/MotorControl/MCSDK/MCLib/Any/Src/sto_cordic_speed_pos_fdbk.c ****     {
 223:MCSDK_v6.0.0-Full/MotorControl/MCSDK/MCLib/Any/Src/sto_cordic_speed_pos_fdbk.c ****       pHandle->Ibeta_est = -INT16_MAX * (int32_t)(pHandle->hF1);
 224:MCSDK_v6.0.0-Full/MotorControl/MCSDK/MCLib/Any/Src/sto_cordic_speed_pos_fdbk.c ****     }
 225:MCSDK_v6.0.0-Full/MotorControl/MCSDK/MCLib/Any/Src/sto_cordic_speed_pos_fdbk.c ****     else
 226:MCSDK_v6.0.0-Full/MotorControl/MCSDK/MCLib/Any/Src/sto_cordic_speed_pos_fdbk.c ****     {
 227:MCSDK_v6.0.0-Full/MotorControl/MCSDK/MCLib/Any/Src/sto_cordic_speed_pos_fdbk.c ****       /* Nothing to do */
 228:MCSDK_v6.0.0-Full/MotorControl/MCSDK/MCLib/Any/Src/sto_cordic_speed_pos_fdbk.c ****     }
 229:MCSDK_v6.0.0-Full/MotorControl/MCSDK/MCLib/Any/Src/sto_cordic_speed_pos_fdbk.c **** 
 230:MCSDK_v6.0.0-Full/MotorControl/MCSDK/MCLib/Any/Src/sto_cordic_speed_pos_fdbk.c **** #ifndef FULL_MISRA_C_COMPLIANCY_STO_CORDIC
 231:MCSDK_v6.0.0-Full/MotorControl/MCSDK/MCLib/Any/Src/sto_cordic_speed_pos_fdbk.c ****     //cstat !MISRAC2012-Rule-1.3_n !ATH-shift-neg !MISRAC2012-Rule-10.1_R6
 232:MCSDK_v6.0.0-Full/MotorControl/MCSDK/MCLib/Any/Src/sto_cordic_speed_pos_fdbk.c ****     hIalfa_err = (int16_t)(pHandle->Ialfa_est >> pHandle->F1LOG);
 233:MCSDK_v6.0.0-Full/MotorControl/MCSDK/MCLib/Any/Src/sto_cordic_speed_pos_fdbk.c **** #else
 234:MCSDK_v6.0.0-Full/MotorControl/MCSDK/MCLib/Any/Src/sto_cordic_speed_pos_fdbk.c ****     hIalfa_err = (int16_t)(pHandle->Ialfa_est / pHandle->hF1);
 235:MCSDK_v6.0.0-Full/MotorControl/MCSDK/MCLib/Any/Src/sto_cordic_speed_pos_fdbk.c **** #endif
 236:MCSDK_v6.0.0-Full/MotorControl/MCSDK/MCLib/Any/Src/sto_cordic_speed_pos_fdbk.c **** 
 237:MCSDK_v6.0.0-Full/MotorControl/MCSDK/MCLib/Any/Src/sto_cordic_speed_pos_fdbk.c ****     hIalfa_err = hIalfa_err - pInputs->Ialfa_beta.alpha;
 238:MCSDK_v6.0.0-Full/MotorControl/MCSDK/MCLib/Any/Src/sto_cordic_speed_pos_fdbk.c **** 
 239:MCSDK_v6.0.0-Full/MotorControl/MCSDK/MCLib/Any/Src/sto_cordic_speed_pos_fdbk.c **** #ifndef FULL_MISRA_C_COMPLIANCY_STO_CORDIC
 240:MCSDK_v6.0.0-Full/MotorControl/MCSDK/MCLib/Any/Src/sto_cordic_speed_pos_fdbk.c ****     //cstat !MISRAC2012-Rule-1.3_n !ATH-shift-neg !MISRAC2012-Rule-10.1_R6
 241:MCSDK_v6.0.0-Full/MotorControl/MCSDK/MCLib/Any/Src/sto_cordic_speed_pos_fdbk.c ****     hIbeta_err = (int16_t)(pHandle->Ibeta_est >> pHandle->F1LOG);
 242:MCSDK_v6.0.0-Full/MotorControl/MCSDK/MCLib/Any/Src/sto_cordic_speed_pos_fdbk.c **** #else
 243:MCSDK_v6.0.0-Full/MotorControl/MCSDK/MCLib/Any/Src/sto_cordic_speed_pos_fdbk.c ****     hIbeta_err = (int16_t)(pHandle->Ibeta_est / pHandle->hF1);
 244:MCSDK_v6.0.0-Full/MotorControl/MCSDK/MCLib/Any/Src/sto_cordic_speed_pos_fdbk.c **** #endif
 245:MCSDK_v6.0.0-Full/MotorControl/MCSDK/MCLib/Any/Src/sto_cordic_speed_pos_fdbk.c **** 
 246:MCSDK_v6.0.0-Full/MotorControl/MCSDK/MCLib/Any/Src/sto_cordic_speed_pos_fdbk.c ****     hIbeta_err = hIbeta_err - pInputs->Ialfa_beta.beta;
 247:MCSDK_v6.0.0-Full/MotorControl/MCSDK/MCLib/Any/Src/sto_cordic_speed_pos_fdbk.c **** 
 248:MCSDK_v6.0.0-Full/MotorControl/MCSDK/MCLib/Any/Src/sto_cordic_speed_pos_fdbk.c ****     wAux = (int32_t)(pInputs->Vbus) * pInputs->Valfa_beta.alpha;
 249:MCSDK_v6.0.0-Full/MotorControl/MCSDK/MCLib/Any/Src/sto_cordic_speed_pos_fdbk.c **** #ifndef FULL_MISRA_C_COMPLIANCY_STO_CORDIC
 250:MCSDK_v6.0.0-Full/MotorControl/MCSDK/MCLib/Any/Src/sto_cordic_speed_pos_fdbk.c ****     hValfa = (int16_t)(wAux >> 16); //cstat !MISRAC2012-Rule-1.3_n !ATH-shift-neg !MISRAC2012-Rule-
 251:MCSDK_v6.0.0-Full/MotorControl/MCSDK/MCLib/Any/Src/sto_cordic_speed_pos_fdbk.c **** #else
 252:MCSDK_v6.0.0-Full/MotorControl/MCSDK/MCLib/Any/Src/sto_cordic_speed_pos_fdbk.c ****     hValfa = (int16_t)(wAux / 65536);
 253:MCSDK_v6.0.0-Full/MotorControl/MCSDK/MCLib/Any/Src/sto_cordic_speed_pos_fdbk.c **** #endif
 254:MCSDK_v6.0.0-Full/MotorControl/MCSDK/MCLib/Any/Src/sto_cordic_speed_pos_fdbk.c **** 
 255:MCSDK_v6.0.0-Full/MotorControl/MCSDK/MCLib/Any/Src/sto_cordic_speed_pos_fdbk.c ****     wAux = (int32_t)(pInputs->Vbus) * pInputs->Valfa_beta.beta;
 256:MCSDK_v6.0.0-Full/MotorControl/MCSDK/MCLib/Any/Src/sto_cordic_speed_pos_fdbk.c **** 
 257:MCSDK_v6.0.0-Full/MotorControl/MCSDK/MCLib/Any/Src/sto_cordic_speed_pos_fdbk.c **** #ifndef FULL_MISRA_C_COMPLIANCY_STO_CORDIC
 258:MCSDK_v6.0.0-Full/MotorControl/MCSDK/MCLib/Any/Src/sto_cordic_speed_pos_fdbk.c ****     hVbeta = (int16_t)(wAux >> 16); //cstat !MISRAC2012-Rule-1.3_n !ATH-shift-neg !MISRAC2012-Rule-
ARM GAS  /tmp/ccLjXLyq.s 			page 6


 259:MCSDK_v6.0.0-Full/MotorControl/MCSDK/MCLib/Any/Src/sto_cordic_speed_pos_fdbk.c **** #else
 260:MCSDK_v6.0.0-Full/MotorControl/MCSDK/MCLib/Any/Src/sto_cordic_speed_pos_fdbk.c ****     hVbeta = (int16_t)(wAux / 65536);
 261:MCSDK_v6.0.0-Full/MotorControl/MCSDK/MCLib/Any/Src/sto_cordic_speed_pos_fdbk.c **** #endif
 262:MCSDK_v6.0.0-Full/MotorControl/MCSDK/MCLib/Any/Src/sto_cordic_speed_pos_fdbk.c **** 
 263:MCSDK_v6.0.0-Full/MotorControl/MCSDK/MCLib/Any/Src/sto_cordic_speed_pos_fdbk.c ****     /*alfa axes observer*/
 264:MCSDK_v6.0.0-Full/MotorControl/MCSDK/MCLib/Any/Src/sto_cordic_speed_pos_fdbk.c **** #ifndef FULL_MISRA_C_COMPLIANCY_STO_CORDIC
 265:MCSDK_v6.0.0-Full/MotorControl/MCSDK/MCLib/Any/Src/sto_cordic_speed_pos_fdbk.c ****     //cstat !MISRAC2012-Rule-1.3_n !ATH-shift-neg !MISRAC2012-Rule-10.1_R6
 266:MCSDK_v6.0.0-Full/MotorControl/MCSDK/MCLib/Any/Src/sto_cordic_speed_pos_fdbk.c ****     hAux = (int16_t)(pHandle->Ialfa_est >> pHandle->F1LOG);
 267:MCSDK_v6.0.0-Full/MotorControl/MCSDK/MCLib/Any/Src/sto_cordic_speed_pos_fdbk.c **** #else
 268:MCSDK_v6.0.0-Full/MotorControl/MCSDK/MCLib/Any/Src/sto_cordic_speed_pos_fdbk.c ****     hAux = (int16_t)(pHandle->Ialfa_est / pHandle->hF1);
 269:MCSDK_v6.0.0-Full/MotorControl/MCSDK/MCLib/Any/Src/sto_cordic_speed_pos_fdbk.c **** #endif
 270:MCSDK_v6.0.0-Full/MotorControl/MCSDK/MCLib/Any/Src/sto_cordic_speed_pos_fdbk.c **** 
 271:MCSDK_v6.0.0-Full/MotorControl/MCSDK/MCLib/Any/Src/sto_cordic_speed_pos_fdbk.c ****     wAux = (int32_t)(pHandle->hC1) * hAux;
 272:MCSDK_v6.0.0-Full/MotorControl/MCSDK/MCLib/Any/Src/sto_cordic_speed_pos_fdbk.c ****     wIalfa_est_Next = pHandle->Ialfa_est - wAux;
 273:MCSDK_v6.0.0-Full/MotorControl/MCSDK/MCLib/Any/Src/sto_cordic_speed_pos_fdbk.c **** 
 274:MCSDK_v6.0.0-Full/MotorControl/MCSDK/MCLib/Any/Src/sto_cordic_speed_pos_fdbk.c ****     wAux = (int32_t)(pHandle->hC2) * hIalfa_err;
 275:MCSDK_v6.0.0-Full/MotorControl/MCSDK/MCLib/Any/Src/sto_cordic_speed_pos_fdbk.c ****     wIalfa_est_Next += wAux;
 276:MCSDK_v6.0.0-Full/MotorControl/MCSDK/MCLib/Any/Src/sto_cordic_speed_pos_fdbk.c **** 
 277:MCSDK_v6.0.0-Full/MotorControl/MCSDK/MCLib/Any/Src/sto_cordic_speed_pos_fdbk.c ****     wAux = (int32_t)(pHandle->hC5) * hValfa;
 278:MCSDK_v6.0.0-Full/MotorControl/MCSDK/MCLib/Any/Src/sto_cordic_speed_pos_fdbk.c ****     wIalfa_est_Next += wAux;
 279:MCSDK_v6.0.0-Full/MotorControl/MCSDK/MCLib/Any/Src/sto_cordic_speed_pos_fdbk.c **** 
 280:MCSDK_v6.0.0-Full/MotorControl/MCSDK/MCLib/Any/Src/sto_cordic_speed_pos_fdbk.c ****     wAux = (int32_t)(pHandle->hC3) * hAux_Alfa;
 281:MCSDK_v6.0.0-Full/MotorControl/MCSDK/MCLib/Any/Src/sto_cordic_speed_pos_fdbk.c ****     wIalfa_est_Next -= wAux;
 282:MCSDK_v6.0.0-Full/MotorControl/MCSDK/MCLib/Any/Src/sto_cordic_speed_pos_fdbk.c **** 
 283:MCSDK_v6.0.0-Full/MotorControl/MCSDK/MCLib/Any/Src/sto_cordic_speed_pos_fdbk.c ****     wAux = (int32_t)(pHandle->hC4) * hIalfa_err;
 284:MCSDK_v6.0.0-Full/MotorControl/MCSDK/MCLib/Any/Src/sto_cordic_speed_pos_fdbk.c ****     wBemf_alfa_est_Next = pHandle->wBemf_alfa_est + wAux;
 285:MCSDK_v6.0.0-Full/MotorControl/MCSDK/MCLib/Any/Src/sto_cordic_speed_pos_fdbk.c **** 
 286:MCSDK_v6.0.0-Full/MotorControl/MCSDK/MCLib/Any/Src/sto_cordic_speed_pos_fdbk.c **** #ifndef FULL_MISRA_C_COMPLIANCY_STO_CORDIC
 287:MCSDK_v6.0.0-Full/MotorControl/MCSDK/MCLib/Any/Src/sto_cordic_speed_pos_fdbk.c ****     //cstat !MISRAC2012-Rule-1.3_n !ATH-shift-neg !MISRAC2012-Rule-10.1_R6
 288:MCSDK_v6.0.0-Full/MotorControl/MCSDK/MCLib/Any/Src/sto_cordic_speed_pos_fdbk.c ****     wAux = (int32_t) hAux_Beta >> pHandle->F3POW2;
 289:MCSDK_v6.0.0-Full/MotorControl/MCSDK/MCLib/Any/Src/sto_cordic_speed_pos_fdbk.c **** #else
 290:MCSDK_v6.0.0-Full/MotorControl/MCSDK/MCLib/Any/Src/sto_cordic_speed_pos_fdbk.c ****     wAux = (int32_t)hAux_Beta / pHandle->hF3;
 291:MCSDK_v6.0.0-Full/MotorControl/MCSDK/MCLib/Any/Src/sto_cordic_speed_pos_fdbk.c **** #endif
 292:MCSDK_v6.0.0-Full/MotorControl/MCSDK/MCLib/Any/Src/sto_cordic_speed_pos_fdbk.c **** 
 293:MCSDK_v6.0.0-Full/MotorControl/MCSDK/MCLib/Any/Src/sto_cordic_speed_pos_fdbk.c ****     wAux = wAux * pHandle->hC6;
 294:MCSDK_v6.0.0-Full/MotorControl/MCSDK/MCLib/Any/Src/sto_cordic_speed_pos_fdbk.c ****     wAux = hPrev_Rotor_Speed * wAux;
 295:MCSDK_v6.0.0-Full/MotorControl/MCSDK/MCLib/Any/Src/sto_cordic_speed_pos_fdbk.c ****     wBemf_alfa_est_Next += wAux;
 296:MCSDK_v6.0.0-Full/MotorControl/MCSDK/MCLib/Any/Src/sto_cordic_speed_pos_fdbk.c **** 
 297:MCSDK_v6.0.0-Full/MotorControl/MCSDK/MCLib/Any/Src/sto_cordic_speed_pos_fdbk.c ****     /*beta axes observer*/
 298:MCSDK_v6.0.0-Full/MotorControl/MCSDK/MCLib/Any/Src/sto_cordic_speed_pos_fdbk.c **** #ifndef FULL_MISRA_C_COMPLIANCY_STO_CORDIC
 299:MCSDK_v6.0.0-Full/MotorControl/MCSDK/MCLib/Any/Src/sto_cordic_speed_pos_fdbk.c ****     //cstat !MISRAC2012-Rule-1.3_n !ATH-shift-neg !MISRAC2012-Rule-10.1_R6
 300:MCSDK_v6.0.0-Full/MotorControl/MCSDK/MCLib/Any/Src/sto_cordic_speed_pos_fdbk.c ****     hAux = (int16_t)(pHandle->Ibeta_est >> pHandle->F1LOG);
 301:MCSDK_v6.0.0-Full/MotorControl/MCSDK/MCLib/Any/Src/sto_cordic_speed_pos_fdbk.c **** #else
 302:MCSDK_v6.0.0-Full/MotorControl/MCSDK/MCLib/Any/Src/sto_cordic_speed_pos_fdbk.c ****     hAux = (int16_t)(pHandle->Ibeta_est / pHandle->hF1);
 303:MCSDK_v6.0.0-Full/MotorControl/MCSDK/MCLib/Any/Src/sto_cordic_speed_pos_fdbk.c **** #endif
 304:MCSDK_v6.0.0-Full/MotorControl/MCSDK/MCLib/Any/Src/sto_cordic_speed_pos_fdbk.c **** 
 305:MCSDK_v6.0.0-Full/MotorControl/MCSDK/MCLib/Any/Src/sto_cordic_speed_pos_fdbk.c ****     wAux = (int32_t)(pHandle->hC1) * hAux;
 306:MCSDK_v6.0.0-Full/MotorControl/MCSDK/MCLib/Any/Src/sto_cordic_speed_pos_fdbk.c ****     wIbeta_est_Next = pHandle->Ibeta_est - wAux;
 307:MCSDK_v6.0.0-Full/MotorControl/MCSDK/MCLib/Any/Src/sto_cordic_speed_pos_fdbk.c **** 
 308:MCSDK_v6.0.0-Full/MotorControl/MCSDK/MCLib/Any/Src/sto_cordic_speed_pos_fdbk.c ****     wAux = (int32_t)(pHandle->hC2) * hIbeta_err;
 309:MCSDK_v6.0.0-Full/MotorControl/MCSDK/MCLib/Any/Src/sto_cordic_speed_pos_fdbk.c ****     wIbeta_est_Next += wAux;
 310:MCSDK_v6.0.0-Full/MotorControl/MCSDK/MCLib/Any/Src/sto_cordic_speed_pos_fdbk.c **** 
 311:MCSDK_v6.0.0-Full/MotorControl/MCSDK/MCLib/Any/Src/sto_cordic_speed_pos_fdbk.c ****     wAux = (int32_t)(pHandle->hC5) * hVbeta;
 312:MCSDK_v6.0.0-Full/MotorControl/MCSDK/MCLib/Any/Src/sto_cordic_speed_pos_fdbk.c ****     wIbeta_est_Next += wAux;
 313:MCSDK_v6.0.0-Full/MotorControl/MCSDK/MCLib/Any/Src/sto_cordic_speed_pos_fdbk.c **** 
 314:MCSDK_v6.0.0-Full/MotorControl/MCSDK/MCLib/Any/Src/sto_cordic_speed_pos_fdbk.c ****     wAux = (int32_t)(pHandle->hC3) * hAux_Beta;
 315:MCSDK_v6.0.0-Full/MotorControl/MCSDK/MCLib/Any/Src/sto_cordic_speed_pos_fdbk.c ****     wIbeta_est_Next -= wAux;
ARM GAS  /tmp/ccLjXLyq.s 			page 7


 316:MCSDK_v6.0.0-Full/MotorControl/MCSDK/MCLib/Any/Src/sto_cordic_speed_pos_fdbk.c **** 
 317:MCSDK_v6.0.0-Full/MotorControl/MCSDK/MCLib/Any/Src/sto_cordic_speed_pos_fdbk.c ****     wAux = (int32_t)(pHandle->hC4) * hIbeta_err;
 318:MCSDK_v6.0.0-Full/MotorControl/MCSDK/MCLib/Any/Src/sto_cordic_speed_pos_fdbk.c ****     wBemf_beta_est_Next = pHandle->wBemf_beta_est + wAux;
 319:MCSDK_v6.0.0-Full/MotorControl/MCSDK/MCLib/Any/Src/sto_cordic_speed_pos_fdbk.c **** 
 320:MCSDK_v6.0.0-Full/MotorControl/MCSDK/MCLib/Any/Src/sto_cordic_speed_pos_fdbk.c **** #ifndef FULL_MISRA_C_COMPLIANCY_STO_CORDIC
 321:MCSDK_v6.0.0-Full/MotorControl/MCSDK/MCLib/Any/Src/sto_cordic_speed_pos_fdbk.c ****     //cstat !MISRAC2012-Rule-1.3_n !ATH-shift-neg !MISRAC2012-Rule-10.1_R6
 322:MCSDK_v6.0.0-Full/MotorControl/MCSDK/MCLib/Any/Src/sto_cordic_speed_pos_fdbk.c ****     wAux = (int32_t) hAux_Alfa >> pHandle->F3POW2;
 323:MCSDK_v6.0.0-Full/MotorControl/MCSDK/MCLib/Any/Src/sto_cordic_speed_pos_fdbk.c **** #else
 324:MCSDK_v6.0.0-Full/MotorControl/MCSDK/MCLib/Any/Src/sto_cordic_speed_pos_fdbk.c ****     wAux = (int32_t)hAux_Alfa / pHandle->hF3;
 325:MCSDK_v6.0.0-Full/MotorControl/MCSDK/MCLib/Any/Src/sto_cordic_speed_pos_fdbk.c **** #endif
 326:MCSDK_v6.0.0-Full/MotorControl/MCSDK/MCLib/Any/Src/sto_cordic_speed_pos_fdbk.c **** 
 327:MCSDK_v6.0.0-Full/MotorControl/MCSDK/MCLib/Any/Src/sto_cordic_speed_pos_fdbk.c ****     wAux = wAux * pHandle->hC6;
 328:MCSDK_v6.0.0-Full/MotorControl/MCSDK/MCLib/Any/Src/sto_cordic_speed_pos_fdbk.c ****     wAux = hPrev_Rotor_Speed * wAux;
 329:MCSDK_v6.0.0-Full/MotorControl/MCSDK/MCLib/Any/Src/sto_cordic_speed_pos_fdbk.c ****     wBemf_beta_est_Next -= wAux;
 330:MCSDK_v6.0.0-Full/MotorControl/MCSDK/MCLib/Any/Src/sto_cordic_speed_pos_fdbk.c **** 
 331:MCSDK_v6.0.0-Full/MotorControl/MCSDK/MCLib/Any/Src/sto_cordic_speed_pos_fdbk.c ****     if (pHandle->Orig_ElSpeedDpp >= 0)
 332:MCSDK_v6.0.0-Full/MotorControl/MCSDK/MCLib/Any/Src/sto_cordic_speed_pos_fdbk.c ****     {
 333:MCSDK_v6.0.0-Full/MotorControl/MCSDK/MCLib/Any/Src/sto_cordic_speed_pos_fdbk.c ****       wDirection = 1;
 334:MCSDK_v6.0.0-Full/MotorControl/MCSDK/MCLib/Any/Src/sto_cordic_speed_pos_fdbk.c ****     }
 335:MCSDK_v6.0.0-Full/MotorControl/MCSDK/MCLib/Any/Src/sto_cordic_speed_pos_fdbk.c ****     else
 336:MCSDK_v6.0.0-Full/MotorControl/MCSDK/MCLib/Any/Src/sto_cordic_speed_pos_fdbk.c ****     {
 337:MCSDK_v6.0.0-Full/MotorControl/MCSDK/MCLib/Any/Src/sto_cordic_speed_pos_fdbk.c ****       wDirection = -1;
 338:MCSDK_v6.0.0-Full/MotorControl/MCSDK/MCLib/Any/Src/sto_cordic_speed_pos_fdbk.c ****     }
 339:MCSDK_v6.0.0-Full/MotorControl/MCSDK/MCLib/Any/Src/sto_cordic_speed_pos_fdbk.c **** 
 340:MCSDK_v6.0.0-Full/MotorControl/MCSDK/MCLib/Any/Src/sto_cordic_speed_pos_fdbk.c ****     /*Stores observed b-emfs */
 341:MCSDK_v6.0.0-Full/MotorControl/MCSDK/MCLib/Any/Src/sto_cordic_speed_pos_fdbk.c ****     pHandle->hBemf_alfa_est = hAux_Alfa;
 342:MCSDK_v6.0.0-Full/MotorControl/MCSDK/MCLib/Any/Src/sto_cordic_speed_pos_fdbk.c ****     pHandle->hBemf_beta_est = hAux_Beta;
 343:MCSDK_v6.0.0-Full/MotorControl/MCSDK/MCLib/Any/Src/sto_cordic_speed_pos_fdbk.c **** 
 344:MCSDK_v6.0.0-Full/MotorControl/MCSDK/MCLib/Any/Src/sto_cordic_speed_pos_fdbk.c ****     /*Calls the CORDIC blockset*/
 345:MCSDK_v6.0.0-Full/MotorControl/MCSDK/MCLib/Any/Src/sto_cordic_speed_pos_fdbk.c ****     wAux_Alpha = pHandle->wBemf_alfa_est * wDirection;
 346:MCSDK_v6.0.0-Full/MotorControl/MCSDK/MCLib/Any/Src/sto_cordic_speed_pos_fdbk.c ****     wAux_Beta = pHandle->wBemf_beta_est * wDirection;
 347:MCSDK_v6.0.0-Full/MotorControl/MCSDK/MCLib/Any/Src/sto_cordic_speed_pos_fdbk.c **** 
 348:MCSDK_v6.0.0-Full/MotorControl/MCSDK/MCLib/Any/Src/sto_cordic_speed_pos_fdbk.c ****     hRotor_Angle = MCM_PhaseComputation(wAux_Alpha, -wAux_Beta);
 349:MCSDK_v6.0.0-Full/MotorControl/MCSDK/MCLib/Any/Src/sto_cordic_speed_pos_fdbk.c **** 
 350:MCSDK_v6.0.0-Full/MotorControl/MCSDK/MCLib/Any/Src/sto_cordic_speed_pos_fdbk.c ****     hOrRotor_Speed = (int16_t)(hRotor_Angle - hPrev_Rotor_Angle);
 351:MCSDK_v6.0.0-Full/MotorControl/MCSDK/MCLib/Any/Src/sto_cordic_speed_pos_fdbk.c ****     hRotor_Acceleration = hOrRotor_Speed - hPrev_Rotor_Speed;
 352:MCSDK_v6.0.0-Full/MotorControl/MCSDK/MCLib/Any/Src/sto_cordic_speed_pos_fdbk.c **** 
 353:MCSDK_v6.0.0-Full/MotorControl/MCSDK/MCLib/Any/Src/sto_cordic_speed_pos_fdbk.c ****     hRotor_Speed = hOrRotor_Speed;
 354:MCSDK_v6.0.0-Full/MotorControl/MCSDK/MCLib/Any/Src/sto_cordic_speed_pos_fdbk.c **** 
 355:MCSDK_v6.0.0-Full/MotorControl/MCSDK/MCLib/Any/Src/sto_cordic_speed_pos_fdbk.c ****     if (wDirection == 1)
 356:MCSDK_v6.0.0-Full/MotorControl/MCSDK/MCLib/Any/Src/sto_cordic_speed_pos_fdbk.c ****     {
 357:MCSDK_v6.0.0-Full/MotorControl/MCSDK/MCLib/Any/Src/sto_cordic_speed_pos_fdbk.c ****       if (hRotor_Speed < 0)
 358:MCSDK_v6.0.0-Full/MotorControl/MCSDK/MCLib/Any/Src/sto_cordic_speed_pos_fdbk.c ****       {
 359:MCSDK_v6.0.0-Full/MotorControl/MCSDK/MCLib/Any/Src/sto_cordic_speed_pos_fdbk.c ****         hRotor_Speed = 0;
 360:MCSDK_v6.0.0-Full/MotorControl/MCSDK/MCLib/Any/Src/sto_cordic_speed_pos_fdbk.c ****       }
 361:MCSDK_v6.0.0-Full/MotorControl/MCSDK/MCLib/Any/Src/sto_cordic_speed_pos_fdbk.c ****       else
 362:MCSDK_v6.0.0-Full/MotorControl/MCSDK/MCLib/Any/Src/sto_cordic_speed_pos_fdbk.c ****       {
 363:MCSDK_v6.0.0-Full/MotorControl/MCSDK/MCLib/Any/Src/sto_cordic_speed_pos_fdbk.c ****         if (hRotor_Acceleration > hMax_Instant_Accel)
 364:MCSDK_v6.0.0-Full/MotorControl/MCSDK/MCLib/Any/Src/sto_cordic_speed_pos_fdbk.c ****         {
 365:MCSDK_v6.0.0-Full/MotorControl/MCSDK/MCLib/Any/Src/sto_cordic_speed_pos_fdbk.c ****           hRotor_Speed = hPrev_Rotor_Speed + hMax_Instant_Accel;
 366:MCSDK_v6.0.0-Full/MotorControl/MCSDK/MCLib/Any/Src/sto_cordic_speed_pos_fdbk.c **** 
 367:MCSDK_v6.0.0-Full/MotorControl/MCSDK/MCLib/Any/Src/sto_cordic_speed_pos_fdbk.c ****           pHandle->_Super.hElAngle = hPrev_Rotor_Angle + hRotor_Speed;
 368:MCSDK_v6.0.0-Full/MotorControl/MCSDK/MCLib/Any/Src/sto_cordic_speed_pos_fdbk.c ****         }
 369:MCSDK_v6.0.0-Full/MotorControl/MCSDK/MCLib/Any/Src/sto_cordic_speed_pos_fdbk.c ****         else
 370:MCSDK_v6.0.0-Full/MotorControl/MCSDK/MCLib/Any/Src/sto_cordic_speed_pos_fdbk.c ****         {
 371:MCSDK_v6.0.0-Full/MotorControl/MCSDK/MCLib/Any/Src/sto_cordic_speed_pos_fdbk.c ****           pHandle->_Super.hElAngle = hRotor_Angle;
 372:MCSDK_v6.0.0-Full/MotorControl/MCSDK/MCLib/Any/Src/sto_cordic_speed_pos_fdbk.c ****         }
ARM GAS  /tmp/ccLjXLyq.s 			page 8


 373:MCSDK_v6.0.0-Full/MotorControl/MCSDK/MCLib/Any/Src/sto_cordic_speed_pos_fdbk.c ****       }
 374:MCSDK_v6.0.0-Full/MotorControl/MCSDK/MCLib/Any/Src/sto_cordic_speed_pos_fdbk.c ****     }
 375:MCSDK_v6.0.0-Full/MotorControl/MCSDK/MCLib/Any/Src/sto_cordic_speed_pos_fdbk.c ****     else
 376:MCSDK_v6.0.0-Full/MotorControl/MCSDK/MCLib/Any/Src/sto_cordic_speed_pos_fdbk.c ****     {
 377:MCSDK_v6.0.0-Full/MotorControl/MCSDK/MCLib/Any/Src/sto_cordic_speed_pos_fdbk.c ****       if (hRotor_Speed > 0)
 378:MCSDK_v6.0.0-Full/MotorControl/MCSDK/MCLib/Any/Src/sto_cordic_speed_pos_fdbk.c ****       {
 379:MCSDK_v6.0.0-Full/MotorControl/MCSDK/MCLib/Any/Src/sto_cordic_speed_pos_fdbk.c ****         hRotor_Speed = 0;
 380:MCSDK_v6.0.0-Full/MotorControl/MCSDK/MCLib/Any/Src/sto_cordic_speed_pos_fdbk.c ****       }
 381:MCSDK_v6.0.0-Full/MotorControl/MCSDK/MCLib/Any/Src/sto_cordic_speed_pos_fdbk.c ****       else
 382:MCSDK_v6.0.0-Full/MotorControl/MCSDK/MCLib/Any/Src/sto_cordic_speed_pos_fdbk.c ****       {
 383:MCSDK_v6.0.0-Full/MotorControl/MCSDK/MCLib/Any/Src/sto_cordic_speed_pos_fdbk.c ****         if (hRotor_Acceleration < (-hMax_Instant_Accel))
 384:MCSDK_v6.0.0-Full/MotorControl/MCSDK/MCLib/Any/Src/sto_cordic_speed_pos_fdbk.c ****         {
 385:MCSDK_v6.0.0-Full/MotorControl/MCSDK/MCLib/Any/Src/sto_cordic_speed_pos_fdbk.c ****           hRotor_Speed = hPrev_Rotor_Speed - hMax_Instant_Accel;
 386:MCSDK_v6.0.0-Full/MotorControl/MCSDK/MCLib/Any/Src/sto_cordic_speed_pos_fdbk.c **** 
 387:MCSDK_v6.0.0-Full/MotorControl/MCSDK/MCLib/Any/Src/sto_cordic_speed_pos_fdbk.c ****           pHandle->_Super.hElAngle = hPrev_Rotor_Angle + hRotor_Speed;
 388:MCSDK_v6.0.0-Full/MotorControl/MCSDK/MCLib/Any/Src/sto_cordic_speed_pos_fdbk.c ****         }
 389:MCSDK_v6.0.0-Full/MotorControl/MCSDK/MCLib/Any/Src/sto_cordic_speed_pos_fdbk.c ****         else
 390:MCSDK_v6.0.0-Full/MotorControl/MCSDK/MCLib/Any/Src/sto_cordic_speed_pos_fdbk.c ****         {
 391:MCSDK_v6.0.0-Full/MotorControl/MCSDK/MCLib/Any/Src/sto_cordic_speed_pos_fdbk.c ****           pHandle->_Super.hElAngle = hRotor_Angle;
 392:MCSDK_v6.0.0-Full/MotorControl/MCSDK/MCLib/Any/Src/sto_cordic_speed_pos_fdbk.c ****         }
 393:MCSDK_v6.0.0-Full/MotorControl/MCSDK/MCLib/Any/Src/sto_cordic_speed_pos_fdbk.c ****       }
 394:MCSDK_v6.0.0-Full/MotorControl/MCSDK/MCLib/Any/Src/sto_cordic_speed_pos_fdbk.c ****     }
 395:MCSDK_v6.0.0-Full/MotorControl/MCSDK/MCLib/Any/Src/sto_cordic_speed_pos_fdbk.c **** 
 396:MCSDK_v6.0.0-Full/MotorControl/MCSDK/MCLib/Any/Src/sto_cordic_speed_pos_fdbk.c **** 
 397:MCSDK_v6.0.0-Full/MotorControl/MCSDK/MCLib/Any/Src/sto_cordic_speed_pos_fdbk.c ****     if (hRotor_Acceleration > hMax_Instant_Accel)
 398:MCSDK_v6.0.0-Full/MotorControl/MCSDK/MCLib/Any/Src/sto_cordic_speed_pos_fdbk.c ****     {
 399:MCSDK_v6.0.0-Full/MotorControl/MCSDK/MCLib/Any/Src/sto_cordic_speed_pos_fdbk.c ****       hOrRotor_Speed = hPrev_Rotor_Speed + hMax_Instant_Accel;
 400:MCSDK_v6.0.0-Full/MotorControl/MCSDK/MCLib/Any/Src/sto_cordic_speed_pos_fdbk.c ****     }
 401:MCSDK_v6.0.0-Full/MotorControl/MCSDK/MCLib/Any/Src/sto_cordic_speed_pos_fdbk.c ****     else if (hRotor_Acceleration < (-hMax_Instant_Accel))
 402:MCSDK_v6.0.0-Full/MotorControl/MCSDK/MCLib/Any/Src/sto_cordic_speed_pos_fdbk.c ****     {
 403:MCSDK_v6.0.0-Full/MotorControl/MCSDK/MCLib/Any/Src/sto_cordic_speed_pos_fdbk.c ****       hOrRotor_Speed = hPrev_Rotor_Speed - hMax_Instant_Accel;
 404:MCSDK_v6.0.0-Full/MotorControl/MCSDK/MCLib/Any/Src/sto_cordic_speed_pos_fdbk.c ****     }
 405:MCSDK_v6.0.0-Full/MotorControl/MCSDK/MCLib/Any/Src/sto_cordic_speed_pos_fdbk.c ****     else
 406:MCSDK_v6.0.0-Full/MotorControl/MCSDK/MCLib/Any/Src/sto_cordic_speed_pos_fdbk.c ****     {
 407:MCSDK_v6.0.0-Full/MotorControl/MCSDK/MCLib/Any/Src/sto_cordic_speed_pos_fdbk.c ****       /* nothing to do */
 408:MCSDK_v6.0.0-Full/MotorControl/MCSDK/MCLib/Any/Src/sto_cordic_speed_pos_fdbk.c ****     }
 409:MCSDK_v6.0.0-Full/MotorControl/MCSDK/MCLib/Any/Src/sto_cordic_speed_pos_fdbk.c **** 
 410:MCSDK_v6.0.0-Full/MotorControl/MCSDK/MCLib/Any/Src/sto_cordic_speed_pos_fdbk.c **** 
 411:MCSDK_v6.0.0-Full/MotorControl/MCSDK/MCLib/Any/Src/sto_cordic_speed_pos_fdbk.c ****     STO_CR_Store_Rotor_Speed(pHandle, hRotor_Speed, hOrRotor_Speed);
 412:MCSDK_v6.0.0-Full/MotorControl/MCSDK/MCLib/Any/Src/sto_cordic_speed_pos_fdbk.c **** 
 413:MCSDK_v6.0.0-Full/MotorControl/MCSDK/MCLib/Any/Src/sto_cordic_speed_pos_fdbk.c ****     /*storing previous values of currents and bemfs*/
 414:MCSDK_v6.0.0-Full/MotorControl/MCSDK/MCLib/Any/Src/sto_cordic_speed_pos_fdbk.c ****     pHandle->Ialfa_est = wIalfa_est_Next;
 415:MCSDK_v6.0.0-Full/MotorControl/MCSDK/MCLib/Any/Src/sto_cordic_speed_pos_fdbk.c ****     pHandle->wBemf_alfa_est = wBemf_alfa_est_Next;
 416:MCSDK_v6.0.0-Full/MotorControl/MCSDK/MCLib/Any/Src/sto_cordic_speed_pos_fdbk.c **** 
 417:MCSDK_v6.0.0-Full/MotorControl/MCSDK/MCLib/Any/Src/sto_cordic_speed_pos_fdbk.c ****     pHandle->Ibeta_est = wIbeta_est_Next;
 418:MCSDK_v6.0.0-Full/MotorControl/MCSDK/MCLib/Any/Src/sto_cordic_speed_pos_fdbk.c ****     pHandle->wBemf_beta_est = wBemf_beta_est_Next;
 419:MCSDK_v6.0.0-Full/MotorControl/MCSDK/MCLib/Any/Src/sto_cordic_speed_pos_fdbk.c ****     returnvalue = pHandle->_Super.hElAngle;
 420:MCSDK_v6.0.0-Full/MotorControl/MCSDK/MCLib/Any/Src/sto_cordic_speed_pos_fdbk.c **** #ifdef NULL_PTR_STO_COR_SPD_POS_FDB
 421:MCSDK_v6.0.0-Full/MotorControl/MCSDK/MCLib/Any/Src/sto_cordic_speed_pos_fdbk.c ****   }
 422:MCSDK_v6.0.0-Full/MotorControl/MCSDK/MCLib/Any/Src/sto_cordic_speed_pos_fdbk.c **** #endif
 423:MCSDK_v6.0.0-Full/MotorControl/MCSDK/MCLib/Any/Src/sto_cordic_speed_pos_fdbk.c ****   return (returnvalue);
 424:MCSDK_v6.0.0-Full/MotorControl/MCSDK/MCLib/Any/Src/sto_cordic_speed_pos_fdbk.c **** }
 425:MCSDK_v6.0.0-Full/MotorControl/MCSDK/MCLib/Any/Src/sto_cordic_speed_pos_fdbk.c **** 
 426:MCSDK_v6.0.0-Full/MotorControl/MCSDK/MCLib/Any/Src/sto_cordic_speed_pos_fdbk.c **** /**
 427:MCSDK_v6.0.0-Full/MotorControl/MCSDK/MCLib/Any/Src/sto_cordic_speed_pos_fdbk.c ****   * @brief Computes the rotor average mechanical speed in the unit defined by
 428:MCSDK_v6.0.0-Full/MotorControl/MCSDK/MCLib/Any/Src/sto_cordic_speed_pos_fdbk.c ****   *        #SPEED_UNIT and writes it in pMecSpeedUnit
 429:MCSDK_v6.0.0-Full/MotorControl/MCSDK/MCLib/Any/Src/sto_cordic_speed_pos_fdbk.c ****   *
ARM GAS  /tmp/ccLjXLyq.s 			page 9


 430:MCSDK_v6.0.0-Full/MotorControl/MCSDK/MCLib/Any/Src/sto_cordic_speed_pos_fdbk.c ****   *  This method must be called - at least - with the same periodicity
 431:MCSDK_v6.0.0-Full/MotorControl/MCSDK/MCLib/Any/Src/sto_cordic_speed_pos_fdbk.c ****   * on which the speed control is executed. It computes and returns - through
 432:MCSDK_v6.0.0-Full/MotorControl/MCSDK/MCLib/Any/Src/sto_cordic_speed_pos_fdbk.c ****   * parameter pMecSpeedUnit - the rotor average mechanical speed, expressed in
 433:MCSDK_v6.0.0-Full/MotorControl/MCSDK/MCLib/Any/Src/sto_cordic_speed_pos_fdbk.c ****   * the unit defined by #SPEED_UNIT. Average is computed considering a FIFO depth
 434:MCSDK_v6.0.0-Full/MotorControl/MCSDK/MCLib/Any/Src/sto_cordic_speed_pos_fdbk.c ****   * equal to STO_CR_Handle_t::SpeedBufferSizeUnit.
 435:MCSDK_v6.0.0-Full/MotorControl/MCSDK/MCLib/Any/Src/sto_cordic_speed_pos_fdbk.c ****   *
 436:MCSDK_v6.0.0-Full/MotorControl/MCSDK/MCLib/Any/Src/sto_cordic_speed_pos_fdbk.c ****   * Moreover it also computes and returns the reliability state of the sensor,
 437:MCSDK_v6.0.0-Full/MotorControl/MCSDK/MCLib/Any/Src/sto_cordic_speed_pos_fdbk.c ****   * measured with reference to parameters STO_CR_Handle_t::Reliability_hysteresys,
 438:MCSDK_v6.0.0-Full/MotorControl/MCSDK/MCLib/Any/Src/sto_cordic_speed_pos_fdbk.c ****   * STO_CR_Handle_t::VariancePercentage and STO_CR_Handle_t::SpeedBufferSizeUnit of
 439:MCSDK_v6.0.0-Full/MotorControl/MCSDK/MCLib/Any/Src/sto_cordic_speed_pos_fdbk.c ****   * the STO_CR_Handle_t handle.
 440:MCSDK_v6.0.0-Full/MotorControl/MCSDK/MCLib/Any/Src/sto_cordic_speed_pos_fdbk.c ****   *
 441:MCSDK_v6.0.0-Full/MotorControl/MCSDK/MCLib/Any/Src/sto_cordic_speed_pos_fdbk.c ****   * @param  pHandle handler of the current instance of the STO CORDIC component
 442:MCSDK_v6.0.0-Full/MotorControl/MCSDK/MCLib/Any/Src/sto_cordic_speed_pos_fdbk.c ****   * @param  pMecSpeedUnit pointer to int16_t, used to return the rotor average
 443:MCSDK_v6.0.0-Full/MotorControl/MCSDK/MCLib/Any/Src/sto_cordic_speed_pos_fdbk.c ****   *         mechanical speed
 444:MCSDK_v6.0.0-Full/MotorControl/MCSDK/MCLib/Any/Src/sto_cordic_speed_pos_fdbk.c ****   * @retval true if the sensor information is reliable, false otherwise
 445:MCSDK_v6.0.0-Full/MotorControl/MCSDK/MCLib/Any/Src/sto_cordic_speed_pos_fdbk.c ****   */
 446:MCSDK_v6.0.0-Full/MotorControl/MCSDK/MCLib/Any/Src/sto_cordic_speed_pos_fdbk.c **** 
 447:MCSDK_v6.0.0-Full/MotorControl/MCSDK/MCLib/Any/Src/sto_cordic_speed_pos_fdbk.c **** __weak bool STO_CR_CalcAvrgMecSpeedUnit(STO_CR_Handle_t *pHandle, int16_t *pMecSpeedUnit)
 448:MCSDK_v6.0.0-Full/MotorControl/MCSDK/MCLib/Any/Src/sto_cordic_speed_pos_fdbk.c **** {
 449:MCSDK_v6.0.0-Full/MotorControl/MCSDK/MCLib/Any/Src/sto_cordic_speed_pos_fdbk.c ****   bool bAux = false;
 450:MCSDK_v6.0.0-Full/MotorControl/MCSDK/MCLib/Any/Src/sto_cordic_speed_pos_fdbk.c **** #ifdef NULL_PTR_STO_COR_SPD_POS_FDB
 451:MCSDK_v6.0.0-Full/MotorControl/MCSDK/MCLib/Any/Src/sto_cordic_speed_pos_fdbk.c ****   if ((NULL == pHandle) || (NULL == pMecSpeedUnit))
 452:MCSDK_v6.0.0-Full/MotorControl/MCSDK/MCLib/Any/Src/sto_cordic_speed_pos_fdbk.c ****   {
 453:MCSDK_v6.0.0-Full/MotorControl/MCSDK/MCLib/Any/Src/sto_cordic_speed_pos_fdbk.c ****     /* Nothing to do */
 454:MCSDK_v6.0.0-Full/MotorControl/MCSDK/MCLib/Any/Src/sto_cordic_speed_pos_fdbk.c ****   }
 455:MCSDK_v6.0.0-Full/MotorControl/MCSDK/MCLib/Any/Src/sto_cordic_speed_pos_fdbk.c ****   else
 456:MCSDK_v6.0.0-Full/MotorControl/MCSDK/MCLib/Any/Src/sto_cordic_speed_pos_fdbk.c ****   {
 457:MCSDK_v6.0.0-Full/MotorControl/MCSDK/MCLib/Any/Src/sto_cordic_speed_pos_fdbk.c **** #endif
 458:MCSDK_v6.0.0-Full/MotorControl/MCSDK/MCLib/Any/Src/sto_cordic_speed_pos_fdbk.c ****     uint8_t i;
 459:MCSDK_v6.0.0-Full/MotorControl/MCSDK/MCLib/Any/Src/sto_cordic_speed_pos_fdbk.c ****     uint8_t bSpeedBufferSizeUnit = pHandle->SpeedBufferSizeUnit;
 460:MCSDK_v6.0.0-Full/MotorControl/MCSDK/MCLib/Any/Src/sto_cordic_speed_pos_fdbk.c ****     bool bIs_Speed_Reliable = false;
 461:MCSDK_v6.0.0-Full/MotorControl/MCSDK/MCLib/Any/Src/sto_cordic_speed_pos_fdbk.c **** 
 462:MCSDK_v6.0.0-Full/MotorControl/MCSDK/MCLib/Any/Src/sto_cordic_speed_pos_fdbk.c ****     int32_t wAvrSpeed_dpp = (int32_t)0;
 463:MCSDK_v6.0.0-Full/MotorControl/MCSDK/MCLib/Any/Src/sto_cordic_speed_pos_fdbk.c ****     int32_t wError, wAux, wAvrSquareSpeed;
 464:MCSDK_v6.0.0-Full/MotorControl/MCSDK/MCLib/Any/Src/sto_cordic_speed_pos_fdbk.c ****     int32_t wAvrQuadraticError = 0;
 465:MCSDK_v6.0.0-Full/MotorControl/MCSDK/MCLib/Any/Src/sto_cordic_speed_pos_fdbk.c ****     int32_t wObsBemf, wEstBemf;
 466:MCSDK_v6.0.0-Full/MotorControl/MCSDK/MCLib/Any/Src/sto_cordic_speed_pos_fdbk.c ****     int32_t wObsBemfSq = 0;
 467:MCSDK_v6.0.0-Full/MotorControl/MCSDK/MCLib/Any/Src/sto_cordic_speed_pos_fdbk.c ****     int32_t wEstBemfSq = 0;
 468:MCSDK_v6.0.0-Full/MotorControl/MCSDK/MCLib/Any/Src/sto_cordic_speed_pos_fdbk.c ****     int32_t wEstBemfSqLo;
 469:MCSDK_v6.0.0-Full/MotorControl/MCSDK/MCLib/Any/Src/sto_cordic_speed_pos_fdbk.c ****     /* false positive */
 470:MCSDK_v6.0.0-Full/MotorControl/MCSDK/MCLib/Any/Src/sto_cordic_speed_pos_fdbk.c **** 
 471:MCSDK_v6.0.0-Full/MotorControl/MCSDK/MCLib/Any/Src/sto_cordic_speed_pos_fdbk.c ****     bool bIs_Bemf_Consistent = false;
 472:MCSDK_v6.0.0-Full/MotorControl/MCSDK/MCLib/Any/Src/sto_cordic_speed_pos_fdbk.c **** 
 473:MCSDK_v6.0.0-Full/MotorControl/MCSDK/MCLib/Any/Src/sto_cordic_speed_pos_fdbk.c ****     for (i = 0U; i < bSpeedBufferSizeUnit; i++)
 474:MCSDK_v6.0.0-Full/MotorControl/MCSDK/MCLib/Any/Src/sto_cordic_speed_pos_fdbk.c ****     {
 475:MCSDK_v6.0.0-Full/MotorControl/MCSDK/MCLib/Any/Src/sto_cordic_speed_pos_fdbk.c ****       wAvrSpeed_dpp += (int32_t)(pHandle->Speed_Buffer[i]);
 476:MCSDK_v6.0.0-Full/MotorControl/MCSDK/MCLib/Any/Src/sto_cordic_speed_pos_fdbk.c ****     }
 477:MCSDK_v6.0.0-Full/MotorControl/MCSDK/MCLib/Any/Src/sto_cordic_speed_pos_fdbk.c **** 
 478:MCSDK_v6.0.0-Full/MotorControl/MCSDK/MCLib/Any/Src/sto_cordic_speed_pos_fdbk.c ****     if ((uint8_t)0 == bSpeedBufferSizeUnit)
 479:MCSDK_v6.0.0-Full/MotorControl/MCSDK/MCLib/Any/Src/sto_cordic_speed_pos_fdbk.c ****     {
 480:MCSDK_v6.0.0-Full/MotorControl/MCSDK/MCLib/Any/Src/sto_cordic_speed_pos_fdbk.c ****       /* Nothing to do */
 481:MCSDK_v6.0.0-Full/MotorControl/MCSDK/MCLib/Any/Src/sto_cordic_speed_pos_fdbk.c ****     }
 482:MCSDK_v6.0.0-Full/MotorControl/MCSDK/MCLib/Any/Src/sto_cordic_speed_pos_fdbk.c ****     else
 483:MCSDK_v6.0.0-Full/MotorControl/MCSDK/MCLib/Any/Src/sto_cordic_speed_pos_fdbk.c ****     {
 484:MCSDK_v6.0.0-Full/MotorControl/MCSDK/MCLib/Any/Src/sto_cordic_speed_pos_fdbk.c ****       wAvrSpeed_dpp = wAvrSpeed_dpp / (int16_t)bSpeedBufferSizeUnit;
 485:MCSDK_v6.0.0-Full/MotorControl/MCSDK/MCLib/Any/Src/sto_cordic_speed_pos_fdbk.c ****     }
 486:MCSDK_v6.0.0-Full/MotorControl/MCSDK/MCLib/Any/Src/sto_cordic_speed_pos_fdbk.c **** 
ARM GAS  /tmp/ccLjXLyq.s 			page 10


 487:MCSDK_v6.0.0-Full/MotorControl/MCSDK/MCLib/Any/Src/sto_cordic_speed_pos_fdbk.c **** 
 488:MCSDK_v6.0.0-Full/MotorControl/MCSDK/MCLib/Any/Src/sto_cordic_speed_pos_fdbk.c ****     /* value is written during init and computed
 489:MCSDK_v6.0.0-Full/MotorControl/MCSDK/MCLib/Any/Src/sto_cordic_speed_pos_fdbk.c ****        by MC Workbench and always >= 1 */
 490:MCSDK_v6.0.0-Full/MotorControl/MCSDK/MCLib/Any/Src/sto_cordic_speed_pos_fdbk.c ****     //cstat -MISRAC2012-Rule-1.3_d
 491:MCSDK_v6.0.0-Full/MotorControl/MCSDK/MCLib/Any/Src/sto_cordic_speed_pos_fdbk.c **** 
 492:MCSDK_v6.0.0-Full/MotorControl/MCSDK/MCLib/Any/Src/sto_cordic_speed_pos_fdbk.c ****     for (i = 0U; i < bSpeedBufferSizeUnit; i++)
 493:MCSDK_v6.0.0-Full/MotorControl/MCSDK/MCLib/Any/Src/sto_cordic_speed_pos_fdbk.c ****     {
 494:MCSDK_v6.0.0-Full/MotorControl/MCSDK/MCLib/Any/Src/sto_cordic_speed_pos_fdbk.c ****       wError = (int32_t)(pHandle->Speed_Buffer[i]) - wAvrSpeed_dpp;
 495:MCSDK_v6.0.0-Full/MotorControl/MCSDK/MCLib/Any/Src/sto_cordic_speed_pos_fdbk.c ****       wError = (wError * wError);
 496:MCSDK_v6.0.0-Full/MotorControl/MCSDK/MCLib/Any/Src/sto_cordic_speed_pos_fdbk.c ****       wAvrQuadraticError += wError;
 497:MCSDK_v6.0.0-Full/MotorControl/MCSDK/MCLib/Any/Src/sto_cordic_speed_pos_fdbk.c ****     }
 498:MCSDK_v6.0.0-Full/MotorControl/MCSDK/MCLib/Any/Src/sto_cordic_speed_pos_fdbk.c **** 
 499:MCSDK_v6.0.0-Full/MotorControl/MCSDK/MCLib/Any/Src/sto_cordic_speed_pos_fdbk.c **** 
 500:MCSDK_v6.0.0-Full/MotorControl/MCSDK/MCLib/Any/Src/sto_cordic_speed_pos_fdbk.c ****     /*It computes the measurement variance   */
 501:MCSDK_v6.0.0-Full/MotorControl/MCSDK/MCLib/Any/Src/sto_cordic_speed_pos_fdbk.c ****     wAvrQuadraticError = wAvrQuadraticError / (int16_t)bSpeedBufferSizeUnit;
 502:MCSDK_v6.0.0-Full/MotorControl/MCSDK/MCLib/Any/Src/sto_cordic_speed_pos_fdbk.c ****     //cstat +MISRAC2012-Rule-1.3_d
 503:MCSDK_v6.0.0-Full/MotorControl/MCSDK/MCLib/Any/Src/sto_cordic_speed_pos_fdbk.c ****     /* The maximum variance acceptable is here calculated as a function of average speed */
 504:MCSDK_v6.0.0-Full/MotorControl/MCSDK/MCLib/Any/Src/sto_cordic_speed_pos_fdbk.c ****     wAvrSquareSpeed = wAvrSpeed_dpp * wAvrSpeed_dpp;
 505:MCSDK_v6.0.0-Full/MotorControl/MCSDK/MCLib/Any/Src/sto_cordic_speed_pos_fdbk.c ****     int64_t lAvrSquareSpeed = (int64_t)(wAvrSquareSpeed) * pHandle->VariancePercentage;      
 506:MCSDK_v6.0.0-Full/MotorControl/MCSDK/MCLib/Any/Src/sto_cordic_speed_pos_fdbk.c ****     wAvrSquareSpeed = lAvrSquareSpeed / (int16_t)128;
 507:MCSDK_v6.0.0-Full/MotorControl/MCSDK/MCLib/Any/Src/sto_cordic_speed_pos_fdbk.c ****     
 508:MCSDK_v6.0.0-Full/MotorControl/MCSDK/MCLib/Any/Src/sto_cordic_speed_pos_fdbk.c ****     if (wAvrQuadraticError < wAvrSquareSpeed)
 509:MCSDK_v6.0.0-Full/MotorControl/MCSDK/MCLib/Any/Src/sto_cordic_speed_pos_fdbk.c ****     {
 510:MCSDK_v6.0.0-Full/MotorControl/MCSDK/MCLib/Any/Src/sto_cordic_speed_pos_fdbk.c ****       bIs_Speed_Reliable = true;
 511:MCSDK_v6.0.0-Full/MotorControl/MCSDK/MCLib/Any/Src/sto_cordic_speed_pos_fdbk.c ****     }
 512:MCSDK_v6.0.0-Full/MotorControl/MCSDK/MCLib/Any/Src/sto_cordic_speed_pos_fdbk.c ****     else
 513:MCSDK_v6.0.0-Full/MotorControl/MCSDK/MCLib/Any/Src/sto_cordic_speed_pos_fdbk.c ****     {
 514:MCSDK_v6.0.0-Full/MotorControl/MCSDK/MCLib/Any/Src/sto_cordic_speed_pos_fdbk.c ****       /* Nothing to do */
 515:MCSDK_v6.0.0-Full/MotorControl/MCSDK/MCLib/Any/Src/sto_cordic_speed_pos_fdbk.c ****     }
 516:MCSDK_v6.0.0-Full/MotorControl/MCSDK/MCLib/Any/Src/sto_cordic_speed_pos_fdbk.c **** 
 517:MCSDK_v6.0.0-Full/MotorControl/MCSDK/MCLib/Any/Src/sto_cordic_speed_pos_fdbk.c ****     /*Computation of Mechanical speed unit */
 518:MCSDK_v6.0.0-Full/MotorControl/MCSDK/MCLib/Any/Src/sto_cordic_speed_pos_fdbk.c ****     wAux = wAvrSpeed_dpp * (int32_t)(pHandle->_Super.hMeasurementFrequency);
 519:MCSDK_v6.0.0-Full/MotorControl/MCSDK/MCLib/Any/Src/sto_cordic_speed_pos_fdbk.c ****     wAux = wAux * (int32_t) (pHandle->_Super.SpeedUnit);
 520:MCSDK_v6.0.0-Full/MotorControl/MCSDK/MCLib/Any/Src/sto_cordic_speed_pos_fdbk.c ****     wAux = wAux / (int32_t)(pHandle->_Super.DPPConvFactor);
 521:MCSDK_v6.0.0-Full/MotorControl/MCSDK/MCLib/Any/Src/sto_cordic_speed_pos_fdbk.c ****     wAux = wAux / (int16_t)(pHandle->_Super.bElToMecRatio);
 522:MCSDK_v6.0.0-Full/MotorControl/MCSDK/MCLib/Any/Src/sto_cordic_speed_pos_fdbk.c **** 
 523:MCSDK_v6.0.0-Full/MotorControl/MCSDK/MCLib/Any/Src/sto_cordic_speed_pos_fdbk.c ****     *pMecSpeedUnit = (int16_t)wAux;
 524:MCSDK_v6.0.0-Full/MotorControl/MCSDK/MCLib/Any/Src/sto_cordic_speed_pos_fdbk.c ****     pHandle->_Super.hAvrMecSpeedUnit = (int16_t)wAux;
 525:MCSDK_v6.0.0-Full/MotorControl/MCSDK/MCLib/Any/Src/sto_cordic_speed_pos_fdbk.c **** 
 526:MCSDK_v6.0.0-Full/MotorControl/MCSDK/MCLib/Any/Src/sto_cordic_speed_pos_fdbk.c ****     pHandle->IsSpeedReliable = bIs_Speed_Reliable;
 527:MCSDK_v6.0.0-Full/MotorControl/MCSDK/MCLib/Any/Src/sto_cordic_speed_pos_fdbk.c **** 
 528:MCSDK_v6.0.0-Full/MotorControl/MCSDK/MCLib/Any/Src/sto_cordic_speed_pos_fdbk.c ****     /*Bemf Consistency Check algorithm*/
 529:MCSDK_v6.0.0-Full/MotorControl/MCSDK/MCLib/Any/Src/sto_cordic_speed_pos_fdbk.c ****     if (true == pHandle->EnableDualCheck) /*do algorithm if it's enabled*/
 530:MCSDK_v6.0.0-Full/MotorControl/MCSDK/MCLib/Any/Src/sto_cordic_speed_pos_fdbk.c ****     {
 531:MCSDK_v6.0.0-Full/MotorControl/MCSDK/MCLib/Any/Src/sto_cordic_speed_pos_fdbk.c ****       /* wAux abs value   */
 532:MCSDK_v6.0.0-Full/MotorControl/MCSDK/MCLib/Any/Src/sto_cordic_speed_pos_fdbk.c ****       /* false positive */
 533:MCSDK_v6.0.0-Full/MotorControl/MCSDK/MCLib/Any/Src/sto_cordic_speed_pos_fdbk.c ****       wAux = ((wAux < 0) ? (-wAux) : (wAux));  //cstat !MISRAC2012-Rule-14.3_b !RED-cond-never !RED
 534:MCSDK_v6.0.0-Full/MotorControl/MCSDK/MCLib/Any/Src/sto_cordic_speed_pos_fdbk.c **** 
 535:MCSDK_v6.0.0-Full/MotorControl/MCSDK/MCLib/Any/Src/sto_cordic_speed_pos_fdbk.c ****       if (wAux < (int32_t)(pHandle->MaxAppPositiveMecSpeedUnit))
 536:MCSDK_v6.0.0-Full/MotorControl/MCSDK/MCLib/Any/Src/sto_cordic_speed_pos_fdbk.c ****       {
 537:MCSDK_v6.0.0-Full/MotorControl/MCSDK/MCLib/Any/Src/sto_cordic_speed_pos_fdbk.c ****         /*Computation of Observed back-emf*/
 538:MCSDK_v6.0.0-Full/MotorControl/MCSDK/MCLib/Any/Src/sto_cordic_speed_pos_fdbk.c ****         wObsBemf = (int32_t)(pHandle->hBemf_alfa_est);
 539:MCSDK_v6.0.0-Full/MotorControl/MCSDK/MCLib/Any/Src/sto_cordic_speed_pos_fdbk.c ****         wObsBemfSq = wObsBemf * wObsBemf;
 540:MCSDK_v6.0.0-Full/MotorControl/MCSDK/MCLib/Any/Src/sto_cordic_speed_pos_fdbk.c ****         wObsBemf = (int32_t)(pHandle->hBemf_beta_est);
 541:MCSDK_v6.0.0-Full/MotorControl/MCSDK/MCLib/Any/Src/sto_cordic_speed_pos_fdbk.c ****         wObsBemfSq += wObsBemf * wObsBemf;
 542:MCSDK_v6.0.0-Full/MotorControl/MCSDK/MCLib/Any/Src/sto_cordic_speed_pos_fdbk.c **** 
 543:MCSDK_v6.0.0-Full/MotorControl/MCSDK/MCLib/Any/Src/sto_cordic_speed_pos_fdbk.c ****         /*Computation of Estimated back-emf*/
ARM GAS  /tmp/ccLjXLyq.s 			page 11


 544:MCSDK_v6.0.0-Full/MotorControl/MCSDK/MCLib/Any/Src/sto_cordic_speed_pos_fdbk.c ****         wEstBemf = (wAux * 32767) / (int16_t)(pHandle->_Super.hMaxReliableMecSpeedUnit);
 545:MCSDK_v6.0.0-Full/MotorControl/MCSDK/MCLib/Any/Src/sto_cordic_speed_pos_fdbk.c ****         wEstBemfSq = (wEstBemf * (int32_t)(pHandle->BemfConsistencyGain)) / 64;
 546:MCSDK_v6.0.0-Full/MotorControl/MCSDK/MCLib/Any/Src/sto_cordic_speed_pos_fdbk.c ****         wEstBemfSq *= wEstBemf;
 547:MCSDK_v6.0.0-Full/MotorControl/MCSDK/MCLib/Any/Src/sto_cordic_speed_pos_fdbk.c **** 
 548:MCSDK_v6.0.0-Full/MotorControl/MCSDK/MCLib/Any/Src/sto_cordic_speed_pos_fdbk.c ****         /*Computation of threshold*/
 549:MCSDK_v6.0.0-Full/MotorControl/MCSDK/MCLib/Any/Src/sto_cordic_speed_pos_fdbk.c ****         wEstBemfSqLo = wEstBemfSq - ((wEstBemfSq / 64) * (int32_t)(pHandle->BemfConsistencyCheck));
 550:MCSDK_v6.0.0-Full/MotorControl/MCSDK/MCLib/Any/Src/sto_cordic_speed_pos_fdbk.c **** 
 551:MCSDK_v6.0.0-Full/MotorControl/MCSDK/MCLib/Any/Src/sto_cordic_speed_pos_fdbk.c ****         /*Check*/
 552:MCSDK_v6.0.0-Full/MotorControl/MCSDK/MCLib/Any/Src/sto_cordic_speed_pos_fdbk.c ****         if (wObsBemfSq > wEstBemfSqLo)
 553:MCSDK_v6.0.0-Full/MotorControl/MCSDK/MCLib/Any/Src/sto_cordic_speed_pos_fdbk.c ****         {
 554:MCSDK_v6.0.0-Full/MotorControl/MCSDK/MCLib/Any/Src/sto_cordic_speed_pos_fdbk.c ****           bIs_Bemf_Consistent = true;
 555:MCSDK_v6.0.0-Full/MotorControl/MCSDK/MCLib/Any/Src/sto_cordic_speed_pos_fdbk.c ****         }
 556:MCSDK_v6.0.0-Full/MotorControl/MCSDK/MCLib/Any/Src/sto_cordic_speed_pos_fdbk.c ****         else
 557:MCSDK_v6.0.0-Full/MotorControl/MCSDK/MCLib/Any/Src/sto_cordic_speed_pos_fdbk.c ****         {
 558:MCSDK_v6.0.0-Full/MotorControl/MCSDK/MCLib/Any/Src/sto_cordic_speed_pos_fdbk.c ****           /* Nothing to do */
 559:MCSDK_v6.0.0-Full/MotorControl/MCSDK/MCLib/Any/Src/sto_cordic_speed_pos_fdbk.c ****         }
 560:MCSDK_v6.0.0-Full/MotorControl/MCSDK/MCLib/Any/Src/sto_cordic_speed_pos_fdbk.c ****       }
 561:MCSDK_v6.0.0-Full/MotorControl/MCSDK/MCLib/Any/Src/sto_cordic_speed_pos_fdbk.c ****       else
 562:MCSDK_v6.0.0-Full/MotorControl/MCSDK/MCLib/Any/Src/sto_cordic_speed_pos_fdbk.c ****       {
 563:MCSDK_v6.0.0-Full/MotorControl/MCSDK/MCLib/Any/Src/sto_cordic_speed_pos_fdbk.c ****         /* Nothing to do */
 564:MCSDK_v6.0.0-Full/MotorControl/MCSDK/MCLib/Any/Src/sto_cordic_speed_pos_fdbk.c ****       }
 565:MCSDK_v6.0.0-Full/MotorControl/MCSDK/MCLib/Any/Src/sto_cordic_speed_pos_fdbk.c **** 
 566:MCSDK_v6.0.0-Full/MotorControl/MCSDK/MCLib/Any/Src/sto_cordic_speed_pos_fdbk.c ****       pHandle->IsBemfConsistent = bIs_Bemf_Consistent;
 567:MCSDK_v6.0.0-Full/MotorControl/MCSDK/MCLib/Any/Src/sto_cordic_speed_pos_fdbk.c ****       pHandle->Obs_Bemf_Level = wObsBemfSq;
 568:MCSDK_v6.0.0-Full/MotorControl/MCSDK/MCLib/Any/Src/sto_cordic_speed_pos_fdbk.c ****       pHandle->Est_Bemf_Level = wEstBemfSq;
 569:MCSDK_v6.0.0-Full/MotorControl/MCSDK/MCLib/Any/Src/sto_cordic_speed_pos_fdbk.c ****     }
 570:MCSDK_v6.0.0-Full/MotorControl/MCSDK/MCLib/Any/Src/sto_cordic_speed_pos_fdbk.c ****     else
 571:MCSDK_v6.0.0-Full/MotorControl/MCSDK/MCLib/Any/Src/sto_cordic_speed_pos_fdbk.c ****     {
 572:MCSDK_v6.0.0-Full/MotorControl/MCSDK/MCLib/Any/Src/sto_cordic_speed_pos_fdbk.c ****       bIs_Bemf_Consistent = true;
 573:MCSDK_v6.0.0-Full/MotorControl/MCSDK/MCLib/Any/Src/sto_cordic_speed_pos_fdbk.c ****     }
 574:MCSDK_v6.0.0-Full/MotorControl/MCSDK/MCLib/Any/Src/sto_cordic_speed_pos_fdbk.c **** 
 575:MCSDK_v6.0.0-Full/MotorControl/MCSDK/MCLib/Any/Src/sto_cordic_speed_pos_fdbk.c ****     /*Decision making*/
 576:MCSDK_v6.0.0-Full/MotorControl/MCSDK/MCLib/Any/Src/sto_cordic_speed_pos_fdbk.c ****     if (pHandle->IsAlgorithmConverged == false)
 577:MCSDK_v6.0.0-Full/MotorControl/MCSDK/MCLib/Any/Src/sto_cordic_speed_pos_fdbk.c ****     {
 578:MCSDK_v6.0.0-Full/MotorControl/MCSDK/MCLib/Any/Src/sto_cordic_speed_pos_fdbk.c ****       bAux = SPD_IsMecSpeedReliable(&pHandle->_Super, pMecSpeedUnit);
 579:MCSDK_v6.0.0-Full/MotorControl/MCSDK/MCLib/Any/Src/sto_cordic_speed_pos_fdbk.c ****     }
 580:MCSDK_v6.0.0-Full/MotorControl/MCSDK/MCLib/Any/Src/sto_cordic_speed_pos_fdbk.c ****     else
 581:MCSDK_v6.0.0-Full/MotorControl/MCSDK/MCLib/Any/Src/sto_cordic_speed_pos_fdbk.c ****     {
 582:MCSDK_v6.0.0-Full/MotorControl/MCSDK/MCLib/Any/Src/sto_cordic_speed_pos_fdbk.c ****       if ((pHandle->IsSpeedReliable == false) || (bIs_Bemf_Consistent == false))
 583:MCSDK_v6.0.0-Full/MotorControl/MCSDK/MCLib/Any/Src/sto_cordic_speed_pos_fdbk.c ****       {
 584:MCSDK_v6.0.0-Full/MotorControl/MCSDK/MCLib/Any/Src/sto_cordic_speed_pos_fdbk.c ****         pHandle->ReliabilityCounter++;
 585:MCSDK_v6.0.0-Full/MotorControl/MCSDK/MCLib/Any/Src/sto_cordic_speed_pos_fdbk.c ****         if (pHandle->ReliabilityCounter >= pHandle->Reliability_hysteresys)
 586:MCSDK_v6.0.0-Full/MotorControl/MCSDK/MCLib/Any/Src/sto_cordic_speed_pos_fdbk.c ****         {
 587:MCSDK_v6.0.0-Full/MotorControl/MCSDK/MCLib/Any/Src/sto_cordic_speed_pos_fdbk.c ****           pHandle->ReliabilityCounter = 0U;
 588:MCSDK_v6.0.0-Full/MotorControl/MCSDK/MCLib/Any/Src/sto_cordic_speed_pos_fdbk.c ****           pHandle->_Super.bSpeedErrorNumber = pHandle->_Super.bMaximumSpeedErrorsNumber;
 589:MCSDK_v6.0.0-Full/MotorControl/MCSDK/MCLib/Any/Src/sto_cordic_speed_pos_fdbk.c ****           bAux = false;
 590:MCSDK_v6.0.0-Full/MotorControl/MCSDK/MCLib/Any/Src/sto_cordic_speed_pos_fdbk.c ****         }
 591:MCSDK_v6.0.0-Full/MotorControl/MCSDK/MCLib/Any/Src/sto_cordic_speed_pos_fdbk.c ****         else
 592:MCSDK_v6.0.0-Full/MotorControl/MCSDK/MCLib/Any/Src/sto_cordic_speed_pos_fdbk.c ****         {
 593:MCSDK_v6.0.0-Full/MotorControl/MCSDK/MCLib/Any/Src/sto_cordic_speed_pos_fdbk.c ****           bAux = SPD_IsMecSpeedReliable (&pHandle->_Super, pMecSpeedUnit);
 594:MCSDK_v6.0.0-Full/MotorControl/MCSDK/MCLib/Any/Src/sto_cordic_speed_pos_fdbk.c ****         }
 595:MCSDK_v6.0.0-Full/MotorControl/MCSDK/MCLib/Any/Src/sto_cordic_speed_pos_fdbk.c ****       }
 596:MCSDK_v6.0.0-Full/MotorControl/MCSDK/MCLib/Any/Src/sto_cordic_speed_pos_fdbk.c ****       else
 597:MCSDK_v6.0.0-Full/MotorControl/MCSDK/MCLib/Any/Src/sto_cordic_speed_pos_fdbk.c ****       {
 598:MCSDK_v6.0.0-Full/MotorControl/MCSDK/MCLib/Any/Src/sto_cordic_speed_pos_fdbk.c ****         pHandle->ReliabilityCounter = 0U;
 599:MCSDK_v6.0.0-Full/MotorControl/MCSDK/MCLib/Any/Src/sto_cordic_speed_pos_fdbk.c ****         bAux = SPD_IsMecSpeedReliable (&pHandle->_Super, pMecSpeedUnit);
 600:MCSDK_v6.0.0-Full/MotorControl/MCSDK/MCLib/Any/Src/sto_cordic_speed_pos_fdbk.c ****       }
ARM GAS  /tmp/ccLjXLyq.s 			page 12


 601:MCSDK_v6.0.0-Full/MotorControl/MCSDK/MCLib/Any/Src/sto_cordic_speed_pos_fdbk.c ****     }
 602:MCSDK_v6.0.0-Full/MotorControl/MCSDK/MCLib/Any/Src/sto_cordic_speed_pos_fdbk.c **** #ifdef NULL_PTR_STO_COR_SPD_POS_FDB
 603:MCSDK_v6.0.0-Full/MotorControl/MCSDK/MCLib/Any/Src/sto_cordic_speed_pos_fdbk.c ****   }
 604:MCSDK_v6.0.0-Full/MotorControl/MCSDK/MCLib/Any/Src/sto_cordic_speed_pos_fdbk.c **** #endif
 605:MCSDK_v6.0.0-Full/MotorControl/MCSDK/MCLib/Any/Src/sto_cordic_speed_pos_fdbk.c ****   return (bAux);
 606:MCSDK_v6.0.0-Full/MotorControl/MCSDK/MCLib/Any/Src/sto_cordic_speed_pos_fdbk.c **** }
 607:MCSDK_v6.0.0-Full/MotorControl/MCSDK/MCLib/Any/Src/sto_cordic_speed_pos_fdbk.c **** 
 608:MCSDK_v6.0.0-Full/MotorControl/MCSDK/MCLib/Any/Src/sto_cordic_speed_pos_fdbk.c **** /**
 609:MCSDK_v6.0.0-Full/MotorControl/MCSDK/MCLib/Any/Src/sto_cordic_speed_pos_fdbk.c ****   * @brief  It clears state observer object by re-initializing private variables
 610:MCSDK_v6.0.0-Full/MotorControl/MCSDK/MCLib/Any/Src/sto_cordic_speed_pos_fdbk.c ****   * @param  pHandle pointer on the component instance to work on.
 611:MCSDK_v6.0.0-Full/MotorControl/MCSDK/MCLib/Any/Src/sto_cordic_speed_pos_fdbk.c ****   */
 612:MCSDK_v6.0.0-Full/MotorControl/MCSDK/MCLib/Any/Src/sto_cordic_speed_pos_fdbk.c **** __weak void STO_CR_Clear(STO_CR_Handle_t *pHandle)
 613:MCSDK_v6.0.0-Full/MotorControl/MCSDK/MCLib/Any/Src/sto_cordic_speed_pos_fdbk.c **** {
 614:MCSDK_v6.0.0-Full/MotorControl/MCSDK/MCLib/Any/Src/sto_cordic_speed_pos_fdbk.c **** #ifdef NULL_PTR_STO_COR_SPD_POS_FDB
 615:MCSDK_v6.0.0-Full/MotorControl/MCSDK/MCLib/Any/Src/sto_cordic_speed_pos_fdbk.c ****   if (NULL == pHandle)
 616:MCSDK_v6.0.0-Full/MotorControl/MCSDK/MCLib/Any/Src/sto_cordic_speed_pos_fdbk.c ****   {
 617:MCSDK_v6.0.0-Full/MotorControl/MCSDK/MCLib/Any/Src/sto_cordic_speed_pos_fdbk.c ****     /* Nothing to do */
 618:MCSDK_v6.0.0-Full/MotorControl/MCSDK/MCLib/Any/Src/sto_cordic_speed_pos_fdbk.c ****   }
 619:MCSDK_v6.0.0-Full/MotorControl/MCSDK/MCLib/Any/Src/sto_cordic_speed_pos_fdbk.c ****   else
 620:MCSDK_v6.0.0-Full/MotorControl/MCSDK/MCLib/Any/Src/sto_cordic_speed_pos_fdbk.c ****   {
 621:MCSDK_v6.0.0-Full/MotorControl/MCSDK/MCLib/Any/Src/sto_cordic_speed_pos_fdbk.c **** #endif
 622:MCSDK_v6.0.0-Full/MotorControl/MCSDK/MCLib/Any/Src/sto_cordic_speed_pos_fdbk.c ****     pHandle->Ialfa_est = (int32_t)0;
 623:MCSDK_v6.0.0-Full/MotorControl/MCSDK/MCLib/Any/Src/sto_cordic_speed_pos_fdbk.c ****     pHandle->Ibeta_est = (int32_t)0;
 624:MCSDK_v6.0.0-Full/MotorControl/MCSDK/MCLib/Any/Src/sto_cordic_speed_pos_fdbk.c ****     pHandle->wBemf_alfa_est = (int32_t)0;
 625:MCSDK_v6.0.0-Full/MotorControl/MCSDK/MCLib/Any/Src/sto_cordic_speed_pos_fdbk.c ****     pHandle->wBemf_beta_est = (int32_t)0;
 626:MCSDK_v6.0.0-Full/MotorControl/MCSDK/MCLib/Any/Src/sto_cordic_speed_pos_fdbk.c ****     pHandle->_Super.hElAngle = (int16_t)0;
 627:MCSDK_v6.0.0-Full/MotorControl/MCSDK/MCLib/Any/Src/sto_cordic_speed_pos_fdbk.c ****     pHandle->_Super.hElSpeedDpp = (int16_t)0;
 628:MCSDK_v6.0.0-Full/MotorControl/MCSDK/MCLib/Any/Src/sto_cordic_speed_pos_fdbk.c ****     pHandle->Orig_ElSpeedDpp = (int16_t)0;
 629:MCSDK_v6.0.0-Full/MotorControl/MCSDK/MCLib/Any/Src/sto_cordic_speed_pos_fdbk.c ****     pHandle->ConsistencyCounter = 0u;
 630:MCSDK_v6.0.0-Full/MotorControl/MCSDK/MCLib/Any/Src/sto_cordic_speed_pos_fdbk.c ****     pHandle->ReliabilityCounter = 0u;
 631:MCSDK_v6.0.0-Full/MotorControl/MCSDK/MCLib/Any/Src/sto_cordic_speed_pos_fdbk.c ****     pHandle->IsAlgorithmConverged = false;
 632:MCSDK_v6.0.0-Full/MotorControl/MCSDK/MCLib/Any/Src/sto_cordic_speed_pos_fdbk.c ****     pHandle->IsBemfConsistent = false;
 633:MCSDK_v6.0.0-Full/MotorControl/MCSDK/MCLib/Any/Src/sto_cordic_speed_pos_fdbk.c ****     pHandle->Obs_Bemf_Level = (int32_t)0;
 634:MCSDK_v6.0.0-Full/MotorControl/MCSDK/MCLib/Any/Src/sto_cordic_speed_pos_fdbk.c ****     pHandle->Est_Bemf_Level = (int32_t)0;
 635:MCSDK_v6.0.0-Full/MotorControl/MCSDK/MCLib/Any/Src/sto_cordic_speed_pos_fdbk.c ****     pHandle->DppBufferSum = (int32_t)0;
 636:MCSDK_v6.0.0-Full/MotorControl/MCSDK/MCLib/Any/Src/sto_cordic_speed_pos_fdbk.c ****     pHandle->DppOrigBufferSum = (int32_t)0;
 637:MCSDK_v6.0.0-Full/MotorControl/MCSDK/MCLib/Any/Src/sto_cordic_speed_pos_fdbk.c ****     pHandle->ForceConvergency = false;
 638:MCSDK_v6.0.0-Full/MotorControl/MCSDK/MCLib/Any/Src/sto_cordic_speed_pos_fdbk.c ****     pHandle->ForceConvergency2 = false;
 639:MCSDK_v6.0.0-Full/MotorControl/MCSDK/MCLib/Any/Src/sto_cordic_speed_pos_fdbk.c **** 
 640:MCSDK_v6.0.0-Full/MotorControl/MCSDK/MCLib/Any/Src/sto_cordic_speed_pos_fdbk.c ****    STO_CR_InitSpeedBuffer(pHandle);
 641:MCSDK_v6.0.0-Full/MotorControl/MCSDK/MCLib/Any/Src/sto_cordic_speed_pos_fdbk.c **** #ifdef NULL_PTR_STO_COR_SPD_POS_FDB
 642:MCSDK_v6.0.0-Full/MotorControl/MCSDK/MCLib/Any/Src/sto_cordic_speed_pos_fdbk.c ****   }
 643:MCSDK_v6.0.0-Full/MotorControl/MCSDK/MCLib/Any/Src/sto_cordic_speed_pos_fdbk.c **** #endif
 644:MCSDK_v6.0.0-Full/MotorControl/MCSDK/MCLib/Any/Src/sto_cordic_speed_pos_fdbk.c **** }
 645:MCSDK_v6.0.0-Full/MotorControl/MCSDK/MCLib/Any/Src/sto_cordic_speed_pos_fdbk.c **** 
 646:MCSDK_v6.0.0-Full/MotorControl/MCSDK/MCLib/Any/Src/sto_cordic_speed_pos_fdbk.c **** /**
 647:MCSDK_v6.0.0-Full/MotorControl/MCSDK/MCLib/Any/Src/sto_cordic_speed_pos_fdbk.c ****   * @brief  It stores in estimated speed FIFO latest calculated value of motor
 648:MCSDK_v6.0.0-Full/MotorControl/MCSDK/MCLib/Any/Src/sto_cordic_speed_pos_fdbk.c ****   *         speed
 649:MCSDK_v6.0.0-Full/MotorControl/MCSDK/MCLib/Any/Src/sto_cordic_speed_pos_fdbk.c ****   * @param  pHandle: handler of the current instance of the STO CORDIC component
 650:MCSDK_v6.0.0-Full/MotorControl/MCSDK/MCLib/Any/Src/sto_cordic_speed_pos_fdbk.c ****   * @retval none
 651:MCSDK_v6.0.0-Full/MotorControl/MCSDK/MCLib/Any/Src/sto_cordic_speed_pos_fdbk.c ****   */
 652:MCSDK_v6.0.0-Full/MotorControl/MCSDK/MCLib/Any/Src/sto_cordic_speed_pos_fdbk.c **** inline static void STO_CR_Store_Rotor_Speed(STO_CR_Handle_t *pHandle, int16_t hRotor_Speed, int16_t
 653:MCSDK_v6.0.0-Full/MotorControl/MCSDK/MCLib/Any/Src/sto_cordic_speed_pos_fdbk.c **** {
 654:MCSDK_v6.0.0-Full/MotorControl/MCSDK/MCLib/Any/Src/sto_cordic_speed_pos_fdbk.c ****   uint8_t bBuffer_index = pHandle->Speed_Buffer_Index;
 655:MCSDK_v6.0.0-Full/MotorControl/MCSDK/MCLib/Any/Src/sto_cordic_speed_pos_fdbk.c **** 
 656:MCSDK_v6.0.0-Full/MotorControl/MCSDK/MCLib/Any/Src/sto_cordic_speed_pos_fdbk.c ****   bBuffer_index++;
 657:MCSDK_v6.0.0-Full/MotorControl/MCSDK/MCLib/Any/Src/sto_cordic_speed_pos_fdbk.c ****   if (bBuffer_index == pHandle->SpeedBufferSizeUnit)
ARM GAS  /tmp/ccLjXLyq.s 			page 13


 658:MCSDK_v6.0.0-Full/MotorControl/MCSDK/MCLib/Any/Src/sto_cordic_speed_pos_fdbk.c ****   {
 659:MCSDK_v6.0.0-Full/MotorControl/MCSDK/MCLib/Any/Src/sto_cordic_speed_pos_fdbk.c ****     bBuffer_index = 0U;
 660:MCSDK_v6.0.0-Full/MotorControl/MCSDK/MCLib/Any/Src/sto_cordic_speed_pos_fdbk.c ****   }
 661:MCSDK_v6.0.0-Full/MotorControl/MCSDK/MCLib/Any/Src/sto_cordic_speed_pos_fdbk.c ****   else
 662:MCSDK_v6.0.0-Full/MotorControl/MCSDK/MCLib/Any/Src/sto_cordic_speed_pos_fdbk.c ****   {
 663:MCSDK_v6.0.0-Full/MotorControl/MCSDK/MCLib/Any/Src/sto_cordic_speed_pos_fdbk.c ****     /* Nothing too do */
 664:MCSDK_v6.0.0-Full/MotorControl/MCSDK/MCLib/Any/Src/sto_cordic_speed_pos_fdbk.c ****   }
 665:MCSDK_v6.0.0-Full/MotorControl/MCSDK/MCLib/Any/Src/sto_cordic_speed_pos_fdbk.c **** 
 666:MCSDK_v6.0.0-Full/MotorControl/MCSDK/MCLib/Any/Src/sto_cordic_speed_pos_fdbk.c ****   pHandle->SpeedBufferOldestEl = pHandle->Speed_Buffer[bBuffer_index];
 667:MCSDK_v6.0.0-Full/MotorControl/MCSDK/MCLib/Any/Src/sto_cordic_speed_pos_fdbk.c ****   pHandle->OrigSpeedBufferOldestEl = pHandle->Orig_Speed_Buffer[bBuffer_index];
 668:MCSDK_v6.0.0-Full/MotorControl/MCSDK/MCLib/Any/Src/sto_cordic_speed_pos_fdbk.c **** 
 669:MCSDK_v6.0.0-Full/MotorControl/MCSDK/MCLib/Any/Src/sto_cordic_speed_pos_fdbk.c ****   pHandle->Speed_Buffer[bBuffer_index] = hRotor_Speed;
 670:MCSDK_v6.0.0-Full/MotorControl/MCSDK/MCLib/Any/Src/sto_cordic_speed_pos_fdbk.c ****   pHandle->Orig_Speed_Buffer[bBuffer_index] = hOrRotor_Speed;
 671:MCSDK_v6.0.0-Full/MotorControl/MCSDK/MCLib/Any/Src/sto_cordic_speed_pos_fdbk.c ****   pHandle->Speed_Buffer_Index = bBuffer_index;
 672:MCSDK_v6.0.0-Full/MotorControl/MCSDK/MCLib/Any/Src/sto_cordic_speed_pos_fdbk.c **** }
 673:MCSDK_v6.0.0-Full/MotorControl/MCSDK/MCLib/Any/Src/sto_cordic_speed_pos_fdbk.c **** 
 674:MCSDK_v6.0.0-Full/MotorControl/MCSDK/MCLib/Any/Src/sto_cordic_speed_pos_fdbk.c **** 
 675:MCSDK_v6.0.0-Full/MotorControl/MCSDK/MCLib/Any/Src/sto_cordic_speed_pos_fdbk.c **** /**
 676:MCSDK_v6.0.0-Full/MotorControl/MCSDK/MCLib/Any/Src/sto_cordic_speed_pos_fdbk.c ****   * @brief  It clears the estimated speed buffer
 677:MCSDK_v6.0.0-Full/MotorControl/MCSDK/MCLib/Any/Src/sto_cordic_speed_pos_fdbk.c ****   * @param  pHandle: handler of the current instance of the STO CORDIC component
 678:MCSDK_v6.0.0-Full/MotorControl/MCSDK/MCLib/Any/Src/sto_cordic_speed_pos_fdbk.c ****   * @retval none
 679:MCSDK_v6.0.0-Full/MotorControl/MCSDK/MCLib/Any/Src/sto_cordic_speed_pos_fdbk.c ****   */
 680:MCSDK_v6.0.0-Full/MotorControl/MCSDK/MCLib/Any/Src/sto_cordic_speed_pos_fdbk.c **** static void STO_CR_InitSpeedBuffer(STO_CR_Handle_t *pHandle)
 681:MCSDK_v6.0.0-Full/MotorControl/MCSDK/MCLib/Any/Src/sto_cordic_speed_pos_fdbk.c **** {
  29              		.loc 1 681 1 view -0
  30              		.cfi_startproc
  31              		@ args = 0, pretend = 0, frame = 0
  32              		@ frame_needed = 0, uses_anonymous_args = 0
  33              		@ link register save eliminated.
  34              		.loc 1 681 1 is_stmt 0 view .LVU1
  35 0000 10B4     		push	{r4}
  36              		.cfi_def_cfa_offset 4
  37              		.cfi_offset 4, -4
 682:MCSDK_v6.0.0-Full/MotorControl/MCSDK/MCLib/Any/Src/sto_cordic_speed_pos_fdbk.c ****   uint8_t b_i;
  38              		.loc 1 682 3 is_stmt 1 view .LVU2
 683:MCSDK_v6.0.0-Full/MotorControl/MCSDK/MCLib/Any/Src/sto_cordic_speed_pos_fdbk.c ****   uint8_t bSpeedBufferSizeUnit = pHandle->SpeedBufferSizeUnit;
  39              		.loc 1 683 3 view .LVU3
  40              		.loc 1 683 11 is_stmt 0 view .LVU4
  41 0002 90F86C41 		ldrb	r4, [r0, #364]	@ zero_extendqisi2
  42              	.LVL1:
 684:MCSDK_v6.0.0-Full/MotorControl/MCSDK/MCLib/Any/Src/sto_cordic_speed_pos_fdbk.c **** 
 685:MCSDK_v6.0.0-Full/MotorControl/MCSDK/MCLib/Any/Src/sto_cordic_speed_pos_fdbk.c ****   /*init speed buffer*/
 686:MCSDK_v6.0.0-Full/MotorControl/MCSDK/MCLib/Any/Src/sto_cordic_speed_pos_fdbk.c ****   for (b_i = 0U; b_i < bSpeedBufferSizeUnit; b_i++)
  43              		.loc 1 686 3 is_stmt 1 view .LVU5
  44              		.loc 1 686 12 is_stmt 0 view .LVU6
  45 0006 0023     		movs	r3, #0
  46              	.LVL2:
  47              	.L2:
  48              		.loc 1 686 18 is_stmt 1 discriminator 1 view .LVU7
  49              		.loc 1 686 3 is_stmt 0 discriminator 1 view .LVU8
  50 0008 A342     		cmp	r3, r4
  51 000a 0CD2     		bcs	.L5
 687:MCSDK_v6.0.0-Full/MotorControl/MCSDK/MCLib/Any/Src/sto_cordic_speed_pos_fdbk.c ****   {
 688:MCSDK_v6.0.0-Full/MotorControl/MCSDK/MCLib/Any/Src/sto_cordic_speed_pos_fdbk.c ****     pHandle->Speed_Buffer[b_i] = (int16_t)0;
  52              		.loc 1 688 5 is_stmt 1 discriminator 3 view .LVU9
  53              		.loc 1 688 32 is_stmt 0 discriminator 3 view .LVU10
  54 000c 03F12402 		add	r2, r3, #36
ARM GAS  /tmp/ccLjXLyq.s 			page 14


  55 0010 0021     		movs	r1, #0
  56 0012 20F81210 		strh	r1, [r0, r2, lsl #1]	@ movhi
 689:MCSDK_v6.0.0-Full/MotorControl/MCSDK/MCLib/Any/Src/sto_cordic_speed_pos_fdbk.c ****     pHandle->Orig_Speed_Buffer[b_i] = (int16_t)0;
  57              		.loc 1 689 5 is_stmt 1 discriminator 3 view .LVU11
  58              		.loc 1 689 37 is_stmt 0 discriminator 3 view .LVU12
  59 0016 03F16402 		add	r2, r3, #100
  60 001a 00EB4202 		add	r2, r0, r2, lsl #1
  61 001e D180     		strh	r1, [r2, #6]	@ movhi
 686:MCSDK_v6.0.0-Full/MotorControl/MCSDK/MCLib/Any/Src/sto_cordic_speed_pos_fdbk.c ****   {
  62              		.loc 1 686 46 is_stmt 1 discriminator 3 view .LVU13
 686:MCSDK_v6.0.0-Full/MotorControl/MCSDK/MCLib/Any/Src/sto_cordic_speed_pos_fdbk.c ****   {
  63              		.loc 1 686 49 is_stmt 0 discriminator 3 view .LVU14
  64 0020 0133     		adds	r3, r3, #1
  65              	.LVL3:
 686:MCSDK_v6.0.0-Full/MotorControl/MCSDK/MCLib/Any/Src/sto_cordic_speed_pos_fdbk.c ****   {
  66              		.loc 1 686 49 discriminator 3 view .LVU15
  67 0022 DBB2     		uxtb	r3, r3
  68              	.LVL4:
 686:MCSDK_v6.0.0-Full/MotorControl/MCSDK/MCLib/Any/Src/sto_cordic_speed_pos_fdbk.c ****   {
  69              		.loc 1 686 49 discriminator 3 view .LVU16
  70 0024 F0E7     		b	.L2
  71              	.L5:
 690:MCSDK_v6.0.0-Full/MotorControl/MCSDK/MCLib/Any/Src/sto_cordic_speed_pos_fdbk.c ****   }
 691:MCSDK_v6.0.0-Full/MotorControl/MCSDK/MCLib/Any/Src/sto_cordic_speed_pos_fdbk.c **** 
 692:MCSDK_v6.0.0-Full/MotorControl/MCSDK/MCLib/Any/Src/sto_cordic_speed_pos_fdbk.c ****   pHandle->Speed_Buffer_Index = 0u;
  72              		.loc 1 692 3 is_stmt 1 view .LVU17
  73              		.loc 1 692 31 is_stmt 0 view .LVU18
  74 0026 0023     		movs	r3, #0
  75              	.LVL5:
  76              		.loc 1 692 31 view .LVU19
  77 0028 80F8C830 		strb	r3, [r0, #200]
 693:MCSDK_v6.0.0-Full/MotorControl/MCSDK/MCLib/Any/Src/sto_cordic_speed_pos_fdbk.c ****   pHandle->SpeedBufferOldestEl = (int16_t)0;
  78              		.loc 1 693 3 is_stmt 1 view .LVU20
  79              		.loc 1 693 32 is_stmt 0 view .LVU21
  80 002c A0F86831 		strh	r3, [r0, #360]	@ movhi
 694:MCSDK_v6.0.0-Full/MotorControl/MCSDK/MCLib/Any/Src/sto_cordic_speed_pos_fdbk.c ****   pHandle->OrigSpeedBufferOldestEl = (int16_t)0;
  81              		.loc 1 694 3 is_stmt 1 view .LVU22
  82              		.loc 1 694 36 is_stmt 0 view .LVU23
  83 0030 A0F86A31 		strh	r3, [r0, #362]	@ movhi
 695:MCSDK_v6.0.0-Full/MotorControl/MCSDK/MCLib/Any/Src/sto_cordic_speed_pos_fdbk.c **** }
  84              		.loc 1 695 1 view .LVU24
  85 0034 5DF8044B 		ldr	r4, [sp], #4
  86              		.cfi_restore 4
  87              		.cfi_def_cfa_offset 0
  88              	.LVL6:
  89              		.loc 1 695 1 view .LVU25
  90 0038 7047     		bx	lr
  91              		.cfi_endproc
  92              	.LFE1442:
  94              		.section	.text.STO_CR_CalcElAngle,"ax",%progbits
  95              		.align	1
  96              		.weak	STO_CR_CalcElAngle
  97              		.syntax unified
  98              		.thumb
  99              		.thumb_func
 100              		.fpu fpv4-sp-d16
 102              	STO_CR_CalcElAngle:
ARM GAS  /tmp/ccLjXLyq.s 			page 15


 103              	.LVL7:
 104              	.LFB1438:
 145:MCSDK_v6.0.0-Full/MotorControl/MCSDK/MCLib/Any/Src/sto_cordic_speed_pos_fdbk.c ****   int16_t returnvalue;
 105              		.loc 1 145 1 is_stmt 1 view -0
 106              		.cfi_startproc
 107              		@ args = 0, pretend = 0, frame = 32
 108              		@ frame_needed = 0, uses_anonymous_args = 0
 145:MCSDK_v6.0.0-Full/MotorControl/MCSDK/MCLib/Any/Src/sto_cordic_speed_pos_fdbk.c ****   int16_t returnvalue;
 109              		.loc 1 145 1 is_stmt 0 view .LVU27
 110 0000 2DE9F04F 		push	{r4, r5, r6, r7, r8, r9, r10, fp, lr}
 111              		.cfi_def_cfa_offset 36
 112              		.cfi_offset 4, -36
 113              		.cfi_offset 5, -32
 114              		.cfi_offset 6, -28
 115              		.cfi_offset 7, -24
 116              		.cfi_offset 8, -20
 117              		.cfi_offset 9, -16
 118              		.cfi_offset 10, -12
 119              		.cfi_offset 11, -8
 120              		.cfi_offset 14, -4
 121 0004 89B0     		sub	sp, sp, #36
 122              		.cfi_def_cfa_offset 72
 146:MCSDK_v6.0.0-Full/MotorControl/MCSDK/MCLib/Any/Src/sto_cordic_speed_pos_fdbk.c **** #ifdef NULL_PTR_STO_COR_SPD_POS_FDB
 123              		.loc 1 146 3 is_stmt 1 view .LVU28
 155:MCSDK_v6.0.0-Full/MotorControl/MCSDK/MCLib/Any/Src/sto_cordic_speed_pos_fdbk.c ****     int32_t wAux_Alpha, wAux_Beta;
 124              		.loc 1 155 5 view .LVU29
 156:MCSDK_v6.0.0-Full/MotorControl/MCSDK/MCLib/Any/Src/sto_cordic_speed_pos_fdbk.c ****     int32_t wIalfa_est_Next, wIbeta_est_Next;
 125              		.loc 1 156 5 view .LVU30
 157:MCSDK_v6.0.0-Full/MotorControl/MCSDK/MCLib/Any/Src/sto_cordic_speed_pos_fdbk.c ****     int32_t wBemf_alfa_est_Next, wBemf_beta_est_Next;
 126              		.loc 1 157 5 view .LVU31
 158:MCSDK_v6.0.0-Full/MotorControl/MCSDK/MCLib/Any/Src/sto_cordic_speed_pos_fdbk.c ****     int16_t hAux, hAux_Alfa, hAux_Beta, hIalfa_err, hIbeta_err, hRotor_Speed,
 127              		.loc 1 158 5 view .LVU32
 159:MCSDK_v6.0.0-Full/MotorControl/MCSDK/MCLib/Any/Src/sto_cordic_speed_pos_fdbk.c ****             hOrRotor_Speed, hRotor_Acceleration, hRotor_Angle, hValfa, hVbeta;
 128              		.loc 1 159 5 view .LVU33
 162:MCSDK_v6.0.0-Full/MotorControl/MCSDK/MCLib/Any/Src/sto_cordic_speed_pos_fdbk.c ****     int16_t hPrev_Rotor_Speed = pHandle->_Super.hElSpeedDpp;
 129              		.loc 1 162 5 view .LVU34
 162:MCSDK_v6.0.0-Full/MotorControl/MCSDK/MCLib/Any/Src/sto_cordic_speed_pos_fdbk.c ****     int16_t hPrev_Rotor_Speed = pHandle->_Super.hElSpeedDpp;
 130              		.loc 1 162 13 is_stmt 0 view .LVU35
 131 0006 B0F90430 		ldrsh	r3, [r0, #4]
 132 000a 0493     		str	r3, [sp, #16]
 133              	.LVL8:
 163:MCSDK_v6.0.0-Full/MotorControl/MCSDK/MCLib/Any/Src/sto_cordic_speed_pos_fdbk.c ****     int16_t hMax_Instant_Accel = pHandle->MaxInstantElAcceleration;
 134              		.loc 1 163 5 is_stmt 1 view .LVU36
 163:MCSDK_v6.0.0-Full/MotorControl/MCSDK/MCLib/Any/Src/sto_cordic_speed_pos_fdbk.c ****     int16_t hMax_Instant_Accel = pHandle->MaxInstantElAcceleration;
 135              		.loc 1 163 13 is_stmt 0 view .LVU37
 136 000c B0F90E30 		ldrsh	r3, [r0, #14]
 137 0010 0093     		str	r3, [sp]
 138              	.LVL9:
 164:MCSDK_v6.0.0-Full/MotorControl/MCSDK/MCLib/Any/Src/sto_cordic_speed_pos_fdbk.c **** 
 139              		.loc 1 164 5 is_stmt 1 view .LVU38
 164:MCSDK_v6.0.0-Full/MotorControl/MCSDK/MCLib/Any/Src/sto_cordic_speed_pos_fdbk.c **** 
 140              		.loc 1 164 13 is_stmt 0 view .LVU39
 141 0012 B0F97691 		ldrsh	r9, [r0, #374]
 142              	.LVL10:
 166:MCSDK_v6.0.0-Full/MotorControl/MCSDK/MCLib/Any/Src/sto_cordic_speed_pos_fdbk.c ****     {
 143              		.loc 1 166 5 is_stmt 1 view .LVU40
 166:MCSDK_v6.0.0-Full/MotorControl/MCSDK/MCLib/Any/Src/sto_cordic_speed_pos_fdbk.c ****     {
ARM GAS  /tmp/ccLjXLyq.s 			page 16


 144              		.loc 1 166 16 is_stmt 0 view .LVU41
 145 0016 C46B     		ldr	r4, [r0, #60]
 166:MCSDK_v6.0.0-Full/MotorControl/MCSDK/MCLib/Any/Src/sto_cordic_speed_pos_fdbk.c ****     {
 146              		.loc 1 166 52 view .LVU42
 147 0018 B0F92E30 		ldrsh	r3, [r0, #46]
 166:MCSDK_v6.0.0-Full/MotorControl/MCSDK/MCLib/Any/Src/sto_cordic_speed_pos_fdbk.c ****     {
 148              		.loc 1 166 58 view .LVU43
 149 001c C3EBC332 		rsb	r2, r3, r3, lsl #15
 166:MCSDK_v6.0.0-Full/MotorControl/MCSDK/MCLib/Any/Src/sto_cordic_speed_pos_fdbk.c ****     {
 150              		.loc 1 166 8 view .LVU44
 151 0020 9442     		cmp	r4, r2
 152 0022 40F3D280 		ble	.L7
 168:MCSDK_v6.0.0-Full/MotorControl/MCSDK/MCLib/Any/Src/sto_cordic_speed_pos_fdbk.c ****     }
 153              		.loc 1 168 7 is_stmt 1 view .LVU45
 168:MCSDK_v6.0.0-Full/MotorControl/MCSDK/MCLib/Any/Src/sto_cordic_speed_pos_fdbk.c ****     }
 154              		.loc 1 168 31 is_stmt 0 view .LVU46
 155 0026 C263     		str	r2, [r0, #60]
 156              	.L8:
 177:MCSDK_v6.0.0-Full/MotorControl/MCSDK/MCLib/Any/Src/sto_cordic_speed_pos_fdbk.c **** #ifndef FULL_MISRA_C_COMPLIANCY_STO_CORDIC
 157              		.loc 1 177 5 is_stmt 1 view .LVU47
 180:MCSDK_v6.0.0-Full/MotorControl/MCSDK/MCLib/Any/Src/sto_cordic_speed_pos_fdbk.c **** #else
 158              		.loc 1 180 7 view .LVU48
 180:MCSDK_v6.0.0-Full/MotorControl/MCSDK/MCLib/Any/Src/sto_cordic_speed_pos_fdbk.c **** #else
 159              		.loc 1 180 36 is_stmt 0 view .LVU49
 160 0028 C66B     		ldr	r6, [r0, #60]
 180:MCSDK_v6.0.0-Full/MotorControl/MCSDK/MCLib/Any/Src/sto_cordic_speed_pos_fdbk.c **** #else
 161              		.loc 1 180 63 view .LVU50
 162 002a B0F87E41 		ldrh	r4, [r0, #382]
 180:MCSDK_v6.0.0-Full/MotorControl/MCSDK/MCLib/Any/Src/sto_cordic_speed_pos_fdbk.c **** #else
 163              		.loc 1 180 53 view .LVU51
 164 002e 46FA04F7 		asr	r7, r6, r4
 180:MCSDK_v6.0.0-Full/MotorControl/MCSDK/MCLib/Any/Src/sto_cordic_speed_pos_fdbk.c **** #else
 165              		.loc 1 180 17 view .LVU52
 166 0032 3FB2     		sxth	r7, r7
 167              	.LVL11:
 185:MCSDK_v6.0.0-Full/MotorControl/MCSDK/MCLib/Any/Src/sto_cordic_speed_pos_fdbk.c ****     {
 168              		.loc 1 185 5 is_stmt 1 view .LVU53
 185:MCSDK_v6.0.0-Full/MotorControl/MCSDK/MCLib/Any/Src/sto_cordic_speed_pos_fdbk.c ****     {
 169              		.loc 1 185 16 is_stmt 0 view .LVU54
 170 0034 056C     		ldr	r5, [r0, #64]
 185:MCSDK_v6.0.0-Full/MotorControl/MCSDK/MCLib/Any/Src/sto_cordic_speed_pos_fdbk.c ****     {
 171              		.loc 1 185 8 view .LVU55
 172 0036 AA42     		cmp	r2, r5
 173 0038 80F2CE80 		bge	.L9
 187:MCSDK_v6.0.0-Full/MotorControl/MCSDK/MCLib/Any/Src/sto_cordic_speed_pos_fdbk.c ****     }
 174              		.loc 1 187 7 is_stmt 1 view .LVU56
 187:MCSDK_v6.0.0-Full/MotorControl/MCSDK/MCLib/Any/Src/sto_cordic_speed_pos_fdbk.c ****     }
 175              		.loc 1 187 31 is_stmt 0 view .LVU57
 176 003c 0264     		str	r2, [r0, #64]
 177              	.L10:
 196:MCSDK_v6.0.0-Full/MotorControl/MCSDK/MCLib/Any/Src/sto_cordic_speed_pos_fdbk.c **** #ifndef FULL_MISRA_C_COMPLIANCY_STO_CORDIC
 178              		.loc 1 196 5 is_stmt 1 view .LVU58
 199:MCSDK_v6.0.0-Full/MotorControl/MCSDK/MCLib/Any/Src/sto_cordic_speed_pos_fdbk.c **** #else
 179              		.loc 1 199 7 view .LVU59
 199:MCSDK_v6.0.0-Full/MotorControl/MCSDK/MCLib/Any/Src/sto_cordic_speed_pos_fdbk.c **** #else
 180              		.loc 1 199 36 is_stmt 0 view .LVU60
 181 003e D0F84080 		ldr	r8, [r0, #64]
ARM GAS  /tmp/ccLjXLyq.s 			page 17


 199:MCSDK_v6.0.0-Full/MotorControl/MCSDK/MCLib/Any/Src/sto_cordic_speed_pos_fdbk.c **** #else
 182              		.loc 1 199 53 view .LVU61
 183 0042 48FA04F4 		asr	r4, r8, r4
 199:MCSDK_v6.0.0-Full/MotorControl/MCSDK/MCLib/Any/Src/sto_cordic_speed_pos_fdbk.c **** #else
 184              		.loc 1 199 17 view .LVU62
 185 0046 24B2     		sxth	r4, r4
 186              	.LVL12:
 204:MCSDK_v6.0.0-Full/MotorControl/MCSDK/MCLib/Any/Src/sto_cordic_speed_pos_fdbk.c ****     {
 187              		.loc 1 204 5 is_stmt 1 view .LVU63
 204:MCSDK_v6.0.0-Full/MotorControl/MCSDK/MCLib/Any/Src/sto_cordic_speed_pos_fdbk.c ****     {
 188              		.loc 1 204 16 is_stmt 0 view .LVU64
 189 0048 456B     		ldr	r5, [r0, #52]
 204:MCSDK_v6.0.0-Full/MotorControl/MCSDK/MCLib/Any/Src/sto_cordic_speed_pos_fdbk.c ****     {
 190              		.loc 1 204 60 view .LVU65
 191 004a B0F92C30 		ldrsh	r3, [r0, #44]
 204:MCSDK_v6.0.0-Full/MotorControl/MCSDK/MCLib/Any/Src/sto_cordic_speed_pos_fdbk.c ****     {
 192              		.loc 1 204 41 view .LVU66
 193 004e C3EBC332 		rsb	r2, r3, r3, lsl #15
 204:MCSDK_v6.0.0-Full/MotorControl/MCSDK/MCLib/Any/Src/sto_cordic_speed_pos_fdbk.c ****     {
 194              		.loc 1 204 8 view .LVU67
 195 0052 9542     		cmp	r5, r2
 196 0054 40F3C780 		ble	.L11
 206:MCSDK_v6.0.0-Full/MotorControl/MCSDK/MCLib/Any/Src/sto_cordic_speed_pos_fdbk.c ****     }
 197              		.loc 1 206 7 is_stmt 1 view .LVU68
 206:MCSDK_v6.0.0-Full/MotorControl/MCSDK/MCLib/Any/Src/sto_cordic_speed_pos_fdbk.c ****     }
 198              		.loc 1 206 26 is_stmt 0 view .LVU69
 199 0058 4263     		str	r2, [r0, #52]
 200              	.L12:
 215:MCSDK_v6.0.0-Full/MotorControl/MCSDK/MCLib/Any/Src/sto_cordic_speed_pos_fdbk.c **** 
 201              		.loc 1 215 5 is_stmt 1 view .LVU70
 217:MCSDK_v6.0.0-Full/MotorControl/MCSDK/MCLib/Any/Src/sto_cordic_speed_pos_fdbk.c ****     {
 202              		.loc 1 217 5 view .LVU71
 217:MCSDK_v6.0.0-Full/MotorControl/MCSDK/MCLib/Any/Src/sto_cordic_speed_pos_fdbk.c ****     {
 203              		.loc 1 217 16 is_stmt 0 view .LVU72
 204 005a 856B     		ldr	r5, [r0, #56]
 217:MCSDK_v6.0.0-Full/MotorControl/MCSDK/MCLib/Any/Src/sto_cordic_speed_pos_fdbk.c ****     {
 205              		.loc 1 217 8 view .LVU73
 206 005c AA42     		cmp	r2, r5
 207 005e 80F2CA80 		bge	.L13
 219:MCSDK_v6.0.0-Full/MotorControl/MCSDK/MCLib/Any/Src/sto_cordic_speed_pos_fdbk.c ****     }
 208              		.loc 1 219 7 is_stmt 1 view .LVU74
 219:MCSDK_v6.0.0-Full/MotorControl/MCSDK/MCLib/Any/Src/sto_cordic_speed_pos_fdbk.c ****     }
 209              		.loc 1 219 26 is_stmt 0 view .LVU75
 210 0062 8263     		str	r2, [r0, #56]
 211              	.L14:
 228:MCSDK_v6.0.0-Full/MotorControl/MCSDK/MCLib/Any/Src/sto_cordic_speed_pos_fdbk.c **** 
 212              		.loc 1 228 5 is_stmt 1 view .LVU76
 232:MCSDK_v6.0.0-Full/MotorControl/MCSDK/MCLib/Any/Src/sto_cordic_speed_pos_fdbk.c **** #else
 213              		.loc 1 232 5 view .LVU77
 232:MCSDK_v6.0.0-Full/MotorControl/MCSDK/MCLib/Any/Src/sto_cordic_speed_pos_fdbk.c **** #else
 214              		.loc 1 232 35 is_stmt 0 view .LVU78
 215 0064 436B     		ldr	r3, [r0, #52]
 232:MCSDK_v6.0.0-Full/MotorControl/MCSDK/MCLib/Any/Src/sto_cordic_speed_pos_fdbk.c **** #else
 216              		.loc 1 232 57 view .LVU79
 217 0066 B0F87CE1 		ldrh	lr, [r0, #380]
 232:MCSDK_v6.0.0-Full/MotorControl/MCSDK/MCLib/Any/Src/sto_cordic_speed_pos_fdbk.c **** #else
 218              		.loc 1 232 47 view .LVU80
ARM GAS  /tmp/ccLjXLyq.s 			page 18


 219 006a 43FA0EF2 		asr	r2, r3, lr
 232:MCSDK_v6.0.0-Full/MotorControl/MCSDK/MCLib/Any/Src/sto_cordic_speed_pos_fdbk.c **** #else
 220              		.loc 1 232 16 view .LVU81
 221 006e 0FFA82FB 		sxth	fp, r2
 222              	.LVL13:
 237:MCSDK_v6.0.0-Full/MotorControl/MCSDK/MCLib/Any/Src/sto_cordic_speed_pos_fdbk.c **** 
 223              		.loc 1 237 5 is_stmt 1 view .LVU82
 237:MCSDK_v6.0.0-Full/MotorControl/MCSDK/MCLib/Any/Src/sto_cordic_speed_pos_fdbk.c **** 
 224              		.loc 1 237 50 is_stmt 0 view .LVU83
 225 0072 8D88     		ldrh	r5, [r1, #4]
 237:MCSDK_v6.0.0-Full/MotorControl/MCSDK/MCLib/Any/Src/sto_cordic_speed_pos_fdbk.c **** 
 226              		.loc 1 237 29 view .LVU84
 227 0074 521B     		subs	r2, r2, r5
 237:MCSDK_v6.0.0-Full/MotorControl/MCSDK/MCLib/Any/Src/sto_cordic_speed_pos_fdbk.c **** 
 228              		.loc 1 237 16 view .LVU85
 229 0076 12B2     		sxth	r2, r2
 230              	.LVL14:
 241:MCSDK_v6.0.0-Full/MotorControl/MCSDK/MCLib/Any/Src/sto_cordic_speed_pos_fdbk.c **** #else
 231              		.loc 1 241 5 is_stmt 1 view .LVU86
 241:MCSDK_v6.0.0-Full/MotorControl/MCSDK/MCLib/Any/Src/sto_cordic_speed_pos_fdbk.c **** #else
 232              		.loc 1 241 47 is_stmt 0 view .LVU87
 233 0078 856B     		ldr	r5, [r0, #56]
 234 007a 45FA0EFE 		asr	lr, r5, lr
 241:MCSDK_v6.0.0-Full/MotorControl/MCSDK/MCLib/Any/Src/sto_cordic_speed_pos_fdbk.c **** #else
 235              		.loc 1 241 16 view .LVU88
 236 007e 0FFA8EF5 		sxth	r5, lr
 237 0082 0595     		str	r5, [sp, #20]
 238              	.LVL15:
 246:MCSDK_v6.0.0-Full/MotorControl/MCSDK/MCLib/Any/Src/sto_cordic_speed_pos_fdbk.c **** 
 239              		.loc 1 246 5 is_stmt 1 view .LVU89
 246:MCSDK_v6.0.0-Full/MotorControl/MCSDK/MCLib/Any/Src/sto_cordic_speed_pos_fdbk.c **** 
 240              		.loc 1 246 50 is_stmt 0 view .LVU90
 241 0084 CD88     		ldrh	r5, [r1, #6]
 246:MCSDK_v6.0.0-Full/MotorControl/MCSDK/MCLib/Any/Src/sto_cordic_speed_pos_fdbk.c **** 
 242              		.loc 1 246 29 view .LVU91
 243 0086 AEEB050E 		sub	lr, lr, r5
 246:MCSDK_v6.0.0-Full/MotorControl/MCSDK/MCLib/Any/Src/sto_cordic_speed_pos_fdbk.c **** 
 244              		.loc 1 246 16 view .LVU92
 245 008a 0FFA8EFE 		sxth	lr, lr
 246              	.LVL16:
 248:MCSDK_v6.0.0-Full/MotorControl/MCSDK/MCLib/Any/Src/sto_cordic_speed_pos_fdbk.c **** #ifndef FULL_MISRA_C_COMPLIANCY_STO_CORDIC
 247              		.loc 1 248 5 is_stmt 1 view .LVU93
 248:MCSDK_v6.0.0-Full/MotorControl/MCSDK/MCLib/Any/Src/sto_cordic_speed_pos_fdbk.c **** #ifndef FULL_MISRA_C_COMPLIANCY_STO_CORDIC
 248              		.loc 1 248 29 is_stmt 0 view .LVU94
 249 008e B1F808C0 		ldrh	ip, [r1, #8]
 248:MCSDK_v6.0.0-Full/MotorControl/MCSDK/MCLib/Any/Src/sto_cordic_speed_pos_fdbk.c **** #ifndef FULL_MISRA_C_COMPLIANCY_STO_CORDIC
 250              		.loc 1 248 58 view .LVU95
 251 0092 B1F90050 		ldrsh	r5, [r1]
 248:MCSDK_v6.0.0-Full/MotorControl/MCSDK/MCLib/Any/Src/sto_cordic_speed_pos_fdbk.c **** #ifndef FULL_MISRA_C_COMPLIANCY_STO_CORDIC
 252              		.loc 1 248 10 view .LVU96
 253 0096 05FB0CF5 		mul	r5, r5, ip
 254              	.LVL17:
 250:MCSDK_v6.0.0-Full/MotorControl/MCSDK/MCLib/Any/Src/sto_cordic_speed_pos_fdbk.c **** #else
 255              		.loc 1 250 5 is_stmt 1 view .LVU97
 250:MCSDK_v6.0.0-Full/MotorControl/MCSDK/MCLib/Any/Src/sto_cordic_speed_pos_fdbk.c **** #else
 256              		.loc 1 250 12 is_stmt 0 view .LVU98
 257 009a 2D14     		asrs	r5, r5, #16
ARM GAS  /tmp/ccLjXLyq.s 			page 19


 258              	.LVL18:
 255:MCSDK_v6.0.0-Full/MotorControl/MCSDK/MCLib/Any/Src/sto_cordic_speed_pos_fdbk.c **** 
 259              		.loc 1 255 5 is_stmt 1 view .LVU99
 255:MCSDK_v6.0.0-Full/MotorControl/MCSDK/MCLib/Any/Src/sto_cordic_speed_pos_fdbk.c **** 
 260              		.loc 1 255 58 is_stmt 0 view .LVU100
 261 009c B1F902A0 		ldrsh	r10, [r1, #2]
 255:MCSDK_v6.0.0-Full/MotorControl/MCSDK/MCLib/Any/Src/sto_cordic_speed_pos_fdbk.c **** 
 262              		.loc 1 255 10 view .LVU101
 263 00a0 0AFB0CFA 		mul	r10, r10, ip
 264              	.LVL19:
 258:MCSDK_v6.0.0-Full/MotorControl/MCSDK/MCLib/Any/Src/sto_cordic_speed_pos_fdbk.c **** #else
 265              		.loc 1 258 5 is_stmt 1 view .LVU102
 258:MCSDK_v6.0.0-Full/MotorControl/MCSDK/MCLib/Any/Src/sto_cordic_speed_pos_fdbk.c **** #else
 266              		.loc 1 258 12 is_stmt 0 view .LVU103
 267 00a4 4FEA2A41 		asr	r1, r10, #16
 268              	.LVL20:
 258:MCSDK_v6.0.0-Full/MotorControl/MCSDK/MCLib/Any/Src/sto_cordic_speed_pos_fdbk.c **** #else
 269              		.loc 1 258 12 view .LVU104
 270 00a8 0691     		str	r1, [sp, #24]
 271              	.LVL21:
 266:MCSDK_v6.0.0-Full/MotorControl/MCSDK/MCLib/Any/Src/sto_cordic_speed_pos_fdbk.c **** #else
 272              		.loc 1 266 5 is_stmt 1 view .LVU105
 271:MCSDK_v6.0.0-Full/MotorControl/MCSDK/MCLib/Any/Src/sto_cordic_speed_pos_fdbk.c ****     wIalfa_est_Next = pHandle->Ialfa_est - wAux;
 273              		.loc 1 271 5 view .LVU106
 271:MCSDK_v6.0.0-Full/MotorControl/MCSDK/MCLib/Any/Src/sto_cordic_speed_pos_fdbk.c ****     wIalfa_est_Next = pHandle->Ialfa_est - wAux;
 274              		.loc 1 271 29 is_stmt 0 view .LVU107
 275 00aa B0F920A0 		ldrsh	r10, [r0, #32]
 276              	.LVL22:
 272:MCSDK_v6.0.0-Full/MotorControl/MCSDK/MCLib/Any/Src/sto_cordic_speed_pos_fdbk.c **** 
 277              		.loc 1 272 5 is_stmt 1 view .LVU108
 272:MCSDK_v6.0.0-Full/MotorControl/MCSDK/MCLib/Any/Src/sto_cordic_speed_pos_fdbk.c **** 
 278              		.loc 1 272 21 is_stmt 0 view .LVU109
 279 00ae 0BFB1A33 		mls	r3, fp, r10, r3
 280              	.LVL23:
 274:MCSDK_v6.0.0-Full/MotorControl/MCSDK/MCLib/Any/Src/sto_cordic_speed_pos_fdbk.c ****     wIalfa_est_Next += wAux;
 281              		.loc 1 274 5 is_stmt 1 view .LVU110
 274:MCSDK_v6.0.0-Full/MotorControl/MCSDK/MCLib/Any/Src/sto_cordic_speed_pos_fdbk.c ****     wIalfa_est_Next += wAux;
 282              		.loc 1 274 29 is_stmt 0 view .LVU111
 283 00b2 B0F92210 		ldrsh	r1, [r0, #34]
 284              	.LVL24:
 275:MCSDK_v6.0.0-Full/MotorControl/MCSDK/MCLib/Any/Src/sto_cordic_speed_pos_fdbk.c **** 
 285              		.loc 1 275 5 is_stmt 1 view .LVU112
 275:MCSDK_v6.0.0-Full/MotorControl/MCSDK/MCLib/Any/Src/sto_cordic_speed_pos_fdbk.c **** 
 286              		.loc 1 275 21 is_stmt 0 view .LVU113
 287 00b6 0191     		str	r1, [sp, #4]
 288 00b8 02FB0133 		mla	r3, r2, r1, r3
 289              	.LVL25:
 277:MCSDK_v6.0.0-Full/MotorControl/MCSDK/MCLib/Any/Src/sto_cordic_speed_pos_fdbk.c ****     wIalfa_est_Next += wAux;
 290              		.loc 1 277 5 is_stmt 1 view .LVU114
 277:MCSDK_v6.0.0-Full/MotorControl/MCSDK/MCLib/Any/Src/sto_cordic_speed_pos_fdbk.c ****     wIalfa_est_Next += wAux;
 291              		.loc 1 277 29 is_stmt 0 view .LVU115
 292 00bc B0F928C0 		ldrsh	ip, [r0, #40]
 293              	.LVL26:
 278:MCSDK_v6.0.0-Full/MotorControl/MCSDK/MCLib/Any/Src/sto_cordic_speed_pos_fdbk.c **** 
 294              		.loc 1 278 5 is_stmt 1 view .LVU116
 278:MCSDK_v6.0.0-Full/MotorControl/MCSDK/MCLib/Any/Src/sto_cordic_speed_pos_fdbk.c **** 
 295              		.loc 1 278 21 is_stmt 0 view .LVU117
ARM GAS  /tmp/ccLjXLyq.s 			page 20


 296 00c0 CDF808C0 		str	ip, [sp, #8]
 297 00c4 05FB0C33 		mla	r3, r5, ip, r3
 298              	.LVL27:
 280:MCSDK_v6.0.0-Full/MotorControl/MCSDK/MCLib/Any/Src/sto_cordic_speed_pos_fdbk.c ****     wIalfa_est_Next -= wAux;
 299              		.loc 1 280 5 is_stmt 1 view .LVU118
 280:MCSDK_v6.0.0-Full/MotorControl/MCSDK/MCLib/Any/Src/sto_cordic_speed_pos_fdbk.c ****     wIalfa_est_Next -= wAux;
 300              		.loc 1 280 29 is_stmt 0 view .LVU119
 301 00c8 B0F924C0 		ldrsh	ip, [r0, #36]
 302              	.LVL28:
 281:MCSDK_v6.0.0-Full/MotorControl/MCSDK/MCLib/Any/Src/sto_cordic_speed_pos_fdbk.c **** 
 303              		.loc 1 281 5 is_stmt 1 view .LVU120
 281:MCSDK_v6.0.0-Full/MotorControl/MCSDK/MCLib/Any/Src/sto_cordic_speed_pos_fdbk.c **** 
 304              		.loc 1 281 21 is_stmt 0 view .LVU121
 305 00cc 07FB1C33 		mls	r3, r7, ip, r3
 306              	.LVL29:
 281:MCSDK_v6.0.0-Full/MotorControl/MCSDK/MCLib/Any/Src/sto_cordic_speed_pos_fdbk.c **** 
 307              		.loc 1 281 21 view .LVU122
 308 00d0 0793     		str	r3, [sp, #28]
 309              	.LVL30:
 283:MCSDK_v6.0.0-Full/MotorControl/MCSDK/MCLib/Any/Src/sto_cordic_speed_pos_fdbk.c ****     wBemf_alfa_est_Next = pHandle->wBemf_alfa_est + wAux;
 310              		.loc 1 283 5 is_stmt 1 view .LVU123
 283:MCSDK_v6.0.0-Full/MotorControl/MCSDK/MCLib/Any/Src/sto_cordic_speed_pos_fdbk.c ****     wBemf_alfa_est_Next = pHandle->wBemf_alfa_est + wAux;
 311              		.loc 1 283 29 is_stmt 0 view .LVU124
 312 00d2 B0F92630 		ldrsh	r3, [r0, #38]
 313              	.LVL31:
 284:MCSDK_v6.0.0-Full/MotorControl/MCSDK/MCLib/Any/Src/sto_cordic_speed_pos_fdbk.c **** 
 314              		.loc 1 284 5 is_stmt 1 view .LVU125
 284:MCSDK_v6.0.0-Full/MotorControl/MCSDK/MCLib/Any/Src/sto_cordic_speed_pos_fdbk.c **** 
 315              		.loc 1 284 25 is_stmt 0 view .LVU126
 316 00d6 0393     		str	r3, [sp, #12]
 317 00d8 03FB0262 		mla	r2, r3, r2, r6
 318              	.LVL32:
 288:MCSDK_v6.0.0-Full/MotorControl/MCSDK/MCLib/Any/Src/sto_cordic_speed_pos_fdbk.c **** #else
 319              		.loc 1 288 5 is_stmt 1 view .LVU127
 288:MCSDK_v6.0.0-Full/MotorControl/MCSDK/MCLib/Any/Src/sto_cordic_speed_pos_fdbk.c **** #else
 320              		.loc 1 288 42 is_stmt 0 view .LVU128
 321 00dc 418E     		ldrh	r1, [r0, #50]
 288:MCSDK_v6.0.0-Full/MotorControl/MCSDK/MCLib/Any/Src/sto_cordic_speed_pos_fdbk.c **** #else
 322              		.loc 1 288 10 view .LVU129
 323 00de 44FA01F5 		asr	r5, r4, r1
 324              	.LVL33:
 293:MCSDK_v6.0.0-Full/MotorControl/MCSDK/MCLib/Any/Src/sto_cordic_speed_pos_fdbk.c ****     wAux = hPrev_Rotor_Speed * wAux;
 325              		.loc 1 293 5 is_stmt 1 view .LVU130
 293:MCSDK_v6.0.0-Full/MotorControl/MCSDK/MCLib/Any/Src/sto_cordic_speed_pos_fdbk.c ****     wAux = hPrev_Rotor_Speed * wAux;
 326              		.loc 1 293 26 is_stmt 0 view .LVU131
 327 00e2 B0F92AB0 		ldrsh	fp, [r0, #42]
 328              	.LVL34:
 293:MCSDK_v6.0.0-Full/MotorControl/MCSDK/MCLib/Any/Src/sto_cordic_speed_pos_fdbk.c ****     wAux = hPrev_Rotor_Speed * wAux;
 329              		.loc 1 293 10 view .LVU132
 330 00e6 05FB0BF5 		mul	r5, r5, fp
 331              	.LVL35:
 294:MCSDK_v6.0.0-Full/MotorControl/MCSDK/MCLib/Any/Src/sto_cordic_speed_pos_fdbk.c ****     wBemf_alfa_est_Next += wAux;
 332              		.loc 1 294 5 is_stmt 1 view .LVU133
 295:MCSDK_v6.0.0-Full/MotorControl/MCSDK/MCLib/Any/Src/sto_cordic_speed_pos_fdbk.c **** 
 333              		.loc 1 295 5 view .LVU134
 295:MCSDK_v6.0.0-Full/MotorControl/MCSDK/MCLib/Any/Src/sto_cordic_speed_pos_fdbk.c **** 
 334              		.loc 1 295 25 is_stmt 0 view .LVU135
ARM GAS  /tmp/ccLjXLyq.s 			page 21


 335 00ea 009B     		ldr	r3, [sp]
 336 00ec 05FB0322 		mla	r2, r5, r3, r2
 337              	.LVL36:
 300:MCSDK_v6.0.0-Full/MotorControl/MCSDK/MCLib/Any/Src/sto_cordic_speed_pos_fdbk.c **** #else
 338              		.loc 1 300 5 is_stmt 1 view .LVU136
 305:MCSDK_v6.0.0-Full/MotorControl/MCSDK/MCLib/Any/Src/sto_cordic_speed_pos_fdbk.c ****     wIbeta_est_Next = pHandle->Ibeta_est - wAux;
 339              		.loc 1 305 5 view .LVU137
 306:MCSDK_v6.0.0-Full/MotorControl/MCSDK/MCLib/Any/Src/sto_cordic_speed_pos_fdbk.c **** 
 340              		.loc 1 306 5 view .LVU138
 306:MCSDK_v6.0.0-Full/MotorControl/MCSDK/MCLib/Any/Src/sto_cordic_speed_pos_fdbk.c **** 
 341              		.loc 1 306 21 is_stmt 0 view .LVU139
 342 00f0 059D     		ldr	r5, [sp, #20]
 343 00f2 836B     		ldr	r3, [r0, #56]
 344 00f4 05FB1A3A 		mls	r10, r5, r10, r3
 345              	.LVL37:
 308:MCSDK_v6.0.0-Full/MotorControl/MCSDK/MCLib/Any/Src/sto_cordic_speed_pos_fdbk.c ****     wIbeta_est_Next += wAux;
 346              		.loc 1 308 5 is_stmt 1 view .LVU140
 309:MCSDK_v6.0.0-Full/MotorControl/MCSDK/MCLib/Any/Src/sto_cordic_speed_pos_fdbk.c **** 
 347              		.loc 1 309 5 view .LVU141
 309:MCSDK_v6.0.0-Full/MotorControl/MCSDK/MCLib/Any/Src/sto_cordic_speed_pos_fdbk.c **** 
 348              		.loc 1 309 21 is_stmt 0 view .LVU142
 349 00f8 019D     		ldr	r5, [sp, #4]
 350 00fa 0EFB05AA 		mla	r10, lr, r5, r10
 351              	.LVL38:
 311:MCSDK_v6.0.0-Full/MotorControl/MCSDK/MCLib/Any/Src/sto_cordic_speed_pos_fdbk.c ****     wIbeta_est_Next += wAux;
 352              		.loc 1 311 5 is_stmt 1 view .LVU143
 312:MCSDK_v6.0.0-Full/MotorControl/MCSDK/MCLib/Any/Src/sto_cordic_speed_pos_fdbk.c **** 
 353              		.loc 1 312 5 view .LVU144
 312:MCSDK_v6.0.0-Full/MotorControl/MCSDK/MCLib/Any/Src/sto_cordic_speed_pos_fdbk.c **** 
 354              		.loc 1 312 21 is_stmt 0 view .LVU145
 355 00fe 029D     		ldr	r5, [sp, #8]
 356 0100 2B46     		mov	r3, r5
 357 0102 069D     		ldr	r5, [sp, #24]
 358 0104 05FB03AA 		mla	r10, r5, r3, r10
 359              	.LVL39:
 314:MCSDK_v6.0.0-Full/MotorControl/MCSDK/MCLib/Any/Src/sto_cordic_speed_pos_fdbk.c ****     wIbeta_est_Next -= wAux;
 360              		.loc 1 314 5 is_stmt 1 view .LVU146
 315:MCSDK_v6.0.0-Full/MotorControl/MCSDK/MCLib/Any/Src/sto_cordic_speed_pos_fdbk.c **** 
 361              		.loc 1 315 5 view .LVU147
 315:MCSDK_v6.0.0-Full/MotorControl/MCSDK/MCLib/Any/Src/sto_cordic_speed_pos_fdbk.c **** 
 362              		.loc 1 315 21 is_stmt 0 view .LVU148
 363 0108 04FB1CA5 		mls	r5, r4, ip, r10
 364              	.LVL40:
 317:MCSDK_v6.0.0-Full/MotorControl/MCSDK/MCLib/Any/Src/sto_cordic_speed_pos_fdbk.c ****     wBemf_beta_est_Next = pHandle->wBemf_beta_est + wAux;
 365              		.loc 1 317 5 is_stmt 1 view .LVU149
 318:MCSDK_v6.0.0-Full/MotorControl/MCSDK/MCLib/Any/Src/sto_cordic_speed_pos_fdbk.c **** 
 366              		.loc 1 318 5 view .LVU150
 318:MCSDK_v6.0.0-Full/MotorControl/MCSDK/MCLib/Any/Src/sto_cordic_speed_pos_fdbk.c **** 
 367              		.loc 1 318 25 is_stmt 0 view .LVU151
 368 010c 039B     		ldr	r3, [sp, #12]
 369 010e 0EFB038E 		mla	lr, lr, r3, r8
 370              	.LVL41:
 322:MCSDK_v6.0.0-Full/MotorControl/MCSDK/MCLib/Any/Src/sto_cordic_speed_pos_fdbk.c **** #else
 371              		.loc 1 322 5 is_stmt 1 view .LVU152
 322:MCSDK_v6.0.0-Full/MotorControl/MCSDK/MCLib/Any/Src/sto_cordic_speed_pos_fdbk.c **** #else
 372              		.loc 1 322 10 is_stmt 0 view .LVU153
 373 0112 47FA01F1 		asr	r1, r7, r1
ARM GAS  /tmp/ccLjXLyq.s 			page 22


 374              	.LVL42:
 327:MCSDK_v6.0.0-Full/MotorControl/MCSDK/MCLib/Any/Src/sto_cordic_speed_pos_fdbk.c ****     wAux = hPrev_Rotor_Speed * wAux;
 375              		.loc 1 327 5 is_stmt 1 view .LVU154
 327:MCSDK_v6.0.0-Full/MotorControl/MCSDK/MCLib/Any/Src/sto_cordic_speed_pos_fdbk.c ****     wAux = hPrev_Rotor_Speed * wAux;
 376              		.loc 1 327 10 is_stmt 0 view .LVU155
 377 0116 01FB0BF1 		mul	r1, r1, fp
 378              	.LVL43:
 328:MCSDK_v6.0.0-Full/MotorControl/MCSDK/MCLib/Any/Src/sto_cordic_speed_pos_fdbk.c ****     wBemf_beta_est_Next -= wAux;
 379              		.loc 1 328 5 is_stmt 1 view .LVU156
 329:MCSDK_v6.0.0-Full/MotorControl/MCSDK/MCLib/Any/Src/sto_cordic_speed_pos_fdbk.c **** 
 380              		.loc 1 329 5 view .LVU157
 329:MCSDK_v6.0.0-Full/MotorControl/MCSDK/MCLib/Any/Src/sto_cordic_speed_pos_fdbk.c **** 
 381              		.loc 1 329 25 is_stmt 0 view .LVU158
 382 011a 009B     		ldr	r3, [sp]
 383 011c 01FB13E1 		mls	r1, r1, r3, lr
 384              	.LVL44:
 331:MCSDK_v6.0.0-Full/MotorControl/MCSDK/MCLib/Any/Src/sto_cordic_speed_pos_fdbk.c ****     {
 385              		.loc 1 331 5 is_stmt 1 view .LVU159
 331:MCSDK_v6.0.0-Full/MotorControl/MCSDK/MCLib/Any/Src/sto_cordic_speed_pos_fdbk.c ****     {
 386              		.loc 1 331 16 is_stmt 0 view .LVU160
 387 0120 B0F94EC1 		ldrsh	ip, [r0, #334]
 331:MCSDK_v6.0.0-Full/MotorControl/MCSDK/MCLib/Any/Src/sto_cordic_speed_pos_fdbk.c ****     {
 388              		.loc 1 331 8 view .LVU161
 389 0124 BCF1000F 		cmp	ip, #0
 390 0128 6CDB     		blt	.L23
 333:MCSDK_v6.0.0-Full/MotorControl/MCSDK/MCLib/Any/Src/sto_cordic_speed_pos_fdbk.c ****     }
 391              		.loc 1 333 18 view .LVU162
 392 012a 4FF0010C 		mov	ip, #1
 393              	.L15:
 394              	.LVL45:
 341:MCSDK_v6.0.0-Full/MotorControl/MCSDK/MCLib/Any/Src/sto_cordic_speed_pos_fdbk.c ****     pHandle->hBemf_beta_est = hAux_Beta;
 395              		.loc 1 341 5 is_stmt 1 view .LVU163
 341:MCSDK_v6.0.0-Full/MotorControl/MCSDK/MCLib/Any/Src/sto_cordic_speed_pos_fdbk.c ****     pHandle->hBemf_beta_est = hAux_Beta;
 396              		.loc 1 341 29 is_stmt 0 view .LVU164
 397 012e A0F84470 		strh	r7, [r0, #68]	@ movhi
 398              	.LVL46:
 342:MCSDK_v6.0.0-Full/MotorControl/MCSDK/MCLib/Any/Src/sto_cordic_speed_pos_fdbk.c **** 
 399              		.loc 1 342 5 is_stmt 1 view .LVU165
 342:MCSDK_v6.0.0-Full/MotorControl/MCSDK/MCLib/Any/Src/sto_cordic_speed_pos_fdbk.c **** 
 400              		.loc 1 342 29 is_stmt 0 view .LVU166
 401 0132 A0F84640 		strh	r4, [r0, #70]	@ movhi
 345:MCSDK_v6.0.0-Full/MotorControl/MCSDK/MCLib/Any/Src/sto_cordic_speed_pos_fdbk.c ****     wAux_Beta = pHandle->wBemf_beta_est * wDirection;
 402              		.loc 1 345 5 is_stmt 1 view .LVU167
 345:MCSDK_v6.0.0-Full/MotorControl/MCSDK/MCLib/Any/Src/sto_cordic_speed_pos_fdbk.c ****     wAux_Beta = pHandle->wBemf_beta_est * wDirection;
 403              		.loc 1 345 16 is_stmt 0 view .LVU168
 404 0136 0CFB06F6 		mul	r6, ip, r6
 405              	.LVL47:
 346:MCSDK_v6.0.0-Full/MotorControl/MCSDK/MCLib/Any/Src/sto_cordic_speed_pos_fdbk.c **** 
 406              		.loc 1 346 5 is_stmt 1 view .LVU169
 346:MCSDK_v6.0.0-Full/MotorControl/MCSDK/MCLib/Any/Src/sto_cordic_speed_pos_fdbk.c **** 
 407              		.loc 1 346 15 is_stmt 0 view .LVU170
 408 013a 0CFB08F4 		mul	r4, ip, r8
 409              	.LVL48:
 348:MCSDK_v6.0.0-Full/MotorControl/MCSDK/MCLib/Any/Src/sto_cordic_speed_pos_fdbk.c **** 
 410              		.loc 1 348 5 is_stmt 1 view .LVU171
 348:MCSDK_v6.0.0-Full/MotorControl/MCSDK/MCLib/Any/Src/sto_cordic_speed_pos_fdbk.c **** 
 411              		.loc 1 348 20 is_stmt 0 view .LVU172
ARM GAS  /tmp/ccLjXLyq.s 			page 23


 412 013e 6442     		rsbs	r4, r4, #0
 413              	.LVL49:
 414              	.LBB18:
 415              	.LBI18:
 416              		.file 2 "Inc/mc_math.h"
   1:Inc/mc_math.h **** 
   2:Inc/mc_math.h **** /**
   3:Inc/mc_math.h ****   ******************************************************************************
   4:Inc/mc_math.h ****   * @file    mc_math.h
   5:Inc/mc_math.h ****   * @author  Motor Control SDK Team, ST Microelectronics
   6:Inc/mc_math.h ****   * @brief   This file provides mathematics functions useful for and specific to
   7:Inc/mc_math.h ****   *          Motor Control.
   8:Inc/mc_math.h ****   *
   9:Inc/mc_math.h ****   ******************************************************************************
  10:Inc/mc_math.h ****   * @attention
  11:Inc/mc_math.h ****   *
  12:Inc/mc_math.h ****   * <h2><center>&copy; Copyright (c) 2022 STMicroelectronics.
  13:Inc/mc_math.h ****   * All rights reserved.</center></h2>
  14:Inc/mc_math.h ****   *
  15:Inc/mc_math.h ****   * This software component is licensed by ST under Ultimate Liberty license
  16:Inc/mc_math.h ****   * SLA0044, the "License"; You may not use this file except in compliance with
  17:Inc/mc_math.h ****   * the License. You may obtain a copy of the License at:
  18:Inc/mc_math.h ****   *                             www.st.com/SLA0044
  19:Inc/mc_math.h ****   *
  20:Inc/mc_math.h ****   ******************************************************************************
  21:Inc/mc_math.h ****   * @ingroup MC_Math
  22:Inc/mc_math.h ****   */
  23:Inc/mc_math.h **** /* Define to prevent recursive inclusion -------------------------------------*/
  24:Inc/mc_math.h **** #ifndef MC_MATH_H
  25:Inc/mc_math.h **** #define MC_MATH_H
  26:Inc/mc_math.h **** 
  27:Inc/mc_math.h **** /* Includes ------------------------------------------------------------------*/
  28:Inc/mc_math.h **** #include "mc_type.h"
  29:Inc/mc_math.h **** 
  30:Inc/mc_math.h **** /** @addtogroup MCSDK
  31:Inc/mc_math.h ****   * @{
  32:Inc/mc_math.h ****   */
  33:Inc/mc_math.h **** 
  34:Inc/mc_math.h **** /** @addtogroup MC_Math
  35:Inc/mc_math.h ****   * @{
  36:Inc/mc_math.h ****   */
  37:Inc/mc_math.h **** #define SQRT_2  1.4142
  38:Inc/mc_math.h **** #define SQRT_3  1.732
  39:Inc/mc_math.h **** 
  40:Inc/mc_math.h **** /* CORDIC coprocessor configuration register settings */
  41:Inc/mc_math.h **** 
  42:Inc/mc_math.h **** /* CORDIC FUNCTION: PHASE q1.31 (Electrical Angle computation) */
  43:Inc/mc_math.h **** #define CORDIC_CONFIG_PHASE     (LL_CORDIC_FUNCTION_PHASE | LL_CORDIC_PRECISION_6CYCLES | LL_CORDIC
  44:Inc/mc_math.h ****          LL_CORDIC_NBWRITE_2 | LL_CORDIC_NBREAD_1 |\
  45:Inc/mc_math.h ****          LL_CORDIC_INSIZE_32BITS | LL_CORDIC_OUTSIZE_32BITS)
  46:Inc/mc_math.h **** 
  47:Inc/mc_math.h **** /* CORDIC FUNCTION: SQUAREROOT q1.31 */
  48:Inc/mc_math.h **** #define CORDIC_CONFIG_SQRT      (LL_CORDIC_FUNCTION_SQUAREROOT | LL_CORDIC_PRECISION_6CYCLES | LL_C
  49:Inc/mc_math.h ****          LL_CORDIC_NBWRITE_1 | LL_CORDIC_NBREAD_1 |\
  50:Inc/mc_math.h ****          LL_CORDIC_INSIZE_32BITS | LL_CORDIC_OUTSIZE_32BITS)
  51:Inc/mc_math.h **** 
  52:Inc/mc_math.h **** /* CORDIC FUNCTION: COSINE q1.15 */
ARM GAS  /tmp/ccLjXLyq.s 			page 24


  53:Inc/mc_math.h **** #define CORDIC_CONFIG_COSINE    (LL_CORDIC_FUNCTION_COSINE | LL_CORDIC_PRECISION_6CYCLES | LL_CORDI
  54:Inc/mc_math.h ****          LL_CORDIC_NBWRITE_1 | LL_CORDIC_NBREAD_1 |\
  55:Inc/mc_math.h ****          LL_CORDIC_INSIZE_16BITS | LL_CORDIC_OUTSIZE_16BITS)
  56:Inc/mc_math.h **** 
  57:Inc/mc_math.h **** /* CORDIC FUNCTION: MODULUS q1.15 */
  58:Inc/mc_math.h **** #define CORDIC_CONFIG_MODULUS   (LL_CORDIC_FUNCTION_MODULUS | LL_CORDIC_PRECISION_6CYCLES | LL_CORD
  59:Inc/mc_math.h **** 				 LL_CORDIC_NBWRITE_1 | LL_CORDIC_NBREAD_1 |\
  60:Inc/mc_math.h **** 				 LL_CORDIC_INSIZE_16BITS | LL_CORDIC_OUTSIZE_16BITS)
  61:Inc/mc_math.h **** 
  62:Inc/mc_math.h **** /**
  63:Inc/mc_math.h ****   * @brief  Macro to compute logarithm of two
  64:Inc/mc_math.h ****   */
  65:Inc/mc_math.h **** #define LOG2(x) \
  66:Inc/mc_math.h ****   (((x) == 65535 ) ? 16 : \
  67:Inc/mc_math.h ****    (((x) == (2*2*2*2*2*2*2*2*2*2*2*2*2*2*2)) ? 15 : \
  68:Inc/mc_math.h ****     (((x) == (2*2*2*2*2*2*2*2*2*2*2*2*2*2)) ? 14 : \
  69:Inc/mc_math.h ****      (((x) == (2*2*2*2*2*2*2*2*2*2*2*2*2)) ? 13 : \
  70:Inc/mc_math.h ****       (((x) == (2*2*2*2*2*2*2*2*2*2*2*2)) ? 12 : \
  71:Inc/mc_math.h ****        (((x) == (2*2*2*2*2*2*2*2*2*2*2)) ? 11 : \
  72:Inc/mc_math.h ****         (((x) == (2*2*2*2*2*2*2*2*2*2)) ? 10 : \
  73:Inc/mc_math.h ****          (((x) == (2*2*2*2*2*2*2*2*2)) ? 9 : \
  74:Inc/mc_math.h ****           (((x) == (2*2*2*2*2*2*2*2)) ? 8 : \
  75:Inc/mc_math.h ****            (((x) == (2*2*2*2*2*2*2)) ? 7 : \
  76:Inc/mc_math.h ****             (((x) == (2*2*2*2*2*2)) ? 6 : \
  77:Inc/mc_math.h ****              (((x) == (2*2*2*2*2)) ? 5 : \
  78:Inc/mc_math.h ****               (((x) == (2*2*2*2)) ? 4 : \
  79:Inc/mc_math.h ****                (((x) == (2*2*2)) ? 3 : \
  80:Inc/mc_math.h ****                 (((x) == (2*2)) ? 2 : \
  81:Inc/mc_math.h ****                  (((x) == 2) ? 1 : \
  82:Inc/mc_math.h ****                   (((x) == 1) ? 0 : -1)))))))))))))))))
  83:Inc/mc_math.h **** 
  84:Inc/mc_math.h **** /**
  85:Inc/mc_math.h ****   * @brief  Trigonometrical functions type definition
  86:Inc/mc_math.h ****   */
  87:Inc/mc_math.h **** typedef struct
  88:Inc/mc_math.h **** {
  89:Inc/mc_math.h ****   int16_t hCos;
  90:Inc/mc_math.h ****   int16_t hSin;
  91:Inc/mc_math.h **** } Trig_Components;
  92:Inc/mc_math.h **** 
  93:Inc/mc_math.h **** /**
  94:Inc/mc_math.h ****   * @brief  This function transforms stator currents Ia and qIb (which are
  95:Inc/mc_math.h ****   *         directed along axes each displaced by 120 degrees) into currents
  96:Inc/mc_math.h ****   *         Ialpha and Ibeta in a stationary qd reference frame.
  97:Inc/mc_math.h ****   *                               Ialpha = Ia
  98:Inc/mc_math.h ****   *                       Ibeta = -(2*Ib+Ia)/sqrt(3)
  99:Inc/mc_math.h ****   * @param  Curr_Input: stator current Ia and Ib in ab_t format
 100:Inc/mc_math.h ****   * @retval Stator current Ialpha and Ibeta in alphabeta_t format
 101:Inc/mc_math.h ****   */
 102:Inc/mc_math.h **** alphabeta_t MCM_Clarke(ab_t Input);
 103:Inc/mc_math.h **** 
 104:Inc/mc_math.h **** /**
 105:Inc/mc_math.h ****   * @brief  This function transforms stator values alpha and beta, which
 106:Inc/mc_math.h ****   *         belong to a stationary qd reference frame, to a rotor flux
 107:Inc/mc_math.h ****   *         synchronous reference frame (properly oriented), so as Iq and Id.
 108:Inc/mc_math.h ****   *                   Id= Ialpha *sin(theta)+qIbeta *cos(Theta)
 109:Inc/mc_math.h ****   *                   Iq=qIalpha *cos(Theta)-qIbeta *sin(Theta)
ARM GAS  /tmp/ccLjXLyq.s 			page 25


 110:Inc/mc_math.h ****   * @param  Curr_Input: stator values alpha and beta in alphabeta_t format
 111:Inc/mc_math.h ****   * @param  Theta: rotating frame angular position in q1.15 format
 112:Inc/mc_math.h ****   * @retval Stator current q and d in qd_t format
 113:Inc/mc_math.h ****   */
 114:Inc/mc_math.h **** qd_t MCM_Park(alphabeta_t Input, int16_t Theta);
 115:Inc/mc_math.h **** 
 116:Inc/mc_math.h **** /**
 117:Inc/mc_math.h ****   * @brief  This function transforms stator voltage qVq and qVd, that belong to
 118:Inc/mc_math.h ****   *         a rotor flux synchronous rotating frame, to a stationary reference
 119:Inc/mc_math.h ****   *         frame, so as to obtain qValpha and qVbeta:
 120:Inc/mc_math.h ****   *                  Valfa= Vq*Cos(theta)+ Vd*Sin(theta)
 121:Inc/mc_math.h ****   *                  Vbeta=-Vq*Sin(theta)+ Vd*Cos(theta)
 122:Inc/mc_math.h ****   * @param  Curr_Input: stator voltage Vq and Vd in qd_t format
 123:Inc/mc_math.h ****   * @param  Theta: rotating frame angular position in q1.15 format
 124:Inc/mc_math.h ****   * @retval Stator values alpha and beta in alphabeta_t format
 125:Inc/mc_math.h ****   */
 126:Inc/mc_math.h **** alphabeta_t MCM_Rev_Park(qd_t Input, int16_t Theta);
 127:Inc/mc_math.h **** 
 128:Inc/mc_math.h **** /**
 129:Inc/mc_math.h ****   * @brief  This function returns cosine and sine functions of the angle fed in
 130:Inc/mc_math.h ****   *         input
 131:Inc/mc_math.h ****   * @param  hAngle: angle in q1.15 format
 132:Inc/mc_math.h ****   * @retval Trig_Components Cos(angle) and Sin(angle) in Trig_Components format
 133:Inc/mc_math.h ****   */
 134:Inc/mc_math.h **** Trig_Components MCM_Trig_Functions(int16_t hAngle);
 135:Inc/mc_math.h **** 
 136:Inc/mc_math.h **** /**
 137:Inc/mc_math.h ****   * @brief  It calculates the square root of a non-negative s32. It returns 0
 138:Inc/mc_math.h ****   *         for negative s32.
 139:Inc/mc_math.h ****   * @param  Input int32_t number
 140:Inc/mc_math.h ****   * @retval int32_t Square root of Input (0 if Input<0)
 141:Inc/mc_math.h ****   */
 142:Inc/mc_math.h **** int32_t MCM_Sqrt(int32_t wInput);
 143:Inc/mc_math.h **** 
 144:Inc/mc_math.h **** /**
 145:Inc/mc_math.h ****   * @brief  Sqrt table used by Circle Limitation function
 146:Inc/mc_math.h ****   *         used for STM32F0/STM32G0 series only
 147:Inc/mc_math.h ****   */
 148:Inc/mc_math.h **** #define SQRT_CIRCLE_LIMITATION {\
 149:Inc/mc_math.h ****      0 , 1023 , 1448 , 1773 , 2047 , 2289 , 2508 , 2709,\
 150:Inc/mc_math.h ****      2896 , 3071 , 3238 , 3396 , 3547 , 3691 , 3831 , 3965,\
 151:Inc/mc_math.h ****      4095 , 4221 , 4344 , 4463 , 4579 , 4692 , 4802 , 4910,\
 152:Inc/mc_math.h ****      5016 , 5119 , 5221 , 5320 , 5418 , 5514 , 5608 , 5701,\
 153:Inc/mc_math.h ****      5792 , 5882 , 5970 , 6057 , 6143 , 6228 , 6312 , 6394,\
 154:Inc/mc_math.h ****      6476 , 6556 , 6636 , 6714 , 6792 , 6868 , 6944 , 7019,\
 155:Inc/mc_math.h ****      7094 , 7167 , 7240 , 7312 , 7383 , 7454 , 7524 , 7593,\
 156:Inc/mc_math.h ****      7662 , 7730 , 7798 , 7865 , 7931 , 7997 , 8062 , 8127,\
 157:Inc/mc_math.h ****      8191 , 8255 , 8318 , 8381 , 8443 , 8505 , 8567 , 8628,\
 158:Inc/mc_math.h ****      8688 , 8748 , 8808 , 8867 , 8926 , 8985 , 9043 , 9101,\
 159:Inc/mc_math.h ****      9158 , 9215 , 9272 , 9328 , 9384 , 9440 , 9495 , 9550,\
 160:Inc/mc_math.h ****      9605 , 9660 , 9714 , 9768 , 9821 , 9874 , 9927 , 9980,\
 161:Inc/mc_math.h ****      10032 , 10084 , 10136 , 10188 , 10239 , 10290 , 10341 , 10392,\
 162:Inc/mc_math.h ****      10442 , 10492 , 10542 , 10592 , 10641 , 10690 , 10739 , 10788,\
 163:Inc/mc_math.h ****      10836 , 10884 , 10932 , 10980 , 11028 , 11075 , 11123 , 11170,\
 164:Inc/mc_math.h ****      11217 , 11263 , 11310 , 11356 , 11402 , 11448 , 11494 , 11539,\
 165:Inc/mc_math.h ****      11584 , 11630 , 11675 , 11719 , 11764 , 11808 , 11853 , 11897,\
 166:Inc/mc_math.h ****      11941 , 11985 , 12028 , 12072 , 12115 , 12158 , 12201 , 12244,\
ARM GAS  /tmp/ccLjXLyq.s 			page 26


 167:Inc/mc_math.h ****      12287 , 12330 , 12372 , 12414 , 12457 , 12499 , 12541 , 12582,\
 168:Inc/mc_math.h ****      12624 , 12665 , 12707 , 12748 , 12789 , 12830 , 12871 , 12911,\
 169:Inc/mc_math.h ****      12952 , 12992 , 13032 , 13073 , 13113 , 13153 , 13192 , 13232,\
 170:Inc/mc_math.h ****      13272 , 13311 , 13350 , 13390 , 13429 , 13468 , 13507 , 13545,\
 171:Inc/mc_math.h ****      13584 , 13623 , 13661 , 13699 , 13737 , 13776 , 13814 , 13851,\
 172:Inc/mc_math.h ****      13889 , 13927 , 13965 , 14002 , 14039 , 14077 , 14114 , 14151,\
 173:Inc/mc_math.h ****      14188 , 14225 , 14262 , 14298 , 14335 , 14372 , 14408 , 14444,\
 174:Inc/mc_math.h ****      14481 , 14517 , 14553 , 14589 , 14625 , 14661 , 14696 , 14732,\
 175:Inc/mc_math.h ****      14767 , 14803 , 14838 , 14874 , 14909 , 14944 , 14979 , 15014,\
 176:Inc/mc_math.h ****      15049 , 15084 , 15118 , 15153 , 15187 , 15222 , 15256 , 15291,\
 177:Inc/mc_math.h ****      15325 , 15359 , 15393 , 15427 , 15461 , 15495 , 15529 , 15562,\
 178:Inc/mc_math.h ****      15596 , 15630 , 15663 , 15697 , 15730 , 15763 , 15797 , 15830,\
 179:Inc/mc_math.h ****      15863 , 15896 , 15929 , 15962 , 15994 , 16027 , 16060 , 16092,\
 180:Inc/mc_math.h ****      16125 , 16157 , 16190 , 16222 , 16254 , 16287 , 16319 , 16351,\
 181:Inc/mc_math.h ****      16383 , 16415 , 16447 , 16479 , 16510 , 16542 , 16574 , 16605,\
 182:Inc/mc_math.h ****      16637 , 16669 , 16700 , 16731 , 16763 , 16794 , 16825 , 16856,\
 183:Inc/mc_math.h ****      16887 , 16918 , 16949 , 16980 , 17011 , 17042 , 17072 , 17103,\
 184:Inc/mc_math.h ****      17134 , 17164 , 17195 , 17225 , 17256 , 17286 , 17316 , 17347,\
 185:Inc/mc_math.h ****      17377 , 17407 , 17437 , 17467 , 17497 , 17527 , 17557 , 17587,\
 186:Inc/mc_math.h ****      17617 , 17646 , 17676 , 17706 , 17735 , 17765 , 17794 , 17824,\
 187:Inc/mc_math.h ****      17853 , 17882 , 17912 , 17941 , 17970 , 17999 , 18028 , 18057,\
 188:Inc/mc_math.h ****      18086 , 18115 , 18144 , 18173 , 18202 , 18231 , 18259 , 18288,\
 189:Inc/mc_math.h ****      18317 , 18345 , 18374 , 18402 , 18431 , 18459 , 18488 , 18516,\
 190:Inc/mc_math.h ****      18544 , 18573 , 18601 , 18629 , 18657 , 18685 , 18713 , 18741,\
 191:Inc/mc_math.h ****      18769 , 18797 , 18825 , 18853 , 18881 , 18908 , 18936 , 18964,\
 192:Inc/mc_math.h ****      18991 , 19019 , 19046 , 19074 , 19101 , 19129 , 19156 , 19184,\
 193:Inc/mc_math.h ****      19211 , 19238 , 19265 , 19293 , 19320 , 19347 , 19374 , 19401,\
 194:Inc/mc_math.h ****      19428 , 19455 , 19482 , 19509 , 19536 , 19562 , 19589 , 19616,\
 195:Inc/mc_math.h ****      19643 , 19669 , 19696 , 19723 , 19749 , 19776 , 19802 , 19829,\
 196:Inc/mc_math.h ****      19855 , 19881 , 19908 , 19934 , 19960 , 19987 , 20013 , 20039,\
 197:Inc/mc_math.h ****      20065 , 20091 , 20117 , 20143 , 20169 , 20195 , 20221 , 20247,\
 198:Inc/mc_math.h ****      20273 , 20299 , 20325 , 20350 , 20376 , 20402 , 20428 , 20453,\
 199:Inc/mc_math.h ****      20479 , 20504 , 20530 , 20556 , 20581 , 20606 , 20632 , 20657,\
 200:Inc/mc_math.h ****      20683 , 20708 , 20733 , 20759 , 20784 , 20809 , 20834 , 20859,\
 201:Inc/mc_math.h ****      20884 , 20910 , 20935 , 20960 , 20985 , 21010 , 21035 , 21059,\
 202:Inc/mc_math.h ****      21084 , 21109 , 21134 , 21159 , 21184 , 21208 , 21233 , 21258,\
 203:Inc/mc_math.h ****      21282 , 21307 , 21331 , 21356 , 21381 , 21405 , 21430 , 21454,\
 204:Inc/mc_math.h ****      21478 , 21503 , 21527 , 21552 , 21576 , 21600 , 21624 , 21649,\
 205:Inc/mc_math.h ****      21673 , 21697 , 21721 , 21745 , 21769 , 21793 , 21817 , 21841,\
 206:Inc/mc_math.h ****      21865 , 21889 , 21913 , 21937 , 21961 , 21985 , 22009 , 22033,\
 207:Inc/mc_math.h ****      22056 , 22080 , 22104 , 22128 , 22151 , 22175 , 22199 , 22222,\
 208:Inc/mc_math.h ****      22246 , 22269 , 22293 , 22316 , 22340 , 22363 , 22387 , 22410,\
 209:Inc/mc_math.h ****      22434 , 22457 , 22480 , 22504 , 22527 , 22550 , 22573 , 22597,\
 210:Inc/mc_math.h ****      22620 , 22643 , 22666 , 22689 , 22712 , 22735 , 22758 , 22781,\
 211:Inc/mc_math.h ****      22804 , 22827 , 22850 , 22873 , 22896 , 22919 , 22942 , 22965,\
 212:Inc/mc_math.h ****      22988 , 23010 , 23033 , 23056 , 23079 , 23101 , 23124 , 23147,\
 213:Inc/mc_math.h ****      23169 , 23192 , 23214 , 23237 , 23260 , 23282 , 23305 , 23327,\
 214:Inc/mc_math.h ****      23350 , 23372 , 23394 , 23417 , 23439 , 23462 , 23484 , 23506,\
 215:Inc/mc_math.h ****      23529 , 23551 , 23573 , 23595 , 23617 , 23640 , 23662 , 23684,\
 216:Inc/mc_math.h ****      23706 , 23728 , 23750 , 23772 , 23794 , 23816 , 23838 , 23860,\
 217:Inc/mc_math.h ****      23882 , 23904 , 23926 , 23948 , 23970 , 23992 , 24014 , 24036,\
 218:Inc/mc_math.h ****      24057 , 24079 , 24101 , 24123 , 24144 , 24166 , 24188 , 24209,\
 219:Inc/mc_math.h ****      24231 , 24253 , 24274 , 24296 , 24317 , 24339 , 24360 , 24382,\
 220:Inc/mc_math.h ****      24403 , 24425 , 24446 , 24468 , 24489 , 24511 , 24532 , 24553,\
 221:Inc/mc_math.h ****      24575 , 24596 , 24617 , 24639 , 24660 , 24681 , 24702 , 24724,\
 222:Inc/mc_math.h ****      24745 , 24766 , 24787 , 24808 , 24829 , 24851 , 24872 , 24893,\
 223:Inc/mc_math.h ****      24914 , 24935 , 24956 , 24977 , 24998 , 25019 , 25040 , 25061,\
ARM GAS  /tmp/ccLjXLyq.s 			page 27


 224:Inc/mc_math.h ****      25082 , 25102 , 25123 , 25144 , 25165 , 25186 , 25207 , 25227,\
 225:Inc/mc_math.h ****      25248 , 25269 , 25290 , 25310 , 25331 , 25352 , 25372 , 25393,\
 226:Inc/mc_math.h ****      25414 , 25434 , 25455 , 25476 , 25496 , 25517 , 25537 , 25558,\
 227:Inc/mc_math.h ****      25578 , 25599 , 25619 , 25640 , 25660 , 25681 , 25701 , 25721,\
 228:Inc/mc_math.h ****      25742 , 25762 , 25782 , 25803 , 25823 , 25843 , 25864 , 25884,\
 229:Inc/mc_math.h ****      25904 , 25924 , 25945 , 25965 , 25985 , 26005 , 26025 , 26045,\
 230:Inc/mc_math.h ****      26065 , 26086 , 26106 , 26126 , 26146 , 26166 , 26186 , 26206,\
 231:Inc/mc_math.h ****      26226 , 26246 , 26266 , 26286 , 26306 , 26326 , 26346 , 26365,\
 232:Inc/mc_math.h ****      26385 , 26405 , 26425 , 26445 , 26465 , 26484 , 26504 , 26524,\
 233:Inc/mc_math.h ****      26544 , 26564 , 26583 , 26603 , 26623 , 26642 , 26662 , 26682,\
 234:Inc/mc_math.h ****      26701 , 26721 , 26741 , 26760 , 26780 , 26799 , 26819 , 26838,\
 235:Inc/mc_math.h ****      26858 , 26877 , 26897 , 26916 , 26936 , 26955 , 26975 , 26994,\
 236:Inc/mc_math.h ****      27014 , 27033 , 27052 , 27072 , 27091 , 27111 , 27130 , 27149,\
 237:Inc/mc_math.h ****      27168 , 27188 , 27207 , 27226 , 27246 , 27265 , 27284 , 27303,\
 238:Inc/mc_math.h ****      27322 , 27342 , 27361 , 27380 , 27399 , 27418 , 27437 , 27456,\
 239:Inc/mc_math.h ****      27475 , 27495 , 27514 , 27533 , 27552 , 27571 , 27590 , 27609,\
 240:Inc/mc_math.h ****      27628 , 27647 , 27666 , 27685 , 27703 , 27722 , 27741 , 27760,\
 241:Inc/mc_math.h ****      27779 , 27798 , 27817 , 27836 , 27854 , 27873 , 27892 , 27911,\
 242:Inc/mc_math.h ****      27930 , 27948 , 27967 , 27986 , 28005 , 28023 , 28042 , 28061,\
 243:Inc/mc_math.h ****      28079 , 28098 , 28117 , 28135 , 28154 , 28173 , 28191 , 28210,\
 244:Inc/mc_math.h ****      28228 , 28247 , 28265 , 28284 , 28303 , 28321 , 28340 , 28358,\
 245:Inc/mc_math.h ****      28377 , 28395 , 28413 , 28432 , 28450 , 28469 , 28487 , 28506,\
 246:Inc/mc_math.h ****      28524 , 28542 , 28561 , 28579 , 28597 , 28616 , 28634 , 28652,\
 247:Inc/mc_math.h ****      28671 , 28689 , 28707 , 28725 , 28744 , 28762 , 28780 , 28798,\
 248:Inc/mc_math.h ****      28817 , 28835 , 28853 , 28871 , 28889 , 28907 , 28925 , 28944,\
 249:Inc/mc_math.h ****      28962 , 28980 , 28998 , 29016 , 29034 , 29052 , 29070 , 29088,\
 250:Inc/mc_math.h ****      29106 , 29124 , 29142 , 29160 , 29178 , 29196 , 29214 , 29232,\
 251:Inc/mc_math.h ****      29250 , 29268 , 29286 , 29304 , 29322 , 29339 , 29357 , 29375,\
 252:Inc/mc_math.h ****      29393 , 29411 , 29429 , 29446 , 29464 , 29482 , 29500 , 29518,\
 253:Inc/mc_math.h ****      29535 , 29553 , 29571 , 29588 , 29606 , 29624 , 29642 , 29659,\
 254:Inc/mc_math.h ****      29677 , 29695 , 29712 , 29730 , 29748 , 29765 , 29783 , 29800,\
 255:Inc/mc_math.h ****      29818 , 29835 , 29853 , 29871 , 29888 , 29906 , 29923 , 29941,\
 256:Inc/mc_math.h ****      29958 , 29976 , 29993 , 30011 , 30028 , 30046 , 30063 , 30080,\
 257:Inc/mc_math.h ****      30098 , 30115 , 30133 , 30150 , 30168 , 30185 , 30202 , 30220,\
 258:Inc/mc_math.h ****      30237 , 30254 , 30272 , 30289 , 30306 , 30324 , 30341 , 30358,\
 259:Inc/mc_math.h ****      30375 , 30393 , 30410 , 30427 , 30444 , 30461 , 30479 , 30496,\
 260:Inc/mc_math.h ****      30513 , 30530 , 30547 , 30565 , 30582 , 30599 , 30616 , 30633,\
 261:Inc/mc_math.h ****      30650 , 30667 , 30684 , 30701 , 30719 , 30736 , 30753 , 30770,\
 262:Inc/mc_math.h ****      30787 , 30804 , 30821 , 30838 , 30855 , 30872 , 30889 , 30906,\
 263:Inc/mc_math.h ****      30923 , 30940 , 30957 , 30973 , 30990 , 31007 , 31024 , 31041,\
 264:Inc/mc_math.h ****      31058 , 31075 , 31092 , 31109 , 31125 , 31142 , 31159 , 31176,\
 265:Inc/mc_math.h ****      31193 , 31210 , 31226 , 31243 , 31260 , 31277 , 31293 , 31310,\
 266:Inc/mc_math.h ****      31327 , 31344 , 31360 , 31377 , 31394 , 31410 , 31427 , 31444,\
 267:Inc/mc_math.h ****      31461 , 31477 , 31494 , 31510 , 31527 , 31544 , 31560 , 31577,\
 268:Inc/mc_math.h ****      31594 , 31610 , 31627 , 31643 , 31660 , 31676 , 31693 , 31709,\
 269:Inc/mc_math.h ****      31726 , 31743 , 31759 , 31776 , 31792 , 31809 , 31825 , 31841,\
 270:Inc/mc_math.h ****      31858 , 31874 , 31891 , 31907 , 31924 , 31940 , 31957 , 31973,\
 271:Inc/mc_math.h ****      31989 , 32006 , 32022 , 32038 , 32055 , 32071 , 32087 , 32104,\
 272:Inc/mc_math.h ****      32120 , 32136 , 32153 , 32169 , 32185 , 32202 , 32218 , 32234,\
 273:Inc/mc_math.h ****      32250 , 32267 , 32283 , 32299 , 32315 , 32332 , 32348 , 32364,\
 274:Inc/mc_math.h ****      32380 , 32396 , 32413 , 32429 , 32445 , 32461 , 32477 , 32493,\
 275:Inc/mc_math.h ****      32509 , 32526 , 32542 , 32558 , 32574 , 32590 , 32606 , 32622,\
 276:Inc/mc_math.h ****      32638 , 32654 , 32670 , 32686 , 32702 , 32718 , 32734 , 32750,\
 277:Inc/mc_math.h ****      32767 }
 278:Inc/mc_math.h **** 
 279:Inc/mc_math.h **** #define ATAN1DIV1     (int16_t)8192
 280:Inc/mc_math.h **** #define ATAN1DIV2     (int16_t)4836
ARM GAS  /tmp/ccLjXLyq.s 			page 28


 281:Inc/mc_math.h **** #define ATAN1DIV4     (int16_t)2555
 282:Inc/mc_math.h **** #define ATAN1DIV8     (int16_t)1297
 283:Inc/mc_math.h **** #define ATAN1DIV16    (int16_t)651
 284:Inc/mc_math.h **** #define ATAN1DIV32    (int16_t)326
 285:Inc/mc_math.h **** #define ATAN1DIV64    (int16_t)163
 286:Inc/mc_math.h **** #define ATAN1DIV128   (int16_t)81
 287:Inc/mc_math.h **** #define ATAN1DIV256   (int16_t)41
 288:Inc/mc_math.h **** #define ATAN1DIV512   (int16_t)20
 289:Inc/mc_math.h **** #define ATAN1DIV1024  (int16_t)10
 290:Inc/mc_math.h **** #define ATAN1DIV2048  (int16_t)5
 291:Inc/mc_math.h **** #define ATAN1DIV4096  (int16_t)3
 292:Inc/mc_math.h **** #define ATAN1DIV8192  (int16_t)1
 293:Inc/mc_math.h **** 
 294:Inc/mc_math.h **** /**
 295:Inc/mc_math.h ****   * @brief  It executes Modulus algorithm
 296:Inc/mc_math.h ****   * @param  alpha component
 297:Inc/mc_math.h ****   *         beta component
 298:Inc/mc_math.h ****   * @retval int16_t Modulus
 299:Inc/mc_math.h ****   */
 300:Inc/mc_math.h **** static inline int16_t MCM_Modulus( int16_t alpha, int16_t beta )
 301:Inc/mc_math.h **** {
 302:Inc/mc_math.h ****   int16_t Val;
 303:Inc/mc_math.h ****    __disable_irq();
 304:Inc/mc_math.h ****    /* Configure and call to CORDIC- */
 305:Inc/mc_math.h ****    WRITE_REG(CORDIC->CSR,CORDIC_CONFIG_MODULUS);
 306:Inc/mc_math.h ****    LL_CORDIC_WriteData(CORDIC, (int32_t) (beta)<<16 | alpha);
 307:Inc/mc_math.h ****    /* Wait for result */
 308:Inc/mc_math.h ****    while(!LL_CORDIC_IsActiveFlag_RRDY( CORDIC ))
 309:Inc/mc_math.h ****    {
 310:Inc/mc_math.h ****    }
 311:Inc/mc_math.h ****   /* Read computed modulus */
 312:Inc/mc_math.h ****   Val = (int16_t)(LL_CORDIC_ReadData(CORDIC)&0xFFFF);
 313:Inc/mc_math.h ****   __enable_irq();
 314:Inc/mc_math.h ****   return Val;
 315:Inc/mc_math.h **** 
 316:Inc/mc_math.h **** }
 317:Inc/mc_math.h **** 
 318:Inc/mc_math.h **** /**
 319:Inc/mc_math.h ****   * @brief  It executes CORDIC algorithm for rotor position extraction from B-emf
 320:Inc/mc_math.h ****   *         alpha and beta
 321:Inc/mc_math.h ****   * @param  wBemf_alfa_est estimated Bemf alpha on the stator reference frame
 322:Inc/mc_math.h ****   *         wBemf_beta_est estimated Bemf beta on the stator reference frame
 323:Inc/mc_math.h ****   * @retval int16_t rotor electrical angle (s16degrees)
 324:Inc/mc_math.h ****   */
 325:Inc/mc_math.h **** static inline int16_t MCM_PhaseComputation(int32_t wBemf_alfa_est, int32_t wBemf_beta_est)
 417              		.loc 2 325 23 is_stmt 1 view .LVU173
 418              	.LBB19:
 326:Inc/mc_math.h **** {
 327:Inc/mc_math.h **** 
 328:Inc/mc_math.h ****   /* Configure and call to CORDIC */
 329:Inc/mc_math.h ****   WRITE_REG(CORDIC->CSR,CORDIC_CONFIG_PHASE);
 419              		.loc 2 329 3 view .LVU174
 420 0140 484F     		ldr	r7, .L31
 421              	.LVL50:
 422              		.loc 2 329 3 is_stmt 0 view .LVU175
 423 0142 DFF824E1 		ldr	lr, .L31+4
 424 0146 C7F800E0 		str	lr, [r7]
ARM GAS  /tmp/ccLjXLyq.s 			page 29


 425              	.LVL51:
 330:Inc/mc_math.h ****   LL_CORDIC_WriteData(CORDIC, (uint32_t)wBemf_alfa_est);
 426              		.loc 2 330 3 is_stmt 1 view .LVU176
 427              	.LBB20:
 428              	.LBI20:
 429              		.file 3 "Drivers/STM32G4xx_HAL_Driver/Inc/stm32g4xx_ll_cordic.h"
   1:Drivers/STM32G4xx_HAL_Driver/Inc/stm32g4xx_ll_cordic.h **** /**
   2:Drivers/STM32G4xx_HAL_Driver/Inc/stm32g4xx_ll_cordic.h ****   ******************************************************************************
   3:Drivers/STM32G4xx_HAL_Driver/Inc/stm32g4xx_ll_cordic.h ****   * @file    stm32g4xx_ll_cordic.h
   4:Drivers/STM32G4xx_HAL_Driver/Inc/stm32g4xx_ll_cordic.h ****   * @author  MCD Application Team
   5:Drivers/STM32G4xx_HAL_Driver/Inc/stm32g4xx_ll_cordic.h ****   * @brief   Header file of CORDIC LL module.
   6:Drivers/STM32G4xx_HAL_Driver/Inc/stm32g4xx_ll_cordic.h ****   ******************************************************************************
   7:Drivers/STM32G4xx_HAL_Driver/Inc/stm32g4xx_ll_cordic.h ****   * @attention
   8:Drivers/STM32G4xx_HAL_Driver/Inc/stm32g4xx_ll_cordic.h ****   *
   9:Drivers/STM32G4xx_HAL_Driver/Inc/stm32g4xx_ll_cordic.h ****   * Copyright (c) 2019 STMicroelectronics.
  10:Drivers/STM32G4xx_HAL_Driver/Inc/stm32g4xx_ll_cordic.h ****   * All rights reserved.
  11:Drivers/STM32G4xx_HAL_Driver/Inc/stm32g4xx_ll_cordic.h ****   *
  12:Drivers/STM32G4xx_HAL_Driver/Inc/stm32g4xx_ll_cordic.h ****   * This software is licensed under terms that can be found in the LICENSE file
  13:Drivers/STM32G4xx_HAL_Driver/Inc/stm32g4xx_ll_cordic.h ****   * in the root directory of this software component.
  14:Drivers/STM32G4xx_HAL_Driver/Inc/stm32g4xx_ll_cordic.h ****   * If no LICENSE file comes with this software, it is provided AS-IS.
  15:Drivers/STM32G4xx_HAL_Driver/Inc/stm32g4xx_ll_cordic.h ****   *
  16:Drivers/STM32G4xx_HAL_Driver/Inc/stm32g4xx_ll_cordic.h ****   ******************************************************************************
  17:Drivers/STM32G4xx_HAL_Driver/Inc/stm32g4xx_ll_cordic.h ****   */
  18:Drivers/STM32G4xx_HAL_Driver/Inc/stm32g4xx_ll_cordic.h **** 
  19:Drivers/STM32G4xx_HAL_Driver/Inc/stm32g4xx_ll_cordic.h **** /* Define to prevent recursive inclusion -------------------------------------*/
  20:Drivers/STM32G4xx_HAL_Driver/Inc/stm32g4xx_ll_cordic.h **** #ifndef STM32G4xx_LL_CORDIC_H
  21:Drivers/STM32G4xx_HAL_Driver/Inc/stm32g4xx_ll_cordic.h **** #define STM32G4xx_LL_CORDIC_H
  22:Drivers/STM32G4xx_HAL_Driver/Inc/stm32g4xx_ll_cordic.h **** 
  23:Drivers/STM32G4xx_HAL_Driver/Inc/stm32g4xx_ll_cordic.h **** #ifdef __cplusplus
  24:Drivers/STM32G4xx_HAL_Driver/Inc/stm32g4xx_ll_cordic.h **** extern "C" {
  25:Drivers/STM32G4xx_HAL_Driver/Inc/stm32g4xx_ll_cordic.h **** #endif
  26:Drivers/STM32G4xx_HAL_Driver/Inc/stm32g4xx_ll_cordic.h **** 
  27:Drivers/STM32G4xx_HAL_Driver/Inc/stm32g4xx_ll_cordic.h **** /* Includes ------------------------------------------------------------------*/
  28:Drivers/STM32G4xx_HAL_Driver/Inc/stm32g4xx_ll_cordic.h **** #include "stm32g4xx.h"
  29:Drivers/STM32G4xx_HAL_Driver/Inc/stm32g4xx_ll_cordic.h **** 
  30:Drivers/STM32G4xx_HAL_Driver/Inc/stm32g4xx_ll_cordic.h **** /** @addtogroup STM32G4xx_LL_Driver
  31:Drivers/STM32G4xx_HAL_Driver/Inc/stm32g4xx_ll_cordic.h ****   * @{
  32:Drivers/STM32G4xx_HAL_Driver/Inc/stm32g4xx_ll_cordic.h ****   */
  33:Drivers/STM32G4xx_HAL_Driver/Inc/stm32g4xx_ll_cordic.h **** 
  34:Drivers/STM32G4xx_HAL_Driver/Inc/stm32g4xx_ll_cordic.h **** #if defined(CORDIC)
  35:Drivers/STM32G4xx_HAL_Driver/Inc/stm32g4xx_ll_cordic.h **** 
  36:Drivers/STM32G4xx_HAL_Driver/Inc/stm32g4xx_ll_cordic.h **** /** @defgroup CORDIC_LL CORDIC
  37:Drivers/STM32G4xx_HAL_Driver/Inc/stm32g4xx_ll_cordic.h ****   * @{
  38:Drivers/STM32G4xx_HAL_Driver/Inc/stm32g4xx_ll_cordic.h ****   */
  39:Drivers/STM32G4xx_HAL_Driver/Inc/stm32g4xx_ll_cordic.h **** 
  40:Drivers/STM32G4xx_HAL_Driver/Inc/stm32g4xx_ll_cordic.h **** /* Private variables ---------------------------------------------------------*/
  41:Drivers/STM32G4xx_HAL_Driver/Inc/stm32g4xx_ll_cordic.h **** 
  42:Drivers/STM32G4xx_HAL_Driver/Inc/stm32g4xx_ll_cordic.h **** /* Private constants ---------------------------------------------------------*/
  43:Drivers/STM32G4xx_HAL_Driver/Inc/stm32g4xx_ll_cordic.h **** 
  44:Drivers/STM32G4xx_HAL_Driver/Inc/stm32g4xx_ll_cordic.h **** /* Private macros ------------------------------------------------------------*/
  45:Drivers/STM32G4xx_HAL_Driver/Inc/stm32g4xx_ll_cordic.h **** 
  46:Drivers/STM32G4xx_HAL_Driver/Inc/stm32g4xx_ll_cordic.h **** /* Exported types ------------------------------------------------------------*/
  47:Drivers/STM32G4xx_HAL_Driver/Inc/stm32g4xx_ll_cordic.h **** 
  48:Drivers/STM32G4xx_HAL_Driver/Inc/stm32g4xx_ll_cordic.h **** /* Exported constants --------------------------------------------------------*/
  49:Drivers/STM32G4xx_HAL_Driver/Inc/stm32g4xx_ll_cordic.h **** /** @defgroup CORDIC_LL_Exported_Constants CORDIC Exported Constants
  50:Drivers/STM32G4xx_HAL_Driver/Inc/stm32g4xx_ll_cordic.h ****   * @{
  51:Drivers/STM32G4xx_HAL_Driver/Inc/stm32g4xx_ll_cordic.h ****   */
ARM GAS  /tmp/ccLjXLyq.s 			page 30


  52:Drivers/STM32G4xx_HAL_Driver/Inc/stm32g4xx_ll_cordic.h **** 
  53:Drivers/STM32G4xx_HAL_Driver/Inc/stm32g4xx_ll_cordic.h **** /** @defgroup CORDIC_LL_EC_GET_FLAG Get Flags Defines
  54:Drivers/STM32G4xx_HAL_Driver/Inc/stm32g4xx_ll_cordic.h ****   * @brief    Flags defines which can be used with LL_CORDIC_ReadReg function.
  55:Drivers/STM32G4xx_HAL_Driver/Inc/stm32g4xx_ll_cordic.h ****   * @{
  56:Drivers/STM32G4xx_HAL_Driver/Inc/stm32g4xx_ll_cordic.h ****   */
  57:Drivers/STM32G4xx_HAL_Driver/Inc/stm32g4xx_ll_cordic.h **** #define LL_CORDIC_FLAG_RRDY                CORDIC_CSR_RRDY
  58:Drivers/STM32G4xx_HAL_Driver/Inc/stm32g4xx_ll_cordic.h **** /**
  59:Drivers/STM32G4xx_HAL_Driver/Inc/stm32g4xx_ll_cordic.h ****   * @}
  60:Drivers/STM32G4xx_HAL_Driver/Inc/stm32g4xx_ll_cordic.h ****   */
  61:Drivers/STM32G4xx_HAL_Driver/Inc/stm32g4xx_ll_cordic.h **** 
  62:Drivers/STM32G4xx_HAL_Driver/Inc/stm32g4xx_ll_cordic.h **** /** @defgroup CORDIC_LL_EC_IT IT Defines
  63:Drivers/STM32G4xx_HAL_Driver/Inc/stm32g4xx_ll_cordic.h ****   * @brief    IT defines which can be used with LL_CORDIC_ReadReg and LL_CORDIC_WriteReg functions.
  64:Drivers/STM32G4xx_HAL_Driver/Inc/stm32g4xx_ll_cordic.h ****   * @{
  65:Drivers/STM32G4xx_HAL_Driver/Inc/stm32g4xx_ll_cordic.h ****   */
  66:Drivers/STM32G4xx_HAL_Driver/Inc/stm32g4xx_ll_cordic.h **** #define LL_CORDIC_IT_IEN                   CORDIC_CSR_IEN            /*!< Result Ready interrupt en
  67:Drivers/STM32G4xx_HAL_Driver/Inc/stm32g4xx_ll_cordic.h **** /**
  68:Drivers/STM32G4xx_HAL_Driver/Inc/stm32g4xx_ll_cordic.h ****   * @}
  69:Drivers/STM32G4xx_HAL_Driver/Inc/stm32g4xx_ll_cordic.h ****   */
  70:Drivers/STM32G4xx_HAL_Driver/Inc/stm32g4xx_ll_cordic.h **** 
  71:Drivers/STM32G4xx_HAL_Driver/Inc/stm32g4xx_ll_cordic.h **** /** @defgroup CORDIC_LL_EC_FUNCTION FUNCTION
  72:Drivers/STM32G4xx_HAL_Driver/Inc/stm32g4xx_ll_cordic.h ****   * @{
  73:Drivers/STM32G4xx_HAL_Driver/Inc/stm32g4xx_ll_cordic.h ****   */
  74:Drivers/STM32G4xx_HAL_Driver/Inc/stm32g4xx_ll_cordic.h **** #define LL_CORDIC_FUNCTION_COSINE          (0x00000000U)                                           
  75:Drivers/STM32G4xx_HAL_Driver/Inc/stm32g4xx_ll_cordic.h **** #define LL_CORDIC_FUNCTION_SINE            ((uint32_t)(CORDIC_CSR_FUNC_0))                         
  76:Drivers/STM32G4xx_HAL_Driver/Inc/stm32g4xx_ll_cordic.h **** #define LL_CORDIC_FUNCTION_PHASE           ((uint32_t)(CORDIC_CSR_FUNC_1))                         
  77:Drivers/STM32G4xx_HAL_Driver/Inc/stm32g4xx_ll_cordic.h **** #define LL_CORDIC_FUNCTION_MODULUS         ((uint32_t)(CORDIC_CSR_FUNC_1 | CORDIC_CSR_FUNC_0))     
  78:Drivers/STM32G4xx_HAL_Driver/Inc/stm32g4xx_ll_cordic.h **** #define LL_CORDIC_FUNCTION_ARCTANGENT      ((uint32_t)(CORDIC_CSR_FUNC_2))                         
  79:Drivers/STM32G4xx_HAL_Driver/Inc/stm32g4xx_ll_cordic.h **** #define LL_CORDIC_FUNCTION_HCOSINE         ((uint32_t)(CORDIC_CSR_FUNC_2 | CORDIC_CSR_FUNC_0))     
  80:Drivers/STM32G4xx_HAL_Driver/Inc/stm32g4xx_ll_cordic.h **** #define LL_CORDIC_FUNCTION_HSINE           ((uint32_t)(CORDIC_CSR_FUNC_2 | CORDIC_CSR_FUNC_1))     
  81:Drivers/STM32G4xx_HAL_Driver/Inc/stm32g4xx_ll_cordic.h **** #define LL_CORDIC_FUNCTION_HARCTANGENT     ((uint32_t)(CORDIC_CSR_FUNC_2 | CORDIC_CSR_FUNC_1 | CORD
  82:Drivers/STM32G4xx_HAL_Driver/Inc/stm32g4xx_ll_cordic.h **** #define LL_CORDIC_FUNCTION_NATURALLOG      ((uint32_t)(CORDIC_CSR_FUNC_3))                         
  83:Drivers/STM32G4xx_HAL_Driver/Inc/stm32g4xx_ll_cordic.h **** #define LL_CORDIC_FUNCTION_SQUAREROOT      ((uint32_t)(CORDIC_CSR_FUNC_3 | CORDIC_CSR_FUNC_0))     
  84:Drivers/STM32G4xx_HAL_Driver/Inc/stm32g4xx_ll_cordic.h **** /**
  85:Drivers/STM32G4xx_HAL_Driver/Inc/stm32g4xx_ll_cordic.h ****   * @}
  86:Drivers/STM32G4xx_HAL_Driver/Inc/stm32g4xx_ll_cordic.h ****   */
  87:Drivers/STM32G4xx_HAL_Driver/Inc/stm32g4xx_ll_cordic.h **** 
  88:Drivers/STM32G4xx_HAL_Driver/Inc/stm32g4xx_ll_cordic.h **** /** @defgroup CORDIC_LL_EC_PRECISION PRECISION
  89:Drivers/STM32G4xx_HAL_Driver/Inc/stm32g4xx_ll_cordic.h ****   * @{
  90:Drivers/STM32G4xx_HAL_Driver/Inc/stm32g4xx_ll_cordic.h ****   */
  91:Drivers/STM32G4xx_HAL_Driver/Inc/stm32g4xx_ll_cordic.h **** #define LL_CORDIC_PRECISION_1CYCLE         ((uint32_t)(CORDIC_CSR_PRECISION_0))
  92:Drivers/STM32G4xx_HAL_Driver/Inc/stm32g4xx_ll_cordic.h **** #define LL_CORDIC_PRECISION_2CYCLES        ((uint32_t)(CORDIC_CSR_PRECISION_1))
  93:Drivers/STM32G4xx_HAL_Driver/Inc/stm32g4xx_ll_cordic.h **** #define LL_CORDIC_PRECISION_3CYCLES        ((uint32_t)(CORDIC_CSR_PRECISION_1 | CORDIC_CSR_PRECISIO
  94:Drivers/STM32G4xx_HAL_Driver/Inc/stm32g4xx_ll_cordic.h **** #define LL_CORDIC_PRECISION_4CYCLES        ((uint32_t)(CORDIC_CSR_PRECISION_2))
  95:Drivers/STM32G4xx_HAL_Driver/Inc/stm32g4xx_ll_cordic.h **** #define LL_CORDIC_PRECISION_5CYCLES        ((uint32_t)(CORDIC_CSR_PRECISION_2 | CORDIC_CSR_PRECISIO
  96:Drivers/STM32G4xx_HAL_Driver/Inc/stm32g4xx_ll_cordic.h **** #define LL_CORDIC_PRECISION_6CYCLES        ((uint32_t)(CORDIC_CSR_PRECISION_2 | CORDIC_CSR_PRECISIO
  97:Drivers/STM32G4xx_HAL_Driver/Inc/stm32g4xx_ll_cordic.h **** #define LL_CORDIC_PRECISION_7CYCLES        ((uint32_t)(CORDIC_CSR_PRECISION_2\
  98:Drivers/STM32G4xx_HAL_Driver/Inc/stm32g4xx_ll_cordic.h ****                                                        | CORDIC_CSR_PRECISION_1 | CORDIC_CSR_PRECIS
  99:Drivers/STM32G4xx_HAL_Driver/Inc/stm32g4xx_ll_cordic.h **** #define LL_CORDIC_PRECISION_8CYCLES        ((uint32_t)(CORDIC_CSR_PRECISION_3))
 100:Drivers/STM32G4xx_HAL_Driver/Inc/stm32g4xx_ll_cordic.h **** #define LL_CORDIC_PRECISION_9CYCLES        ((uint32_t)(CORDIC_CSR_PRECISION_3 | CORDIC_CSR_PRECISIO
 101:Drivers/STM32G4xx_HAL_Driver/Inc/stm32g4xx_ll_cordic.h **** #define LL_CORDIC_PRECISION_10CYCLES       ((uint32_t)(CORDIC_CSR_PRECISION_3 | CORDIC_CSR_PRECISIO
 102:Drivers/STM32G4xx_HAL_Driver/Inc/stm32g4xx_ll_cordic.h **** #define LL_CORDIC_PRECISION_11CYCLES       ((uint32_t)(CORDIC_CSR_PRECISION_3\
 103:Drivers/STM32G4xx_HAL_Driver/Inc/stm32g4xx_ll_cordic.h ****                                                        | CORDIC_CSR_PRECISION_1 | CORDIC_CSR_PRECIS
 104:Drivers/STM32G4xx_HAL_Driver/Inc/stm32g4xx_ll_cordic.h **** #define LL_CORDIC_PRECISION_12CYCLES       ((uint32_t)(CORDIC_CSR_PRECISION_3 | CORDIC_CSR_PRECISIO
 105:Drivers/STM32G4xx_HAL_Driver/Inc/stm32g4xx_ll_cordic.h **** #define LL_CORDIC_PRECISION_13CYCLES       ((uint32_t)(CORDIC_CSR_PRECISION_3\
 106:Drivers/STM32G4xx_HAL_Driver/Inc/stm32g4xx_ll_cordic.h ****                                                        | CORDIC_CSR_PRECISION_2 | CORDIC_CSR_PRECIS
 107:Drivers/STM32G4xx_HAL_Driver/Inc/stm32g4xx_ll_cordic.h **** #define LL_CORDIC_PRECISION_14CYCLES       ((uint32_t)(CORDIC_CSR_PRECISION_3\
 108:Drivers/STM32G4xx_HAL_Driver/Inc/stm32g4xx_ll_cordic.h ****                                                        | CORDIC_CSR_PRECISION_2 | CORDIC_CSR_PRECIS
ARM GAS  /tmp/ccLjXLyq.s 			page 31


 109:Drivers/STM32G4xx_HAL_Driver/Inc/stm32g4xx_ll_cordic.h **** #define LL_CORDIC_PRECISION_15CYCLES       ((uint32_t)(CORDIC_CSR_PRECISION_3\
 110:Drivers/STM32G4xx_HAL_Driver/Inc/stm32g4xx_ll_cordic.h ****                                                        | CORDIC_CSR_PRECISION_2 | CORDIC_CSR_PRECIS
 111:Drivers/STM32G4xx_HAL_Driver/Inc/stm32g4xx_ll_cordic.h ****                                                        | CORDIC_CSR_PRECISION_0))
 112:Drivers/STM32G4xx_HAL_Driver/Inc/stm32g4xx_ll_cordic.h **** /**
 113:Drivers/STM32G4xx_HAL_Driver/Inc/stm32g4xx_ll_cordic.h ****   * @}
 114:Drivers/STM32G4xx_HAL_Driver/Inc/stm32g4xx_ll_cordic.h ****   */
 115:Drivers/STM32G4xx_HAL_Driver/Inc/stm32g4xx_ll_cordic.h **** 
 116:Drivers/STM32G4xx_HAL_Driver/Inc/stm32g4xx_ll_cordic.h **** /** @defgroup CORDIC_LL_EC_SCALE SCALE
 117:Drivers/STM32G4xx_HAL_Driver/Inc/stm32g4xx_ll_cordic.h ****   * @{
 118:Drivers/STM32G4xx_HAL_Driver/Inc/stm32g4xx_ll_cordic.h ****   */
 119:Drivers/STM32G4xx_HAL_Driver/Inc/stm32g4xx_ll_cordic.h **** #define LL_CORDIC_SCALE_0                  (0x00000000U)
 120:Drivers/STM32G4xx_HAL_Driver/Inc/stm32g4xx_ll_cordic.h **** #define LL_CORDIC_SCALE_1                  ((uint32_t)(CORDIC_CSR_SCALE_0))
 121:Drivers/STM32G4xx_HAL_Driver/Inc/stm32g4xx_ll_cordic.h **** #define LL_CORDIC_SCALE_2                  ((uint32_t)(CORDIC_CSR_SCALE_1))
 122:Drivers/STM32G4xx_HAL_Driver/Inc/stm32g4xx_ll_cordic.h **** #define LL_CORDIC_SCALE_3                  ((uint32_t)(CORDIC_CSR_SCALE_1 | CORDIC_CSR_SCALE_0))
 123:Drivers/STM32G4xx_HAL_Driver/Inc/stm32g4xx_ll_cordic.h **** #define LL_CORDIC_SCALE_4                  ((uint32_t)(CORDIC_CSR_SCALE_2))
 124:Drivers/STM32G4xx_HAL_Driver/Inc/stm32g4xx_ll_cordic.h **** #define LL_CORDIC_SCALE_5                  ((uint32_t)(CORDIC_CSR_SCALE_2 | CORDIC_CSR_SCALE_0))
 125:Drivers/STM32G4xx_HAL_Driver/Inc/stm32g4xx_ll_cordic.h **** #define LL_CORDIC_SCALE_6                  ((uint32_t)(CORDIC_CSR_SCALE_2 | CORDIC_CSR_SCALE_1))
 126:Drivers/STM32G4xx_HAL_Driver/Inc/stm32g4xx_ll_cordic.h **** #define LL_CORDIC_SCALE_7                  ((uint32_t)(CORDIC_CSR_SCALE_2 | CORDIC_CSR_SCALE_1 | CO
 127:Drivers/STM32G4xx_HAL_Driver/Inc/stm32g4xx_ll_cordic.h **** /**
 128:Drivers/STM32G4xx_HAL_Driver/Inc/stm32g4xx_ll_cordic.h ****   * @}
 129:Drivers/STM32G4xx_HAL_Driver/Inc/stm32g4xx_ll_cordic.h ****   */
 130:Drivers/STM32G4xx_HAL_Driver/Inc/stm32g4xx_ll_cordic.h **** 
 131:Drivers/STM32G4xx_HAL_Driver/Inc/stm32g4xx_ll_cordic.h **** /** @defgroup CORDIC_LL_EC_NBWRITE NBWRITE
 132:Drivers/STM32G4xx_HAL_Driver/Inc/stm32g4xx_ll_cordic.h ****   * @{
 133:Drivers/STM32G4xx_HAL_Driver/Inc/stm32g4xx_ll_cordic.h ****   */
 134:Drivers/STM32G4xx_HAL_Driver/Inc/stm32g4xx_ll_cordic.h **** #define LL_CORDIC_NBWRITE_1                (0x00000000U)             /*!< One 32-bits write contain
 135:Drivers/STM32G4xx_HAL_Driver/Inc/stm32g4xx_ll_cordic.h ****                                                                           32-bit data input (Q1.31 
 136:Drivers/STM32G4xx_HAL_Driver/Inc/stm32g4xx_ll_cordic.h ****                                                                           16-bit data input (Q1.15 
 137:Drivers/STM32G4xx_HAL_Driver/Inc/stm32g4xx_ll_cordic.h ****                                                                           in one 32 bits Data */
 138:Drivers/STM32G4xx_HAL_Driver/Inc/stm32g4xx_ll_cordic.h **** #define LL_CORDIC_NBWRITE_2                CORDIC_CSR_NARGS          /*!< Two 32-bit write containi
 139:Drivers/STM32G4xx_HAL_Driver/Inc/stm32g4xx_ll_cordic.h ****                                                                           (Q1.31 format) */
 140:Drivers/STM32G4xx_HAL_Driver/Inc/stm32g4xx_ll_cordic.h **** /**
 141:Drivers/STM32G4xx_HAL_Driver/Inc/stm32g4xx_ll_cordic.h ****   * @}
 142:Drivers/STM32G4xx_HAL_Driver/Inc/stm32g4xx_ll_cordic.h ****   */
 143:Drivers/STM32G4xx_HAL_Driver/Inc/stm32g4xx_ll_cordic.h **** 
 144:Drivers/STM32G4xx_HAL_Driver/Inc/stm32g4xx_ll_cordic.h **** /** @defgroup CORDIC_LL_EC_NBREAD NBREAD
 145:Drivers/STM32G4xx_HAL_Driver/Inc/stm32g4xx_ll_cordic.h ****   * @{
 146:Drivers/STM32G4xx_HAL_Driver/Inc/stm32g4xx_ll_cordic.h ****   */
 147:Drivers/STM32G4xx_HAL_Driver/Inc/stm32g4xx_ll_cordic.h **** #define LL_CORDIC_NBREAD_1                 (0x00000000U)             /*!< One 32-bits read containi
 148:Drivers/STM32G4xx_HAL_Driver/Inc/stm32g4xx_ll_cordic.h ****                                                                           32-bit data output (Q1.31
 149:Drivers/STM32G4xx_HAL_Driver/Inc/stm32g4xx_ll_cordic.h ****                                                                           16-bit data output (Q1.15
 150:Drivers/STM32G4xx_HAL_Driver/Inc/stm32g4xx_ll_cordic.h ****                                                                           in one 32 bits Data */
 151:Drivers/STM32G4xx_HAL_Driver/Inc/stm32g4xx_ll_cordic.h **** #define LL_CORDIC_NBREAD_2                 CORDIC_CSR_NRES           /*!< Two 32-bit Data containin
 152:Drivers/STM32G4xx_HAL_Driver/Inc/stm32g4xx_ll_cordic.h ****                                                                           (Q1.31 format) */
 153:Drivers/STM32G4xx_HAL_Driver/Inc/stm32g4xx_ll_cordic.h **** /**
 154:Drivers/STM32G4xx_HAL_Driver/Inc/stm32g4xx_ll_cordic.h ****   * @}
 155:Drivers/STM32G4xx_HAL_Driver/Inc/stm32g4xx_ll_cordic.h ****   */
 156:Drivers/STM32G4xx_HAL_Driver/Inc/stm32g4xx_ll_cordic.h **** 
 157:Drivers/STM32G4xx_HAL_Driver/Inc/stm32g4xx_ll_cordic.h **** /** @defgroup CORDIC_LL_EC_INSIZE INSIZE
 158:Drivers/STM32G4xx_HAL_Driver/Inc/stm32g4xx_ll_cordic.h ****   * @{
 159:Drivers/STM32G4xx_HAL_Driver/Inc/stm32g4xx_ll_cordic.h ****   */
 160:Drivers/STM32G4xx_HAL_Driver/Inc/stm32g4xx_ll_cordic.h **** #define LL_CORDIC_INSIZE_32BITS            (0x00000000U)             /*!< 32 bits input data size (
 161:Drivers/STM32G4xx_HAL_Driver/Inc/stm32g4xx_ll_cordic.h **** #define LL_CORDIC_INSIZE_16BITS            CORDIC_CSR_ARGSIZE        /*!< 16 bits input data size (
 162:Drivers/STM32G4xx_HAL_Driver/Inc/stm32g4xx_ll_cordic.h **** /**
 163:Drivers/STM32G4xx_HAL_Driver/Inc/stm32g4xx_ll_cordic.h ****   * @}
 164:Drivers/STM32G4xx_HAL_Driver/Inc/stm32g4xx_ll_cordic.h ****   */
 165:Drivers/STM32G4xx_HAL_Driver/Inc/stm32g4xx_ll_cordic.h **** 
ARM GAS  /tmp/ccLjXLyq.s 			page 32


 166:Drivers/STM32G4xx_HAL_Driver/Inc/stm32g4xx_ll_cordic.h **** /** @defgroup CORDIC_LL_EC_OUTSIZE OUTSIZE
 167:Drivers/STM32G4xx_HAL_Driver/Inc/stm32g4xx_ll_cordic.h ****   * @{
 168:Drivers/STM32G4xx_HAL_Driver/Inc/stm32g4xx_ll_cordic.h ****   */
 169:Drivers/STM32G4xx_HAL_Driver/Inc/stm32g4xx_ll_cordic.h **** #define LL_CORDIC_OUTSIZE_32BITS           (0x00000000U)             /*!< 32 bits output data size 
 170:Drivers/STM32G4xx_HAL_Driver/Inc/stm32g4xx_ll_cordic.h **** #define LL_CORDIC_OUTSIZE_16BITS           CORDIC_CSR_RESSIZE        /*!< 16 bits output data size 
 171:Drivers/STM32G4xx_HAL_Driver/Inc/stm32g4xx_ll_cordic.h **** /**
 172:Drivers/STM32G4xx_HAL_Driver/Inc/stm32g4xx_ll_cordic.h ****   * @}
 173:Drivers/STM32G4xx_HAL_Driver/Inc/stm32g4xx_ll_cordic.h ****   */
 174:Drivers/STM32G4xx_HAL_Driver/Inc/stm32g4xx_ll_cordic.h **** 
 175:Drivers/STM32G4xx_HAL_Driver/Inc/stm32g4xx_ll_cordic.h **** /** @defgroup CORDIC_LL_EC_DMA_REG_DATA DMA register data
 176:Drivers/STM32G4xx_HAL_Driver/Inc/stm32g4xx_ll_cordic.h ****   * @{
 177:Drivers/STM32G4xx_HAL_Driver/Inc/stm32g4xx_ll_cordic.h ****   */
 178:Drivers/STM32G4xx_HAL_Driver/Inc/stm32g4xx_ll_cordic.h **** #define LL_CORDIC_DMA_REG_DATA_IN          (0x00000000U)             /*!< Get address of input data
 179:Drivers/STM32G4xx_HAL_Driver/Inc/stm32g4xx_ll_cordic.h **** #define LL_CORDIC_DMA_REG_DATA_OUT         (0x00000001U)             /*!< Get address of output dat
 180:Drivers/STM32G4xx_HAL_Driver/Inc/stm32g4xx_ll_cordic.h **** /**
 181:Drivers/STM32G4xx_HAL_Driver/Inc/stm32g4xx_ll_cordic.h ****   * @}
 182:Drivers/STM32G4xx_HAL_Driver/Inc/stm32g4xx_ll_cordic.h ****   */
 183:Drivers/STM32G4xx_HAL_Driver/Inc/stm32g4xx_ll_cordic.h **** 
 184:Drivers/STM32G4xx_HAL_Driver/Inc/stm32g4xx_ll_cordic.h **** /**
 185:Drivers/STM32G4xx_HAL_Driver/Inc/stm32g4xx_ll_cordic.h ****   * @}
 186:Drivers/STM32G4xx_HAL_Driver/Inc/stm32g4xx_ll_cordic.h ****   */
 187:Drivers/STM32G4xx_HAL_Driver/Inc/stm32g4xx_ll_cordic.h **** 
 188:Drivers/STM32G4xx_HAL_Driver/Inc/stm32g4xx_ll_cordic.h **** /* Exported macro ------------------------------------------------------------*/
 189:Drivers/STM32G4xx_HAL_Driver/Inc/stm32g4xx_ll_cordic.h **** /** @defgroup CORDIC_LL_Exported_Macros CORDIC Exported Macros
 190:Drivers/STM32G4xx_HAL_Driver/Inc/stm32g4xx_ll_cordic.h ****   * @{
 191:Drivers/STM32G4xx_HAL_Driver/Inc/stm32g4xx_ll_cordic.h ****   */
 192:Drivers/STM32G4xx_HAL_Driver/Inc/stm32g4xx_ll_cordic.h **** 
 193:Drivers/STM32G4xx_HAL_Driver/Inc/stm32g4xx_ll_cordic.h **** /** @defgroup CORDIC_LL_EM_WRITE_READ Common Write and read registers Macros
 194:Drivers/STM32G4xx_HAL_Driver/Inc/stm32g4xx_ll_cordic.h ****   * @{
 195:Drivers/STM32G4xx_HAL_Driver/Inc/stm32g4xx_ll_cordic.h ****   */
 196:Drivers/STM32G4xx_HAL_Driver/Inc/stm32g4xx_ll_cordic.h **** 
 197:Drivers/STM32G4xx_HAL_Driver/Inc/stm32g4xx_ll_cordic.h **** /**
 198:Drivers/STM32G4xx_HAL_Driver/Inc/stm32g4xx_ll_cordic.h ****   * @brief  Write a value in CORDIC register.
 199:Drivers/STM32G4xx_HAL_Driver/Inc/stm32g4xx_ll_cordic.h ****   * @param  __INSTANCE__ CORDIC Instance
 200:Drivers/STM32G4xx_HAL_Driver/Inc/stm32g4xx_ll_cordic.h ****   * @param  __REG__ Register to be written
 201:Drivers/STM32G4xx_HAL_Driver/Inc/stm32g4xx_ll_cordic.h ****   * @param  __VALUE__ Value to be written in the register
 202:Drivers/STM32G4xx_HAL_Driver/Inc/stm32g4xx_ll_cordic.h ****   * @retval None
 203:Drivers/STM32G4xx_HAL_Driver/Inc/stm32g4xx_ll_cordic.h ****   */
 204:Drivers/STM32G4xx_HAL_Driver/Inc/stm32g4xx_ll_cordic.h **** #define LL_CORDIC_WriteReg(__INSTANCE__, __REG__, __VALUE__) WRITE_REG(__INSTANCE__->__REG__, (__VA
 205:Drivers/STM32G4xx_HAL_Driver/Inc/stm32g4xx_ll_cordic.h **** 
 206:Drivers/STM32G4xx_HAL_Driver/Inc/stm32g4xx_ll_cordic.h **** /**
 207:Drivers/STM32G4xx_HAL_Driver/Inc/stm32g4xx_ll_cordic.h ****   * @brief  Read a value in CORDIC register.
 208:Drivers/STM32G4xx_HAL_Driver/Inc/stm32g4xx_ll_cordic.h ****   * @param  __INSTANCE__ CORDIC Instance
 209:Drivers/STM32G4xx_HAL_Driver/Inc/stm32g4xx_ll_cordic.h ****   * @param  __REG__ Register to be read
 210:Drivers/STM32G4xx_HAL_Driver/Inc/stm32g4xx_ll_cordic.h ****   * @retval Register value
 211:Drivers/STM32G4xx_HAL_Driver/Inc/stm32g4xx_ll_cordic.h ****   */
 212:Drivers/STM32G4xx_HAL_Driver/Inc/stm32g4xx_ll_cordic.h **** #define LL_CORDIC_ReadReg(__INSTANCE__, __REG__) READ_REG(__INSTANCE__->__REG__)
 213:Drivers/STM32G4xx_HAL_Driver/Inc/stm32g4xx_ll_cordic.h **** /**
 214:Drivers/STM32G4xx_HAL_Driver/Inc/stm32g4xx_ll_cordic.h ****   * @}
 215:Drivers/STM32G4xx_HAL_Driver/Inc/stm32g4xx_ll_cordic.h ****   */
 216:Drivers/STM32G4xx_HAL_Driver/Inc/stm32g4xx_ll_cordic.h **** 
 217:Drivers/STM32G4xx_HAL_Driver/Inc/stm32g4xx_ll_cordic.h **** /**
 218:Drivers/STM32G4xx_HAL_Driver/Inc/stm32g4xx_ll_cordic.h ****   * @}
 219:Drivers/STM32G4xx_HAL_Driver/Inc/stm32g4xx_ll_cordic.h ****   */
 220:Drivers/STM32G4xx_HAL_Driver/Inc/stm32g4xx_ll_cordic.h **** 
 221:Drivers/STM32G4xx_HAL_Driver/Inc/stm32g4xx_ll_cordic.h **** 
 222:Drivers/STM32G4xx_HAL_Driver/Inc/stm32g4xx_ll_cordic.h **** /* Exported functions --------------------------------------------------------*/
ARM GAS  /tmp/ccLjXLyq.s 			page 33


 223:Drivers/STM32G4xx_HAL_Driver/Inc/stm32g4xx_ll_cordic.h **** 
 224:Drivers/STM32G4xx_HAL_Driver/Inc/stm32g4xx_ll_cordic.h **** /** @defgroup CORDIC_LL_Exported_Functions CORDIC Exported Functions
 225:Drivers/STM32G4xx_HAL_Driver/Inc/stm32g4xx_ll_cordic.h ****   * @{
 226:Drivers/STM32G4xx_HAL_Driver/Inc/stm32g4xx_ll_cordic.h ****   */
 227:Drivers/STM32G4xx_HAL_Driver/Inc/stm32g4xx_ll_cordic.h **** 
 228:Drivers/STM32G4xx_HAL_Driver/Inc/stm32g4xx_ll_cordic.h **** /** @defgroup CORDIC_LL_EF_Configuration CORDIC Configuration functions
 229:Drivers/STM32G4xx_HAL_Driver/Inc/stm32g4xx_ll_cordic.h ****   * @{
 230:Drivers/STM32G4xx_HAL_Driver/Inc/stm32g4xx_ll_cordic.h ****   */
 231:Drivers/STM32G4xx_HAL_Driver/Inc/stm32g4xx_ll_cordic.h **** 
 232:Drivers/STM32G4xx_HAL_Driver/Inc/stm32g4xx_ll_cordic.h **** /**
 233:Drivers/STM32G4xx_HAL_Driver/Inc/stm32g4xx_ll_cordic.h ****   * @brief  Configure the CORDIC processing.
 234:Drivers/STM32G4xx_HAL_Driver/Inc/stm32g4xx_ll_cordic.h ****   * @note   This function set all parameters of CORDIC processing.
 235:Drivers/STM32G4xx_HAL_Driver/Inc/stm32g4xx_ll_cordic.h ****   *         These parameters can also be set individually using
 236:Drivers/STM32G4xx_HAL_Driver/Inc/stm32g4xx_ll_cordic.h ****   *         dedicated functions:
 237:Drivers/STM32G4xx_HAL_Driver/Inc/stm32g4xx_ll_cordic.h ****   *         - @ref LL_CORDIC_SetFunction()
 238:Drivers/STM32G4xx_HAL_Driver/Inc/stm32g4xx_ll_cordic.h ****   *         - @ref LL_CORDIC_SetPrecision()
 239:Drivers/STM32G4xx_HAL_Driver/Inc/stm32g4xx_ll_cordic.h ****   *         - @ref LL_CORDIC_SetScale()
 240:Drivers/STM32G4xx_HAL_Driver/Inc/stm32g4xx_ll_cordic.h ****   *         - @ref LL_CORDIC_SetNbWrite()
 241:Drivers/STM32G4xx_HAL_Driver/Inc/stm32g4xx_ll_cordic.h ****   *         - @ref LL_CORDIC_SetNbRead()
 242:Drivers/STM32G4xx_HAL_Driver/Inc/stm32g4xx_ll_cordic.h ****   *         - @ref LL_CORDIC_SetInSize()
 243:Drivers/STM32G4xx_HAL_Driver/Inc/stm32g4xx_ll_cordic.h ****   *         - @ref LL_CORDIC_SetOutSize()
 244:Drivers/STM32G4xx_HAL_Driver/Inc/stm32g4xx_ll_cordic.h ****   * @rmtoll CSR          FUNC          LL_CORDIC_Configure\n
 245:Drivers/STM32G4xx_HAL_Driver/Inc/stm32g4xx_ll_cordic.h ****   *         CSR          PRECISION     LL_CORDIC_Configure\n
 246:Drivers/STM32G4xx_HAL_Driver/Inc/stm32g4xx_ll_cordic.h ****   *         CSR          SCALE         LL_CORDIC_Configure\n
 247:Drivers/STM32G4xx_HAL_Driver/Inc/stm32g4xx_ll_cordic.h ****   *         CSR          NARGS         LL_CORDIC_Configure\n
 248:Drivers/STM32G4xx_HAL_Driver/Inc/stm32g4xx_ll_cordic.h ****   *         CSR          NRES          LL_CORDIC_Configure\n
 249:Drivers/STM32G4xx_HAL_Driver/Inc/stm32g4xx_ll_cordic.h ****   *         CSR          ARGSIZE       LL_CORDIC_Configure\n
 250:Drivers/STM32G4xx_HAL_Driver/Inc/stm32g4xx_ll_cordic.h ****   *         CSR          RESIZE        LL_CORDIC_Configure
 251:Drivers/STM32G4xx_HAL_Driver/Inc/stm32g4xx_ll_cordic.h ****   * @param  CORDICx CORDIC instance
 252:Drivers/STM32G4xx_HAL_Driver/Inc/stm32g4xx_ll_cordic.h ****   * @param  Function parameter can be one of the following values:
 253:Drivers/STM32G4xx_HAL_Driver/Inc/stm32g4xx_ll_cordic.h ****   *         @arg @ref LL_CORDIC_FUNCTION_COSINE
 254:Drivers/STM32G4xx_HAL_Driver/Inc/stm32g4xx_ll_cordic.h ****   *         @arg @ref LL_CORDIC_FUNCTION_SINE
 255:Drivers/STM32G4xx_HAL_Driver/Inc/stm32g4xx_ll_cordic.h ****   *         @arg @ref LL_CORDIC_FUNCTION_PHASE
 256:Drivers/STM32G4xx_HAL_Driver/Inc/stm32g4xx_ll_cordic.h ****   *         @arg @ref LL_CORDIC_FUNCTION_MODULUS
 257:Drivers/STM32G4xx_HAL_Driver/Inc/stm32g4xx_ll_cordic.h ****   *         @arg @ref LL_CORDIC_FUNCTION_ARCTANGENT
 258:Drivers/STM32G4xx_HAL_Driver/Inc/stm32g4xx_ll_cordic.h ****   *         @arg @ref LL_CORDIC_FUNCTION_HCOSINE
 259:Drivers/STM32G4xx_HAL_Driver/Inc/stm32g4xx_ll_cordic.h ****   *         @arg @ref LL_CORDIC_FUNCTION_HSINE
 260:Drivers/STM32G4xx_HAL_Driver/Inc/stm32g4xx_ll_cordic.h ****   *         @arg @ref LL_CORDIC_FUNCTION_HARCTANGENT
 261:Drivers/STM32G4xx_HAL_Driver/Inc/stm32g4xx_ll_cordic.h ****   *         @arg @ref LL_CORDIC_FUNCTION_NATURALLOG
 262:Drivers/STM32G4xx_HAL_Driver/Inc/stm32g4xx_ll_cordic.h ****   *         @arg @ref LL_CORDIC_FUNCTION_SQUAREROOT
 263:Drivers/STM32G4xx_HAL_Driver/Inc/stm32g4xx_ll_cordic.h ****   * @param  Precision parameter can be one of the following values:
 264:Drivers/STM32G4xx_HAL_Driver/Inc/stm32g4xx_ll_cordic.h ****   *         @arg @ref LL_CORDIC_PRECISION_1CYCLE
 265:Drivers/STM32G4xx_HAL_Driver/Inc/stm32g4xx_ll_cordic.h ****   *         @arg @ref LL_CORDIC_PRECISION_2CYCLES
 266:Drivers/STM32G4xx_HAL_Driver/Inc/stm32g4xx_ll_cordic.h ****   *         @arg @ref LL_CORDIC_PRECISION_3CYCLES
 267:Drivers/STM32G4xx_HAL_Driver/Inc/stm32g4xx_ll_cordic.h ****   *         @arg @ref LL_CORDIC_PRECISION_4CYCLES
 268:Drivers/STM32G4xx_HAL_Driver/Inc/stm32g4xx_ll_cordic.h ****   *         @arg @ref LL_CORDIC_PRECISION_5CYCLES
 269:Drivers/STM32G4xx_HAL_Driver/Inc/stm32g4xx_ll_cordic.h ****   *         @arg @ref LL_CORDIC_PRECISION_6CYCLES
 270:Drivers/STM32G4xx_HAL_Driver/Inc/stm32g4xx_ll_cordic.h ****   *         @arg @ref LL_CORDIC_PRECISION_7CYCLES
 271:Drivers/STM32G4xx_HAL_Driver/Inc/stm32g4xx_ll_cordic.h ****   *         @arg @ref LL_CORDIC_PRECISION_8CYCLES
 272:Drivers/STM32G4xx_HAL_Driver/Inc/stm32g4xx_ll_cordic.h ****   *         @arg @ref LL_CORDIC_PRECISION_9CYCLES
 273:Drivers/STM32G4xx_HAL_Driver/Inc/stm32g4xx_ll_cordic.h ****   *         @arg @ref LL_CORDIC_PRECISION_10CYCLES
 274:Drivers/STM32G4xx_HAL_Driver/Inc/stm32g4xx_ll_cordic.h ****   *         @arg @ref LL_CORDIC_PRECISION_11CYCLES
 275:Drivers/STM32G4xx_HAL_Driver/Inc/stm32g4xx_ll_cordic.h ****   *         @arg @ref LL_CORDIC_PRECISION_12CYCLES
 276:Drivers/STM32G4xx_HAL_Driver/Inc/stm32g4xx_ll_cordic.h ****   *         @arg @ref LL_CORDIC_PRECISION_13CYCLES
 277:Drivers/STM32G4xx_HAL_Driver/Inc/stm32g4xx_ll_cordic.h ****   *         @arg @ref LL_CORDIC_PRECISION_14CYCLES
 278:Drivers/STM32G4xx_HAL_Driver/Inc/stm32g4xx_ll_cordic.h ****   *         @arg @ref LL_CORDIC_PRECISION_15CYCLES
 279:Drivers/STM32G4xx_HAL_Driver/Inc/stm32g4xx_ll_cordic.h ****   * @param  Scale parameter can be one of the following values:
ARM GAS  /tmp/ccLjXLyq.s 			page 34


 280:Drivers/STM32G4xx_HAL_Driver/Inc/stm32g4xx_ll_cordic.h ****   *         @arg @ref LL_CORDIC_SCALE_0
 281:Drivers/STM32G4xx_HAL_Driver/Inc/stm32g4xx_ll_cordic.h ****   *         @arg @ref LL_CORDIC_SCALE_1
 282:Drivers/STM32G4xx_HAL_Driver/Inc/stm32g4xx_ll_cordic.h ****   *         @arg @ref LL_CORDIC_SCALE_2
 283:Drivers/STM32G4xx_HAL_Driver/Inc/stm32g4xx_ll_cordic.h ****   *         @arg @ref LL_CORDIC_SCALE_3
 284:Drivers/STM32G4xx_HAL_Driver/Inc/stm32g4xx_ll_cordic.h ****   *         @arg @ref LL_CORDIC_SCALE_4
 285:Drivers/STM32G4xx_HAL_Driver/Inc/stm32g4xx_ll_cordic.h ****   *         @arg @ref LL_CORDIC_SCALE_5
 286:Drivers/STM32G4xx_HAL_Driver/Inc/stm32g4xx_ll_cordic.h ****   *         @arg @ref LL_CORDIC_SCALE_6
 287:Drivers/STM32G4xx_HAL_Driver/Inc/stm32g4xx_ll_cordic.h ****   *         @arg @ref LL_CORDIC_SCALE_7
 288:Drivers/STM32G4xx_HAL_Driver/Inc/stm32g4xx_ll_cordic.h ****   * @param  NbWrite parameter can be one of the following values:
 289:Drivers/STM32G4xx_HAL_Driver/Inc/stm32g4xx_ll_cordic.h ****   *         @arg @ref LL_CORDIC_NBWRITE_1
 290:Drivers/STM32G4xx_HAL_Driver/Inc/stm32g4xx_ll_cordic.h ****   *         @arg @ref LL_CORDIC_NBWRITE_2
 291:Drivers/STM32G4xx_HAL_Driver/Inc/stm32g4xx_ll_cordic.h ****   * @param  NbRead parameter can be one of the following values:
 292:Drivers/STM32G4xx_HAL_Driver/Inc/stm32g4xx_ll_cordic.h ****   *         @arg @ref LL_CORDIC_NBREAD_1
 293:Drivers/STM32G4xx_HAL_Driver/Inc/stm32g4xx_ll_cordic.h ****   *         @arg @ref LL_CORDIC_NBREAD_2
 294:Drivers/STM32G4xx_HAL_Driver/Inc/stm32g4xx_ll_cordic.h ****   * @param  InSize parameter can be one of the following values:
 295:Drivers/STM32G4xx_HAL_Driver/Inc/stm32g4xx_ll_cordic.h ****   *         @arg @ref LL_CORDIC_INSIZE_32BITS
 296:Drivers/STM32G4xx_HAL_Driver/Inc/stm32g4xx_ll_cordic.h ****   *         @arg @ref LL_CORDIC_INSIZE_16BITS
 297:Drivers/STM32G4xx_HAL_Driver/Inc/stm32g4xx_ll_cordic.h ****   * @param  OutSize parameter can be one of the following values:
 298:Drivers/STM32G4xx_HAL_Driver/Inc/stm32g4xx_ll_cordic.h ****   *         @arg @ref LL_CORDIC_OUTSIZE_32BITS
 299:Drivers/STM32G4xx_HAL_Driver/Inc/stm32g4xx_ll_cordic.h ****   *         @arg @ref LL_CORDIC_OUTSIZE_16BITS
 300:Drivers/STM32G4xx_HAL_Driver/Inc/stm32g4xx_ll_cordic.h ****   * @retval None
 301:Drivers/STM32G4xx_HAL_Driver/Inc/stm32g4xx_ll_cordic.h ****   */
 302:Drivers/STM32G4xx_HAL_Driver/Inc/stm32g4xx_ll_cordic.h **** __STATIC_INLINE void LL_CORDIC_Config(CORDIC_TypeDef *CORDICx, uint32_t Function, uint32_t Precisio
 303:Drivers/STM32G4xx_HAL_Driver/Inc/stm32g4xx_ll_cordic.h ****                                       uint32_t NbWrite, uint32_t NbRead, uint32_t InSize, uint32_t 
 304:Drivers/STM32G4xx_HAL_Driver/Inc/stm32g4xx_ll_cordic.h **** {
 305:Drivers/STM32G4xx_HAL_Driver/Inc/stm32g4xx_ll_cordic.h ****   MODIFY_REG(CORDICx->CSR,
 306:Drivers/STM32G4xx_HAL_Driver/Inc/stm32g4xx_ll_cordic.h ****              CORDIC_CSR_FUNC | CORDIC_CSR_PRECISION | CORDIC_CSR_SCALE |
 307:Drivers/STM32G4xx_HAL_Driver/Inc/stm32g4xx_ll_cordic.h ****              CORDIC_CSR_NARGS | CORDIC_CSR_NRES | CORDIC_CSR_ARGSIZE | CORDIC_CSR_RESSIZE,
 308:Drivers/STM32G4xx_HAL_Driver/Inc/stm32g4xx_ll_cordic.h ****              Function | Precision | Scale |
 309:Drivers/STM32G4xx_HAL_Driver/Inc/stm32g4xx_ll_cordic.h ****              NbWrite | NbRead | InSize | OutSize);
 310:Drivers/STM32G4xx_HAL_Driver/Inc/stm32g4xx_ll_cordic.h **** }
 311:Drivers/STM32G4xx_HAL_Driver/Inc/stm32g4xx_ll_cordic.h **** 
 312:Drivers/STM32G4xx_HAL_Driver/Inc/stm32g4xx_ll_cordic.h **** /**
 313:Drivers/STM32G4xx_HAL_Driver/Inc/stm32g4xx_ll_cordic.h ****   * @brief  Configure function.
 314:Drivers/STM32G4xx_HAL_Driver/Inc/stm32g4xx_ll_cordic.h ****   * @rmtoll CSR          FUNC          LL_CORDIC_SetFunction
 315:Drivers/STM32G4xx_HAL_Driver/Inc/stm32g4xx_ll_cordic.h ****   * @param  CORDICx CORDIC Instance
 316:Drivers/STM32G4xx_HAL_Driver/Inc/stm32g4xx_ll_cordic.h ****   * @param  Function parameter can be one of the following values:
 317:Drivers/STM32G4xx_HAL_Driver/Inc/stm32g4xx_ll_cordic.h ****   *         @arg @ref LL_CORDIC_FUNCTION_COSINE
 318:Drivers/STM32G4xx_HAL_Driver/Inc/stm32g4xx_ll_cordic.h ****   *         @arg @ref LL_CORDIC_FUNCTION_SINE
 319:Drivers/STM32G4xx_HAL_Driver/Inc/stm32g4xx_ll_cordic.h ****   *         @arg @ref LL_CORDIC_FUNCTION_PHASE
 320:Drivers/STM32G4xx_HAL_Driver/Inc/stm32g4xx_ll_cordic.h ****   *         @arg @ref LL_CORDIC_FUNCTION_MODULUS
 321:Drivers/STM32G4xx_HAL_Driver/Inc/stm32g4xx_ll_cordic.h ****   *         @arg @ref LL_CORDIC_FUNCTION_ARCTANGENT
 322:Drivers/STM32G4xx_HAL_Driver/Inc/stm32g4xx_ll_cordic.h ****   *         @arg @ref LL_CORDIC_FUNCTION_HCOSINE
 323:Drivers/STM32G4xx_HAL_Driver/Inc/stm32g4xx_ll_cordic.h ****   *         @arg @ref LL_CORDIC_FUNCTION_HSINE
 324:Drivers/STM32G4xx_HAL_Driver/Inc/stm32g4xx_ll_cordic.h ****   *         @arg @ref LL_CORDIC_FUNCTION_HARCTANGENT
 325:Drivers/STM32G4xx_HAL_Driver/Inc/stm32g4xx_ll_cordic.h ****   *         @arg @ref LL_CORDIC_FUNCTION_NATURALLOG
 326:Drivers/STM32G4xx_HAL_Driver/Inc/stm32g4xx_ll_cordic.h ****   *         @arg @ref LL_CORDIC_FUNCTION_SQUAREROOT
 327:Drivers/STM32G4xx_HAL_Driver/Inc/stm32g4xx_ll_cordic.h ****   * @retval None
 328:Drivers/STM32G4xx_HAL_Driver/Inc/stm32g4xx_ll_cordic.h ****   */
 329:Drivers/STM32G4xx_HAL_Driver/Inc/stm32g4xx_ll_cordic.h **** __STATIC_INLINE void LL_CORDIC_SetFunction(CORDIC_TypeDef *CORDICx, uint32_t Function)
 330:Drivers/STM32G4xx_HAL_Driver/Inc/stm32g4xx_ll_cordic.h **** {
 331:Drivers/STM32G4xx_HAL_Driver/Inc/stm32g4xx_ll_cordic.h ****   MODIFY_REG(CORDICx->CSR, CORDIC_CSR_FUNC, Function);
 332:Drivers/STM32G4xx_HAL_Driver/Inc/stm32g4xx_ll_cordic.h **** }
 333:Drivers/STM32G4xx_HAL_Driver/Inc/stm32g4xx_ll_cordic.h **** 
 334:Drivers/STM32G4xx_HAL_Driver/Inc/stm32g4xx_ll_cordic.h **** /**
 335:Drivers/STM32G4xx_HAL_Driver/Inc/stm32g4xx_ll_cordic.h ****   * @brief  Return function.
 336:Drivers/STM32G4xx_HAL_Driver/Inc/stm32g4xx_ll_cordic.h ****   * @rmtoll CSR          FUNC          LL_CORDIC_GetFunction
ARM GAS  /tmp/ccLjXLyq.s 			page 35


 337:Drivers/STM32G4xx_HAL_Driver/Inc/stm32g4xx_ll_cordic.h ****   * @param  CORDICx CORDIC Instance
 338:Drivers/STM32G4xx_HAL_Driver/Inc/stm32g4xx_ll_cordic.h ****   * @retval Returned value can be one of the following values:
 339:Drivers/STM32G4xx_HAL_Driver/Inc/stm32g4xx_ll_cordic.h ****   *         @arg @ref LL_CORDIC_FUNCTION_COSINE
 340:Drivers/STM32G4xx_HAL_Driver/Inc/stm32g4xx_ll_cordic.h ****   *         @arg @ref LL_CORDIC_FUNCTION_SINE
 341:Drivers/STM32G4xx_HAL_Driver/Inc/stm32g4xx_ll_cordic.h ****   *         @arg @ref LL_CORDIC_FUNCTION_PHASE
 342:Drivers/STM32G4xx_HAL_Driver/Inc/stm32g4xx_ll_cordic.h ****   *         @arg @ref LL_CORDIC_FUNCTION_MODULUS
 343:Drivers/STM32G4xx_HAL_Driver/Inc/stm32g4xx_ll_cordic.h ****   *         @arg @ref LL_CORDIC_FUNCTION_ARCTANGENT
 344:Drivers/STM32G4xx_HAL_Driver/Inc/stm32g4xx_ll_cordic.h ****   *         @arg @ref LL_CORDIC_FUNCTION_HCOSINE
 345:Drivers/STM32G4xx_HAL_Driver/Inc/stm32g4xx_ll_cordic.h ****   *         @arg @ref LL_CORDIC_FUNCTION_HSINE
 346:Drivers/STM32G4xx_HAL_Driver/Inc/stm32g4xx_ll_cordic.h ****   *         @arg @ref LL_CORDIC_FUNCTION_HARCTANGENT
 347:Drivers/STM32G4xx_HAL_Driver/Inc/stm32g4xx_ll_cordic.h ****   *         @arg @ref LL_CORDIC_FUNCTION_NATURALLOG
 348:Drivers/STM32G4xx_HAL_Driver/Inc/stm32g4xx_ll_cordic.h ****   *         @arg @ref LL_CORDIC_FUNCTION_SQUAREROOT
 349:Drivers/STM32G4xx_HAL_Driver/Inc/stm32g4xx_ll_cordic.h ****   */
 350:Drivers/STM32G4xx_HAL_Driver/Inc/stm32g4xx_ll_cordic.h **** __STATIC_INLINE uint32_t LL_CORDIC_GetFunction(CORDIC_TypeDef *CORDICx)
 351:Drivers/STM32G4xx_HAL_Driver/Inc/stm32g4xx_ll_cordic.h **** {
 352:Drivers/STM32G4xx_HAL_Driver/Inc/stm32g4xx_ll_cordic.h ****   return (uint32_t)(READ_BIT(CORDICx->CSR, CORDIC_CSR_FUNC));
 353:Drivers/STM32G4xx_HAL_Driver/Inc/stm32g4xx_ll_cordic.h **** }
 354:Drivers/STM32G4xx_HAL_Driver/Inc/stm32g4xx_ll_cordic.h **** 
 355:Drivers/STM32G4xx_HAL_Driver/Inc/stm32g4xx_ll_cordic.h **** /**
 356:Drivers/STM32G4xx_HAL_Driver/Inc/stm32g4xx_ll_cordic.h ****   * @brief  Configure precision in cycles number.
 357:Drivers/STM32G4xx_HAL_Driver/Inc/stm32g4xx_ll_cordic.h ****   * @rmtoll CSR          PRECISION     LL_CORDIC_SetPrecision
 358:Drivers/STM32G4xx_HAL_Driver/Inc/stm32g4xx_ll_cordic.h ****   * @param  CORDICx CORDIC Instance
 359:Drivers/STM32G4xx_HAL_Driver/Inc/stm32g4xx_ll_cordic.h ****   * @param  Precision parameter can be one of the following values:
 360:Drivers/STM32G4xx_HAL_Driver/Inc/stm32g4xx_ll_cordic.h ****   *         @arg @ref LL_CORDIC_PRECISION_1CYCLE
 361:Drivers/STM32G4xx_HAL_Driver/Inc/stm32g4xx_ll_cordic.h ****   *         @arg @ref LL_CORDIC_PRECISION_2CYCLES
 362:Drivers/STM32G4xx_HAL_Driver/Inc/stm32g4xx_ll_cordic.h ****   *         @arg @ref LL_CORDIC_PRECISION_3CYCLES
 363:Drivers/STM32G4xx_HAL_Driver/Inc/stm32g4xx_ll_cordic.h ****   *         @arg @ref LL_CORDIC_PRECISION_4CYCLES
 364:Drivers/STM32G4xx_HAL_Driver/Inc/stm32g4xx_ll_cordic.h ****   *         @arg @ref LL_CORDIC_PRECISION_5CYCLES
 365:Drivers/STM32G4xx_HAL_Driver/Inc/stm32g4xx_ll_cordic.h ****   *         @arg @ref LL_CORDIC_PRECISION_6CYCLES
 366:Drivers/STM32G4xx_HAL_Driver/Inc/stm32g4xx_ll_cordic.h ****   *         @arg @ref LL_CORDIC_PRECISION_7CYCLES
 367:Drivers/STM32G4xx_HAL_Driver/Inc/stm32g4xx_ll_cordic.h ****   *         @arg @ref LL_CORDIC_PRECISION_8CYCLES
 368:Drivers/STM32G4xx_HAL_Driver/Inc/stm32g4xx_ll_cordic.h ****   *         @arg @ref LL_CORDIC_PRECISION_9CYCLES
 369:Drivers/STM32G4xx_HAL_Driver/Inc/stm32g4xx_ll_cordic.h ****   *         @arg @ref LL_CORDIC_PRECISION_10CYCLES
 370:Drivers/STM32G4xx_HAL_Driver/Inc/stm32g4xx_ll_cordic.h ****   *         @arg @ref LL_CORDIC_PRECISION_11CYCLES
 371:Drivers/STM32G4xx_HAL_Driver/Inc/stm32g4xx_ll_cordic.h ****   *         @arg @ref LL_CORDIC_PRECISION_12CYCLES
 372:Drivers/STM32G4xx_HAL_Driver/Inc/stm32g4xx_ll_cordic.h ****   *         @arg @ref LL_CORDIC_PRECISION_13CYCLES
 373:Drivers/STM32G4xx_HAL_Driver/Inc/stm32g4xx_ll_cordic.h ****   *         @arg @ref LL_CORDIC_PRECISION_14CYCLES
 374:Drivers/STM32G4xx_HAL_Driver/Inc/stm32g4xx_ll_cordic.h ****   *         @arg @ref LL_CORDIC_PRECISION_15CYCLES
 375:Drivers/STM32G4xx_HAL_Driver/Inc/stm32g4xx_ll_cordic.h ****   * @retval None
 376:Drivers/STM32G4xx_HAL_Driver/Inc/stm32g4xx_ll_cordic.h ****   */
 377:Drivers/STM32G4xx_HAL_Driver/Inc/stm32g4xx_ll_cordic.h **** __STATIC_INLINE void LL_CORDIC_SetPrecision(CORDIC_TypeDef *CORDICx, uint32_t Precision)
 378:Drivers/STM32G4xx_HAL_Driver/Inc/stm32g4xx_ll_cordic.h **** {
 379:Drivers/STM32G4xx_HAL_Driver/Inc/stm32g4xx_ll_cordic.h ****   MODIFY_REG(CORDICx->CSR, CORDIC_CSR_PRECISION, Precision);
 380:Drivers/STM32G4xx_HAL_Driver/Inc/stm32g4xx_ll_cordic.h **** }
 381:Drivers/STM32G4xx_HAL_Driver/Inc/stm32g4xx_ll_cordic.h **** 
 382:Drivers/STM32G4xx_HAL_Driver/Inc/stm32g4xx_ll_cordic.h **** /**
 383:Drivers/STM32G4xx_HAL_Driver/Inc/stm32g4xx_ll_cordic.h ****   * @brief  Return precision in cycles number.
 384:Drivers/STM32G4xx_HAL_Driver/Inc/stm32g4xx_ll_cordic.h ****   * @rmtoll CSR          PRECISION     LL_CORDIC_GetPrecision
 385:Drivers/STM32G4xx_HAL_Driver/Inc/stm32g4xx_ll_cordic.h ****   * @param  CORDICx CORDIC Instance
 386:Drivers/STM32G4xx_HAL_Driver/Inc/stm32g4xx_ll_cordic.h ****   * @retval Returned value can be one of the following values:
 387:Drivers/STM32G4xx_HAL_Driver/Inc/stm32g4xx_ll_cordic.h ****   *         @arg @ref LL_CORDIC_PRECISION_1CYCLE
 388:Drivers/STM32G4xx_HAL_Driver/Inc/stm32g4xx_ll_cordic.h ****   *         @arg @ref LL_CORDIC_PRECISION_2CYCLES
 389:Drivers/STM32G4xx_HAL_Driver/Inc/stm32g4xx_ll_cordic.h ****   *         @arg @ref LL_CORDIC_PRECISION_3CYCLES
 390:Drivers/STM32G4xx_HAL_Driver/Inc/stm32g4xx_ll_cordic.h ****   *         @arg @ref LL_CORDIC_PRECISION_4CYCLES
 391:Drivers/STM32G4xx_HAL_Driver/Inc/stm32g4xx_ll_cordic.h ****   *         @arg @ref LL_CORDIC_PRECISION_5CYCLES
 392:Drivers/STM32G4xx_HAL_Driver/Inc/stm32g4xx_ll_cordic.h ****   *         @arg @ref LL_CORDIC_PRECISION_6CYCLES
 393:Drivers/STM32G4xx_HAL_Driver/Inc/stm32g4xx_ll_cordic.h ****   *         @arg @ref LL_CORDIC_PRECISION_7CYCLES
ARM GAS  /tmp/ccLjXLyq.s 			page 36


 394:Drivers/STM32G4xx_HAL_Driver/Inc/stm32g4xx_ll_cordic.h ****   *         @arg @ref LL_CORDIC_PRECISION_8CYCLES
 395:Drivers/STM32G4xx_HAL_Driver/Inc/stm32g4xx_ll_cordic.h ****   *         @arg @ref LL_CORDIC_PRECISION_9CYCLES
 396:Drivers/STM32G4xx_HAL_Driver/Inc/stm32g4xx_ll_cordic.h ****   *         @arg @ref LL_CORDIC_PRECISION_10CYCLES
 397:Drivers/STM32G4xx_HAL_Driver/Inc/stm32g4xx_ll_cordic.h ****   *         @arg @ref LL_CORDIC_PRECISION_11CYCLES
 398:Drivers/STM32G4xx_HAL_Driver/Inc/stm32g4xx_ll_cordic.h ****   *         @arg @ref LL_CORDIC_PRECISION_12CYCLES
 399:Drivers/STM32G4xx_HAL_Driver/Inc/stm32g4xx_ll_cordic.h ****   *         @arg @ref LL_CORDIC_PRECISION_13CYCLES
 400:Drivers/STM32G4xx_HAL_Driver/Inc/stm32g4xx_ll_cordic.h ****   *         @arg @ref LL_CORDIC_PRECISION_14CYCLES
 401:Drivers/STM32G4xx_HAL_Driver/Inc/stm32g4xx_ll_cordic.h ****   *         @arg @ref LL_CORDIC_PRECISION_15CYCLES
 402:Drivers/STM32G4xx_HAL_Driver/Inc/stm32g4xx_ll_cordic.h ****   */
 403:Drivers/STM32G4xx_HAL_Driver/Inc/stm32g4xx_ll_cordic.h **** __STATIC_INLINE uint32_t LL_CORDIC_GetPrecision(CORDIC_TypeDef *CORDICx)
 404:Drivers/STM32G4xx_HAL_Driver/Inc/stm32g4xx_ll_cordic.h **** {
 405:Drivers/STM32G4xx_HAL_Driver/Inc/stm32g4xx_ll_cordic.h ****   return (uint32_t)(READ_BIT(CORDICx->CSR, CORDIC_CSR_PRECISION));
 406:Drivers/STM32G4xx_HAL_Driver/Inc/stm32g4xx_ll_cordic.h **** }
 407:Drivers/STM32G4xx_HAL_Driver/Inc/stm32g4xx_ll_cordic.h **** 
 408:Drivers/STM32G4xx_HAL_Driver/Inc/stm32g4xx_ll_cordic.h **** /**
 409:Drivers/STM32G4xx_HAL_Driver/Inc/stm32g4xx_ll_cordic.h ****   * @brief  Configure scaling factor.
 410:Drivers/STM32G4xx_HAL_Driver/Inc/stm32g4xx_ll_cordic.h ****   * @rmtoll CSR          SCALE         LL_CORDIC_SetScale
 411:Drivers/STM32G4xx_HAL_Driver/Inc/stm32g4xx_ll_cordic.h ****   * @param  CORDICx CORDIC Instance
 412:Drivers/STM32G4xx_HAL_Driver/Inc/stm32g4xx_ll_cordic.h ****   * @param  Scale parameter can be one of the following values:
 413:Drivers/STM32G4xx_HAL_Driver/Inc/stm32g4xx_ll_cordic.h ****   *         @arg @ref LL_CORDIC_SCALE_0
 414:Drivers/STM32G4xx_HAL_Driver/Inc/stm32g4xx_ll_cordic.h ****   *         @arg @ref LL_CORDIC_SCALE_1
 415:Drivers/STM32G4xx_HAL_Driver/Inc/stm32g4xx_ll_cordic.h ****   *         @arg @ref LL_CORDIC_SCALE_2
 416:Drivers/STM32G4xx_HAL_Driver/Inc/stm32g4xx_ll_cordic.h ****   *         @arg @ref LL_CORDIC_SCALE_3
 417:Drivers/STM32G4xx_HAL_Driver/Inc/stm32g4xx_ll_cordic.h ****   *         @arg @ref LL_CORDIC_SCALE_4
 418:Drivers/STM32G4xx_HAL_Driver/Inc/stm32g4xx_ll_cordic.h ****   *         @arg @ref LL_CORDIC_SCALE_5
 419:Drivers/STM32G4xx_HAL_Driver/Inc/stm32g4xx_ll_cordic.h ****   *         @arg @ref LL_CORDIC_SCALE_6
 420:Drivers/STM32G4xx_HAL_Driver/Inc/stm32g4xx_ll_cordic.h ****   *         @arg @ref LL_CORDIC_SCALE_7
 421:Drivers/STM32G4xx_HAL_Driver/Inc/stm32g4xx_ll_cordic.h ****   * @retval None
 422:Drivers/STM32G4xx_HAL_Driver/Inc/stm32g4xx_ll_cordic.h ****   */
 423:Drivers/STM32G4xx_HAL_Driver/Inc/stm32g4xx_ll_cordic.h **** __STATIC_INLINE void LL_CORDIC_SetScale(CORDIC_TypeDef *CORDICx, uint32_t Scale)
 424:Drivers/STM32G4xx_HAL_Driver/Inc/stm32g4xx_ll_cordic.h **** {
 425:Drivers/STM32G4xx_HAL_Driver/Inc/stm32g4xx_ll_cordic.h ****   MODIFY_REG(CORDICx->CSR, CORDIC_CSR_SCALE, Scale);
 426:Drivers/STM32G4xx_HAL_Driver/Inc/stm32g4xx_ll_cordic.h **** }
 427:Drivers/STM32G4xx_HAL_Driver/Inc/stm32g4xx_ll_cordic.h **** 
 428:Drivers/STM32G4xx_HAL_Driver/Inc/stm32g4xx_ll_cordic.h **** /**
 429:Drivers/STM32G4xx_HAL_Driver/Inc/stm32g4xx_ll_cordic.h ****   * @brief  Return scaling factor.
 430:Drivers/STM32G4xx_HAL_Driver/Inc/stm32g4xx_ll_cordic.h ****   * @rmtoll CSR          SCALE         LL_CORDIC_GetScale
 431:Drivers/STM32G4xx_HAL_Driver/Inc/stm32g4xx_ll_cordic.h ****   * @param  CORDICx CORDIC Instance
 432:Drivers/STM32G4xx_HAL_Driver/Inc/stm32g4xx_ll_cordic.h ****   * @retval Returned value can be one of the following values:
 433:Drivers/STM32G4xx_HAL_Driver/Inc/stm32g4xx_ll_cordic.h ****   *         @arg @ref LL_CORDIC_SCALE_0
 434:Drivers/STM32G4xx_HAL_Driver/Inc/stm32g4xx_ll_cordic.h ****   *         @arg @ref LL_CORDIC_SCALE_1
 435:Drivers/STM32G4xx_HAL_Driver/Inc/stm32g4xx_ll_cordic.h ****   *         @arg @ref LL_CORDIC_SCALE_2
 436:Drivers/STM32G4xx_HAL_Driver/Inc/stm32g4xx_ll_cordic.h ****   *         @arg @ref LL_CORDIC_SCALE_3
 437:Drivers/STM32G4xx_HAL_Driver/Inc/stm32g4xx_ll_cordic.h ****   *         @arg @ref LL_CORDIC_SCALE_4
 438:Drivers/STM32G4xx_HAL_Driver/Inc/stm32g4xx_ll_cordic.h ****   *         @arg @ref LL_CORDIC_SCALE_5
 439:Drivers/STM32G4xx_HAL_Driver/Inc/stm32g4xx_ll_cordic.h ****   *         @arg @ref LL_CORDIC_SCALE_6
 440:Drivers/STM32G4xx_HAL_Driver/Inc/stm32g4xx_ll_cordic.h ****   *         @arg @ref LL_CORDIC_SCALE_7
 441:Drivers/STM32G4xx_HAL_Driver/Inc/stm32g4xx_ll_cordic.h ****   */
 442:Drivers/STM32G4xx_HAL_Driver/Inc/stm32g4xx_ll_cordic.h **** __STATIC_INLINE uint32_t LL_CORDIC_GetScale(CORDIC_TypeDef *CORDICx)
 443:Drivers/STM32G4xx_HAL_Driver/Inc/stm32g4xx_ll_cordic.h **** {
 444:Drivers/STM32G4xx_HAL_Driver/Inc/stm32g4xx_ll_cordic.h ****   return (uint32_t)(READ_BIT(CORDICx->CSR, CORDIC_CSR_SCALE));
 445:Drivers/STM32G4xx_HAL_Driver/Inc/stm32g4xx_ll_cordic.h **** }
 446:Drivers/STM32G4xx_HAL_Driver/Inc/stm32g4xx_ll_cordic.h **** 
 447:Drivers/STM32G4xx_HAL_Driver/Inc/stm32g4xx_ll_cordic.h **** /**
 448:Drivers/STM32G4xx_HAL_Driver/Inc/stm32g4xx_ll_cordic.h ****   * @brief  Configure number of 32-bit write expected for one calculation.
 449:Drivers/STM32G4xx_HAL_Driver/Inc/stm32g4xx_ll_cordic.h ****   * @rmtoll CSR          NARGS         LL_CORDIC_SetNbWrite
 450:Drivers/STM32G4xx_HAL_Driver/Inc/stm32g4xx_ll_cordic.h ****   * @param  CORDICx CORDIC Instance
ARM GAS  /tmp/ccLjXLyq.s 			page 37


 451:Drivers/STM32G4xx_HAL_Driver/Inc/stm32g4xx_ll_cordic.h ****   * @param  NbWrite parameter can be one of the following values:
 452:Drivers/STM32G4xx_HAL_Driver/Inc/stm32g4xx_ll_cordic.h ****   *         @arg @ref LL_CORDIC_NBWRITE_1
 453:Drivers/STM32G4xx_HAL_Driver/Inc/stm32g4xx_ll_cordic.h ****   *         @arg @ref LL_CORDIC_NBWRITE_2
 454:Drivers/STM32G4xx_HAL_Driver/Inc/stm32g4xx_ll_cordic.h ****   * @retval None
 455:Drivers/STM32G4xx_HAL_Driver/Inc/stm32g4xx_ll_cordic.h ****   */
 456:Drivers/STM32G4xx_HAL_Driver/Inc/stm32g4xx_ll_cordic.h **** __STATIC_INLINE void LL_CORDIC_SetNbWrite(CORDIC_TypeDef *CORDICx, uint32_t NbWrite)
 457:Drivers/STM32G4xx_HAL_Driver/Inc/stm32g4xx_ll_cordic.h **** {
 458:Drivers/STM32G4xx_HAL_Driver/Inc/stm32g4xx_ll_cordic.h ****   MODIFY_REG(CORDICx->CSR, CORDIC_CSR_NARGS, NbWrite);
 459:Drivers/STM32G4xx_HAL_Driver/Inc/stm32g4xx_ll_cordic.h **** }
 460:Drivers/STM32G4xx_HAL_Driver/Inc/stm32g4xx_ll_cordic.h **** 
 461:Drivers/STM32G4xx_HAL_Driver/Inc/stm32g4xx_ll_cordic.h **** /**
 462:Drivers/STM32G4xx_HAL_Driver/Inc/stm32g4xx_ll_cordic.h ****   * @brief  Return number of 32-bit write expected for one calculation.
 463:Drivers/STM32G4xx_HAL_Driver/Inc/stm32g4xx_ll_cordic.h ****   * @rmtoll CSR          NARGS         LL_CORDIC_GetNbWrite
 464:Drivers/STM32G4xx_HAL_Driver/Inc/stm32g4xx_ll_cordic.h ****   * @param  CORDICx CORDIC Instance
 465:Drivers/STM32G4xx_HAL_Driver/Inc/stm32g4xx_ll_cordic.h ****   * @retval Returned value can be one of the following values:
 466:Drivers/STM32G4xx_HAL_Driver/Inc/stm32g4xx_ll_cordic.h ****   *         @arg @ref LL_CORDIC_NBWRITE_1
 467:Drivers/STM32G4xx_HAL_Driver/Inc/stm32g4xx_ll_cordic.h ****   *         @arg @ref LL_CORDIC_NBWRITE_2
 468:Drivers/STM32G4xx_HAL_Driver/Inc/stm32g4xx_ll_cordic.h ****   */
 469:Drivers/STM32G4xx_HAL_Driver/Inc/stm32g4xx_ll_cordic.h **** __STATIC_INLINE uint32_t LL_CORDIC_GetNbWrite(CORDIC_TypeDef *CORDICx)
 470:Drivers/STM32G4xx_HAL_Driver/Inc/stm32g4xx_ll_cordic.h **** {
 471:Drivers/STM32G4xx_HAL_Driver/Inc/stm32g4xx_ll_cordic.h ****   return (uint32_t)(READ_BIT(CORDICx->CSR, CORDIC_CSR_NARGS));
 472:Drivers/STM32G4xx_HAL_Driver/Inc/stm32g4xx_ll_cordic.h **** }
 473:Drivers/STM32G4xx_HAL_Driver/Inc/stm32g4xx_ll_cordic.h **** 
 474:Drivers/STM32G4xx_HAL_Driver/Inc/stm32g4xx_ll_cordic.h **** /**
 475:Drivers/STM32G4xx_HAL_Driver/Inc/stm32g4xx_ll_cordic.h ****   * @brief  Configure number of 32-bit read expected after one calculation.
 476:Drivers/STM32G4xx_HAL_Driver/Inc/stm32g4xx_ll_cordic.h ****   * @rmtoll CSR          NRES          LL_CORDIC_SetNbRead
 477:Drivers/STM32G4xx_HAL_Driver/Inc/stm32g4xx_ll_cordic.h ****   * @param  CORDICx CORDIC Instance
 478:Drivers/STM32G4xx_HAL_Driver/Inc/stm32g4xx_ll_cordic.h ****   * @param  NbRead parameter can be one of the following values:
 479:Drivers/STM32G4xx_HAL_Driver/Inc/stm32g4xx_ll_cordic.h ****   *         @arg @ref LL_CORDIC_NBREAD_1
 480:Drivers/STM32G4xx_HAL_Driver/Inc/stm32g4xx_ll_cordic.h ****   *         @arg @ref LL_CORDIC_NBREAD_2
 481:Drivers/STM32G4xx_HAL_Driver/Inc/stm32g4xx_ll_cordic.h ****   * @retval None
 482:Drivers/STM32G4xx_HAL_Driver/Inc/stm32g4xx_ll_cordic.h ****   */
 483:Drivers/STM32G4xx_HAL_Driver/Inc/stm32g4xx_ll_cordic.h **** __STATIC_INLINE void LL_CORDIC_SetNbRead(CORDIC_TypeDef *CORDICx, uint32_t NbRead)
 484:Drivers/STM32G4xx_HAL_Driver/Inc/stm32g4xx_ll_cordic.h **** {
 485:Drivers/STM32G4xx_HAL_Driver/Inc/stm32g4xx_ll_cordic.h ****   MODIFY_REG(CORDICx->CSR, CORDIC_CSR_NRES, NbRead);
 486:Drivers/STM32G4xx_HAL_Driver/Inc/stm32g4xx_ll_cordic.h **** }
 487:Drivers/STM32G4xx_HAL_Driver/Inc/stm32g4xx_ll_cordic.h **** 
 488:Drivers/STM32G4xx_HAL_Driver/Inc/stm32g4xx_ll_cordic.h **** /**
 489:Drivers/STM32G4xx_HAL_Driver/Inc/stm32g4xx_ll_cordic.h ****   * @brief  Return number of 32-bit read expected after one calculation.
 490:Drivers/STM32G4xx_HAL_Driver/Inc/stm32g4xx_ll_cordic.h ****   * @rmtoll CSR          NRES          LL_CORDIC_GetNbRead
 491:Drivers/STM32G4xx_HAL_Driver/Inc/stm32g4xx_ll_cordic.h ****   * @param  CORDICx CORDIC Instance
 492:Drivers/STM32G4xx_HAL_Driver/Inc/stm32g4xx_ll_cordic.h ****   * @retval Returned value can be one of the following values:
 493:Drivers/STM32G4xx_HAL_Driver/Inc/stm32g4xx_ll_cordic.h ****   *         @arg @ref LL_CORDIC_NBREAD_1
 494:Drivers/STM32G4xx_HAL_Driver/Inc/stm32g4xx_ll_cordic.h ****   *         @arg @ref LL_CORDIC_NBREAD_2
 495:Drivers/STM32G4xx_HAL_Driver/Inc/stm32g4xx_ll_cordic.h ****   */
 496:Drivers/STM32G4xx_HAL_Driver/Inc/stm32g4xx_ll_cordic.h **** __STATIC_INLINE uint32_t LL_CORDIC_GetNbRead(CORDIC_TypeDef *CORDICx)
 497:Drivers/STM32G4xx_HAL_Driver/Inc/stm32g4xx_ll_cordic.h **** {
 498:Drivers/STM32G4xx_HAL_Driver/Inc/stm32g4xx_ll_cordic.h ****   return (uint32_t)(READ_BIT(CORDICx->CSR, CORDIC_CSR_NRES));
 499:Drivers/STM32G4xx_HAL_Driver/Inc/stm32g4xx_ll_cordic.h **** }
 500:Drivers/STM32G4xx_HAL_Driver/Inc/stm32g4xx_ll_cordic.h **** 
 501:Drivers/STM32G4xx_HAL_Driver/Inc/stm32g4xx_ll_cordic.h **** /**
 502:Drivers/STM32G4xx_HAL_Driver/Inc/stm32g4xx_ll_cordic.h ****   * @brief  Configure width of input data.
 503:Drivers/STM32G4xx_HAL_Driver/Inc/stm32g4xx_ll_cordic.h ****   * @rmtoll CSR          ARGSIZE       LL_CORDIC_SetInSize
 504:Drivers/STM32G4xx_HAL_Driver/Inc/stm32g4xx_ll_cordic.h ****   * @param  CORDICx CORDIC Instance
 505:Drivers/STM32G4xx_HAL_Driver/Inc/stm32g4xx_ll_cordic.h ****   * @param  InSize parameter can be one of the following values:
 506:Drivers/STM32G4xx_HAL_Driver/Inc/stm32g4xx_ll_cordic.h ****   *         @arg @ref LL_CORDIC_INSIZE_32BITS
 507:Drivers/STM32G4xx_HAL_Driver/Inc/stm32g4xx_ll_cordic.h ****   *         @arg @ref LL_CORDIC_INSIZE_16BITS
ARM GAS  /tmp/ccLjXLyq.s 			page 38


 508:Drivers/STM32G4xx_HAL_Driver/Inc/stm32g4xx_ll_cordic.h ****   * @retval None
 509:Drivers/STM32G4xx_HAL_Driver/Inc/stm32g4xx_ll_cordic.h ****   */
 510:Drivers/STM32G4xx_HAL_Driver/Inc/stm32g4xx_ll_cordic.h **** __STATIC_INLINE void LL_CORDIC_SetInSize(CORDIC_TypeDef *CORDICx, uint32_t InSize)
 511:Drivers/STM32G4xx_HAL_Driver/Inc/stm32g4xx_ll_cordic.h **** {
 512:Drivers/STM32G4xx_HAL_Driver/Inc/stm32g4xx_ll_cordic.h ****   MODIFY_REG(CORDICx->CSR, CORDIC_CSR_ARGSIZE, InSize);
 513:Drivers/STM32G4xx_HAL_Driver/Inc/stm32g4xx_ll_cordic.h **** }
 514:Drivers/STM32G4xx_HAL_Driver/Inc/stm32g4xx_ll_cordic.h **** 
 515:Drivers/STM32G4xx_HAL_Driver/Inc/stm32g4xx_ll_cordic.h **** /**
 516:Drivers/STM32G4xx_HAL_Driver/Inc/stm32g4xx_ll_cordic.h ****   * @brief  Return width of input data.
 517:Drivers/STM32G4xx_HAL_Driver/Inc/stm32g4xx_ll_cordic.h ****   * @rmtoll CSR          ARGSIZE       LL_CORDIC_GetInSize
 518:Drivers/STM32G4xx_HAL_Driver/Inc/stm32g4xx_ll_cordic.h ****   * @param  CORDICx CORDIC Instance
 519:Drivers/STM32G4xx_HAL_Driver/Inc/stm32g4xx_ll_cordic.h ****   * @retval Returned value can be one of the following values:
 520:Drivers/STM32G4xx_HAL_Driver/Inc/stm32g4xx_ll_cordic.h ****   *         @arg @ref LL_CORDIC_INSIZE_32BITS
 521:Drivers/STM32G4xx_HAL_Driver/Inc/stm32g4xx_ll_cordic.h ****   *         @arg @ref LL_CORDIC_INSIZE_16BITS
 522:Drivers/STM32G4xx_HAL_Driver/Inc/stm32g4xx_ll_cordic.h ****   */
 523:Drivers/STM32G4xx_HAL_Driver/Inc/stm32g4xx_ll_cordic.h **** __STATIC_INLINE uint32_t LL_CORDIC_GetInSize(CORDIC_TypeDef *CORDICx)
 524:Drivers/STM32G4xx_HAL_Driver/Inc/stm32g4xx_ll_cordic.h **** {
 525:Drivers/STM32G4xx_HAL_Driver/Inc/stm32g4xx_ll_cordic.h ****   return (uint32_t)(READ_BIT(CORDICx->CSR, CORDIC_CSR_ARGSIZE));
 526:Drivers/STM32G4xx_HAL_Driver/Inc/stm32g4xx_ll_cordic.h **** }
 527:Drivers/STM32G4xx_HAL_Driver/Inc/stm32g4xx_ll_cordic.h **** 
 528:Drivers/STM32G4xx_HAL_Driver/Inc/stm32g4xx_ll_cordic.h **** /**
 529:Drivers/STM32G4xx_HAL_Driver/Inc/stm32g4xx_ll_cordic.h ****   * @brief  Configure width of output data.
 530:Drivers/STM32G4xx_HAL_Driver/Inc/stm32g4xx_ll_cordic.h ****   * @rmtoll CSR          RESIZE       LL_CORDIC_SetOutSize
 531:Drivers/STM32G4xx_HAL_Driver/Inc/stm32g4xx_ll_cordic.h ****   * @param  CORDICx CORDIC Instance
 532:Drivers/STM32G4xx_HAL_Driver/Inc/stm32g4xx_ll_cordic.h ****   * @param  OutSize parameter can be one of the following values:
 533:Drivers/STM32G4xx_HAL_Driver/Inc/stm32g4xx_ll_cordic.h ****   *         @arg @ref LL_CORDIC_OUTSIZE_32BITS
 534:Drivers/STM32G4xx_HAL_Driver/Inc/stm32g4xx_ll_cordic.h ****   *         @arg @ref LL_CORDIC_OUTSIZE_16BITS
 535:Drivers/STM32G4xx_HAL_Driver/Inc/stm32g4xx_ll_cordic.h ****   * @retval None
 536:Drivers/STM32G4xx_HAL_Driver/Inc/stm32g4xx_ll_cordic.h ****   */
 537:Drivers/STM32G4xx_HAL_Driver/Inc/stm32g4xx_ll_cordic.h **** __STATIC_INLINE void LL_CORDIC_SetOutSize(CORDIC_TypeDef *CORDICx, uint32_t OutSize)
 538:Drivers/STM32G4xx_HAL_Driver/Inc/stm32g4xx_ll_cordic.h **** {
 539:Drivers/STM32G4xx_HAL_Driver/Inc/stm32g4xx_ll_cordic.h ****   MODIFY_REG(CORDICx->CSR, CORDIC_CSR_RESSIZE, OutSize);
 540:Drivers/STM32G4xx_HAL_Driver/Inc/stm32g4xx_ll_cordic.h **** }
 541:Drivers/STM32G4xx_HAL_Driver/Inc/stm32g4xx_ll_cordic.h **** 
 542:Drivers/STM32G4xx_HAL_Driver/Inc/stm32g4xx_ll_cordic.h **** /**
 543:Drivers/STM32G4xx_HAL_Driver/Inc/stm32g4xx_ll_cordic.h ****   * @brief  Return width of output data.
 544:Drivers/STM32G4xx_HAL_Driver/Inc/stm32g4xx_ll_cordic.h ****   * @rmtoll CSR          RESIZE       LL_CORDIC_GetOutSize
 545:Drivers/STM32G4xx_HAL_Driver/Inc/stm32g4xx_ll_cordic.h ****   * @param  CORDICx CORDIC Instance
 546:Drivers/STM32G4xx_HAL_Driver/Inc/stm32g4xx_ll_cordic.h ****   * @retval Returned value can be one of the following values:
 547:Drivers/STM32G4xx_HAL_Driver/Inc/stm32g4xx_ll_cordic.h ****   *         @arg @ref LL_CORDIC_OUTSIZE_32BITS
 548:Drivers/STM32G4xx_HAL_Driver/Inc/stm32g4xx_ll_cordic.h ****   *         @arg @ref LL_CORDIC_OUTSIZE_16BITS
 549:Drivers/STM32G4xx_HAL_Driver/Inc/stm32g4xx_ll_cordic.h ****   */
 550:Drivers/STM32G4xx_HAL_Driver/Inc/stm32g4xx_ll_cordic.h **** __STATIC_INLINE uint32_t LL_CORDIC_GetOutSize(CORDIC_TypeDef *CORDICx)
 551:Drivers/STM32G4xx_HAL_Driver/Inc/stm32g4xx_ll_cordic.h **** {
 552:Drivers/STM32G4xx_HAL_Driver/Inc/stm32g4xx_ll_cordic.h ****   return (uint32_t)(READ_BIT(CORDICx->CSR, CORDIC_CSR_RESSIZE));
 553:Drivers/STM32G4xx_HAL_Driver/Inc/stm32g4xx_ll_cordic.h **** }
 554:Drivers/STM32G4xx_HAL_Driver/Inc/stm32g4xx_ll_cordic.h **** 
 555:Drivers/STM32G4xx_HAL_Driver/Inc/stm32g4xx_ll_cordic.h **** /**
 556:Drivers/STM32G4xx_HAL_Driver/Inc/stm32g4xx_ll_cordic.h ****   * @}
 557:Drivers/STM32G4xx_HAL_Driver/Inc/stm32g4xx_ll_cordic.h ****   */
 558:Drivers/STM32G4xx_HAL_Driver/Inc/stm32g4xx_ll_cordic.h **** 
 559:Drivers/STM32G4xx_HAL_Driver/Inc/stm32g4xx_ll_cordic.h **** /** @defgroup CORDIC_LL_EF_IT_Management IT_Management
 560:Drivers/STM32G4xx_HAL_Driver/Inc/stm32g4xx_ll_cordic.h ****   * @{
 561:Drivers/STM32G4xx_HAL_Driver/Inc/stm32g4xx_ll_cordic.h ****   */
 562:Drivers/STM32G4xx_HAL_Driver/Inc/stm32g4xx_ll_cordic.h **** 
 563:Drivers/STM32G4xx_HAL_Driver/Inc/stm32g4xx_ll_cordic.h **** /**
 564:Drivers/STM32G4xx_HAL_Driver/Inc/stm32g4xx_ll_cordic.h ****   * @brief  Enable CORDIC result ready interrupt
ARM GAS  /tmp/ccLjXLyq.s 			page 39


 565:Drivers/STM32G4xx_HAL_Driver/Inc/stm32g4xx_ll_cordic.h ****   * @rmtoll CSR          IEN           LL_CORDIC_EnableIT
 566:Drivers/STM32G4xx_HAL_Driver/Inc/stm32g4xx_ll_cordic.h ****   * @param  CORDICx CORDIC Instance
 567:Drivers/STM32G4xx_HAL_Driver/Inc/stm32g4xx_ll_cordic.h ****   * @retval None
 568:Drivers/STM32G4xx_HAL_Driver/Inc/stm32g4xx_ll_cordic.h ****   */
 569:Drivers/STM32G4xx_HAL_Driver/Inc/stm32g4xx_ll_cordic.h **** __STATIC_INLINE void LL_CORDIC_EnableIT(CORDIC_TypeDef *CORDICx)
 570:Drivers/STM32G4xx_HAL_Driver/Inc/stm32g4xx_ll_cordic.h **** {
 571:Drivers/STM32G4xx_HAL_Driver/Inc/stm32g4xx_ll_cordic.h ****   SET_BIT(CORDICx->CSR, CORDIC_CSR_IEN);
 572:Drivers/STM32G4xx_HAL_Driver/Inc/stm32g4xx_ll_cordic.h **** }
 573:Drivers/STM32G4xx_HAL_Driver/Inc/stm32g4xx_ll_cordic.h **** 
 574:Drivers/STM32G4xx_HAL_Driver/Inc/stm32g4xx_ll_cordic.h **** /**
 575:Drivers/STM32G4xx_HAL_Driver/Inc/stm32g4xx_ll_cordic.h ****   * @brief  Disable CORDIC result ready interrupt
 576:Drivers/STM32G4xx_HAL_Driver/Inc/stm32g4xx_ll_cordic.h ****   * @rmtoll CSR          IEN           LL_CORDIC_DisableIT
 577:Drivers/STM32G4xx_HAL_Driver/Inc/stm32g4xx_ll_cordic.h ****   * @param  CORDICx CORDIC Instance
 578:Drivers/STM32G4xx_HAL_Driver/Inc/stm32g4xx_ll_cordic.h ****   * @retval None
 579:Drivers/STM32G4xx_HAL_Driver/Inc/stm32g4xx_ll_cordic.h ****   */
 580:Drivers/STM32G4xx_HAL_Driver/Inc/stm32g4xx_ll_cordic.h **** __STATIC_INLINE void LL_CORDIC_DisableIT(CORDIC_TypeDef *CORDICx)
 581:Drivers/STM32G4xx_HAL_Driver/Inc/stm32g4xx_ll_cordic.h **** {
 582:Drivers/STM32G4xx_HAL_Driver/Inc/stm32g4xx_ll_cordic.h ****   CLEAR_BIT(CORDICx->CSR, CORDIC_CSR_IEN);
 583:Drivers/STM32G4xx_HAL_Driver/Inc/stm32g4xx_ll_cordic.h **** }
 584:Drivers/STM32G4xx_HAL_Driver/Inc/stm32g4xx_ll_cordic.h **** 
 585:Drivers/STM32G4xx_HAL_Driver/Inc/stm32g4xx_ll_cordic.h **** /**
 586:Drivers/STM32G4xx_HAL_Driver/Inc/stm32g4xx_ll_cordic.h ****   * @brief  Check CORDIC result ready interrupt state.
 587:Drivers/STM32G4xx_HAL_Driver/Inc/stm32g4xx_ll_cordic.h ****   * @rmtoll CSR          IEN           LL_CORDIC_IsEnabledIT
 588:Drivers/STM32G4xx_HAL_Driver/Inc/stm32g4xx_ll_cordic.h ****   * @param  CORDICx CORDIC Instance
 589:Drivers/STM32G4xx_HAL_Driver/Inc/stm32g4xx_ll_cordic.h ****   * @retval State of bit (1 or 0).
 590:Drivers/STM32G4xx_HAL_Driver/Inc/stm32g4xx_ll_cordic.h ****   */
 591:Drivers/STM32G4xx_HAL_Driver/Inc/stm32g4xx_ll_cordic.h **** __STATIC_INLINE uint32_t LL_CORDIC_IsEnabledIT(CORDIC_TypeDef *CORDICx)
 592:Drivers/STM32G4xx_HAL_Driver/Inc/stm32g4xx_ll_cordic.h **** {
 593:Drivers/STM32G4xx_HAL_Driver/Inc/stm32g4xx_ll_cordic.h ****   return ((READ_BIT(CORDICx->CSR, CORDIC_CSR_IEN) == (CORDIC_CSR_IEN)) ? 1U : 0U);
 594:Drivers/STM32G4xx_HAL_Driver/Inc/stm32g4xx_ll_cordic.h **** }
 595:Drivers/STM32G4xx_HAL_Driver/Inc/stm32g4xx_ll_cordic.h **** 
 596:Drivers/STM32G4xx_HAL_Driver/Inc/stm32g4xx_ll_cordic.h **** /**
 597:Drivers/STM32G4xx_HAL_Driver/Inc/stm32g4xx_ll_cordic.h ****   * @}
 598:Drivers/STM32G4xx_HAL_Driver/Inc/stm32g4xx_ll_cordic.h ****   */
 599:Drivers/STM32G4xx_HAL_Driver/Inc/stm32g4xx_ll_cordic.h **** 
 600:Drivers/STM32G4xx_HAL_Driver/Inc/stm32g4xx_ll_cordic.h **** /** @defgroup CORDIC_LL_EF_DMA_Management DMA_Management
 601:Drivers/STM32G4xx_HAL_Driver/Inc/stm32g4xx_ll_cordic.h ****   * @{
 602:Drivers/STM32G4xx_HAL_Driver/Inc/stm32g4xx_ll_cordic.h ****   */
 603:Drivers/STM32G4xx_HAL_Driver/Inc/stm32g4xx_ll_cordic.h **** 
 604:Drivers/STM32G4xx_HAL_Driver/Inc/stm32g4xx_ll_cordic.h **** /**
 605:Drivers/STM32G4xx_HAL_Driver/Inc/stm32g4xx_ll_cordic.h ****   * @brief  Enable CORDIC DMA read channel request.
 606:Drivers/STM32G4xx_HAL_Driver/Inc/stm32g4xx_ll_cordic.h ****   * @rmtoll CSR          DMAREN        LL_CORDIC_EnableDMAReq_RD
 607:Drivers/STM32G4xx_HAL_Driver/Inc/stm32g4xx_ll_cordic.h ****   * @param  CORDICx CORDIC Instance
 608:Drivers/STM32G4xx_HAL_Driver/Inc/stm32g4xx_ll_cordic.h ****   * @retval None
 609:Drivers/STM32G4xx_HAL_Driver/Inc/stm32g4xx_ll_cordic.h ****   */
 610:Drivers/STM32G4xx_HAL_Driver/Inc/stm32g4xx_ll_cordic.h **** __STATIC_INLINE void LL_CORDIC_EnableDMAReq_RD(CORDIC_TypeDef *CORDICx)
 611:Drivers/STM32G4xx_HAL_Driver/Inc/stm32g4xx_ll_cordic.h **** {
 612:Drivers/STM32G4xx_HAL_Driver/Inc/stm32g4xx_ll_cordic.h ****   SET_BIT(CORDICx->CSR, CORDIC_CSR_DMAREN);
 613:Drivers/STM32G4xx_HAL_Driver/Inc/stm32g4xx_ll_cordic.h **** }
 614:Drivers/STM32G4xx_HAL_Driver/Inc/stm32g4xx_ll_cordic.h **** 
 615:Drivers/STM32G4xx_HAL_Driver/Inc/stm32g4xx_ll_cordic.h **** /**
 616:Drivers/STM32G4xx_HAL_Driver/Inc/stm32g4xx_ll_cordic.h ****   * @brief  Disable CORDIC DMA read channel request.
 617:Drivers/STM32G4xx_HAL_Driver/Inc/stm32g4xx_ll_cordic.h ****   * @rmtoll CSR          DMAREN        LL_CORDIC_DisableDMAReq_RD
 618:Drivers/STM32G4xx_HAL_Driver/Inc/stm32g4xx_ll_cordic.h ****   * @param  CORDICx CORDIC Instance
 619:Drivers/STM32G4xx_HAL_Driver/Inc/stm32g4xx_ll_cordic.h ****   * @retval None
 620:Drivers/STM32G4xx_HAL_Driver/Inc/stm32g4xx_ll_cordic.h ****   */
 621:Drivers/STM32G4xx_HAL_Driver/Inc/stm32g4xx_ll_cordic.h **** __STATIC_INLINE void LL_CORDIC_DisableDMAReq_RD(CORDIC_TypeDef *CORDICx)
ARM GAS  /tmp/ccLjXLyq.s 			page 40


 622:Drivers/STM32G4xx_HAL_Driver/Inc/stm32g4xx_ll_cordic.h **** {
 623:Drivers/STM32G4xx_HAL_Driver/Inc/stm32g4xx_ll_cordic.h ****   CLEAR_BIT(CORDICx->CSR, CORDIC_CSR_DMAREN);
 624:Drivers/STM32G4xx_HAL_Driver/Inc/stm32g4xx_ll_cordic.h **** }
 625:Drivers/STM32G4xx_HAL_Driver/Inc/stm32g4xx_ll_cordic.h **** 
 626:Drivers/STM32G4xx_HAL_Driver/Inc/stm32g4xx_ll_cordic.h **** /**
 627:Drivers/STM32G4xx_HAL_Driver/Inc/stm32g4xx_ll_cordic.h ****   * @brief  Check CORDIC DMA read channel request state.
 628:Drivers/STM32G4xx_HAL_Driver/Inc/stm32g4xx_ll_cordic.h ****   * @rmtoll CSR          DMAREN        LL_CORDIC_IsEnabledDMAReq_RD
 629:Drivers/STM32G4xx_HAL_Driver/Inc/stm32g4xx_ll_cordic.h ****   * @param  CORDICx CORDIC Instance
 630:Drivers/STM32G4xx_HAL_Driver/Inc/stm32g4xx_ll_cordic.h ****   * @retval State of bit (1 or 0).
 631:Drivers/STM32G4xx_HAL_Driver/Inc/stm32g4xx_ll_cordic.h ****   */
 632:Drivers/STM32G4xx_HAL_Driver/Inc/stm32g4xx_ll_cordic.h **** __STATIC_INLINE uint32_t LL_CORDIC_IsEnabledDMAReq_RD(CORDIC_TypeDef *CORDICx)
 633:Drivers/STM32G4xx_HAL_Driver/Inc/stm32g4xx_ll_cordic.h **** {
 634:Drivers/STM32G4xx_HAL_Driver/Inc/stm32g4xx_ll_cordic.h ****   return ((READ_BIT(CORDICx->CSR, CORDIC_CSR_DMAREN) == (CORDIC_CSR_DMAREN)) ? 1U : 0U);
 635:Drivers/STM32G4xx_HAL_Driver/Inc/stm32g4xx_ll_cordic.h **** }
 636:Drivers/STM32G4xx_HAL_Driver/Inc/stm32g4xx_ll_cordic.h **** 
 637:Drivers/STM32G4xx_HAL_Driver/Inc/stm32g4xx_ll_cordic.h **** /**
 638:Drivers/STM32G4xx_HAL_Driver/Inc/stm32g4xx_ll_cordic.h ****   * @brief  Enable CORDIC DMA write channel request.
 639:Drivers/STM32G4xx_HAL_Driver/Inc/stm32g4xx_ll_cordic.h ****   * @rmtoll CSR          DMAWEN        LL_CORDIC_EnableDMAReq_WR
 640:Drivers/STM32G4xx_HAL_Driver/Inc/stm32g4xx_ll_cordic.h ****   * @param  CORDICx CORDIC Instance
 641:Drivers/STM32G4xx_HAL_Driver/Inc/stm32g4xx_ll_cordic.h ****   * @retval None
 642:Drivers/STM32G4xx_HAL_Driver/Inc/stm32g4xx_ll_cordic.h ****   */
 643:Drivers/STM32G4xx_HAL_Driver/Inc/stm32g4xx_ll_cordic.h **** __STATIC_INLINE void LL_CORDIC_EnableDMAReq_WR(CORDIC_TypeDef *CORDICx)
 644:Drivers/STM32G4xx_HAL_Driver/Inc/stm32g4xx_ll_cordic.h **** {
 645:Drivers/STM32G4xx_HAL_Driver/Inc/stm32g4xx_ll_cordic.h ****   SET_BIT(CORDICx->CSR, CORDIC_CSR_DMAWEN);
 646:Drivers/STM32G4xx_HAL_Driver/Inc/stm32g4xx_ll_cordic.h **** }
 647:Drivers/STM32G4xx_HAL_Driver/Inc/stm32g4xx_ll_cordic.h **** 
 648:Drivers/STM32G4xx_HAL_Driver/Inc/stm32g4xx_ll_cordic.h **** /**
 649:Drivers/STM32G4xx_HAL_Driver/Inc/stm32g4xx_ll_cordic.h ****   * @brief  Disable CORDIC DMA write channel request.
 650:Drivers/STM32G4xx_HAL_Driver/Inc/stm32g4xx_ll_cordic.h ****   * @rmtoll CSR          DMAWEN        LL_CORDIC_DisableDMAReq_WR
 651:Drivers/STM32G4xx_HAL_Driver/Inc/stm32g4xx_ll_cordic.h ****   * @param  CORDICx CORDIC Instance
 652:Drivers/STM32G4xx_HAL_Driver/Inc/stm32g4xx_ll_cordic.h ****   * @retval None
 653:Drivers/STM32G4xx_HAL_Driver/Inc/stm32g4xx_ll_cordic.h ****   */
 654:Drivers/STM32G4xx_HAL_Driver/Inc/stm32g4xx_ll_cordic.h **** __STATIC_INLINE void LL_CORDIC_DisableDMAReq_WR(CORDIC_TypeDef *CORDICx)
 655:Drivers/STM32G4xx_HAL_Driver/Inc/stm32g4xx_ll_cordic.h **** {
 656:Drivers/STM32G4xx_HAL_Driver/Inc/stm32g4xx_ll_cordic.h ****   CLEAR_BIT(CORDICx->CSR, CORDIC_CSR_DMAWEN);
 657:Drivers/STM32G4xx_HAL_Driver/Inc/stm32g4xx_ll_cordic.h **** }
 658:Drivers/STM32G4xx_HAL_Driver/Inc/stm32g4xx_ll_cordic.h **** 
 659:Drivers/STM32G4xx_HAL_Driver/Inc/stm32g4xx_ll_cordic.h **** /**
 660:Drivers/STM32G4xx_HAL_Driver/Inc/stm32g4xx_ll_cordic.h ****   * @brief  Check CORDIC DMA write channel request state.
 661:Drivers/STM32G4xx_HAL_Driver/Inc/stm32g4xx_ll_cordic.h ****   * @rmtoll CSR          DMAWEN        LL_CORDIC_IsEnabledDMAReq_WR
 662:Drivers/STM32G4xx_HAL_Driver/Inc/stm32g4xx_ll_cordic.h ****   * @param  CORDICx CORDIC Instance
 663:Drivers/STM32G4xx_HAL_Driver/Inc/stm32g4xx_ll_cordic.h ****   * @retval State of bit (1 or 0).
 664:Drivers/STM32G4xx_HAL_Driver/Inc/stm32g4xx_ll_cordic.h ****   */
 665:Drivers/STM32G4xx_HAL_Driver/Inc/stm32g4xx_ll_cordic.h **** __STATIC_INLINE uint32_t LL_CORDIC_IsEnabledDMAReq_WR(CORDIC_TypeDef *CORDICx)
 666:Drivers/STM32G4xx_HAL_Driver/Inc/stm32g4xx_ll_cordic.h **** {
 667:Drivers/STM32G4xx_HAL_Driver/Inc/stm32g4xx_ll_cordic.h ****   return ((READ_BIT(CORDICx->CSR, CORDIC_CSR_DMAWEN) == (CORDIC_CSR_DMAWEN)) ? 1U : 0U);
 668:Drivers/STM32G4xx_HAL_Driver/Inc/stm32g4xx_ll_cordic.h **** }
 669:Drivers/STM32G4xx_HAL_Driver/Inc/stm32g4xx_ll_cordic.h **** 
 670:Drivers/STM32G4xx_HAL_Driver/Inc/stm32g4xx_ll_cordic.h **** /**
 671:Drivers/STM32G4xx_HAL_Driver/Inc/stm32g4xx_ll_cordic.h ****   * @brief  Get the CORDIC data register address used for DMA transfer.
 672:Drivers/STM32G4xx_HAL_Driver/Inc/stm32g4xx_ll_cordic.h ****   * @rmtoll RDATA        RES           LL_CORDIC_DMA_GetRegAddr\n
 673:Drivers/STM32G4xx_HAL_Driver/Inc/stm32g4xx_ll_cordic.h ****   * @rmtoll WDATA        ARG           LL_CORDIC_DMA_GetRegAddr
 674:Drivers/STM32G4xx_HAL_Driver/Inc/stm32g4xx_ll_cordic.h ****   * @param  CORDICx CORDIC Instance
 675:Drivers/STM32G4xx_HAL_Driver/Inc/stm32g4xx_ll_cordic.h ****   * @param  Direction parameter can be one of the following values:
 676:Drivers/STM32G4xx_HAL_Driver/Inc/stm32g4xx_ll_cordic.h ****   *         @arg @ref LL_CORDIC_DMA_REG_DATA_IN
 677:Drivers/STM32G4xx_HAL_Driver/Inc/stm32g4xx_ll_cordic.h ****   *         @arg @ref LL_CORDIC_DMA_REG_DATA_OUT
 678:Drivers/STM32G4xx_HAL_Driver/Inc/stm32g4xx_ll_cordic.h ****   * @retval Address of data register
ARM GAS  /tmp/ccLjXLyq.s 			page 41


 679:Drivers/STM32G4xx_HAL_Driver/Inc/stm32g4xx_ll_cordic.h ****   */
 680:Drivers/STM32G4xx_HAL_Driver/Inc/stm32g4xx_ll_cordic.h **** __STATIC_INLINE uint32_t LL_CORDIC_DMA_GetRegAddr(CORDIC_TypeDef *CORDICx, uint32_t Direction)
 681:Drivers/STM32G4xx_HAL_Driver/Inc/stm32g4xx_ll_cordic.h **** {
 682:Drivers/STM32G4xx_HAL_Driver/Inc/stm32g4xx_ll_cordic.h ****   uint32_t data_reg_addr;
 683:Drivers/STM32G4xx_HAL_Driver/Inc/stm32g4xx_ll_cordic.h **** 
 684:Drivers/STM32G4xx_HAL_Driver/Inc/stm32g4xx_ll_cordic.h ****   if (Direction == LL_CORDIC_DMA_REG_DATA_OUT)
 685:Drivers/STM32G4xx_HAL_Driver/Inc/stm32g4xx_ll_cordic.h ****   {
 686:Drivers/STM32G4xx_HAL_Driver/Inc/stm32g4xx_ll_cordic.h ****     /* return address of RDATA register */
 687:Drivers/STM32G4xx_HAL_Driver/Inc/stm32g4xx_ll_cordic.h ****     data_reg_addr = (uint32_t) &(CORDICx->RDATA);
 688:Drivers/STM32G4xx_HAL_Driver/Inc/stm32g4xx_ll_cordic.h ****   }
 689:Drivers/STM32G4xx_HAL_Driver/Inc/stm32g4xx_ll_cordic.h ****   else
 690:Drivers/STM32G4xx_HAL_Driver/Inc/stm32g4xx_ll_cordic.h ****   {
 691:Drivers/STM32G4xx_HAL_Driver/Inc/stm32g4xx_ll_cordic.h ****     /* return address of WDATA register */
 692:Drivers/STM32G4xx_HAL_Driver/Inc/stm32g4xx_ll_cordic.h ****     data_reg_addr = (uint32_t) &(CORDICx->WDATA);
 693:Drivers/STM32G4xx_HAL_Driver/Inc/stm32g4xx_ll_cordic.h ****   }
 694:Drivers/STM32G4xx_HAL_Driver/Inc/stm32g4xx_ll_cordic.h **** 
 695:Drivers/STM32G4xx_HAL_Driver/Inc/stm32g4xx_ll_cordic.h ****   return data_reg_addr;
 696:Drivers/STM32G4xx_HAL_Driver/Inc/stm32g4xx_ll_cordic.h **** }
 697:Drivers/STM32G4xx_HAL_Driver/Inc/stm32g4xx_ll_cordic.h **** 
 698:Drivers/STM32G4xx_HAL_Driver/Inc/stm32g4xx_ll_cordic.h **** /**
 699:Drivers/STM32G4xx_HAL_Driver/Inc/stm32g4xx_ll_cordic.h ****   * @}
 700:Drivers/STM32G4xx_HAL_Driver/Inc/stm32g4xx_ll_cordic.h ****   */
 701:Drivers/STM32G4xx_HAL_Driver/Inc/stm32g4xx_ll_cordic.h **** 
 702:Drivers/STM32G4xx_HAL_Driver/Inc/stm32g4xx_ll_cordic.h **** /** @defgroup CORDIC_LL_EF_FLAG_Management FLAG_Management
 703:Drivers/STM32G4xx_HAL_Driver/Inc/stm32g4xx_ll_cordic.h ****   * @{
 704:Drivers/STM32G4xx_HAL_Driver/Inc/stm32g4xx_ll_cordic.h ****   */
 705:Drivers/STM32G4xx_HAL_Driver/Inc/stm32g4xx_ll_cordic.h **** 
 706:Drivers/STM32G4xx_HAL_Driver/Inc/stm32g4xx_ll_cordic.h **** /**
 707:Drivers/STM32G4xx_HAL_Driver/Inc/stm32g4xx_ll_cordic.h ****   * @brief  Check CORDIC result ready flag state.
 708:Drivers/STM32G4xx_HAL_Driver/Inc/stm32g4xx_ll_cordic.h ****   * @rmtoll CSR          RRDY          LL_CORDIC_IsActiveFlag_RRDY
 709:Drivers/STM32G4xx_HAL_Driver/Inc/stm32g4xx_ll_cordic.h ****   * @param  CORDICx CORDIC Instance
 710:Drivers/STM32G4xx_HAL_Driver/Inc/stm32g4xx_ll_cordic.h ****   * @retval State of bit (1 or 0).
 711:Drivers/STM32G4xx_HAL_Driver/Inc/stm32g4xx_ll_cordic.h ****   */
 712:Drivers/STM32G4xx_HAL_Driver/Inc/stm32g4xx_ll_cordic.h **** __STATIC_INLINE uint32_t LL_CORDIC_IsActiveFlag_RRDY(CORDIC_TypeDef *CORDICx)
 713:Drivers/STM32G4xx_HAL_Driver/Inc/stm32g4xx_ll_cordic.h **** {
 714:Drivers/STM32G4xx_HAL_Driver/Inc/stm32g4xx_ll_cordic.h ****   return ((READ_BIT(CORDICx->CSR, CORDIC_CSR_RRDY) == (CORDIC_CSR_RRDY)) ? 1U : 0U);
 715:Drivers/STM32G4xx_HAL_Driver/Inc/stm32g4xx_ll_cordic.h **** }
 716:Drivers/STM32G4xx_HAL_Driver/Inc/stm32g4xx_ll_cordic.h **** 
 717:Drivers/STM32G4xx_HAL_Driver/Inc/stm32g4xx_ll_cordic.h **** /**
 718:Drivers/STM32G4xx_HAL_Driver/Inc/stm32g4xx_ll_cordic.h ****   * @}
 719:Drivers/STM32G4xx_HAL_Driver/Inc/stm32g4xx_ll_cordic.h ****   */
 720:Drivers/STM32G4xx_HAL_Driver/Inc/stm32g4xx_ll_cordic.h **** 
 721:Drivers/STM32G4xx_HAL_Driver/Inc/stm32g4xx_ll_cordic.h **** /** @defgroup CORDIC_LL_EF_Data_Management Data_Management
 722:Drivers/STM32G4xx_HAL_Driver/Inc/stm32g4xx_ll_cordic.h ****   * @{
 723:Drivers/STM32G4xx_HAL_Driver/Inc/stm32g4xx_ll_cordic.h ****   */
 724:Drivers/STM32G4xx_HAL_Driver/Inc/stm32g4xx_ll_cordic.h **** 
 725:Drivers/STM32G4xx_HAL_Driver/Inc/stm32g4xx_ll_cordic.h **** /**
 726:Drivers/STM32G4xx_HAL_Driver/Inc/stm32g4xx_ll_cordic.h ****   * @brief  Write 32-bit input data for the CORDIC processing.
 727:Drivers/STM32G4xx_HAL_Driver/Inc/stm32g4xx_ll_cordic.h ****   * @rmtoll WDATA        ARG           LL_CORDIC_WriteData
 728:Drivers/STM32G4xx_HAL_Driver/Inc/stm32g4xx_ll_cordic.h ****   * @param  CORDICx CORDIC Instance
 729:Drivers/STM32G4xx_HAL_Driver/Inc/stm32g4xx_ll_cordic.h ****   * @param  InData 0 .. 0xFFFFFFFF : 32-bit value to be provided as input data for CORDIC processin
 730:Drivers/STM32G4xx_HAL_Driver/Inc/stm32g4xx_ll_cordic.h ****   * @retval None
 731:Drivers/STM32G4xx_HAL_Driver/Inc/stm32g4xx_ll_cordic.h ****   */
 732:Drivers/STM32G4xx_HAL_Driver/Inc/stm32g4xx_ll_cordic.h **** __STATIC_INLINE void LL_CORDIC_WriteData(CORDIC_TypeDef *CORDICx, uint32_t InData)
 430              		.loc 3 732 22 view .LVU177
 431              	.LBB21:
 733:Drivers/STM32G4xx_HAL_Driver/Inc/stm32g4xx_ll_cordic.h **** {
ARM GAS  /tmp/ccLjXLyq.s 			page 42


 734:Drivers/STM32G4xx_HAL_Driver/Inc/stm32g4xx_ll_cordic.h ****   WRITE_REG(CORDICx->WDATA, InData);
 432              		.loc 3 734 3 view .LVU178
 433 014a 7E60     		str	r6, [r7, #4]
 434              	.LVL52:
 435              		.loc 3 734 3 is_stmt 0 view .LVU179
 436              	.LBE21:
 437              	.LBE20:
 331:Inc/mc_math.h ****   LL_CORDIC_WriteData(CORDIC, (uint32_t)wBemf_beta_est);
 438              		.loc 2 331 3 is_stmt 1 view .LVU180
 439              	.LBB22:
 440              	.LBI22:
 732:Drivers/STM32G4xx_HAL_Driver/Inc/stm32g4xx_ll_cordic.h **** {
 441              		.loc 3 732 22 view .LVU181
 442              	.LBB23:
 443              		.loc 3 734 3 view .LVU182
 444 014c 7C60     		str	r4, [r7, #4]
 445              	.LVL53:
 446              		.loc 3 734 3 is_stmt 0 view .LVU183
 447              	.LBE23:
 448              	.LBE22:
 332:Inc/mc_math.h **** 
 333:Inc/mc_math.h ****   /* Read computed angle */
 334:Inc/mc_math.h ****   uint32_t result;
 449              		.loc 2 334 3 is_stmt 1 view .LVU184
 335:Inc/mc_math.h ****   result = LL_CORDIC_ReadData(CORDIC) >> 16U;
 450              		.loc 2 335 3 view .LVU185
 451              	.LBB24:
 452              	.LBI24:
 735:Drivers/STM32G4xx_HAL_Driver/Inc/stm32g4xx_ll_cordic.h **** }
 736:Drivers/STM32G4xx_HAL_Driver/Inc/stm32g4xx_ll_cordic.h **** 
 737:Drivers/STM32G4xx_HAL_Driver/Inc/stm32g4xx_ll_cordic.h **** /**
 738:Drivers/STM32G4xx_HAL_Driver/Inc/stm32g4xx_ll_cordic.h ****   * @brief  Return 32-bit output data of CORDIC processing.
 739:Drivers/STM32G4xx_HAL_Driver/Inc/stm32g4xx_ll_cordic.h ****   * @rmtoll RDATA        RES           LL_CORDIC_ReadData
 740:Drivers/STM32G4xx_HAL_Driver/Inc/stm32g4xx_ll_cordic.h ****   * @param  CORDICx CORDIC Instance
 741:Drivers/STM32G4xx_HAL_Driver/Inc/stm32g4xx_ll_cordic.h ****   * @retval 32-bit output data of CORDIC processing.
 742:Drivers/STM32G4xx_HAL_Driver/Inc/stm32g4xx_ll_cordic.h ****   */
 743:Drivers/STM32G4xx_HAL_Driver/Inc/stm32g4xx_ll_cordic.h **** __STATIC_INLINE uint32_t LL_CORDIC_ReadData(CORDIC_TypeDef *CORDICx)
 453              		.loc 3 743 26 view .LVU186
 454              	.LBB25:
 744:Drivers/STM32G4xx_HAL_Driver/Inc/stm32g4xx_ll_cordic.h **** {
 745:Drivers/STM32G4xx_HAL_Driver/Inc/stm32g4xx_ll_cordic.h ****   return (uint32_t)(READ_REG(CORDICx->RDATA));
 455              		.loc 3 745 3 view .LVU187
 456              		.loc 3 745 10 is_stmt 0 view .LVU188
 457 014e BC68     		ldr	r4, [r7, #8]
 458              	.LVL54:
 459              		.loc 3 745 10 view .LVU189
 460              	.LBE25:
 461              	.LBE24:
 336:Inc/mc_math.h ****   return ((int16_t)result);
 462              		.loc 2 336 3 is_stmt 1 view .LVU190
 463              		.loc 2 336 11 is_stmt 0 view .LVU191
 464 0150 2714     		asrs	r7, r4, #16
 465              	.LVL55:
 466              		.loc 2 336 11 view .LVU192
 467              	.LBE19:
 468              	.LBE18:
 350:MCSDK_v6.0.0-Full/MotorControl/MCSDK/MCLib/Any/Src/sto_cordic_speed_pos_fdbk.c ****     hRotor_Acceleration = hOrRotor_Speed - hPrev_Rotor_Speed;
ARM GAS  /tmp/ccLjXLyq.s 			page 43


 469              		.loc 1 350 5 is_stmt 1 view .LVU193
 350:MCSDK_v6.0.0-Full/MotorControl/MCSDK/MCLib/Any/Src/sto_cordic_speed_pos_fdbk.c ****     hRotor_Acceleration = hOrRotor_Speed - hPrev_Rotor_Speed;
 470              		.loc 1 350 45 is_stmt 0 view .LVU194
 471 0152 BDF810E0 		ldrh	lr, [sp, #16]
 472 0156 CEEB1444 		rsb	r4, lr, r4, lsr #16
 473 015a A6B2     		uxth	r6, r4
 474              	.LVL56:
 350:MCSDK_v6.0.0-Full/MotorControl/MCSDK/MCLib/Any/Src/sto_cordic_speed_pos_fdbk.c ****     hRotor_Acceleration = hOrRotor_Speed - hPrev_Rotor_Speed;
 475              		.loc 1 350 20 view .LVU195
 476 015c 24B2     		sxth	r4, r4
 477              	.LVL57:
 351:MCSDK_v6.0.0-Full/MotorControl/MCSDK/MCLib/Any/Src/sto_cordic_speed_pos_fdbk.c **** 
 478              		.loc 1 351 5 is_stmt 1 view .LVU196
 351:MCSDK_v6.0.0-Full/MotorControl/MCSDK/MCLib/Any/Src/sto_cordic_speed_pos_fdbk.c **** 
 479              		.loc 1 351 42 is_stmt 0 view .LVU197
 480 015e BDF80080 		ldrh	r8, [sp]
 351:MCSDK_v6.0.0-Full/MotorControl/MCSDK/MCLib/Any/Src/sto_cordic_speed_pos_fdbk.c **** 
 481              		.loc 1 351 42 view .LVU198
 482 0162 A6EB0806 		sub	r6, r6, r8
 351:MCSDK_v6.0.0-Full/MotorControl/MCSDK/MCLib/Any/Src/sto_cordic_speed_pos_fdbk.c **** 
 483              		.loc 1 351 25 view .LVU199
 484 0166 36B2     		sxth	r6, r6
 485              	.LVL58:
 353:MCSDK_v6.0.0-Full/MotorControl/MCSDK/MCLib/Any/Src/sto_cordic_speed_pos_fdbk.c **** 
 486              		.loc 1 353 5 is_stmt 1 view .LVU200
 355:MCSDK_v6.0.0-Full/MotorControl/MCSDK/MCLib/Any/Src/sto_cordic_speed_pos_fdbk.c ****     {
 487              		.loc 1 355 5 view .LVU201
 355:MCSDK_v6.0.0-Full/MotorControl/MCSDK/MCLib/Any/Src/sto_cordic_speed_pos_fdbk.c ****     {
 488              		.loc 1 355 8 is_stmt 0 view .LVU202
 489 0168 BCF1010F 		cmp	ip, #1
 490 016c 4DD0     		beq	.L28
 377:MCSDK_v6.0.0-Full/MotorControl/MCSDK/MCLib/Any/Src/sto_cordic_speed_pos_fdbk.c ****       {
 491              		.loc 1 377 7 is_stmt 1 view .LVU203
 377:MCSDK_v6.0.0-Full/MotorControl/MCSDK/MCLib/Any/Src/sto_cordic_speed_pos_fdbk.c ****       {
 492              		.loc 1 377 10 is_stmt 0 view .LVU204
 493 016e 002C     		cmp	r4, #0
 494 0170 5BDD     		ble	.L29
 379:MCSDK_v6.0.0-Full/MotorControl/MCSDK/MCLib/Any/Src/sto_cordic_speed_pos_fdbk.c ****       }
 495              		.loc 1 379 22 view .LVU205
 496 0172 4FF0000C 		mov	ip, #0
 497              	.LVL59:
 498              	.L17:
 397:MCSDK_v6.0.0-Full/MotorControl/MCSDK/MCLib/Any/Src/sto_cordic_speed_pos_fdbk.c ****     {
 499              		.loc 1 397 5 is_stmt 1 view .LVU206
 397:MCSDK_v6.0.0-Full/MotorControl/MCSDK/MCLib/Any/Src/sto_cordic_speed_pos_fdbk.c ****     {
 500              		.loc 1 397 8 is_stmt 0 view .LVU207
 501 0176 B145     		cmp	r9, r6
 502 0178 6ADA     		bge	.L20
 399:MCSDK_v6.0.0-Full/MotorControl/MCSDK/MCLib/Any/Src/sto_cordic_speed_pos_fdbk.c ****     }
 503              		.loc 1 399 7 is_stmt 1 view .LVU208
 399:MCSDK_v6.0.0-Full/MotorControl/MCSDK/MCLib/Any/Src/sto_cordic_speed_pos_fdbk.c ****     }
 504              		.loc 1 399 42 is_stmt 0 view .LVU209
 505 017a 08EB0904 		add	r4, r8, r9
 506              	.LVL60:
 399:MCSDK_v6.0.0-Full/MotorControl/MCSDK/MCLib/Any/Src/sto_cordic_speed_pos_fdbk.c ****     }
 507              		.loc 1 399 22 view .LVU210
 508 017e 24B2     		sxth	r4, r4
ARM GAS  /tmp/ccLjXLyq.s 			page 44


 509              	.LVL61:
 510              	.L21:
 408:MCSDK_v6.0.0-Full/MotorControl/MCSDK/MCLib/Any/Src/sto_cordic_speed_pos_fdbk.c **** 
 511              		.loc 1 408 5 is_stmt 1 view .LVU211
 411:MCSDK_v6.0.0-Full/MotorControl/MCSDK/MCLib/Any/Src/sto_cordic_speed_pos_fdbk.c **** 
 512              		.loc 1 411 5 view .LVU212
 513              	.LBB26:
 514              	.LBI26:
 652:MCSDK_v6.0.0-Full/MotorControl/MCSDK/MCLib/Any/Src/sto_cordic_speed_pos_fdbk.c **** {
 515              		.loc 1 652 20 view .LVU213
 516              	.LBB27:
 654:MCSDK_v6.0.0-Full/MotorControl/MCSDK/MCLib/Any/Src/sto_cordic_speed_pos_fdbk.c **** 
 517              		.loc 1 654 3 view .LVU214
 654:MCSDK_v6.0.0-Full/MotorControl/MCSDK/MCLib/Any/Src/sto_cordic_speed_pos_fdbk.c **** 
 518              		.loc 1 654 11 is_stmt 0 view .LVU215
 519 0180 90F8C860 		ldrb	r6, [r0, #200]	@ zero_extendqisi2
 520              	.LVL62:
 656:MCSDK_v6.0.0-Full/MotorControl/MCSDK/MCLib/Any/Src/sto_cordic_speed_pos_fdbk.c ****   if (bBuffer_index == pHandle->SpeedBufferSizeUnit)
 521              		.loc 1 656 3 is_stmt 1 view .LVU216
 656:MCSDK_v6.0.0-Full/MotorControl/MCSDK/MCLib/Any/Src/sto_cordic_speed_pos_fdbk.c ****   if (bBuffer_index == pHandle->SpeedBufferSizeUnit)
 522              		.loc 1 656 16 is_stmt 0 view .LVU217
 523 0184 0136     		adds	r6, r6, #1
 524              	.LVL63:
 656:MCSDK_v6.0.0-Full/MotorControl/MCSDK/MCLib/Any/Src/sto_cordic_speed_pos_fdbk.c ****   if (bBuffer_index == pHandle->SpeedBufferSizeUnit)
 525              		.loc 1 656 16 view .LVU218
 526 0186 F6B2     		uxtb	r6, r6
 527              	.LVL64:
 657:MCSDK_v6.0.0-Full/MotorControl/MCSDK/MCLib/Any/Src/sto_cordic_speed_pos_fdbk.c ****   {
 528              		.loc 1 657 3 is_stmt 1 view .LVU219
 657:MCSDK_v6.0.0-Full/MotorControl/MCSDK/MCLib/Any/Src/sto_cordic_speed_pos_fdbk.c ****   {
 529              		.loc 1 657 31 is_stmt 0 view .LVU220
 530 0188 90F86C71 		ldrb	r7, [r0, #364]	@ zero_extendqisi2
 657:MCSDK_v6.0.0-Full/MotorControl/MCSDK/MCLib/Any/Src/sto_cordic_speed_pos_fdbk.c ****   {
 531              		.loc 1 657 6 view .LVU221
 532 018c BE42     		cmp	r6, r7
 533 018e 67D0     		beq	.L30
 534              	.LVL65:
 535              	.L22:
 664:MCSDK_v6.0.0-Full/MotorControl/MCSDK/MCLib/Any/Src/sto_cordic_speed_pos_fdbk.c **** 
 536              		.loc 1 664 3 is_stmt 1 view .LVU222
 666:MCSDK_v6.0.0-Full/MotorControl/MCSDK/MCLib/Any/Src/sto_cordic_speed_pos_fdbk.c ****   pHandle->OrigSpeedBufferOldestEl = pHandle->Orig_Speed_Buffer[bBuffer_index];
 537              		.loc 1 666 3 view .LVU223
 666:MCSDK_v6.0.0-Full/MotorControl/MCSDK/MCLib/Any/Src/sto_cordic_speed_pos_fdbk.c ****   pHandle->OrigSpeedBufferOldestEl = pHandle->Orig_Speed_Buffer[bBuffer_index];
 538              		.loc 1 666 55 is_stmt 0 view .LVU224
 539 0190 06F1240E 		add	lr, r6, #36
 540 0194 30F91E70 		ldrsh	r7, [r0, lr, lsl #1]
 666:MCSDK_v6.0.0-Full/MotorControl/MCSDK/MCLib/Any/Src/sto_cordic_speed_pos_fdbk.c ****   pHandle->OrigSpeedBufferOldestEl = pHandle->Orig_Speed_Buffer[bBuffer_index];
 541              		.loc 1 666 32 view .LVU225
 542 0198 A0F86871 		strh	r7, [r0, #360]	@ movhi
 667:MCSDK_v6.0.0-Full/MotorControl/MCSDK/MCLib/Any/Src/sto_cordic_speed_pos_fdbk.c **** 
 543              		.loc 1 667 3 is_stmt 1 view .LVU226
 667:MCSDK_v6.0.0-Full/MotorControl/MCSDK/MCLib/Any/Src/sto_cordic_speed_pos_fdbk.c **** 
 544              		.loc 1 667 64 is_stmt 0 view .LVU227
 545 019c 06F16407 		add	r7, r6, #100
 546 01a0 00EB4707 		add	r7, r0, r7, lsl #1
 547 01a4 B7F90680 		ldrsh	r8, [r7, #6]
 667:MCSDK_v6.0.0-Full/MotorControl/MCSDK/MCLib/Any/Src/sto_cordic_speed_pos_fdbk.c **** 
ARM GAS  /tmp/ccLjXLyq.s 			page 45


 548              		.loc 1 667 36 view .LVU228
 549 01a8 A0F86A81 		strh	r8, [r0, #362]	@ movhi
 669:MCSDK_v6.0.0-Full/MotorControl/MCSDK/MCLib/Any/Src/sto_cordic_speed_pos_fdbk.c ****   pHandle->Orig_Speed_Buffer[bBuffer_index] = hOrRotor_Speed;
 550              		.loc 1 669 3 is_stmt 1 view .LVU229
 669:MCSDK_v6.0.0-Full/MotorControl/MCSDK/MCLib/Any/Src/sto_cordic_speed_pos_fdbk.c ****   pHandle->Orig_Speed_Buffer[bBuffer_index] = hOrRotor_Speed;
 551              		.loc 1 669 40 is_stmt 0 view .LVU230
 552 01ac 20F81EC0 		strh	ip, [r0, lr, lsl #1]	@ movhi
 670:MCSDK_v6.0.0-Full/MotorControl/MCSDK/MCLib/Any/Src/sto_cordic_speed_pos_fdbk.c ****   pHandle->Speed_Buffer_Index = bBuffer_index;
 553              		.loc 1 670 3 is_stmt 1 view .LVU231
 670:MCSDK_v6.0.0-Full/MotorControl/MCSDK/MCLib/Any/Src/sto_cordic_speed_pos_fdbk.c ****   pHandle->Speed_Buffer_Index = bBuffer_index;
 554              		.loc 1 670 45 is_stmt 0 view .LVU232
 555 01b0 FC80     		strh	r4, [r7, #6]	@ movhi
 671:MCSDK_v6.0.0-Full/MotorControl/MCSDK/MCLib/Any/Src/sto_cordic_speed_pos_fdbk.c **** }
 556              		.loc 1 671 3 is_stmt 1 view .LVU233
 671:MCSDK_v6.0.0-Full/MotorControl/MCSDK/MCLib/Any/Src/sto_cordic_speed_pos_fdbk.c **** }
 557              		.loc 1 671 31 is_stmt 0 view .LVU234
 558 01b2 80F8C860 		strb	r6, [r0, #200]
 559              	.LVL66:
 671:MCSDK_v6.0.0-Full/MotorControl/MCSDK/MCLib/Any/Src/sto_cordic_speed_pos_fdbk.c **** }
 560              		.loc 1 671 31 view .LVU235
 561              	.LBE27:
 562              	.LBE26:
 414:MCSDK_v6.0.0-Full/MotorControl/MCSDK/MCLib/Any/Src/sto_cordic_speed_pos_fdbk.c ****     pHandle->wBemf_alfa_est = wBemf_alfa_est_Next;
 563              		.loc 1 414 5 is_stmt 1 view .LVU236
 414:MCSDK_v6.0.0-Full/MotorControl/MCSDK/MCLib/Any/Src/sto_cordic_speed_pos_fdbk.c ****     pHandle->wBemf_alfa_est = wBemf_alfa_est_Next;
 564              		.loc 1 414 24 is_stmt 0 view .LVU237
 565 01b6 079B     		ldr	r3, [sp, #28]
 566 01b8 4363     		str	r3, [r0, #52]
 415:MCSDK_v6.0.0-Full/MotorControl/MCSDK/MCLib/Any/Src/sto_cordic_speed_pos_fdbk.c **** 
 567              		.loc 1 415 5 is_stmt 1 view .LVU238
 415:MCSDK_v6.0.0-Full/MotorControl/MCSDK/MCLib/Any/Src/sto_cordic_speed_pos_fdbk.c **** 
 568              		.loc 1 415 29 is_stmt 0 view .LVU239
 569 01ba C263     		str	r2, [r0, #60]
 417:MCSDK_v6.0.0-Full/MotorControl/MCSDK/MCLib/Any/Src/sto_cordic_speed_pos_fdbk.c ****     pHandle->wBemf_beta_est = wBemf_beta_est_Next;
 570              		.loc 1 417 5 is_stmt 1 view .LVU240
 417:MCSDK_v6.0.0-Full/MotorControl/MCSDK/MCLib/Any/Src/sto_cordic_speed_pos_fdbk.c ****     pHandle->wBemf_beta_est = wBemf_beta_est_Next;
 571              		.loc 1 417 24 is_stmt 0 view .LVU241
 572 01bc 8563     		str	r5, [r0, #56]
 418:MCSDK_v6.0.0-Full/MotorControl/MCSDK/MCLib/Any/Src/sto_cordic_speed_pos_fdbk.c ****     returnvalue = pHandle->_Super.hElAngle;
 573              		.loc 1 418 5 is_stmt 1 view .LVU242
 418:MCSDK_v6.0.0-Full/MotorControl/MCSDK/MCLib/Any/Src/sto_cordic_speed_pos_fdbk.c ****     returnvalue = pHandle->_Super.hElAngle;
 574              		.loc 1 418 29 is_stmt 0 view .LVU243
 575 01be 0164     		str	r1, [r0, #64]
 419:MCSDK_v6.0.0-Full/MotorControl/MCSDK/MCLib/Any/Src/sto_cordic_speed_pos_fdbk.c **** #ifdef NULL_PTR_STO_COR_SPD_POS_FDB
 576              		.loc 1 419 5 is_stmt 1 view .LVU244
 577              	.LVL67:
 423:MCSDK_v6.0.0-Full/MotorControl/MCSDK/MCLib/Any/Src/sto_cordic_speed_pos_fdbk.c **** }
 578              		.loc 1 423 3 view .LVU245
 424:MCSDK_v6.0.0-Full/MotorControl/MCSDK/MCLib/Any/Src/sto_cordic_speed_pos_fdbk.c **** 
 579              		.loc 1 424 1 is_stmt 0 view .LVU246
 580 01c0 B0F90400 		ldrsh	r0, [r0, #4]
 581              	.LVL68:
 424:MCSDK_v6.0.0-Full/MotorControl/MCSDK/MCLib/Any/Src/sto_cordic_speed_pos_fdbk.c **** 
 582              		.loc 1 424 1 view .LVU247
 583 01c4 09B0     		add	sp, sp, #36
 584              		.cfi_remember_state
 585              		.cfi_def_cfa_offset 36
ARM GAS  /tmp/ccLjXLyq.s 			page 46


 586              		@ sp needed
 587 01c6 BDE8F08F 		pop	{r4, r5, r6, r7, r8, r9, r10, fp, pc}
 588              	.LVL69:
 589              	.L7:
 590              		.cfi_restore_state
 170:MCSDK_v6.0.0-Full/MotorControl/MCSDK/MCLib/Any/Src/sto_cordic_speed_pos_fdbk.c ****     {
 591              		.loc 1 170 10 is_stmt 1 view .LVU248
 170:MCSDK_v6.0.0-Full/MotorControl/MCSDK/MCLib/Any/Src/sto_cordic_speed_pos_fdbk.c ****     {
 592              		.loc 1 170 53 is_stmt 0 view .LVU249
 593 01ca A3EBC335 		sub	r5, r3, r3, lsl #15
 170:MCSDK_v6.0.0-Full/MotorControl/MCSDK/MCLib/Any/Src/sto_cordic_speed_pos_fdbk.c ****     {
 594              		.loc 1 170 13 view .LVU250
 595 01ce AC42     		cmp	r4, r5
 596 01d0 3FF72AAF 		bgt	.L8
 172:MCSDK_v6.0.0-Full/MotorControl/MCSDK/MCLib/Any/Src/sto_cordic_speed_pos_fdbk.c ****     }
 597              		.loc 1 172 7 is_stmt 1 view .LVU251
 172:MCSDK_v6.0.0-Full/MotorControl/MCSDK/MCLib/Any/Src/sto_cordic_speed_pos_fdbk.c ****     }
 598              		.loc 1 172 31 is_stmt 0 view .LVU252
 599 01d4 C563     		str	r5, [r0, #60]
 600 01d6 27E7     		b	.L8
 601              	.LVL70:
 602              	.L9:
 189:MCSDK_v6.0.0-Full/MotorControl/MCSDK/MCLib/Any/Src/sto_cordic_speed_pos_fdbk.c ****     {
 603              		.loc 1 189 10 is_stmt 1 view .LVU253
 189:MCSDK_v6.0.0-Full/MotorControl/MCSDK/MCLib/Any/Src/sto_cordic_speed_pos_fdbk.c ****     {
 604              		.loc 1 189 53 is_stmt 0 view .LVU254
 605 01d8 A3EBC333 		sub	r3, r3, r3, lsl #15
 189:MCSDK_v6.0.0-Full/MotorControl/MCSDK/MCLib/Any/Src/sto_cordic_speed_pos_fdbk.c ****     {
 606              		.loc 1 189 13 view .LVU255
 607 01dc 9D42     		cmp	r5, r3
 608 01de 3FF72EAF 		bgt	.L10
 191:MCSDK_v6.0.0-Full/MotorControl/MCSDK/MCLib/Any/Src/sto_cordic_speed_pos_fdbk.c ****     }
 609              		.loc 1 191 7 is_stmt 1 view .LVU256
 191:MCSDK_v6.0.0-Full/MotorControl/MCSDK/MCLib/Any/Src/sto_cordic_speed_pos_fdbk.c ****     }
 610              		.loc 1 191 31 is_stmt 0 view .LVU257
 611 01e2 0364     		str	r3, [r0, #64]
 612 01e4 2BE7     		b	.L10
 613              	.LVL71:
 614              	.L11:
 208:MCSDK_v6.0.0-Full/MotorControl/MCSDK/MCLib/Any/Src/sto_cordic_speed_pos_fdbk.c ****     {
 615              		.loc 1 208 10 is_stmt 1 view .LVU258
 208:MCSDK_v6.0.0-Full/MotorControl/MCSDK/MCLib/Any/Src/sto_cordic_speed_pos_fdbk.c ****     {
 616              		.loc 1 208 48 is_stmt 0 view .LVU259
 617 01e6 A3EBC33C 		sub	ip, r3, r3, lsl #15
 208:MCSDK_v6.0.0-Full/MotorControl/MCSDK/MCLib/Any/Src/sto_cordic_speed_pos_fdbk.c ****     {
 618              		.loc 1 208 13 view .LVU260
 619 01ea 6545     		cmp	r5, ip
 620 01ec 3FF735AF 		bgt	.L12
 210:MCSDK_v6.0.0-Full/MotorControl/MCSDK/MCLib/Any/Src/sto_cordic_speed_pos_fdbk.c ****     }
 621              		.loc 1 210 7 is_stmt 1 view .LVU261
 210:MCSDK_v6.0.0-Full/MotorControl/MCSDK/MCLib/Any/Src/sto_cordic_speed_pos_fdbk.c ****     }
 622              		.loc 1 210 26 is_stmt 0 view .LVU262
 623 01f0 C0F834C0 		str	ip, [r0, #52]
 624 01f4 31E7     		b	.L12
 625              	.L13:
 221:MCSDK_v6.0.0-Full/MotorControl/MCSDK/MCLib/Any/Src/sto_cordic_speed_pos_fdbk.c ****     {
 626              		.loc 1 221 10 is_stmt 1 view .LVU263
ARM GAS  /tmp/ccLjXLyq.s 			page 47


 221:MCSDK_v6.0.0-Full/MotorControl/MCSDK/MCLib/Any/Src/sto_cordic_speed_pos_fdbk.c ****     {
 627              		.loc 1 221 48 is_stmt 0 view .LVU264
 628 01f6 A3EBC333 		sub	r3, r3, r3, lsl #15
 221:MCSDK_v6.0.0-Full/MotorControl/MCSDK/MCLib/Any/Src/sto_cordic_speed_pos_fdbk.c ****     {
 629              		.loc 1 221 13 view .LVU265
 630 01fa 9D42     		cmp	r5, r3
 631 01fc 3FF732AF 		bgt	.L14
 223:MCSDK_v6.0.0-Full/MotorControl/MCSDK/MCLib/Any/Src/sto_cordic_speed_pos_fdbk.c ****     }
 632              		.loc 1 223 7 is_stmt 1 view .LVU266
 223:MCSDK_v6.0.0-Full/MotorControl/MCSDK/MCLib/Any/Src/sto_cordic_speed_pos_fdbk.c ****     }
 633              		.loc 1 223 26 is_stmt 0 view .LVU267
 634 0200 8363     		str	r3, [r0, #56]
 635 0202 2FE7     		b	.L14
 636              	.LVL72:
 637              	.L23:
 337:MCSDK_v6.0.0-Full/MotorControl/MCSDK/MCLib/Any/Src/sto_cordic_speed_pos_fdbk.c ****     }
 638              		.loc 1 337 18 view .LVU268
 639 0204 4FF0FF3C 		mov	ip, #-1
 640 0208 91E7     		b	.L15
 641              	.LVL73:
 642              	.L28:
 357:MCSDK_v6.0.0-Full/MotorControl/MCSDK/MCLib/Any/Src/sto_cordic_speed_pos_fdbk.c ****       {
 643              		.loc 1 357 7 is_stmt 1 view .LVU269
 357:MCSDK_v6.0.0-Full/MotorControl/MCSDK/MCLib/Any/Src/sto_cordic_speed_pos_fdbk.c ****       {
 644              		.loc 1 357 10 is_stmt 0 view .LVU270
 645 020a 002C     		cmp	r4, #0
 646 020c 1DDB     		blt	.L24
 363:MCSDK_v6.0.0-Full/MotorControl/MCSDK/MCLib/Any/Src/sto_cordic_speed_pos_fdbk.c ****         {
 647              		.loc 1 363 9 is_stmt 1 view .LVU271
 363:MCSDK_v6.0.0-Full/MotorControl/MCSDK/MCLib/Any/Src/sto_cordic_speed_pos_fdbk.c ****         {
 648              		.loc 1 363 12 is_stmt 0 view .LVU272
 649 020e B145     		cmp	r9, r6
 650 0210 08DA     		bge	.L18
 365:MCSDK_v6.0.0-Full/MotorControl/MCSDK/MCLib/Any/Src/sto_cordic_speed_pos_fdbk.c **** 
 651              		.loc 1 365 11 is_stmt 1 view .LVU273
 365:MCSDK_v6.0.0-Full/MotorControl/MCSDK/MCLib/Any/Src/sto_cordic_speed_pos_fdbk.c **** 
 652              		.loc 1 365 44 is_stmt 0 view .LVU274
 653 0212 08EB0907 		add	r7, r8, r9
 654              	.LVL74:
 365:MCSDK_v6.0.0-Full/MotorControl/MCSDK/MCLib/Any/Src/sto_cordic_speed_pos_fdbk.c **** 
 655              		.loc 1 365 24 view .LVU275
 656 0216 0FFA87FC 		sxth	ip, r7
 657              	.LVL75:
 367:MCSDK_v6.0.0-Full/MotorControl/MCSDK/MCLib/Any/Src/sto_cordic_speed_pos_fdbk.c ****         }
 658              		.loc 1 367 11 is_stmt 1 view .LVU276
 367:MCSDK_v6.0.0-Full/MotorControl/MCSDK/MCLib/Any/Src/sto_cordic_speed_pos_fdbk.c ****         }
 659              		.loc 1 367 56 is_stmt 0 view .LVU277
 660 021a 1EFA87FE 		uxtah	lr, lr, r7
 367:MCSDK_v6.0.0-Full/MotorControl/MCSDK/MCLib/Any/Src/sto_cordic_speed_pos_fdbk.c ****         }
 661              		.loc 1 367 36 view .LVU278
 662 021e A0F804E0 		strh	lr, [r0, #4]	@ movhi
 663              	.LVL76:
 367:MCSDK_v6.0.0-Full/MotorControl/MCSDK/MCLib/Any/Src/sto_cordic_speed_pos_fdbk.c ****         }
 664              		.loc 1 367 36 view .LVU279
 665 0222 A8E7     		b	.L17
 666              	.LVL77:
 667              	.L18:
ARM GAS  /tmp/ccLjXLyq.s 			page 48


 371:MCSDK_v6.0.0-Full/MotorControl/MCSDK/MCLib/Any/Src/sto_cordic_speed_pos_fdbk.c ****         }
 668              		.loc 1 371 11 is_stmt 1 view .LVU280
 371:MCSDK_v6.0.0-Full/MotorControl/MCSDK/MCLib/Any/Src/sto_cordic_speed_pos_fdbk.c ****         }
 669              		.loc 1 371 36 is_stmt 0 view .LVU281
 670 0224 8780     		strh	r7, [r0, #4]	@ movhi
 671              	.LVL78:
 353:MCSDK_v6.0.0-Full/MotorControl/MCSDK/MCLib/Any/Src/sto_cordic_speed_pos_fdbk.c **** 
 672              		.loc 1 353 18 view .LVU282
 673 0226 A446     		mov	ip, r4
 674              	.LVL79:
 353:MCSDK_v6.0.0-Full/MotorControl/MCSDK/MCLib/Any/Src/sto_cordic_speed_pos_fdbk.c **** 
 675              		.loc 1 353 18 view .LVU283
 676 0228 A5E7     		b	.L17
 677              	.LVL80:
 678              	.L29:
 383:MCSDK_v6.0.0-Full/MotorControl/MCSDK/MCLib/Any/Src/sto_cordic_speed_pos_fdbk.c ****         {
 679              		.loc 1 383 9 is_stmt 1 view .LVU284
 383:MCSDK_v6.0.0-Full/MotorControl/MCSDK/MCLib/Any/Src/sto_cordic_speed_pos_fdbk.c ****         {
 680              		.loc 1 383 36 is_stmt 0 view .LVU285
 681 022a C9F1000C 		rsb	ip, r9, #0
 682              	.LVL81:
 383:MCSDK_v6.0.0-Full/MotorControl/MCSDK/MCLib/Any/Src/sto_cordic_speed_pos_fdbk.c ****         {
 683              		.loc 1 383 12 view .LVU286
 684 022e 6645     		cmp	r6, ip
 685 0230 08DA     		bge	.L19
 385:MCSDK_v6.0.0-Full/MotorControl/MCSDK/MCLib/Any/Src/sto_cordic_speed_pos_fdbk.c **** 
 686              		.loc 1 385 11 is_stmt 1 view .LVU287
 385:MCSDK_v6.0.0-Full/MotorControl/MCSDK/MCLib/Any/Src/sto_cordic_speed_pos_fdbk.c **** 
 687              		.loc 1 385 44 is_stmt 0 view .LVU288
 688 0232 A8EB0907 		sub	r7, r8, r9
 689              	.LVL82:
 385:MCSDK_v6.0.0-Full/MotorControl/MCSDK/MCLib/Any/Src/sto_cordic_speed_pos_fdbk.c **** 
 690              		.loc 1 385 24 view .LVU289
 691 0236 0FFA87FC 		sxth	ip, r7
 692              	.LVL83:
 387:MCSDK_v6.0.0-Full/MotorControl/MCSDK/MCLib/Any/Src/sto_cordic_speed_pos_fdbk.c ****         }
 693              		.loc 1 387 11 is_stmt 1 view .LVU290
 387:MCSDK_v6.0.0-Full/MotorControl/MCSDK/MCLib/Any/Src/sto_cordic_speed_pos_fdbk.c ****         }
 694              		.loc 1 387 56 is_stmt 0 view .LVU291
 695 023a 1EFA87FE 		uxtah	lr, lr, r7
 387:MCSDK_v6.0.0-Full/MotorControl/MCSDK/MCLib/Any/Src/sto_cordic_speed_pos_fdbk.c ****         }
 696              		.loc 1 387 36 view .LVU292
 697 023e A0F804E0 		strh	lr, [r0, #4]	@ movhi
 698              	.LVL84:
 387:MCSDK_v6.0.0-Full/MotorControl/MCSDK/MCLib/Any/Src/sto_cordic_speed_pos_fdbk.c ****         }
 699              		.loc 1 387 36 view .LVU293
 700 0242 98E7     		b	.L17
 701              	.LVL85:
 702              	.L19:
 391:MCSDK_v6.0.0-Full/MotorControl/MCSDK/MCLib/Any/Src/sto_cordic_speed_pos_fdbk.c ****         }
 703              		.loc 1 391 11 is_stmt 1 view .LVU294
 391:MCSDK_v6.0.0-Full/MotorControl/MCSDK/MCLib/Any/Src/sto_cordic_speed_pos_fdbk.c ****         }
 704              		.loc 1 391 36 is_stmt 0 view .LVU295
 705 0244 8780     		strh	r7, [r0, #4]	@ movhi
 706              	.LVL86:
 353:MCSDK_v6.0.0-Full/MotorControl/MCSDK/MCLib/Any/Src/sto_cordic_speed_pos_fdbk.c **** 
 707              		.loc 1 353 18 view .LVU296
ARM GAS  /tmp/ccLjXLyq.s 			page 49


 708 0246 A446     		mov	ip, r4
 709 0248 95E7     		b	.L17
 710              	.LVL87:
 711              	.L24:
 359:MCSDK_v6.0.0-Full/MotorControl/MCSDK/MCLib/Any/Src/sto_cordic_speed_pos_fdbk.c ****       }
 712              		.loc 1 359 22 view .LVU297
 713 024a 4FF0000C 		mov	ip, #0
 714              	.LVL88:
 359:MCSDK_v6.0.0-Full/MotorControl/MCSDK/MCLib/Any/Src/sto_cordic_speed_pos_fdbk.c ****       }
 715              		.loc 1 359 22 view .LVU298
 716 024e 92E7     		b	.L17
 717              	.LVL89:
 718              	.L20:
 401:MCSDK_v6.0.0-Full/MotorControl/MCSDK/MCLib/Any/Src/sto_cordic_speed_pos_fdbk.c ****     {
 719              		.loc 1 401 10 is_stmt 1 view .LVU299
 401:MCSDK_v6.0.0-Full/MotorControl/MCSDK/MCLib/Any/Src/sto_cordic_speed_pos_fdbk.c ****     {
 720              		.loc 1 401 37 is_stmt 0 view .LVU300
 721 0250 C9F10007 		rsb	r7, r9, #0
 401:MCSDK_v6.0.0-Full/MotorControl/MCSDK/MCLib/Any/Src/sto_cordic_speed_pos_fdbk.c ****     {
 722              		.loc 1 401 13 view .LVU301
 723 0254 BE42     		cmp	r6, r7
 724 0256 93DA     		bge	.L21
 403:MCSDK_v6.0.0-Full/MotorControl/MCSDK/MCLib/Any/Src/sto_cordic_speed_pos_fdbk.c ****     }
 725              		.loc 1 403 7 is_stmt 1 view .LVU302
 403:MCSDK_v6.0.0-Full/MotorControl/MCSDK/MCLib/Any/Src/sto_cordic_speed_pos_fdbk.c ****     }
 726              		.loc 1 403 42 is_stmt 0 view .LVU303
 727 0258 A8EB0904 		sub	r4, r8, r9
 728              	.LVL90:
 403:MCSDK_v6.0.0-Full/MotorControl/MCSDK/MCLib/Any/Src/sto_cordic_speed_pos_fdbk.c ****     }
 729              		.loc 1 403 22 view .LVU304
 730 025c 24B2     		sxth	r4, r4
 731              	.LVL91:
 403:MCSDK_v6.0.0-Full/MotorControl/MCSDK/MCLib/Any/Src/sto_cordic_speed_pos_fdbk.c ****     }
 732              		.loc 1 403 22 view .LVU305
 733 025e 8FE7     		b	.L21
 734              	.LVL92:
 735              	.L30:
 736              	.LBB29:
 737              	.LBB28:
 659:MCSDK_v6.0.0-Full/MotorControl/MCSDK/MCLib/Any/Src/sto_cordic_speed_pos_fdbk.c ****   }
 738              		.loc 1 659 19 view .LVU306
 739 0260 0026     		movs	r6, #0
 740              	.LVL93:
 659:MCSDK_v6.0.0-Full/MotorControl/MCSDK/MCLib/Any/Src/sto_cordic_speed_pos_fdbk.c ****   }
 741              		.loc 1 659 19 view .LVU307
 742 0262 95E7     		b	.L22
 743              	.L32:
 744              		.align	2
 745              	.L31:
 746 0264 000C0240 		.word	1073875968
 747 0268 62001000 		.word	1048674
 748              	.LBE28:
 749              	.LBE29:
 750              		.cfi_endproc
 751              	.LFE1438:
 753              		.section	.text.STO_CR_CalcAvrgMecSpeedUnit,"ax",%progbits
 754              		.align	1
ARM GAS  /tmp/ccLjXLyq.s 			page 50


 755              		.weak	STO_CR_CalcAvrgMecSpeedUnit
 756              		.syntax unified
 757              		.thumb
 758              		.thumb_func
 759              		.fpu fpv4-sp-d16
 761              	STO_CR_CalcAvrgMecSpeedUnit:
 762              	.LVL94:
 763              	.LFB1439:
 448:MCSDK_v6.0.0-Full/MotorControl/MCSDK/MCLib/Any/Src/sto_cordic_speed_pos_fdbk.c ****   bool bAux = false;
 764              		.loc 1 448 1 is_stmt 1 view -0
 765              		.cfi_startproc
 766              		@ args = 0, pretend = 0, frame = 0
 767              		@ frame_needed = 0, uses_anonymous_args = 0
 448:MCSDK_v6.0.0-Full/MotorControl/MCSDK/MCLib/Any/Src/sto_cordic_speed_pos_fdbk.c ****   bool bAux = false;
 768              		.loc 1 448 1 is_stmt 0 view .LVU309
 769 0000 2DE9F84F 		push	{r3, r4, r5, r6, r7, r8, r9, r10, fp, lr}
 770              		.cfi_def_cfa_offset 40
 771              		.cfi_offset 3, -40
 772              		.cfi_offset 4, -36
 773              		.cfi_offset 5, -32
 774              		.cfi_offset 6, -28
 775              		.cfi_offset 7, -24
 776              		.cfi_offset 8, -20
 777              		.cfi_offset 9, -16
 778              		.cfi_offset 10, -12
 779              		.cfi_offset 11, -8
 780              		.cfi_offset 14, -4
 449:MCSDK_v6.0.0-Full/MotorControl/MCSDK/MCLib/Any/Src/sto_cordic_speed_pos_fdbk.c **** #ifdef NULL_PTR_STO_COR_SPD_POS_FDB
 781              		.loc 1 449 3 is_stmt 1 view .LVU310
 782              	.LVL95:
 458:MCSDK_v6.0.0-Full/MotorControl/MCSDK/MCLib/Any/Src/sto_cordic_speed_pos_fdbk.c ****     uint8_t bSpeedBufferSizeUnit = pHandle->SpeedBufferSizeUnit;
 783              		.loc 1 458 5 view .LVU311
 459:MCSDK_v6.0.0-Full/MotorControl/MCSDK/MCLib/Any/Src/sto_cordic_speed_pos_fdbk.c ****     bool bIs_Speed_Reliable = false;
 784              		.loc 1 459 5 view .LVU312
 459:MCSDK_v6.0.0-Full/MotorControl/MCSDK/MCLib/Any/Src/sto_cordic_speed_pos_fdbk.c ****     bool bIs_Speed_Reliable = false;
 785              		.loc 1 459 13 is_stmt 0 view .LVU313
 786 0004 90F86C51 		ldrb	r5, [r0, #364]	@ zero_extendqisi2
 787              	.LVL96:
 460:MCSDK_v6.0.0-Full/MotorControl/MCSDK/MCLib/Any/Src/sto_cordic_speed_pos_fdbk.c **** 
 788              		.loc 1 460 5 is_stmt 1 view .LVU314
 462:MCSDK_v6.0.0-Full/MotorControl/MCSDK/MCLib/Any/Src/sto_cordic_speed_pos_fdbk.c ****     int32_t wError, wAux, wAvrSquareSpeed;
 789              		.loc 1 462 5 view .LVU315
 463:MCSDK_v6.0.0-Full/MotorControl/MCSDK/MCLib/Any/Src/sto_cordic_speed_pos_fdbk.c ****     int32_t wAvrQuadraticError = 0;
 790              		.loc 1 463 5 view .LVU316
 464:MCSDK_v6.0.0-Full/MotorControl/MCSDK/MCLib/Any/Src/sto_cordic_speed_pos_fdbk.c ****     int32_t wObsBemf, wEstBemf;
 791              		.loc 1 464 5 view .LVU317
 465:MCSDK_v6.0.0-Full/MotorControl/MCSDK/MCLib/Any/Src/sto_cordic_speed_pos_fdbk.c ****     int32_t wObsBemfSq = 0;
 792              		.loc 1 465 5 view .LVU318
 466:MCSDK_v6.0.0-Full/MotorControl/MCSDK/MCLib/Any/Src/sto_cordic_speed_pos_fdbk.c ****     int32_t wEstBemfSq = 0;
 793              		.loc 1 466 5 view .LVU319
 467:MCSDK_v6.0.0-Full/MotorControl/MCSDK/MCLib/Any/Src/sto_cordic_speed_pos_fdbk.c ****     int32_t wEstBemfSqLo;
 794              		.loc 1 467 5 view .LVU320
 468:MCSDK_v6.0.0-Full/MotorControl/MCSDK/MCLib/Any/Src/sto_cordic_speed_pos_fdbk.c ****     /* false positive */
 795              		.loc 1 468 5 view .LVU321
 471:MCSDK_v6.0.0-Full/MotorControl/MCSDK/MCLib/Any/Src/sto_cordic_speed_pos_fdbk.c **** 
 796              		.loc 1 471 5 view .LVU322
 473:MCSDK_v6.0.0-Full/MotorControl/MCSDK/MCLib/Any/Src/sto_cordic_speed_pos_fdbk.c ****     {
ARM GAS  /tmp/ccLjXLyq.s 			page 51


 797              		.loc 1 473 5 view .LVU323
 462:MCSDK_v6.0.0-Full/MotorControl/MCSDK/MCLib/Any/Src/sto_cordic_speed_pos_fdbk.c ****     int32_t wError, wAux, wAvrSquareSpeed;
 798              		.loc 1 462 13 is_stmt 0 view .LVU324
 799 0008 0022     		movs	r2, #0
 473:MCSDK_v6.0.0-Full/MotorControl/MCSDK/MCLib/Any/Src/sto_cordic_speed_pos_fdbk.c ****     {
 800              		.loc 1 473 12 view .LVU325
 801 000a 1346     		mov	r3, r2
 802              	.LVL97:
 803              	.L34:
 473:MCSDK_v6.0.0-Full/MotorControl/MCSDK/MCLib/Any/Src/sto_cordic_speed_pos_fdbk.c ****     {
 804              		.loc 1 473 18 is_stmt 1 discriminator 1 view .LVU326
 473:MCSDK_v6.0.0-Full/MotorControl/MCSDK/MCLib/Any/Src/sto_cordic_speed_pos_fdbk.c ****     {
 805              		.loc 1 473 5 is_stmt 0 discriminator 1 view .LVU327
 806 000c AB42     		cmp	r3, r5
 807 000e 07D2     		bcs	.L54
 475:MCSDK_v6.0.0-Full/MotorControl/MCSDK/MCLib/Any/Src/sto_cordic_speed_pos_fdbk.c ****     }
 808              		.loc 1 475 7 is_stmt 1 discriminator 3 view .LVU328
 475:MCSDK_v6.0.0-Full/MotorControl/MCSDK/MCLib/Any/Src/sto_cordic_speed_pos_fdbk.c ****     }
 809              		.loc 1 475 55 is_stmt 0 discriminator 3 view .LVU329
 810 0010 03F12404 		add	r4, r3, #36
 811 0014 30F91440 		ldrsh	r4, [r0, r4, lsl #1]
 475:MCSDK_v6.0.0-Full/MotorControl/MCSDK/MCLib/Any/Src/sto_cordic_speed_pos_fdbk.c ****     }
 812              		.loc 1 475 21 discriminator 3 view .LVU330
