ARM GAS  /tmp/ccl72mIK.s 			page 1


   1              		.cpu cortex-m4
   2              		.eabi_attribute 27, 1
   3              		.eabi_attribute 28, 1
   4              		.eabi_attribute 20, 1
   5              		.eabi_attribute 21, 1
   6              		.eabi_attribute 23, 3
   7              		.eabi_attribute 24, 1
   8              		.eabi_attribute 25, 1
   9              		.eabi_attribute 26, 1
  10              		.eabi_attribute 30, 1
  11              		.eabi_attribute 34, 1
  12              		.eabi_attribute 18, 4
  13              		.file	"sto_pll_speed_pos_fdbk.c"
  14              		.text
  15              	.Ltext0:
  16              		.cfi_sections	.debug_frame
  17              		.section	.text.STO_InitSpeedBuffer,"ax",%progbits
  18              		.align	1
  19              		.arch armv7e-m
  20              		.syntax unified
  21              		.thumb
  22              		.thumb_func
  23              		.fpu fpv4-sp-d16
  25              	STO_InitSpeedBuffer:
  26              	.LVL0:
  27              	.LFB1445:
  28              		.file 1 "MCSDK_v6.0.0-Full/MotorControl/MCSDK/MCLib/Any/Src/sto_pll_speed_pos_fdbk.c"
   1:MCSDK_v6.0.0-Full/MotorControl/MCSDK/MCLib/Any/Src/sto_pll_speed_pos_fdbk.c **** /**
   2:MCSDK_v6.0.0-Full/MotorControl/MCSDK/MCLib/Any/Src/sto_pll_speed_pos_fdbk.c ****   ******************************************************************************
   3:MCSDK_v6.0.0-Full/MotorControl/MCSDK/MCLib/Any/Src/sto_pll_speed_pos_fdbk.c ****   * @file    sto_pll_speed_pos_fdbk.c
   4:MCSDK_v6.0.0-Full/MotorControl/MCSDK/MCLib/Any/Src/sto_pll_speed_pos_fdbk.c ****   * @author  Motor Control SDK Team, ST Microelectronics
   5:MCSDK_v6.0.0-Full/MotorControl/MCSDK/MCLib/Any/Src/sto_pll_speed_pos_fdbk.c ****   * @brief   This file provides firmware functions that implement the features
   6:MCSDK_v6.0.0-Full/MotorControl/MCSDK/MCLib/Any/Src/sto_pll_speed_pos_fdbk.c ****   *          of the State Observer + PLL Speed & Position Feedback component of the
   7:MCSDK_v6.0.0-Full/MotorControl/MCSDK/MCLib/Any/Src/sto_pll_speed_pos_fdbk.c ****   *          Motor Control SDK.
   8:MCSDK_v6.0.0-Full/MotorControl/MCSDK/MCLib/Any/Src/sto_pll_speed_pos_fdbk.c ****   *
   9:MCSDK_v6.0.0-Full/MotorControl/MCSDK/MCLib/Any/Src/sto_pll_speed_pos_fdbk.c ****   ******************************************************************************
  10:MCSDK_v6.0.0-Full/MotorControl/MCSDK/MCLib/Any/Src/sto_pll_speed_pos_fdbk.c ****   * @attention
  11:MCSDK_v6.0.0-Full/MotorControl/MCSDK/MCLib/Any/Src/sto_pll_speed_pos_fdbk.c ****   *
  12:MCSDK_v6.0.0-Full/MotorControl/MCSDK/MCLib/Any/Src/sto_pll_speed_pos_fdbk.c ****   * <h2><center>&copy; Copyright (c) 2022 STMicroelectronics International N.V.
  13:MCSDK_v6.0.0-Full/MotorControl/MCSDK/MCLib/Any/Src/sto_pll_speed_pos_fdbk.c ****   * All rights reserved.</center></h2>
  14:MCSDK_v6.0.0-Full/MotorControl/MCSDK/MCLib/Any/Src/sto_pll_speed_pos_fdbk.c ****   *
  15:MCSDK_v6.0.0-Full/MotorControl/MCSDK/MCLib/Any/Src/sto_pll_speed_pos_fdbk.c ****   * Redistribution and use in source and binary forms, with or without
  16:MCSDK_v6.0.0-Full/MotorControl/MCSDK/MCLib/Any/Src/sto_pll_speed_pos_fdbk.c ****   * modification, are permitted, provided that the following conditions are met:
  17:MCSDK_v6.0.0-Full/MotorControl/MCSDK/MCLib/Any/Src/sto_pll_speed_pos_fdbk.c ****   *
  18:MCSDK_v6.0.0-Full/MotorControl/MCSDK/MCLib/Any/Src/sto_pll_speed_pos_fdbk.c ****   * 1. Redistribution of source code must retain the above copyright notice,
  19:MCSDK_v6.0.0-Full/MotorControl/MCSDK/MCLib/Any/Src/sto_pll_speed_pos_fdbk.c ****   *    this list of conditions and the following disclaimer.
  20:MCSDK_v6.0.0-Full/MotorControl/MCSDK/MCLib/Any/Src/sto_pll_speed_pos_fdbk.c ****   * 2. Redistributions in binary form must reproduce the above copyright notice,
  21:MCSDK_v6.0.0-Full/MotorControl/MCSDK/MCLib/Any/Src/sto_pll_speed_pos_fdbk.c ****   *    this list of conditions and the following disclaimer in the documentation
  22:MCSDK_v6.0.0-Full/MotorControl/MCSDK/MCLib/Any/Src/sto_pll_speed_pos_fdbk.c ****   *    and/or other materials provided with the distribution.
  23:MCSDK_v6.0.0-Full/MotorControl/MCSDK/MCLib/Any/Src/sto_pll_speed_pos_fdbk.c ****   * 3. Neither the name of STMicroelectronics nor the names of other
  24:MCSDK_v6.0.0-Full/MotorControl/MCSDK/MCLib/Any/Src/sto_pll_speed_pos_fdbk.c ****   *    contributors to this software may be used to endorse or promote products
  25:MCSDK_v6.0.0-Full/MotorControl/MCSDK/MCLib/Any/Src/sto_pll_speed_pos_fdbk.c ****   *    derived from this software without specific written permission.
  26:MCSDK_v6.0.0-Full/MotorControl/MCSDK/MCLib/Any/Src/sto_pll_speed_pos_fdbk.c ****   * 4. This software, including modifications and/or derivative works of this
  27:MCSDK_v6.0.0-Full/MotorControl/MCSDK/MCLib/Any/Src/sto_pll_speed_pos_fdbk.c ****   *    software, must execute solely and exclusively on microcontroller or
  28:MCSDK_v6.0.0-Full/MotorControl/MCSDK/MCLib/Any/Src/sto_pll_speed_pos_fdbk.c ****   *    microprocessor devices manufactured by or for STMicroelectronics.
  29:MCSDK_v6.0.0-Full/MotorControl/MCSDK/MCLib/Any/Src/sto_pll_speed_pos_fdbk.c ****   * 5. Redistribution and use of this software other than as permitted under
  30:MCSDK_v6.0.0-Full/MotorControl/MCSDK/MCLib/Any/Src/sto_pll_speed_pos_fdbk.c ****   *    this license is void and will automatically terminate your rights under
ARM GAS  /tmp/ccl72mIK.s 			page 2


  31:MCSDK_v6.0.0-Full/MotorControl/MCSDK/MCLib/Any/Src/sto_pll_speed_pos_fdbk.c ****   *    this license.
  32:MCSDK_v6.0.0-Full/MotorControl/MCSDK/MCLib/Any/Src/sto_pll_speed_pos_fdbk.c ****   *
  33:MCSDK_v6.0.0-Full/MotorControl/MCSDK/MCLib/Any/Src/sto_pll_speed_pos_fdbk.c ****   * THIS SOFTWARE IS PROVIDED BY STMICROELECTRONICS AND CONTRIBUTORS "AS IS"
  34:MCSDK_v6.0.0-Full/MotorControl/MCSDK/MCLib/Any/Src/sto_pll_speed_pos_fdbk.c ****   * AND ANY EXPRESS, IMPLIED OR STATUTORY WARRANTIES, INCLUDING, BUT NOT
  35:MCSDK_v6.0.0-Full/MotorControl/MCSDK/MCLib/Any/Src/sto_pll_speed_pos_fdbk.c ****   * LIMITED TO, THE IMPLIED WARRANTIES OF MERCHANTABILITY, FITNESS FOR A
  36:MCSDK_v6.0.0-Full/MotorControl/MCSDK/MCLib/Any/Src/sto_pll_speed_pos_fdbk.c ****   * PARTICULAR PURPOSE AND NON-INFRINGEMENT OF THIRD PARTY INTELLECTUAL PROPERTY
  37:MCSDK_v6.0.0-Full/MotorControl/MCSDK/MCLib/Any/Src/sto_pll_speed_pos_fdbk.c ****   * RIGHTS ARE DISCLAIMED TO THE FULLEST EXTENT PERMITTED BY LAW. IN NO EVENT
  38:MCSDK_v6.0.0-Full/MotorControl/MCSDK/MCLib/Any/Src/sto_pll_speed_pos_fdbk.c ****   * SHALL STMICROELECTRONICS OR CONTRIBUTORS BE LIABLE FOR ANY DIRECT, INDIRECT,
  39:MCSDK_v6.0.0-Full/MotorControl/MCSDK/MCLib/Any/Src/sto_pll_speed_pos_fdbk.c ****   * INCIDENTAL, SPECIAL, EXEMPLARY, OR CONSEQUENTIAL DAMAGES (INCLUDING, BUT NOT
  40:MCSDK_v6.0.0-Full/MotorControl/MCSDK/MCLib/Any/Src/sto_pll_speed_pos_fdbk.c ****   * LIMITED TO, PROCUREMENT OF SUBSTITUTE GOODS OR SERVICES; LOSS OF USE, DATA,
  41:MCSDK_v6.0.0-Full/MotorControl/MCSDK/MCLib/Any/Src/sto_pll_speed_pos_fdbk.c ****   * OR PROFITS; OR BUSINESS INTERRUPTION) HOWEVER CAUSED AND ON ANY THEORY OF
  42:MCSDK_v6.0.0-Full/MotorControl/MCSDK/MCLib/Any/Src/sto_pll_speed_pos_fdbk.c ****   * LIABILITY, WHETHER IN CONTRACT, STRICT LIABILITY, OR TORT (INCLUDING
  43:MCSDK_v6.0.0-Full/MotorControl/MCSDK/MCLib/Any/Src/sto_pll_speed_pos_fdbk.c ****   * NEGLIGENCE OR OTHERWISE) ARISING IN ANY WAY OUT OF THE USE OF THIS SOFTWARE,
  44:MCSDK_v6.0.0-Full/MotorControl/MCSDK/MCLib/Any/Src/sto_pll_speed_pos_fdbk.c ****   * EVEN IF ADVISED OF THE POSSIBILITY OF SUCH DAMAGE.
  45:MCSDK_v6.0.0-Full/MotorControl/MCSDK/MCLib/Any/Src/sto_pll_speed_pos_fdbk.c ****   *
  46:MCSDK_v6.0.0-Full/MotorControl/MCSDK/MCLib/Any/Src/sto_pll_speed_pos_fdbk.c ****   ******************************************************************************
  47:MCSDK_v6.0.0-Full/MotorControl/MCSDK/MCLib/Any/Src/sto_pll_speed_pos_fdbk.c ****   */
  48:MCSDK_v6.0.0-Full/MotorControl/MCSDK/MCLib/Any/Src/sto_pll_speed_pos_fdbk.c **** 
  49:MCSDK_v6.0.0-Full/MotorControl/MCSDK/MCLib/Any/Src/sto_pll_speed_pos_fdbk.c **** /* Includes ------------------------------------------------------------------*/
  50:MCSDK_v6.0.0-Full/MotorControl/MCSDK/MCLib/Any/Src/sto_pll_speed_pos_fdbk.c **** #include "sto_pll_speed_pos_fdbk.h"
  51:MCSDK_v6.0.0-Full/MotorControl/MCSDK/MCLib/Any/Src/sto_pll_speed_pos_fdbk.c **** #include "mc_math.h"
  52:MCSDK_v6.0.0-Full/MotorControl/MCSDK/MCLib/Any/Src/sto_pll_speed_pos_fdbk.c **** 
  53:MCSDK_v6.0.0-Full/MotorControl/MCSDK/MCLib/Any/Src/sto_pll_speed_pos_fdbk.c **** 
  54:MCSDK_v6.0.0-Full/MotorControl/MCSDK/MCLib/Any/Src/sto_pll_speed_pos_fdbk.c **** 
  55:MCSDK_v6.0.0-Full/MotorControl/MCSDK/MCLib/Any/Src/sto_pll_speed_pos_fdbk.c **** /** @addtogroup MCSDK
  56:MCSDK_v6.0.0-Full/MotorControl/MCSDK/MCLib/Any/Src/sto_pll_speed_pos_fdbk.c ****   * @{
  57:MCSDK_v6.0.0-Full/MotorControl/MCSDK/MCLib/Any/Src/sto_pll_speed_pos_fdbk.c ****   */
  58:MCSDK_v6.0.0-Full/MotorControl/MCSDK/MCLib/Any/Src/sto_pll_speed_pos_fdbk.c **** 
  59:MCSDK_v6.0.0-Full/MotorControl/MCSDK/MCLib/Any/Src/sto_pll_speed_pos_fdbk.c **** /** @addtogroup SpeednPosFdbk
  60:MCSDK_v6.0.0-Full/MotorControl/MCSDK/MCLib/Any/Src/sto_pll_speed_pos_fdbk.c ****   * @{
  61:MCSDK_v6.0.0-Full/MotorControl/MCSDK/MCLib/Any/Src/sto_pll_speed_pos_fdbk.c ****   */
  62:MCSDK_v6.0.0-Full/MotorControl/MCSDK/MCLib/Any/Src/sto_pll_speed_pos_fdbk.c **** 
  63:MCSDK_v6.0.0-Full/MotorControl/MCSDK/MCLib/Any/Src/sto_pll_speed_pos_fdbk.c **** /** @defgroup SpeednPosFdbk_STO State Observer Speed & Position Feedback
  64:MCSDK_v6.0.0-Full/MotorControl/MCSDK/MCLib/Any/Src/sto_pll_speed_pos_fdbk.c ****   * @brief State Observer with PLL Speed & Position Feedback implementation
  65:MCSDK_v6.0.0-Full/MotorControl/MCSDK/MCLib/Any/Src/sto_pll_speed_pos_fdbk.c ****   *
  66:MCSDK_v6.0.0-Full/MotorControl/MCSDK/MCLib/Any/Src/sto_pll_speed_pos_fdbk.c ****   * This component uses a State Observer coupled with a software PLL to provide an estimation of
  67:MCSDK_v6.0.0-Full/MotorControl/MCSDK/MCLib/Any/Src/sto_pll_speed_pos_fdbk.c ****   * the speed and the position of the rotor of the motor.
  68:MCSDK_v6.0.0-Full/MotorControl/MCSDK/MCLib/Any/Src/sto_pll_speed_pos_fdbk.c ****   *
  69:MCSDK_v6.0.0-Full/MotorControl/MCSDK/MCLib/Any/Src/sto_pll_speed_pos_fdbk.c ****   * @todo Document the State Observer + PLL Speed & Position Feedback "module".
  70:MCSDK_v6.0.0-Full/MotorControl/MCSDK/MCLib/Any/Src/sto_pll_speed_pos_fdbk.c ****   * @{
  71:MCSDK_v6.0.0-Full/MotorControl/MCSDK/MCLib/Any/Src/sto_pll_speed_pos_fdbk.c ****   */
  72:MCSDK_v6.0.0-Full/MotorControl/MCSDK/MCLib/Any/Src/sto_pll_speed_pos_fdbk.c **** 
  73:MCSDK_v6.0.0-Full/MotorControl/MCSDK/MCLib/Any/Src/sto_pll_speed_pos_fdbk.c **** /* Private defines -----------------------------------------------------------*/
  74:MCSDK_v6.0.0-Full/MotorControl/MCSDK/MCLib/Any/Src/sto_pll_speed_pos_fdbk.c **** #define C6_COMP_CONST1  ((int32_t)1043038)
  75:MCSDK_v6.0.0-Full/MotorControl/MCSDK/MCLib/Any/Src/sto_pll_speed_pos_fdbk.c **** #define C6_COMP_CONST2  ((int32_t)10430)
  76:MCSDK_v6.0.0-Full/MotorControl/MCSDK/MCLib/Any/Src/sto_pll_speed_pos_fdbk.c **** 
  77:MCSDK_v6.0.0-Full/MotorControl/MCSDK/MCLib/Any/Src/sto_pll_speed_pos_fdbk.c **** /* Private function prototypes -----------------------------------------------*/
  78:MCSDK_v6.0.0-Full/MotorControl/MCSDK/MCLib/Any/Src/sto_pll_speed_pos_fdbk.c **** static void STO_Store_Rotor_Speed(STO_PLL_Handle_t *pHandle, int16_t hRotor_Speed);
  79:MCSDK_v6.0.0-Full/MotorControl/MCSDK/MCLib/Any/Src/sto_pll_speed_pos_fdbk.c **** static int16_t STO_ExecutePLL(STO_PLL_Handle_t *pHandle, int16_t hBemf_alfa_est, int16_t hBemf_beta
  80:MCSDK_v6.0.0-Full/MotorControl/MCSDK/MCLib/Any/Src/sto_pll_speed_pos_fdbk.c **** static void STO_InitSpeedBuffer(STO_PLL_Handle_t *pHandle);
  81:MCSDK_v6.0.0-Full/MotorControl/MCSDK/MCLib/Any/Src/sto_pll_speed_pos_fdbk.c **** 
  82:MCSDK_v6.0.0-Full/MotorControl/MCSDK/MCLib/Any/Src/sto_pll_speed_pos_fdbk.c **** 
  83:MCSDK_v6.0.0-Full/MotorControl/MCSDK/MCLib/Any/Src/sto_pll_speed_pos_fdbk.c **** /**
  84:MCSDK_v6.0.0-Full/MotorControl/MCSDK/MCLib/Any/Src/sto_pll_speed_pos_fdbk.c ****   * @brief  It initializes the state observer component
  85:MCSDK_v6.0.0-Full/MotorControl/MCSDK/MCLib/Any/Src/sto_pll_speed_pos_fdbk.c ****   * @param  pHandle: handler of the current instance of the STO component
  86:MCSDK_v6.0.0-Full/MotorControl/MCSDK/MCLib/Any/Src/sto_pll_speed_pos_fdbk.c ****   * @retval none
  87:MCSDK_v6.0.0-Full/MotorControl/MCSDK/MCLib/Any/Src/sto_pll_speed_pos_fdbk.c ****   */
ARM GAS  /tmp/ccl72mIK.s 			page 3


  88:MCSDK_v6.0.0-Full/MotorControl/MCSDK/MCLib/Any/Src/sto_pll_speed_pos_fdbk.c **** __weak void STO_PLL_Init(STO_PLL_Handle_t *pHandle)
  89:MCSDK_v6.0.0-Full/MotorControl/MCSDK/MCLib/Any/Src/sto_pll_speed_pos_fdbk.c **** {
  90:MCSDK_v6.0.0-Full/MotorControl/MCSDK/MCLib/Any/Src/sto_pll_speed_pos_fdbk.c **** #ifdef NULL_PTR_STO_PLL_SPD_POS_FDB
  91:MCSDK_v6.0.0-Full/MotorControl/MCSDK/MCLib/Any/Src/sto_pll_speed_pos_fdbk.c ****   if (MC_NULL == pHandle)
  92:MCSDK_v6.0.0-Full/MotorControl/MCSDK/MCLib/Any/Src/sto_pll_speed_pos_fdbk.c ****   {
  93:MCSDK_v6.0.0-Full/MotorControl/MCSDK/MCLib/Any/Src/sto_pll_speed_pos_fdbk.c ****     /* Nothing to do */
  94:MCSDK_v6.0.0-Full/MotorControl/MCSDK/MCLib/Any/Src/sto_pll_speed_pos_fdbk.c ****   }
  95:MCSDK_v6.0.0-Full/MotorControl/MCSDK/MCLib/Any/Src/sto_pll_speed_pos_fdbk.c ****   else
  96:MCSDK_v6.0.0-Full/MotorControl/MCSDK/MCLib/Any/Src/sto_pll_speed_pos_fdbk.c ****   {
  97:MCSDK_v6.0.0-Full/MotorControl/MCSDK/MCLib/Any/Src/sto_pll_speed_pos_fdbk.c **** #endif
  98:MCSDK_v6.0.0-Full/MotorControl/MCSDK/MCLib/Any/Src/sto_pll_speed_pos_fdbk.c ****     int16_t htempk;
  99:MCSDK_v6.0.0-Full/MotorControl/MCSDK/MCLib/Any/Src/sto_pll_speed_pos_fdbk.c ****     int32_t wAux;
 100:MCSDK_v6.0.0-Full/MotorControl/MCSDK/MCLib/Any/Src/sto_pll_speed_pos_fdbk.c **** 
 101:MCSDK_v6.0.0-Full/MotorControl/MCSDK/MCLib/Any/Src/sto_pll_speed_pos_fdbk.c ****     pHandle->ConsistencyCounter = pHandle->StartUpConsistThreshold;
 102:MCSDK_v6.0.0-Full/MotorControl/MCSDK/MCLib/Any/Src/sto_pll_speed_pos_fdbk.c ****     pHandle->EnableDualCheck = true;
 103:MCSDK_v6.0.0-Full/MotorControl/MCSDK/MCLib/Any/Src/sto_pll_speed_pos_fdbk.c **** 
 104:MCSDK_v6.0.0-Full/MotorControl/MCSDK/MCLib/Any/Src/sto_pll_speed_pos_fdbk.c ****     wAux = ((int32_t)1);
 105:MCSDK_v6.0.0-Full/MotorControl/MCSDK/MCLib/Any/Src/sto_pll_speed_pos_fdbk.c ****     pHandle->F3POW2 = 0U;
 106:MCSDK_v6.0.0-Full/MotorControl/MCSDK/MCLib/Any/Src/sto_pll_speed_pos_fdbk.c **** 
 107:MCSDK_v6.0.0-Full/MotorControl/MCSDK/MCLib/Any/Src/sto_pll_speed_pos_fdbk.c ****     htempk = (int16_t)(C6_COMP_CONST1 / pHandle->hF2);
 108:MCSDK_v6.0.0-Full/MotorControl/MCSDK/MCLib/Any/Src/sto_pll_speed_pos_fdbk.c **** 
 109:MCSDK_v6.0.0-Full/MotorControl/MCSDK/MCLib/Any/Src/sto_pll_speed_pos_fdbk.c ****     while (htempk != 0)
 110:MCSDK_v6.0.0-Full/MotorControl/MCSDK/MCLib/Any/Src/sto_pll_speed_pos_fdbk.c ****     {
 111:MCSDK_v6.0.0-Full/MotorControl/MCSDK/MCLib/Any/Src/sto_pll_speed_pos_fdbk.c ****       htempk /= ((int16_t)2);
 112:MCSDK_v6.0.0-Full/MotorControl/MCSDK/MCLib/Any/Src/sto_pll_speed_pos_fdbk.c ****       wAux *= ((int32_t)2);
 113:MCSDK_v6.0.0-Full/MotorControl/MCSDK/MCLib/Any/Src/sto_pll_speed_pos_fdbk.c ****       pHandle->F3POW2++;
 114:MCSDK_v6.0.0-Full/MotorControl/MCSDK/MCLib/Any/Src/sto_pll_speed_pos_fdbk.c ****     }
 115:MCSDK_v6.0.0-Full/MotorControl/MCSDK/MCLib/Any/Src/sto_pll_speed_pos_fdbk.c **** 
 116:MCSDK_v6.0.0-Full/MotorControl/MCSDK/MCLib/Any/Src/sto_pll_speed_pos_fdbk.c ****     pHandle->hF3 = (int16_t)wAux;
 117:MCSDK_v6.0.0-Full/MotorControl/MCSDK/MCLib/Any/Src/sto_pll_speed_pos_fdbk.c ****     wAux = ((int32_t)(pHandle->hF2)) * pHandle->hF3;
 118:MCSDK_v6.0.0-Full/MotorControl/MCSDK/MCLib/Any/Src/sto_pll_speed_pos_fdbk.c ****     pHandle->hC6 = (int16_t)(wAux / C6_COMP_CONST2);
 119:MCSDK_v6.0.0-Full/MotorControl/MCSDK/MCLib/Any/Src/sto_pll_speed_pos_fdbk.c **** 
 120:MCSDK_v6.0.0-Full/MotorControl/MCSDK/MCLib/Any/Src/sto_pll_speed_pos_fdbk.c ****     STO_PLL_Clear(pHandle);
 121:MCSDK_v6.0.0-Full/MotorControl/MCSDK/MCLib/Any/Src/sto_pll_speed_pos_fdbk.c **** 
 122:MCSDK_v6.0.0-Full/MotorControl/MCSDK/MCLib/Any/Src/sto_pll_speed_pos_fdbk.c ****     PID_HandleInit(&pHandle->PIRegulator);
 123:MCSDK_v6.0.0-Full/MotorControl/MCSDK/MCLib/Any/Src/sto_pll_speed_pos_fdbk.c **** 
 124:MCSDK_v6.0.0-Full/MotorControl/MCSDK/MCLib/Any/Src/sto_pll_speed_pos_fdbk.c ****     /* Acceleration measurement set to zero */
 125:MCSDK_v6.0.0-Full/MotorControl/MCSDK/MCLib/Any/Src/sto_pll_speed_pos_fdbk.c ****     pHandle->_Super.hMecAccelUnitP = 0;
 126:MCSDK_v6.0.0-Full/MotorControl/MCSDK/MCLib/Any/Src/sto_pll_speed_pos_fdbk.c **** #ifdef NULL_PTR_STO_PLL_SPD_POS_FDB
 127:MCSDK_v6.0.0-Full/MotorControl/MCSDK/MCLib/Any/Src/sto_pll_speed_pos_fdbk.c ****   }
 128:MCSDK_v6.0.0-Full/MotorControl/MCSDK/MCLib/Any/Src/sto_pll_speed_pos_fdbk.c **** #endif
 129:MCSDK_v6.0.0-Full/MotorControl/MCSDK/MCLib/Any/Src/sto_pll_speed_pos_fdbk.c ****   return;
 130:MCSDK_v6.0.0-Full/MotorControl/MCSDK/MCLib/Any/Src/sto_pll_speed_pos_fdbk.c **** }
 131:MCSDK_v6.0.0-Full/MotorControl/MCSDK/MCLib/Any/Src/sto_pll_speed_pos_fdbk.c **** 
 132:MCSDK_v6.0.0-Full/MotorControl/MCSDK/MCLib/Any/Src/sto_pll_speed_pos_fdbk.c **** /**
 133:MCSDK_v6.0.0-Full/MotorControl/MCSDK/MCLib/Any/Src/sto_pll_speed_pos_fdbk.c ****   * @brief  It only returns, necessary to implement fictitious IRQ_Handler
 134:MCSDK_v6.0.0-Full/MotorControl/MCSDK/MCLib/Any/Src/sto_pll_speed_pos_fdbk.c ****   * @param  pHandle: handler of the current instance of the STO component
 135:MCSDK_v6.0.0-Full/MotorControl/MCSDK/MCLib/Any/Src/sto_pll_speed_pos_fdbk.c ****   * @param  uint8_t Fictitious interrupt flag
 136:MCSDK_v6.0.0-Full/MotorControl/MCSDK/MCLib/Any/Src/sto_pll_speed_pos_fdbk.c ****   * @retval none
 137:MCSDK_v6.0.0-Full/MotorControl/MCSDK/MCLib/Any/Src/sto_pll_speed_pos_fdbk.c ****   */
 138:MCSDK_v6.0.0-Full/MotorControl/MCSDK/MCLib/Any/Src/sto_pll_speed_pos_fdbk.c **** //cstat !RED-func-no-effect
 139:MCSDK_v6.0.0-Full/MotorControl/MCSDK/MCLib/Any/Src/sto_pll_speed_pos_fdbk.c **** __weak void STO_PLL_Return(STO_PLL_Handle_t *pHandle, uint8_t flag)
 140:MCSDK_v6.0.0-Full/MotorControl/MCSDK/MCLib/Any/Src/sto_pll_speed_pos_fdbk.c **** {
 141:MCSDK_v6.0.0-Full/MotorControl/MCSDK/MCLib/Any/Src/sto_pll_speed_pos_fdbk.c **** #ifdef NULL_PTR_STO_PLL_SPD_POS_FDB
 142:MCSDK_v6.0.0-Full/MotorControl/MCSDK/MCLib/Any/Src/sto_pll_speed_pos_fdbk.c ****   if ((MC_NULL == (void *)pHandle) || ((uint8_t)0 == flag))
 143:MCSDK_v6.0.0-Full/MotorControl/MCSDK/MCLib/Any/Src/sto_pll_speed_pos_fdbk.c ****   {
 144:MCSDK_v6.0.0-Full/MotorControl/MCSDK/MCLib/Any/Src/sto_pll_speed_pos_fdbk.c ****     /* Nothing to do */
ARM GAS  /tmp/ccl72mIK.s 			page 4


 145:MCSDK_v6.0.0-Full/MotorControl/MCSDK/MCLib/Any/Src/sto_pll_speed_pos_fdbk.c ****   }
 146:MCSDK_v6.0.0-Full/MotorControl/MCSDK/MCLib/Any/Src/sto_pll_speed_pos_fdbk.c ****   else
 147:MCSDK_v6.0.0-Full/MotorControl/MCSDK/MCLib/Any/Src/sto_pll_speed_pos_fdbk.c ****   {
 148:MCSDK_v6.0.0-Full/MotorControl/MCSDK/MCLib/Any/Src/sto_pll_speed_pos_fdbk.c ****     /* Nothing to do */
 149:MCSDK_v6.0.0-Full/MotorControl/MCSDK/MCLib/Any/Src/sto_pll_speed_pos_fdbk.c ****   }
 150:MCSDK_v6.0.0-Full/MotorControl/MCSDK/MCLib/Any/Src/sto_pll_speed_pos_fdbk.c **** #endif
 151:MCSDK_v6.0.0-Full/MotorControl/MCSDK/MCLib/Any/Src/sto_pll_speed_pos_fdbk.c ****   return;
 152:MCSDK_v6.0.0-Full/MotorControl/MCSDK/MCLib/Any/Src/sto_pll_speed_pos_fdbk.c **** }
 153:MCSDK_v6.0.0-Full/MotorControl/MCSDK/MCLib/Any/Src/sto_pll_speed_pos_fdbk.c **** 
 154:MCSDK_v6.0.0-Full/MotorControl/MCSDK/MCLib/Any/Src/sto_pll_speed_pos_fdbk.c **** #if defined (CCMRAM)
 155:MCSDK_v6.0.0-Full/MotorControl/MCSDK/MCLib/Any/Src/sto_pll_speed_pos_fdbk.c **** #if defined (__ICCARM__)
 156:MCSDK_v6.0.0-Full/MotorControl/MCSDK/MCLib/Any/Src/sto_pll_speed_pos_fdbk.c **** #pragma location = ".ccmram"
 157:MCSDK_v6.0.0-Full/MotorControl/MCSDK/MCLib/Any/Src/sto_pll_speed_pos_fdbk.c **** #elif defined (__CC_ARM) || defined(__GNUC__)
 158:MCSDK_v6.0.0-Full/MotorControl/MCSDK/MCLib/Any/Src/sto_pll_speed_pos_fdbk.c **** __attribute__((section(".ccmram")))
 159:MCSDK_v6.0.0-Full/MotorControl/MCSDK/MCLib/Any/Src/sto_pll_speed_pos_fdbk.c **** #endif
 160:MCSDK_v6.0.0-Full/MotorControl/MCSDK/MCLib/Any/Src/sto_pll_speed_pos_fdbk.c **** #endif
 161:MCSDK_v6.0.0-Full/MotorControl/MCSDK/MCLib/Any/Src/sto_pll_speed_pos_fdbk.c **** /**
 162:MCSDK_v6.0.0-Full/MotorControl/MCSDK/MCLib/Any/Src/sto_pll_speed_pos_fdbk.c ****   * @brief  This method executes Luenberger state observer equations and calls
 163:MCSDK_v6.0.0-Full/MotorControl/MCSDK/MCLib/Any/Src/sto_pll_speed_pos_fdbk.c ****   *         PLL with the purpose of computing a new speed estimation and
 164:MCSDK_v6.0.0-Full/MotorControl/MCSDK/MCLib/Any/Src/sto_pll_speed_pos_fdbk.c ****   *         updating the estimated electrical angle.
 165:MCSDK_v6.0.0-Full/MotorControl/MCSDK/MCLib/Any/Src/sto_pll_speed_pos_fdbk.c ****   * @param  pHandle: handler of the current instance of the STO component
 166:MCSDK_v6.0.0-Full/MotorControl/MCSDK/MCLib/Any/Src/sto_pll_speed_pos_fdbk.c ****   * @param  pInputVars_str pointer to the observer inputs structure
 167:MCSDK_v6.0.0-Full/MotorControl/MCSDK/MCLib/Any/Src/sto_pll_speed_pos_fdbk.c ****   * @retval int16_t rotor electrical angle (s16Degrees)
 168:MCSDK_v6.0.0-Full/MotorControl/MCSDK/MCLib/Any/Src/sto_pll_speed_pos_fdbk.c ****   */
 169:MCSDK_v6.0.0-Full/MotorControl/MCSDK/MCLib/Any/Src/sto_pll_speed_pos_fdbk.c **** __weak int16_t STO_PLL_CalcElAngle(STO_PLL_Handle_t *pHandle, Observer_Inputs_t *pInputs)
 170:MCSDK_v6.0.0-Full/MotorControl/MCSDK/MCLib/Any/Src/sto_pll_speed_pos_fdbk.c **** {
 171:MCSDK_v6.0.0-Full/MotorControl/MCSDK/MCLib/Any/Src/sto_pll_speed_pos_fdbk.c ****   int16_t retValue;
 172:MCSDK_v6.0.0-Full/MotorControl/MCSDK/MCLib/Any/Src/sto_pll_speed_pos_fdbk.c **** 
 173:MCSDK_v6.0.0-Full/MotorControl/MCSDK/MCLib/Any/Src/sto_pll_speed_pos_fdbk.c ****   if ((MC_NULL == pHandle) || (MC_NULL == pInputs))
 174:MCSDK_v6.0.0-Full/MotorControl/MCSDK/MCLib/Any/Src/sto_pll_speed_pos_fdbk.c ****   {
 175:MCSDK_v6.0.0-Full/MotorControl/MCSDK/MCLib/Any/Src/sto_pll_speed_pos_fdbk.c ****     retValue = 0;
 176:MCSDK_v6.0.0-Full/MotorControl/MCSDK/MCLib/Any/Src/sto_pll_speed_pos_fdbk.c ****   }
 177:MCSDK_v6.0.0-Full/MotorControl/MCSDK/MCLib/Any/Src/sto_pll_speed_pos_fdbk.c ****   else
 178:MCSDK_v6.0.0-Full/MotorControl/MCSDK/MCLib/Any/Src/sto_pll_speed_pos_fdbk.c ****   {
 179:MCSDK_v6.0.0-Full/MotorControl/MCSDK/MCLib/Any/Src/sto_pll_speed_pos_fdbk.c ****     int32_t wAux;
 180:MCSDK_v6.0.0-Full/MotorControl/MCSDK/MCLib/Any/Src/sto_pll_speed_pos_fdbk.c ****     int32_t wDirection;
 181:MCSDK_v6.0.0-Full/MotorControl/MCSDK/MCLib/Any/Src/sto_pll_speed_pos_fdbk.c ****     int32_t wIalfa_est_Next;
 182:MCSDK_v6.0.0-Full/MotorControl/MCSDK/MCLib/Any/Src/sto_pll_speed_pos_fdbk.c ****     int32_t wIbeta_est_Next;
 183:MCSDK_v6.0.0-Full/MotorControl/MCSDK/MCLib/Any/Src/sto_pll_speed_pos_fdbk.c ****     int32_t wBemf_alfa_est_Next;
 184:MCSDK_v6.0.0-Full/MotorControl/MCSDK/MCLib/Any/Src/sto_pll_speed_pos_fdbk.c ****     int32_t wBemf_beta_est_Next;
 185:MCSDK_v6.0.0-Full/MotorControl/MCSDK/MCLib/Any/Src/sto_pll_speed_pos_fdbk.c ****     int16_t hAux;
 186:MCSDK_v6.0.0-Full/MotorControl/MCSDK/MCLib/Any/Src/sto_pll_speed_pos_fdbk.c ****     int16_t hAux_Alfa;
 187:MCSDK_v6.0.0-Full/MotorControl/MCSDK/MCLib/Any/Src/sto_pll_speed_pos_fdbk.c ****     int16_t hAux_Beta;
 188:MCSDK_v6.0.0-Full/MotorControl/MCSDK/MCLib/Any/Src/sto_pll_speed_pos_fdbk.c ****     int16_t hIalfa_err;
 189:MCSDK_v6.0.0-Full/MotorControl/MCSDK/MCLib/Any/Src/sto_pll_speed_pos_fdbk.c ****     int16_t hIbeta_err;
 190:MCSDK_v6.0.0-Full/MotorControl/MCSDK/MCLib/Any/Src/sto_pll_speed_pos_fdbk.c ****     int16_t hRotor_Speed;
 191:MCSDK_v6.0.0-Full/MotorControl/MCSDK/MCLib/Any/Src/sto_pll_speed_pos_fdbk.c ****     int16_t hValfa;
 192:MCSDK_v6.0.0-Full/MotorControl/MCSDK/MCLib/Any/Src/sto_pll_speed_pos_fdbk.c ****     int16_t hVbeta;
 193:MCSDK_v6.0.0-Full/MotorControl/MCSDK/MCLib/Any/Src/sto_pll_speed_pos_fdbk.c **** 
 194:MCSDK_v6.0.0-Full/MotorControl/MCSDK/MCLib/Any/Src/sto_pll_speed_pos_fdbk.c ****     if (pHandle->wBemf_alfa_est > (((int32_t)pHandle->hF2) * INT16_MAX))
 195:MCSDK_v6.0.0-Full/MotorControl/MCSDK/MCLib/Any/Src/sto_pll_speed_pos_fdbk.c ****     {
 196:MCSDK_v6.0.0-Full/MotorControl/MCSDK/MCLib/Any/Src/sto_pll_speed_pos_fdbk.c ****       pHandle->wBemf_alfa_est = INT16_MAX * ((int32_t)pHandle->hF2);
 197:MCSDK_v6.0.0-Full/MotorControl/MCSDK/MCLib/Any/Src/sto_pll_speed_pos_fdbk.c ****     }
 198:MCSDK_v6.0.0-Full/MotorControl/MCSDK/MCLib/Any/Src/sto_pll_speed_pos_fdbk.c ****     else if (pHandle->wBemf_alfa_est <= (-INT16_MAX * ((int32_t)pHandle->hF2)))
 199:MCSDK_v6.0.0-Full/MotorControl/MCSDK/MCLib/Any/Src/sto_pll_speed_pos_fdbk.c ****     {
 200:MCSDK_v6.0.0-Full/MotorControl/MCSDK/MCLib/Any/Src/sto_pll_speed_pos_fdbk.c ****       pHandle->wBemf_alfa_est = -INT16_MAX * ((int32_t)pHandle->hF2);
 201:MCSDK_v6.0.0-Full/MotorControl/MCSDK/MCLib/Any/Src/sto_pll_speed_pos_fdbk.c ****     }
ARM GAS  /tmp/ccl72mIK.s 			page 5


 202:MCSDK_v6.0.0-Full/MotorControl/MCSDK/MCLib/Any/Src/sto_pll_speed_pos_fdbk.c ****     else
 203:MCSDK_v6.0.0-Full/MotorControl/MCSDK/MCLib/Any/Src/sto_pll_speed_pos_fdbk.c ****     {
 204:MCSDK_v6.0.0-Full/MotorControl/MCSDK/MCLib/Any/Src/sto_pll_speed_pos_fdbk.c ****       /* Nothing to do */
 205:MCSDK_v6.0.0-Full/MotorControl/MCSDK/MCLib/Any/Src/sto_pll_speed_pos_fdbk.c ****     }
 206:MCSDK_v6.0.0-Full/MotorControl/MCSDK/MCLib/Any/Src/sto_pll_speed_pos_fdbk.c **** #ifndef FULL_MISRA_C_COMPLIANCY_STO_PLL
 207:MCSDK_v6.0.0-Full/MotorControl/MCSDK/MCLib/Any/Src/sto_pll_speed_pos_fdbk.c ****     //cstat !MISRAC2012-Rule-1.3_n !ATH-shift-neg !MISRAC2012-Rule-10.1_R6
 208:MCSDK_v6.0.0-Full/MotorControl/MCSDK/MCLib/Any/Src/sto_pll_speed_pos_fdbk.c ****       hAux_Alfa = (int16_t)(pHandle->wBemf_alfa_est >> pHandle->F2LOG);
 209:MCSDK_v6.0.0-Full/MotorControl/MCSDK/MCLib/Any/Src/sto_pll_speed_pos_fdbk.c **** #else
 210:MCSDK_v6.0.0-Full/MotorControl/MCSDK/MCLib/Any/Src/sto_pll_speed_pos_fdbk.c ****       hAux_Alfa = (int16_t)(pHandle->wBemf_alfa_est / pHandle->hF2);
 211:MCSDK_v6.0.0-Full/MotorControl/MCSDK/MCLib/Any/Src/sto_pll_speed_pos_fdbk.c **** #endif
 212:MCSDK_v6.0.0-Full/MotorControl/MCSDK/MCLib/Any/Src/sto_pll_speed_pos_fdbk.c **** 
 213:MCSDK_v6.0.0-Full/MotorControl/MCSDK/MCLib/Any/Src/sto_pll_speed_pos_fdbk.c ****     if (pHandle->wBemf_beta_est > (INT16_MAX * ((int32_t)pHandle->hF2)))
 214:MCSDK_v6.0.0-Full/MotorControl/MCSDK/MCLib/Any/Src/sto_pll_speed_pos_fdbk.c ****     {
 215:MCSDK_v6.0.0-Full/MotorControl/MCSDK/MCLib/Any/Src/sto_pll_speed_pos_fdbk.c ****       pHandle->wBemf_beta_est = INT16_MAX * ((int32_t)pHandle->hF2);
 216:MCSDK_v6.0.0-Full/MotorControl/MCSDK/MCLib/Any/Src/sto_pll_speed_pos_fdbk.c ****     }
 217:MCSDK_v6.0.0-Full/MotorControl/MCSDK/MCLib/Any/Src/sto_pll_speed_pos_fdbk.c ****     else if (pHandle->wBemf_beta_est <= (-INT16_MAX * ((int32_t)pHandle->hF2)))
 218:MCSDK_v6.0.0-Full/MotorControl/MCSDK/MCLib/Any/Src/sto_pll_speed_pos_fdbk.c ****     {
 219:MCSDK_v6.0.0-Full/MotorControl/MCSDK/MCLib/Any/Src/sto_pll_speed_pos_fdbk.c ****       pHandle->wBemf_beta_est = (-INT16_MAX * ((int32_t)pHandle->hF2));
 220:MCSDK_v6.0.0-Full/MotorControl/MCSDK/MCLib/Any/Src/sto_pll_speed_pos_fdbk.c ****     }
 221:MCSDK_v6.0.0-Full/MotorControl/MCSDK/MCLib/Any/Src/sto_pll_speed_pos_fdbk.c ****     else
 222:MCSDK_v6.0.0-Full/MotorControl/MCSDK/MCLib/Any/Src/sto_pll_speed_pos_fdbk.c ****     {
 223:MCSDK_v6.0.0-Full/MotorControl/MCSDK/MCLib/Any/Src/sto_pll_speed_pos_fdbk.c ****       /* Nothing to do */
 224:MCSDK_v6.0.0-Full/MotorControl/MCSDK/MCLib/Any/Src/sto_pll_speed_pos_fdbk.c ****     }
 225:MCSDK_v6.0.0-Full/MotorControl/MCSDK/MCLib/Any/Src/sto_pll_speed_pos_fdbk.c **** #ifndef FULL_MISRA_C_COMPLIANCY_STO_PLL
 226:MCSDK_v6.0.0-Full/MotorControl/MCSDK/MCLib/Any/Src/sto_pll_speed_pos_fdbk.c ****     //cstat !MISRAC2012-Rule-1.3_n !ATH-shift-neg !MISRAC2012-Rule-10.1_R6
 227:MCSDK_v6.0.0-Full/MotorControl/MCSDK/MCLib/Any/Src/sto_pll_speed_pos_fdbk.c ****     hAux_Beta = (int16_t)(pHandle->wBemf_beta_est >> pHandle->F2LOG);
 228:MCSDK_v6.0.0-Full/MotorControl/MCSDK/MCLib/Any/Src/sto_pll_speed_pos_fdbk.c **** #else
 229:MCSDK_v6.0.0-Full/MotorControl/MCSDK/MCLib/Any/Src/sto_pll_speed_pos_fdbk.c ****     hAux_Beta = (int16_t)(pHandle->wBemf_beta_est / pHandle->hF2);
 230:MCSDK_v6.0.0-Full/MotorControl/MCSDK/MCLib/Any/Src/sto_pll_speed_pos_fdbk.c **** #endif
 231:MCSDK_v6.0.0-Full/MotorControl/MCSDK/MCLib/Any/Src/sto_pll_speed_pos_fdbk.c **** 
 232:MCSDK_v6.0.0-Full/MotorControl/MCSDK/MCLib/Any/Src/sto_pll_speed_pos_fdbk.c ****     if (pHandle->Ialfa_est > (INT16_MAX * ((int32_t)pHandle->hF1)))
 233:MCSDK_v6.0.0-Full/MotorControl/MCSDK/MCLib/Any/Src/sto_pll_speed_pos_fdbk.c ****     {
 234:MCSDK_v6.0.0-Full/MotorControl/MCSDK/MCLib/Any/Src/sto_pll_speed_pos_fdbk.c ****       pHandle->Ialfa_est = INT16_MAX * ((int32_t)pHandle->hF1);
 235:MCSDK_v6.0.0-Full/MotorControl/MCSDK/MCLib/Any/Src/sto_pll_speed_pos_fdbk.c ****     }
 236:MCSDK_v6.0.0-Full/MotorControl/MCSDK/MCLib/Any/Src/sto_pll_speed_pos_fdbk.c ****     else if (pHandle->Ialfa_est <= (-INT16_MAX * ((int32_t)pHandle->hF1)))
 237:MCSDK_v6.0.0-Full/MotorControl/MCSDK/MCLib/Any/Src/sto_pll_speed_pos_fdbk.c ****     {
 238:MCSDK_v6.0.0-Full/MotorControl/MCSDK/MCLib/Any/Src/sto_pll_speed_pos_fdbk.c ****       pHandle->Ialfa_est = -INT16_MAX * ((int32_t)pHandle->hF1);
 239:MCSDK_v6.0.0-Full/MotorControl/MCSDK/MCLib/Any/Src/sto_pll_speed_pos_fdbk.c ****     }
 240:MCSDK_v6.0.0-Full/MotorControl/MCSDK/MCLib/Any/Src/sto_pll_speed_pos_fdbk.c ****     else
 241:MCSDK_v6.0.0-Full/MotorControl/MCSDK/MCLib/Any/Src/sto_pll_speed_pos_fdbk.c ****     {
 242:MCSDK_v6.0.0-Full/MotorControl/MCSDK/MCLib/Any/Src/sto_pll_speed_pos_fdbk.c ****       /* Nothing to do */
 243:MCSDK_v6.0.0-Full/MotorControl/MCSDK/MCLib/Any/Src/sto_pll_speed_pos_fdbk.c ****     }
 244:MCSDK_v6.0.0-Full/MotorControl/MCSDK/MCLib/Any/Src/sto_pll_speed_pos_fdbk.c **** 
 245:MCSDK_v6.0.0-Full/MotorControl/MCSDK/MCLib/Any/Src/sto_pll_speed_pos_fdbk.c ****     if (pHandle->Ibeta_est > (INT16_MAX * ((int32_t)pHandle->hF1)))
 246:MCSDK_v6.0.0-Full/MotorControl/MCSDK/MCLib/Any/Src/sto_pll_speed_pos_fdbk.c ****     {
 247:MCSDK_v6.0.0-Full/MotorControl/MCSDK/MCLib/Any/Src/sto_pll_speed_pos_fdbk.c ****       pHandle->Ibeta_est = INT16_MAX * ((int32_t)pHandle->hF1);
 248:MCSDK_v6.0.0-Full/MotorControl/MCSDK/MCLib/Any/Src/sto_pll_speed_pos_fdbk.c ****     }
 249:MCSDK_v6.0.0-Full/MotorControl/MCSDK/MCLib/Any/Src/sto_pll_speed_pos_fdbk.c ****     else if (pHandle->Ibeta_est <= (-INT16_MAX * ((int32_t)pHandle->hF1)))
 250:MCSDK_v6.0.0-Full/MotorControl/MCSDK/MCLib/Any/Src/sto_pll_speed_pos_fdbk.c ****     {
 251:MCSDK_v6.0.0-Full/MotorControl/MCSDK/MCLib/Any/Src/sto_pll_speed_pos_fdbk.c ****       pHandle->Ibeta_est = -INT16_MAX * ((int32_t)pHandle->hF1);
 252:MCSDK_v6.0.0-Full/MotorControl/MCSDK/MCLib/Any/Src/sto_pll_speed_pos_fdbk.c ****     }
 253:MCSDK_v6.0.0-Full/MotorControl/MCSDK/MCLib/Any/Src/sto_pll_speed_pos_fdbk.c ****     else
 254:MCSDK_v6.0.0-Full/MotorControl/MCSDK/MCLib/Any/Src/sto_pll_speed_pos_fdbk.c ****     {
 255:MCSDK_v6.0.0-Full/MotorControl/MCSDK/MCLib/Any/Src/sto_pll_speed_pos_fdbk.c ****       /* Nothing to do */
 256:MCSDK_v6.0.0-Full/MotorControl/MCSDK/MCLib/Any/Src/sto_pll_speed_pos_fdbk.c ****     }
 257:MCSDK_v6.0.0-Full/MotorControl/MCSDK/MCLib/Any/Src/sto_pll_speed_pos_fdbk.c **** 
 258:MCSDK_v6.0.0-Full/MotorControl/MCSDK/MCLib/Any/Src/sto_pll_speed_pos_fdbk.c **** #ifndef FULL_MISRA_C_COMPLIANCY_STO_PLL
ARM GAS  /tmp/ccl72mIK.s 			page 6


 259:MCSDK_v6.0.0-Full/MotorControl/MCSDK/MCLib/Any/Src/sto_pll_speed_pos_fdbk.c ****     //cstat !MISRAC2012-Rule-1.3_n !ATH-shift-neg !MISRAC2012-Rule-10.1_R6
 260:MCSDK_v6.0.0-Full/MotorControl/MCSDK/MCLib/Any/Src/sto_pll_speed_pos_fdbk.c ****     hIalfa_err = (int16_t)(pHandle->Ialfa_est >> pHandle->F1LOG);
 261:MCSDK_v6.0.0-Full/MotorControl/MCSDK/MCLib/Any/Src/sto_pll_speed_pos_fdbk.c **** #else
 262:MCSDK_v6.0.0-Full/MotorControl/MCSDK/MCLib/Any/Src/sto_pll_speed_pos_fdbk.c ****     hIalfa_err = (int16_t)(pHandle->Ialfa_est / pHandle->hF1);
 263:MCSDK_v6.0.0-Full/MotorControl/MCSDK/MCLib/Any/Src/sto_pll_speed_pos_fdbk.c **** #endif
 264:MCSDK_v6.0.0-Full/MotorControl/MCSDK/MCLib/Any/Src/sto_pll_speed_pos_fdbk.c **** 
 265:MCSDK_v6.0.0-Full/MotorControl/MCSDK/MCLib/Any/Src/sto_pll_speed_pos_fdbk.c ****     hIalfa_err = hIalfa_err - pInputs->Ialfa_beta.alpha;
 266:MCSDK_v6.0.0-Full/MotorControl/MCSDK/MCLib/Any/Src/sto_pll_speed_pos_fdbk.c **** 
 267:MCSDK_v6.0.0-Full/MotorControl/MCSDK/MCLib/Any/Src/sto_pll_speed_pos_fdbk.c **** #ifndef FULL_MISRA_C_COMPLIANCY_STO_PLL
 268:MCSDK_v6.0.0-Full/MotorControl/MCSDK/MCLib/Any/Src/sto_pll_speed_pos_fdbk.c ****     //cstat !MISRAC2012-Rule-1.3_n !ATH-shift-neg !MISRAC2012-Rule-10.1_R6
 269:MCSDK_v6.0.0-Full/MotorControl/MCSDK/MCLib/Any/Src/sto_pll_speed_pos_fdbk.c ****     hIbeta_err = (int16_t)(pHandle->Ibeta_est >> pHandle->F1LOG);
 270:MCSDK_v6.0.0-Full/MotorControl/MCSDK/MCLib/Any/Src/sto_pll_speed_pos_fdbk.c **** #else
 271:MCSDK_v6.0.0-Full/MotorControl/MCSDK/MCLib/Any/Src/sto_pll_speed_pos_fdbk.c ****     hIbeta_err = (int16_t)(pHandle->Ibeta_est / pHandle->hF1);
 272:MCSDK_v6.0.0-Full/MotorControl/MCSDK/MCLib/Any/Src/sto_pll_speed_pos_fdbk.c **** #endif
 273:MCSDK_v6.0.0-Full/MotorControl/MCSDK/MCLib/Any/Src/sto_pll_speed_pos_fdbk.c **** 
 274:MCSDK_v6.0.0-Full/MotorControl/MCSDK/MCLib/Any/Src/sto_pll_speed_pos_fdbk.c ****     hIbeta_err = hIbeta_err - pInputs->Ialfa_beta.beta;
 275:MCSDK_v6.0.0-Full/MotorControl/MCSDK/MCLib/Any/Src/sto_pll_speed_pos_fdbk.c **** 
 276:MCSDK_v6.0.0-Full/MotorControl/MCSDK/MCLib/Any/Src/sto_pll_speed_pos_fdbk.c ****     wAux = ((int32_t)pInputs->Vbus) * pInputs->Valfa_beta.alpha;
 277:MCSDK_v6.0.0-Full/MotorControl/MCSDK/MCLib/Any/Src/sto_pll_speed_pos_fdbk.c **** #ifndef FULL_MISRA_C_COMPLIANCY_STO_PLL
 278:MCSDK_v6.0.0-Full/MotorControl/MCSDK/MCLib/Any/Src/sto_pll_speed_pos_fdbk.c ****     hValfa = (int16_t)(wAux >> 16); //cstat !MISRAC2012-Rule-1.3_n !ATH-shift-neg !MISRAC2012-Rule-
 279:MCSDK_v6.0.0-Full/MotorControl/MCSDK/MCLib/Any/Src/sto_pll_speed_pos_fdbk.c **** #else
 280:MCSDK_v6.0.0-Full/MotorControl/MCSDK/MCLib/Any/Src/sto_pll_speed_pos_fdbk.c ****     hValfa = (int16_t)(wAux / 65536);
 281:MCSDK_v6.0.0-Full/MotorControl/MCSDK/MCLib/Any/Src/sto_pll_speed_pos_fdbk.c **** #endif
 282:MCSDK_v6.0.0-Full/MotorControl/MCSDK/MCLib/Any/Src/sto_pll_speed_pos_fdbk.c **** 
 283:MCSDK_v6.0.0-Full/MotorControl/MCSDK/MCLib/Any/Src/sto_pll_speed_pos_fdbk.c ****     wAux = ((int32_t)pInputs->Vbus) * pInputs->Valfa_beta.beta;
 284:MCSDK_v6.0.0-Full/MotorControl/MCSDK/MCLib/Any/Src/sto_pll_speed_pos_fdbk.c **** 
 285:MCSDK_v6.0.0-Full/MotorControl/MCSDK/MCLib/Any/Src/sto_pll_speed_pos_fdbk.c **** #ifndef FULL_MISRA_C_COMPLIANCY_STO_PLL
 286:MCSDK_v6.0.0-Full/MotorControl/MCSDK/MCLib/Any/Src/sto_pll_speed_pos_fdbk.c ****     hVbeta = ( int16_t ) ( wAux >> 16 ); //cstat !MISRAC2012-Rule-1.3_n !ATH-shift-neg !MISRAC2012-
 287:MCSDK_v6.0.0-Full/MotorControl/MCSDK/MCLib/Any/Src/sto_pll_speed_pos_fdbk.c **** #else
 288:MCSDK_v6.0.0-Full/MotorControl/MCSDK/MCLib/Any/Src/sto_pll_speed_pos_fdbk.c ****     hVbeta = (int16_t)(wAux / 65536);
 289:MCSDK_v6.0.0-Full/MotorControl/MCSDK/MCLib/Any/Src/sto_pll_speed_pos_fdbk.c **** #endif
 290:MCSDK_v6.0.0-Full/MotorControl/MCSDK/MCLib/Any/Src/sto_pll_speed_pos_fdbk.c **** 
 291:MCSDK_v6.0.0-Full/MotorControl/MCSDK/MCLib/Any/Src/sto_pll_speed_pos_fdbk.c ****     /*alfa axes observer*/
 292:MCSDK_v6.0.0-Full/MotorControl/MCSDK/MCLib/Any/Src/sto_pll_speed_pos_fdbk.c **** #ifndef FULL_MISRA_C_COMPLIANCY_STO_PLL
 293:MCSDK_v6.0.0-Full/MotorControl/MCSDK/MCLib/Any/Src/sto_pll_speed_pos_fdbk.c ****     //cstat !MISRAC2012-Rule-1.3_n !ATH-shift-neg !MISRAC2012-Rule-10.1_R6
 294:MCSDK_v6.0.0-Full/MotorControl/MCSDK/MCLib/Any/Src/sto_pll_speed_pos_fdbk.c ****     hAux = (int16_t)(pHandle->Ialfa_est >> pHandle->F1LOG);
 295:MCSDK_v6.0.0-Full/MotorControl/MCSDK/MCLib/Any/Src/sto_pll_speed_pos_fdbk.c **** #else
 296:MCSDK_v6.0.0-Full/MotorControl/MCSDK/MCLib/Any/Src/sto_pll_speed_pos_fdbk.c ****     hAux = (int16_t)(pHandle->Ialfa_est / pHandle->hF1);
 297:MCSDK_v6.0.0-Full/MotorControl/MCSDK/MCLib/Any/Src/sto_pll_speed_pos_fdbk.c **** #endif
 298:MCSDK_v6.0.0-Full/MotorControl/MCSDK/MCLib/Any/Src/sto_pll_speed_pos_fdbk.c **** 
 299:MCSDK_v6.0.0-Full/MotorControl/MCSDK/MCLib/Any/Src/sto_pll_speed_pos_fdbk.c ****     wAux = ((int32_t)pHandle->hC1) * hAux;
 300:MCSDK_v6.0.0-Full/MotorControl/MCSDK/MCLib/Any/Src/sto_pll_speed_pos_fdbk.c ****     wIalfa_est_Next = pHandle->Ialfa_est - wAux;
 301:MCSDK_v6.0.0-Full/MotorControl/MCSDK/MCLib/Any/Src/sto_pll_speed_pos_fdbk.c **** 
 302:MCSDK_v6.0.0-Full/MotorControl/MCSDK/MCLib/Any/Src/sto_pll_speed_pos_fdbk.c ****     wAux = ((int32_t)pHandle->hC2) * hIalfa_err;
 303:MCSDK_v6.0.0-Full/MotorControl/MCSDK/MCLib/Any/Src/sto_pll_speed_pos_fdbk.c ****     wIalfa_est_Next += wAux;
 304:MCSDK_v6.0.0-Full/MotorControl/MCSDK/MCLib/Any/Src/sto_pll_speed_pos_fdbk.c **** 
 305:MCSDK_v6.0.0-Full/MotorControl/MCSDK/MCLib/Any/Src/sto_pll_speed_pos_fdbk.c ****     wAux = ((int32_t)pHandle->hC5) * hValfa;
 306:MCSDK_v6.0.0-Full/MotorControl/MCSDK/MCLib/Any/Src/sto_pll_speed_pos_fdbk.c ****     wIalfa_est_Next += wAux;
 307:MCSDK_v6.0.0-Full/MotorControl/MCSDK/MCLib/Any/Src/sto_pll_speed_pos_fdbk.c **** 
 308:MCSDK_v6.0.0-Full/MotorControl/MCSDK/MCLib/Any/Src/sto_pll_speed_pos_fdbk.c ****     wAux = ((int32_t)pHandle->hC3) * hAux_Alfa;
 309:MCSDK_v6.0.0-Full/MotorControl/MCSDK/MCLib/Any/Src/sto_pll_speed_pos_fdbk.c ****     wIalfa_est_Next -= wAux;
 310:MCSDK_v6.0.0-Full/MotorControl/MCSDK/MCLib/Any/Src/sto_pll_speed_pos_fdbk.c **** 
 311:MCSDK_v6.0.0-Full/MotorControl/MCSDK/MCLib/Any/Src/sto_pll_speed_pos_fdbk.c ****     wAux = ((int32_t)pHandle->hC4) * hIalfa_err;
 312:MCSDK_v6.0.0-Full/MotorControl/MCSDK/MCLib/Any/Src/sto_pll_speed_pos_fdbk.c ****     wBemf_alfa_est_Next = pHandle->wBemf_alfa_est + wAux;
 313:MCSDK_v6.0.0-Full/MotorControl/MCSDK/MCLib/Any/Src/sto_pll_speed_pos_fdbk.c **** 
 314:MCSDK_v6.0.0-Full/MotorControl/MCSDK/MCLib/Any/Src/sto_pll_speed_pos_fdbk.c **** #ifndef FULL_MISRA_C_COMPLIANCY_STO_PLL
 315:MCSDK_v6.0.0-Full/MotorControl/MCSDK/MCLib/Any/Src/sto_pll_speed_pos_fdbk.c ****     wAux = (int32_t)hAux_Beta >> pHandle->F3POW2; //cstat !MISRAC2012-Rule-1.3_n !ATH-shift-neg !MI
ARM GAS  /tmp/ccl72mIK.s 			page 7


 316:MCSDK_v6.0.0-Full/MotorControl/MCSDK/MCLib/Any/Src/sto_pll_speed_pos_fdbk.c **** #else
 317:MCSDK_v6.0.0-Full/MotorControl/MCSDK/MCLib/Any/Src/sto_pll_speed_pos_fdbk.c ****     wAux = ((int32_t)hAux_Beta) / pHandle->hF3;
 318:MCSDK_v6.0.0-Full/MotorControl/MCSDK/MCLib/Any/Src/sto_pll_speed_pos_fdbk.c **** #endif
 319:MCSDK_v6.0.0-Full/MotorControl/MCSDK/MCLib/Any/Src/sto_pll_speed_pos_fdbk.c **** 
 320:MCSDK_v6.0.0-Full/MotorControl/MCSDK/MCLib/Any/Src/sto_pll_speed_pos_fdbk.c ****     wAux = wAux * pHandle->hC6;
 321:MCSDK_v6.0.0-Full/MotorControl/MCSDK/MCLib/Any/Src/sto_pll_speed_pos_fdbk.c ****     wAux = pHandle->_Super.hElSpeedDpp * wAux;
 322:MCSDK_v6.0.0-Full/MotorControl/MCSDK/MCLib/Any/Src/sto_pll_speed_pos_fdbk.c ****     wBemf_alfa_est_Next += wAux;
 323:MCSDK_v6.0.0-Full/MotorControl/MCSDK/MCLib/Any/Src/sto_pll_speed_pos_fdbk.c **** 
 324:MCSDK_v6.0.0-Full/MotorControl/MCSDK/MCLib/Any/Src/sto_pll_speed_pos_fdbk.c ****     /*beta axes observer*/
 325:MCSDK_v6.0.0-Full/MotorControl/MCSDK/MCLib/Any/Src/sto_pll_speed_pos_fdbk.c **** #ifndef FULL_MISRA_C_COMPLIANCY_STO_PLL
 326:MCSDK_v6.0.0-Full/MotorControl/MCSDK/MCLib/Any/Src/sto_pll_speed_pos_fdbk.c ****     //cstat !MISRAC2012-Rule-1.3_n !ATH-shift-neg !MISRAC2012-Rule-10.1_R6
 327:MCSDK_v6.0.0-Full/MotorControl/MCSDK/MCLib/Any/Src/sto_pll_speed_pos_fdbk.c ****     hAux = (int16_t)(pHandle->Ibeta_est >> pHandle->F1LOG);
 328:MCSDK_v6.0.0-Full/MotorControl/MCSDK/MCLib/Any/Src/sto_pll_speed_pos_fdbk.c **** #else
 329:MCSDK_v6.0.0-Full/MotorControl/MCSDK/MCLib/Any/Src/sto_pll_speed_pos_fdbk.c ****     hAux = (int16_t)(pHandle->Ibeta_est / pHandle->hF1);
 330:MCSDK_v6.0.0-Full/MotorControl/MCSDK/MCLib/Any/Src/sto_pll_speed_pos_fdbk.c **** #endif
 331:MCSDK_v6.0.0-Full/MotorControl/MCSDK/MCLib/Any/Src/sto_pll_speed_pos_fdbk.c **** 
 332:MCSDK_v6.0.0-Full/MotorControl/MCSDK/MCLib/Any/Src/sto_pll_speed_pos_fdbk.c ****     wAux = ((int32_t)pHandle->hC1) * hAux;
 333:MCSDK_v6.0.0-Full/MotorControl/MCSDK/MCLib/Any/Src/sto_pll_speed_pos_fdbk.c ****     wIbeta_est_Next = pHandle->Ibeta_est - wAux;
 334:MCSDK_v6.0.0-Full/MotorControl/MCSDK/MCLib/Any/Src/sto_pll_speed_pos_fdbk.c **** 
 335:MCSDK_v6.0.0-Full/MotorControl/MCSDK/MCLib/Any/Src/sto_pll_speed_pos_fdbk.c ****     wAux = ((int32_t)pHandle->hC2) * hIbeta_err;
 336:MCSDK_v6.0.0-Full/MotorControl/MCSDK/MCLib/Any/Src/sto_pll_speed_pos_fdbk.c ****     wIbeta_est_Next += wAux;
 337:MCSDK_v6.0.0-Full/MotorControl/MCSDK/MCLib/Any/Src/sto_pll_speed_pos_fdbk.c **** 
 338:MCSDK_v6.0.0-Full/MotorControl/MCSDK/MCLib/Any/Src/sto_pll_speed_pos_fdbk.c ****     wAux = ((int32_t)pHandle->hC5) * hVbeta;
 339:MCSDK_v6.0.0-Full/MotorControl/MCSDK/MCLib/Any/Src/sto_pll_speed_pos_fdbk.c ****     wIbeta_est_Next += wAux;
 340:MCSDK_v6.0.0-Full/MotorControl/MCSDK/MCLib/Any/Src/sto_pll_speed_pos_fdbk.c **** 
 341:MCSDK_v6.0.0-Full/MotorControl/MCSDK/MCLib/Any/Src/sto_pll_speed_pos_fdbk.c ****     wAux = ((int32_t)pHandle->hC3) * hAux_Beta;
 342:MCSDK_v6.0.0-Full/MotorControl/MCSDK/MCLib/Any/Src/sto_pll_speed_pos_fdbk.c ****     wIbeta_est_Next -= wAux;
 343:MCSDK_v6.0.0-Full/MotorControl/MCSDK/MCLib/Any/Src/sto_pll_speed_pos_fdbk.c **** 
 344:MCSDK_v6.0.0-Full/MotorControl/MCSDK/MCLib/Any/Src/sto_pll_speed_pos_fdbk.c ****     wAux = ((int32_t)pHandle->hC4) * hIbeta_err;
 345:MCSDK_v6.0.0-Full/MotorControl/MCSDK/MCLib/Any/Src/sto_pll_speed_pos_fdbk.c ****     wBemf_beta_est_Next = pHandle->wBemf_beta_est + wAux;
 346:MCSDK_v6.0.0-Full/MotorControl/MCSDK/MCLib/Any/Src/sto_pll_speed_pos_fdbk.c **** 
 347:MCSDK_v6.0.0-Full/MotorControl/MCSDK/MCLib/Any/Src/sto_pll_speed_pos_fdbk.c **** #ifndef FULL_MISRA_C_COMPLIANCY_STO_PLL
 348:MCSDK_v6.0.0-Full/MotorControl/MCSDK/MCLib/Any/Src/sto_pll_speed_pos_fdbk.c ****     wAux = (int32_t)hAux_Alfa >> pHandle->F3POW2; //cstat !MISRAC2012-Rule-1.3_n !ATH-shift-neg !MI
 349:MCSDK_v6.0.0-Full/MotorControl/MCSDK/MCLib/Any/Src/sto_pll_speed_pos_fdbk.c **** #else
 350:MCSDK_v6.0.0-Full/MotorControl/MCSDK/MCLib/Any/Src/sto_pll_speed_pos_fdbk.c ****     wAux = ((int32_t)hAux_Alfa) / pHandle->hF3;
 351:MCSDK_v6.0.0-Full/MotorControl/MCSDK/MCLib/Any/Src/sto_pll_speed_pos_fdbk.c **** #endif
 352:MCSDK_v6.0.0-Full/MotorControl/MCSDK/MCLib/Any/Src/sto_pll_speed_pos_fdbk.c **** 
 353:MCSDK_v6.0.0-Full/MotorControl/MCSDK/MCLib/Any/Src/sto_pll_speed_pos_fdbk.c ****     wAux = wAux * pHandle->hC6;
 354:MCSDK_v6.0.0-Full/MotorControl/MCSDK/MCLib/Any/Src/sto_pll_speed_pos_fdbk.c ****     wAux = pHandle->_Super.hElSpeedDpp * wAux;
 355:MCSDK_v6.0.0-Full/MotorControl/MCSDK/MCLib/Any/Src/sto_pll_speed_pos_fdbk.c ****     wBemf_beta_est_Next -= wAux;
 356:MCSDK_v6.0.0-Full/MotorControl/MCSDK/MCLib/Any/Src/sto_pll_speed_pos_fdbk.c **** 
 357:MCSDK_v6.0.0-Full/MotorControl/MCSDK/MCLib/Any/Src/sto_pll_speed_pos_fdbk.c ****     /*Calls the PLL blockset*/
 358:MCSDK_v6.0.0-Full/MotorControl/MCSDK/MCLib/Any/Src/sto_pll_speed_pos_fdbk.c ****     pHandle->hBemf_alfa_est = hAux_Alfa;
 359:MCSDK_v6.0.0-Full/MotorControl/MCSDK/MCLib/Any/Src/sto_pll_speed_pos_fdbk.c ****     pHandle->hBemf_beta_est = hAux_Beta;
 360:MCSDK_v6.0.0-Full/MotorControl/MCSDK/MCLib/Any/Src/sto_pll_speed_pos_fdbk.c **** 
 361:MCSDK_v6.0.0-Full/MotorControl/MCSDK/MCLib/Any/Src/sto_pll_speed_pos_fdbk.c ****     if (0 == pHandle->hForcedDirection)
 362:MCSDK_v6.0.0-Full/MotorControl/MCSDK/MCLib/Any/Src/sto_pll_speed_pos_fdbk.c ****     {
 363:MCSDK_v6.0.0-Full/MotorControl/MCSDK/MCLib/Any/Src/sto_pll_speed_pos_fdbk.c ****       /* we are in auxiliary mode, then rely on the speed detected */
 364:MCSDK_v6.0.0-Full/MotorControl/MCSDK/MCLib/Any/Src/sto_pll_speed_pos_fdbk.c ****       if(pHandle->_Super.hElSpeedDpp >= 0)
 365:MCSDK_v6.0.0-Full/MotorControl/MCSDK/MCLib/Any/Src/sto_pll_speed_pos_fdbk.c ****       {
 366:MCSDK_v6.0.0-Full/MotorControl/MCSDK/MCLib/Any/Src/sto_pll_speed_pos_fdbk.c ****         wDirection = 1;
 367:MCSDK_v6.0.0-Full/MotorControl/MCSDK/MCLib/Any/Src/sto_pll_speed_pos_fdbk.c ****       }
 368:MCSDK_v6.0.0-Full/MotorControl/MCSDK/MCLib/Any/Src/sto_pll_speed_pos_fdbk.c ****       else
 369:MCSDK_v6.0.0-Full/MotorControl/MCSDK/MCLib/Any/Src/sto_pll_speed_pos_fdbk.c ****       {
 370:MCSDK_v6.0.0-Full/MotorControl/MCSDK/MCLib/Any/Src/sto_pll_speed_pos_fdbk.c ****         wDirection = -1;
 371:MCSDK_v6.0.0-Full/MotorControl/MCSDK/MCLib/Any/Src/sto_pll_speed_pos_fdbk.c ****       }
 372:MCSDK_v6.0.0-Full/MotorControl/MCSDK/MCLib/Any/Src/sto_pll_speed_pos_fdbk.c ****     }
ARM GAS  /tmp/ccl72mIK.s 			page 8


 373:MCSDK_v6.0.0-Full/MotorControl/MCSDK/MCLib/Any/Src/sto_pll_speed_pos_fdbk.c ****     else
 374:MCSDK_v6.0.0-Full/MotorControl/MCSDK/MCLib/Any/Src/sto_pll_speed_pos_fdbk.c ****     {
 375:MCSDK_v6.0.0-Full/MotorControl/MCSDK/MCLib/Any/Src/sto_pll_speed_pos_fdbk.c ****       /* we are in main sensor mode, use a forced direction */
 376:MCSDK_v6.0.0-Full/MotorControl/MCSDK/MCLib/Any/Src/sto_pll_speed_pos_fdbk.c ****       wDirection = pHandle->hForcedDirection;
 377:MCSDK_v6.0.0-Full/MotorControl/MCSDK/MCLib/Any/Src/sto_pll_speed_pos_fdbk.c ****     }
 378:MCSDK_v6.0.0-Full/MotorControl/MCSDK/MCLib/Any/Src/sto_pll_speed_pos_fdbk.c **** 
 379:MCSDK_v6.0.0-Full/MotorControl/MCSDK/MCLib/Any/Src/sto_pll_speed_pos_fdbk.c ****     hAux_Alfa = (int16_t)(hAux_Alfa * wDirection);
 380:MCSDK_v6.0.0-Full/MotorControl/MCSDK/MCLib/Any/Src/sto_pll_speed_pos_fdbk.c ****     hAux_Beta = (int16_t)(hAux_Beta * wDirection);
 381:MCSDK_v6.0.0-Full/MotorControl/MCSDK/MCLib/Any/Src/sto_pll_speed_pos_fdbk.c **** 
 382:MCSDK_v6.0.0-Full/MotorControl/MCSDK/MCLib/Any/Src/sto_pll_speed_pos_fdbk.c ****     hRotor_Speed = STO_ExecutePLL(pHandle, hAux_Alfa, -hAux_Beta);
 383:MCSDK_v6.0.0-Full/MotorControl/MCSDK/MCLib/Any/Src/sto_pll_speed_pos_fdbk.c ****     pHandle->_Super.InstantaneousElSpeedDpp = hRotor_Speed;
 384:MCSDK_v6.0.0-Full/MotorControl/MCSDK/MCLib/Any/Src/sto_pll_speed_pos_fdbk.c **** 
 385:MCSDK_v6.0.0-Full/MotorControl/MCSDK/MCLib/Any/Src/sto_pll_speed_pos_fdbk.c ****     STO_Store_Rotor_Speed(pHandle, hRotor_Speed);
 386:MCSDK_v6.0.0-Full/MotorControl/MCSDK/MCLib/Any/Src/sto_pll_speed_pos_fdbk.c **** 
 387:MCSDK_v6.0.0-Full/MotorControl/MCSDK/MCLib/Any/Src/sto_pll_speed_pos_fdbk.c ****     pHandle->_Super.hElAngle += hRotor_Speed;
 388:MCSDK_v6.0.0-Full/MotorControl/MCSDK/MCLib/Any/Src/sto_pll_speed_pos_fdbk.c **** 
 389:MCSDK_v6.0.0-Full/MotorControl/MCSDK/MCLib/Any/Src/sto_pll_speed_pos_fdbk.c ****     /*storing previous values of currents and bemfs*/
 390:MCSDK_v6.0.0-Full/MotorControl/MCSDK/MCLib/Any/Src/sto_pll_speed_pos_fdbk.c ****     pHandle->Ialfa_est = wIalfa_est_Next;
 391:MCSDK_v6.0.0-Full/MotorControl/MCSDK/MCLib/Any/Src/sto_pll_speed_pos_fdbk.c ****     pHandle->wBemf_alfa_est = wBemf_alfa_est_Next;
 392:MCSDK_v6.0.0-Full/MotorControl/MCSDK/MCLib/Any/Src/sto_pll_speed_pos_fdbk.c **** 
 393:MCSDK_v6.0.0-Full/MotorControl/MCSDK/MCLib/Any/Src/sto_pll_speed_pos_fdbk.c ****     pHandle->Ibeta_est = wIbeta_est_Next;
 394:MCSDK_v6.0.0-Full/MotorControl/MCSDK/MCLib/Any/Src/sto_pll_speed_pos_fdbk.c ****     pHandle->wBemf_beta_est = wBemf_beta_est_Next;
 395:MCSDK_v6.0.0-Full/MotorControl/MCSDK/MCLib/Any/Src/sto_pll_speed_pos_fdbk.c ****     retValue = pHandle->_Super.hElAngle;
 396:MCSDK_v6.0.0-Full/MotorControl/MCSDK/MCLib/Any/Src/sto_pll_speed_pos_fdbk.c ****   }
 397:MCSDK_v6.0.0-Full/MotorControl/MCSDK/MCLib/Any/Src/sto_pll_speed_pos_fdbk.c ****   return (retValue);
 398:MCSDK_v6.0.0-Full/MotorControl/MCSDK/MCLib/Any/Src/sto_pll_speed_pos_fdbk.c **** }
 399:MCSDK_v6.0.0-Full/MotorControl/MCSDK/MCLib/Any/Src/sto_pll_speed_pos_fdbk.c **** 
 400:MCSDK_v6.0.0-Full/MotorControl/MCSDK/MCLib/Any/Src/sto_pll_speed_pos_fdbk.c **** /**
 401:MCSDK_v6.0.0-Full/MotorControl/MCSDK/MCLib/Any/Src/sto_pll_speed_pos_fdbk.c ****   * @brief  This method must be called - at least - with the same periodicity
 402:MCSDK_v6.0.0-Full/MotorControl/MCSDK/MCLib/Any/Src/sto_pll_speed_pos_fdbk.c ****   *         on which speed control is executed. It computes and returns - through
 403:MCSDK_v6.0.0-Full/MotorControl/MCSDK/MCLib/Any/Src/sto_pll_speed_pos_fdbk.c ****   *         parameter hMecSpeedUnit - the rotor average mechanical speed,
 404:MCSDK_v6.0.0-Full/MotorControl/MCSDK/MCLib/Any/Src/sto_pll_speed_pos_fdbk.c ****   *         expressed in Unit. Average is computed considering a FIFO depth
 405:MCSDK_v6.0.0-Full/MotorControl/MCSDK/MCLib/Any/Src/sto_pll_speed_pos_fdbk.c ****   *         equal to bSpeedBufferSizeUnit. Moreover it also computes and returns
 406:MCSDK_v6.0.0-Full/MotorControl/MCSDK/MCLib/Any/Src/sto_pll_speed_pos_fdbk.c ****   *         the reliability state of the sensor.
 407:MCSDK_v6.0.0-Full/MotorControl/MCSDK/MCLib/Any/Src/sto_pll_speed_pos_fdbk.c ****   * @param  pHandle: handler of the current instance of the STO component
 408:MCSDK_v6.0.0-Full/MotorControl/MCSDK/MCLib/Any/Src/sto_pll_speed_pos_fdbk.c ****   * @param  pMecSpeedUnit pointer to int16_t, used to return the rotor average
 409:MCSDK_v6.0.0-Full/MotorControl/MCSDK/MCLib/Any/Src/sto_pll_speed_pos_fdbk.c ****   *         mechanical speed (expressed in the unit defined by #SPEED_UNIT)
 410:MCSDK_v6.0.0-Full/MotorControl/MCSDK/MCLib/Any/Src/sto_pll_speed_pos_fdbk.c ****   * @retval bool speed sensor reliability, measured with reference to parameters
 411:MCSDK_v6.0.0-Full/MotorControl/MCSDK/MCLib/Any/Src/sto_pll_speed_pos_fdbk.c ****   *         bReliability_hysteresys, hVariancePercentage and bSpeedBufferSize
 412:MCSDK_v6.0.0-Full/MotorControl/MCSDK/MCLib/Any/Src/sto_pll_speed_pos_fdbk.c ****   *         true = sensor information is reliable
 413:MCSDK_v6.0.0-Full/MotorControl/MCSDK/MCLib/Any/Src/sto_pll_speed_pos_fdbk.c ****   *         false = sensor information is not reliable
 414:MCSDK_v6.0.0-Full/MotorControl/MCSDK/MCLib/Any/Src/sto_pll_speed_pos_fdbk.c ****   */
 415:MCSDK_v6.0.0-Full/MotorControl/MCSDK/MCLib/Any/Src/sto_pll_speed_pos_fdbk.c **** 
 416:MCSDK_v6.0.0-Full/MotorControl/MCSDK/MCLib/Any/Src/sto_pll_speed_pos_fdbk.c **** __weak bool STO_PLL_CalcAvrgMecSpeedUnit(STO_PLL_Handle_t *pHandle, int16_t *pMecSpeedUnit)
 417:MCSDK_v6.0.0-Full/MotorControl/MCSDK/MCLib/Any/Src/sto_pll_speed_pos_fdbk.c **** {
 418:MCSDK_v6.0.0-Full/MotorControl/MCSDK/MCLib/Any/Src/sto_pll_speed_pos_fdbk.c ****   bool bAux;
 419:MCSDK_v6.0.0-Full/MotorControl/MCSDK/MCLib/Any/Src/sto_pll_speed_pos_fdbk.c **** #ifdef NULL_PTR_STO_PLL_SPD_POS_FDB
 420:MCSDK_v6.0.0-Full/MotorControl/MCSDK/MCLib/Any/Src/sto_pll_speed_pos_fdbk.c ****   if ((MC_NULL == pHandle) || (MC_NULL == pMecSpeedUnit))
 421:MCSDK_v6.0.0-Full/MotorControl/MCSDK/MCLib/Any/Src/sto_pll_speed_pos_fdbk.c ****   {
 422:MCSDK_v6.0.0-Full/MotorControl/MCSDK/MCLib/Any/Src/sto_pll_speed_pos_fdbk.c ****     bAux = false;
 423:MCSDK_v6.0.0-Full/MotorControl/MCSDK/MCLib/Any/Src/sto_pll_speed_pos_fdbk.c ****   }
 424:MCSDK_v6.0.0-Full/MotorControl/MCSDK/MCLib/Any/Src/sto_pll_speed_pos_fdbk.c ****   else
 425:MCSDK_v6.0.0-Full/MotorControl/MCSDK/MCLib/Any/Src/sto_pll_speed_pos_fdbk.c ****   {
 426:MCSDK_v6.0.0-Full/MotorControl/MCSDK/MCLib/Any/Src/sto_pll_speed_pos_fdbk.c **** #endif
 427:MCSDK_v6.0.0-Full/MotorControl/MCSDK/MCLib/Any/Src/sto_pll_speed_pos_fdbk.c ****     int32_t wAvrSpeed_dpp = (int32_t)0;
 428:MCSDK_v6.0.0-Full/MotorControl/MCSDK/MCLib/Any/Src/sto_pll_speed_pos_fdbk.c ****     int32_t wError;
 429:MCSDK_v6.0.0-Full/MotorControl/MCSDK/MCLib/Any/Src/sto_pll_speed_pos_fdbk.c ****     int32_t wAux;
ARM GAS  /tmp/ccl72mIK.s 			page 9


 430:MCSDK_v6.0.0-Full/MotorControl/MCSDK/MCLib/Any/Src/sto_pll_speed_pos_fdbk.c ****     int32_t wAvrSquareSpeed;
 431:MCSDK_v6.0.0-Full/MotorControl/MCSDK/MCLib/Any/Src/sto_pll_speed_pos_fdbk.c ****     int32_t wAvrQuadraticError = 0;
 432:MCSDK_v6.0.0-Full/MotorControl/MCSDK/MCLib/Any/Src/sto_pll_speed_pos_fdbk.c ****     int32_t wObsBemf, wEstBemf;
 433:MCSDK_v6.0.0-Full/MotorControl/MCSDK/MCLib/Any/Src/sto_pll_speed_pos_fdbk.c ****     int32_t wObsBemfSq = 0;
 434:MCSDK_v6.0.0-Full/MotorControl/MCSDK/MCLib/Any/Src/sto_pll_speed_pos_fdbk.c ****     int32_t wEstBemfSq = 0;
 435:MCSDK_v6.0.0-Full/MotorControl/MCSDK/MCLib/Any/Src/sto_pll_speed_pos_fdbk.c ****     int32_t wEstBemfSqLo;
 436:MCSDK_v6.0.0-Full/MotorControl/MCSDK/MCLib/Any/Src/sto_pll_speed_pos_fdbk.c ****     bool bIs_Speed_Reliable = false;
 437:MCSDK_v6.0.0-Full/MotorControl/MCSDK/MCLib/Any/Src/sto_pll_speed_pos_fdbk.c ****     bool bIs_Bemf_Consistent = false;
 438:MCSDK_v6.0.0-Full/MotorControl/MCSDK/MCLib/Any/Src/sto_pll_speed_pos_fdbk.c ****     uint8_t i, bSpeedBufferSizeUnit = pHandle->SpeedBufferSizeUnit;
 439:MCSDK_v6.0.0-Full/MotorControl/MCSDK/MCLib/Any/Src/sto_pll_speed_pos_fdbk.c **** 
 440:MCSDK_v6.0.0-Full/MotorControl/MCSDK/MCLib/Any/Src/sto_pll_speed_pos_fdbk.c ****     for (i = 0U; i < bSpeedBufferSizeUnit; i++)
 441:MCSDK_v6.0.0-Full/MotorControl/MCSDK/MCLib/Any/Src/sto_pll_speed_pos_fdbk.c ****     {
 442:MCSDK_v6.0.0-Full/MotorControl/MCSDK/MCLib/Any/Src/sto_pll_speed_pos_fdbk.c ****       wAvrSpeed_dpp += (int32_t)(pHandle->Speed_Buffer[i]);
 443:MCSDK_v6.0.0-Full/MotorControl/MCSDK/MCLib/Any/Src/sto_pll_speed_pos_fdbk.c ****     }
 444:MCSDK_v6.0.0-Full/MotorControl/MCSDK/MCLib/Any/Src/sto_pll_speed_pos_fdbk.c **** 
 445:MCSDK_v6.0.0-Full/MotorControl/MCSDK/MCLib/Any/Src/sto_pll_speed_pos_fdbk.c ****     if (0U == bSpeedBufferSizeUnit)
 446:MCSDK_v6.0.0-Full/MotorControl/MCSDK/MCLib/Any/Src/sto_pll_speed_pos_fdbk.c ****     {
 447:MCSDK_v6.0.0-Full/MotorControl/MCSDK/MCLib/Any/Src/sto_pll_speed_pos_fdbk.c ****       /* Nothing to do */
 448:MCSDK_v6.0.0-Full/MotorControl/MCSDK/MCLib/Any/Src/sto_pll_speed_pos_fdbk.c ****     }
 449:MCSDK_v6.0.0-Full/MotorControl/MCSDK/MCLib/Any/Src/sto_pll_speed_pos_fdbk.c ****     else
 450:MCSDK_v6.0.0-Full/MotorControl/MCSDK/MCLib/Any/Src/sto_pll_speed_pos_fdbk.c ****     {
 451:MCSDK_v6.0.0-Full/MotorControl/MCSDK/MCLib/Any/Src/sto_pll_speed_pos_fdbk.c ****       wAvrSpeed_dpp = wAvrSpeed_dpp / ((int16_t)bSpeedBufferSizeUnit);
 452:MCSDK_v6.0.0-Full/MotorControl/MCSDK/MCLib/Any/Src/sto_pll_speed_pos_fdbk.c ****     }
 453:MCSDK_v6.0.0-Full/MotorControl/MCSDK/MCLib/Any/Src/sto_pll_speed_pos_fdbk.c **** 
 454:MCSDK_v6.0.0-Full/MotorControl/MCSDK/MCLib/Any/Src/sto_pll_speed_pos_fdbk.c ****     for (i = 0U; i < bSpeedBufferSizeUnit; i++)
 455:MCSDK_v6.0.0-Full/MotorControl/MCSDK/MCLib/Any/Src/sto_pll_speed_pos_fdbk.c ****     {
 456:MCSDK_v6.0.0-Full/MotorControl/MCSDK/MCLib/Any/Src/sto_pll_speed_pos_fdbk.c ****       wError = ((int32_t)pHandle->Speed_Buffer[i]) - wAvrSpeed_dpp;
 457:MCSDK_v6.0.0-Full/MotorControl/MCSDK/MCLib/Any/Src/sto_pll_speed_pos_fdbk.c ****       wError = (wError * wError);
 458:MCSDK_v6.0.0-Full/MotorControl/MCSDK/MCLib/Any/Src/sto_pll_speed_pos_fdbk.c ****       wAvrQuadraticError += wError;
 459:MCSDK_v6.0.0-Full/MotorControl/MCSDK/MCLib/Any/Src/sto_pll_speed_pos_fdbk.c ****     }
 460:MCSDK_v6.0.0-Full/MotorControl/MCSDK/MCLib/Any/Src/sto_pll_speed_pos_fdbk.c **** 
 461:MCSDK_v6.0.0-Full/MotorControl/MCSDK/MCLib/Any/Src/sto_pll_speed_pos_fdbk.c ****     /* It computes the measurement variance */
 462:MCSDK_v6.0.0-Full/MotorControl/MCSDK/MCLib/Any/Src/sto_pll_speed_pos_fdbk.c ****     wAvrQuadraticError = wAvrQuadraticError / ((int16_t)bSpeedBufferSizeUnit);
 463:MCSDK_v6.0.0-Full/MotorControl/MCSDK/MCLib/Any/Src/sto_pll_speed_pos_fdbk.c **** 
 464:MCSDK_v6.0.0-Full/MotorControl/MCSDK/MCLib/Any/Src/sto_pll_speed_pos_fdbk.c ****     /* The maximum variance acceptable is here calculated as a function of average speed */
 465:MCSDK_v6.0.0-Full/MotorControl/MCSDK/MCLib/Any/Src/sto_pll_speed_pos_fdbk.c ****     wAvrSquareSpeed = wAvrSpeed_dpp * wAvrSpeed_dpp;
 466:MCSDK_v6.0.0-Full/MotorControl/MCSDK/MCLib/Any/Src/sto_pll_speed_pos_fdbk.c ****     int64_t lAvrSquareSpeed = (int64_t)(wAvrSquareSpeed) * pHandle->VariancePercentage;      
 467:MCSDK_v6.0.0-Full/MotorControl/MCSDK/MCLib/Any/Src/sto_pll_speed_pos_fdbk.c ****     wAvrSquareSpeed = lAvrSquareSpeed / (int16_t)128;
 468:MCSDK_v6.0.0-Full/MotorControl/MCSDK/MCLib/Any/Src/sto_pll_speed_pos_fdbk.c ****     
 469:MCSDK_v6.0.0-Full/MotorControl/MCSDK/MCLib/Any/Src/sto_pll_speed_pos_fdbk.c ****     if (wAvrQuadraticError < wAvrSquareSpeed)
 470:MCSDK_v6.0.0-Full/MotorControl/MCSDK/MCLib/Any/Src/sto_pll_speed_pos_fdbk.c ****     {
 471:MCSDK_v6.0.0-Full/MotorControl/MCSDK/MCLib/Any/Src/sto_pll_speed_pos_fdbk.c ****       bIs_Speed_Reliable = true;
 472:MCSDK_v6.0.0-Full/MotorControl/MCSDK/MCLib/Any/Src/sto_pll_speed_pos_fdbk.c ****     }
 473:MCSDK_v6.0.0-Full/MotorControl/MCSDK/MCLib/Any/Src/sto_pll_speed_pos_fdbk.c **** 
 474:MCSDK_v6.0.0-Full/MotorControl/MCSDK/MCLib/Any/Src/sto_pll_speed_pos_fdbk.c ****     /* Computation of Mechanical speed Unit */
 475:MCSDK_v6.0.0-Full/MotorControl/MCSDK/MCLib/Any/Src/sto_pll_speed_pos_fdbk.c ****     wAux = wAvrSpeed_dpp * ((int32_t)pHandle->_Super.hMeasurementFrequency);
 476:MCSDK_v6.0.0-Full/MotorControl/MCSDK/MCLib/Any/Src/sto_pll_speed_pos_fdbk.c ****     wAux = wAux * ((int32_t)pHandle->_Super.SpeedUnit);
 477:MCSDK_v6.0.0-Full/MotorControl/MCSDK/MCLib/Any/Src/sto_pll_speed_pos_fdbk.c ****     wAux = wAux / ((int32_t)pHandle->_Super.DPPConvFactor);
 478:MCSDK_v6.0.0-Full/MotorControl/MCSDK/MCLib/Any/Src/sto_pll_speed_pos_fdbk.c ****     wAux = wAux / ((int16_t)pHandle->_Super.bElToMecRatio);
 479:MCSDK_v6.0.0-Full/MotorControl/MCSDK/MCLib/Any/Src/sto_pll_speed_pos_fdbk.c **** 
 480:MCSDK_v6.0.0-Full/MotorControl/MCSDK/MCLib/Any/Src/sto_pll_speed_pos_fdbk.c ****     *pMecSpeedUnit = (int16_t)wAux;
 481:MCSDK_v6.0.0-Full/MotorControl/MCSDK/MCLib/Any/Src/sto_pll_speed_pos_fdbk.c ****     pHandle->_Super.hAvrMecSpeedUnit = (int16_t)wAux;
 482:MCSDK_v6.0.0-Full/MotorControl/MCSDK/MCLib/Any/Src/sto_pll_speed_pos_fdbk.c **** 
 483:MCSDK_v6.0.0-Full/MotorControl/MCSDK/MCLib/Any/Src/sto_pll_speed_pos_fdbk.c ****     pHandle->IsSpeedReliable = bIs_Speed_Reliable;
 484:MCSDK_v6.0.0-Full/MotorControl/MCSDK/MCLib/Any/Src/sto_pll_speed_pos_fdbk.c **** 
 485:MCSDK_v6.0.0-Full/MotorControl/MCSDK/MCLib/Any/Src/sto_pll_speed_pos_fdbk.c ****     /*Bemf Consistency Check algorithm*/
 486:MCSDK_v6.0.0-Full/MotorControl/MCSDK/MCLib/Any/Src/sto_pll_speed_pos_fdbk.c ****     if (true == pHandle->EnableDualCheck) /*do algorithm if it's enabled*/
ARM GAS  /tmp/ccl72mIK.s 			page 10


 487:MCSDK_v6.0.0-Full/MotorControl/MCSDK/MCLib/Any/Src/sto_pll_speed_pos_fdbk.c ****     {
 488:MCSDK_v6.0.0-Full/MotorControl/MCSDK/MCLib/Any/Src/sto_pll_speed_pos_fdbk.c ****       /* wAux abs value   */
 489:MCSDK_v6.0.0-Full/MotorControl/MCSDK/MCLib/Any/Src/sto_pll_speed_pos_fdbk.c ****       //cstat !MISRAC2012-Rule-14.3_b !RED-func-no-effect !RED-cmp-never !RED-cond-never
 490:MCSDK_v6.0.0-Full/MotorControl/MCSDK/MCLib/Any/Src/sto_pll_speed_pos_fdbk.c ****       wAux = ((wAux < 0) ? (-wAux) : (wAux));
 491:MCSDK_v6.0.0-Full/MotorControl/MCSDK/MCLib/Any/Src/sto_pll_speed_pos_fdbk.c ****       if (wAux < (int32_t)(pHandle->MaxAppPositiveMecSpeedUnit))
 492:MCSDK_v6.0.0-Full/MotorControl/MCSDK/MCLib/Any/Src/sto_pll_speed_pos_fdbk.c ****       {
 493:MCSDK_v6.0.0-Full/MotorControl/MCSDK/MCLib/Any/Src/sto_pll_speed_pos_fdbk.c ****         /* Computation of Observed back-emf */
 494:MCSDK_v6.0.0-Full/MotorControl/MCSDK/MCLib/Any/Src/sto_pll_speed_pos_fdbk.c ****         wObsBemf = (int32_t)pHandle->hBemf_alfa_est;
 495:MCSDK_v6.0.0-Full/MotorControl/MCSDK/MCLib/Any/Src/sto_pll_speed_pos_fdbk.c ****         wObsBemfSq = wObsBemf * wObsBemf;
 496:MCSDK_v6.0.0-Full/MotorControl/MCSDK/MCLib/Any/Src/sto_pll_speed_pos_fdbk.c ****         wObsBemf = (int32_t)pHandle->hBemf_beta_est;
 497:MCSDK_v6.0.0-Full/MotorControl/MCSDK/MCLib/Any/Src/sto_pll_speed_pos_fdbk.c ****         wObsBemfSq += wObsBemf * wObsBemf;
 498:MCSDK_v6.0.0-Full/MotorControl/MCSDK/MCLib/Any/Src/sto_pll_speed_pos_fdbk.c **** 
 499:MCSDK_v6.0.0-Full/MotorControl/MCSDK/MCLib/Any/Src/sto_pll_speed_pos_fdbk.c ****         /* Computation of Estimated back-emf */
 500:MCSDK_v6.0.0-Full/MotorControl/MCSDK/MCLib/Any/Src/sto_pll_speed_pos_fdbk.c ****         wEstBemf = (wAux * 32767) / ((int16_t)pHandle->_Super.hMaxReliableMecSpeedUnit);
 501:MCSDK_v6.0.0-Full/MotorControl/MCSDK/MCLib/Any/Src/sto_pll_speed_pos_fdbk.c ****         wEstBemfSq = (wEstBemf * ((int32_t)pHandle->BemfConsistencyGain)) / 64;
 502:MCSDK_v6.0.0-Full/MotorControl/MCSDK/MCLib/Any/Src/sto_pll_speed_pos_fdbk.c ****         wEstBemfSq *= wEstBemf;
 503:MCSDK_v6.0.0-Full/MotorControl/MCSDK/MCLib/Any/Src/sto_pll_speed_pos_fdbk.c **** 
 504:MCSDK_v6.0.0-Full/MotorControl/MCSDK/MCLib/Any/Src/sto_pll_speed_pos_fdbk.c ****         /* Computation of threshold */
 505:MCSDK_v6.0.0-Full/MotorControl/MCSDK/MCLib/Any/Src/sto_pll_speed_pos_fdbk.c ****         wEstBemfSqLo = wEstBemfSq - ((wEstBemfSq / 64) * ((int32_t)pHandle->BemfConsistencyCheck));
 506:MCSDK_v6.0.0-Full/MotorControl/MCSDK/MCLib/Any/Src/sto_pll_speed_pos_fdbk.c **** 
 507:MCSDK_v6.0.0-Full/MotorControl/MCSDK/MCLib/Any/Src/sto_pll_speed_pos_fdbk.c ****         /* Check */
 508:MCSDK_v6.0.0-Full/MotorControl/MCSDK/MCLib/Any/Src/sto_pll_speed_pos_fdbk.c ****         if (wObsBemfSq > wEstBemfSqLo)
 509:MCSDK_v6.0.0-Full/MotorControl/MCSDK/MCLib/Any/Src/sto_pll_speed_pos_fdbk.c ****         {
 510:MCSDK_v6.0.0-Full/MotorControl/MCSDK/MCLib/Any/Src/sto_pll_speed_pos_fdbk.c ****           bIs_Bemf_Consistent = true;
 511:MCSDK_v6.0.0-Full/MotorControl/MCSDK/MCLib/Any/Src/sto_pll_speed_pos_fdbk.c ****         }
 512:MCSDK_v6.0.0-Full/MotorControl/MCSDK/MCLib/Any/Src/sto_pll_speed_pos_fdbk.c ****       }
 513:MCSDK_v6.0.0-Full/MotorControl/MCSDK/MCLib/Any/Src/sto_pll_speed_pos_fdbk.c **** 
 514:MCSDK_v6.0.0-Full/MotorControl/MCSDK/MCLib/Any/Src/sto_pll_speed_pos_fdbk.c ****       pHandle->IsBemfConsistent = bIs_Bemf_Consistent;
 515:MCSDK_v6.0.0-Full/MotorControl/MCSDK/MCLib/Any/Src/sto_pll_speed_pos_fdbk.c ****       pHandle->Obs_Bemf_Level = wObsBemfSq;
 516:MCSDK_v6.0.0-Full/MotorControl/MCSDK/MCLib/Any/Src/sto_pll_speed_pos_fdbk.c ****       pHandle->Est_Bemf_Level = wEstBemfSq;
 517:MCSDK_v6.0.0-Full/MotorControl/MCSDK/MCLib/Any/Src/sto_pll_speed_pos_fdbk.c ****     }
 518:MCSDK_v6.0.0-Full/MotorControl/MCSDK/MCLib/Any/Src/sto_pll_speed_pos_fdbk.c ****     else
 519:MCSDK_v6.0.0-Full/MotorControl/MCSDK/MCLib/Any/Src/sto_pll_speed_pos_fdbk.c ****     {
 520:MCSDK_v6.0.0-Full/MotorControl/MCSDK/MCLib/Any/Src/sto_pll_speed_pos_fdbk.c ****       bIs_Bemf_Consistent = true;
 521:MCSDK_v6.0.0-Full/MotorControl/MCSDK/MCLib/Any/Src/sto_pll_speed_pos_fdbk.c ****     }
 522:MCSDK_v6.0.0-Full/MotorControl/MCSDK/MCLib/Any/Src/sto_pll_speed_pos_fdbk.c **** 
 523:MCSDK_v6.0.0-Full/MotorControl/MCSDK/MCLib/Any/Src/sto_pll_speed_pos_fdbk.c ****     /* Decision making */
 524:MCSDK_v6.0.0-Full/MotorControl/MCSDK/MCLib/Any/Src/sto_pll_speed_pos_fdbk.c ****     if (false == pHandle->IsAlgorithmConverged)
 525:MCSDK_v6.0.0-Full/MotorControl/MCSDK/MCLib/Any/Src/sto_pll_speed_pos_fdbk.c ****     {
 526:MCSDK_v6.0.0-Full/MotorControl/MCSDK/MCLib/Any/Src/sto_pll_speed_pos_fdbk.c ****       bAux = SPD_IsMecSpeedReliable (&pHandle->_Super, pMecSpeedUnit);
 527:MCSDK_v6.0.0-Full/MotorControl/MCSDK/MCLib/Any/Src/sto_pll_speed_pos_fdbk.c ****     }
 528:MCSDK_v6.0.0-Full/MotorControl/MCSDK/MCLib/Any/Src/sto_pll_speed_pos_fdbk.c ****     else
 529:MCSDK_v6.0.0-Full/MotorControl/MCSDK/MCLib/Any/Src/sto_pll_speed_pos_fdbk.c ****     {
 530:MCSDK_v6.0.0-Full/MotorControl/MCSDK/MCLib/Any/Src/sto_pll_speed_pos_fdbk.c ****       if ((false == pHandle->IsSpeedReliable) || (false == bIs_Bemf_Consistent))
 531:MCSDK_v6.0.0-Full/MotorControl/MCSDK/MCLib/Any/Src/sto_pll_speed_pos_fdbk.c ****       {
 532:MCSDK_v6.0.0-Full/MotorControl/MCSDK/MCLib/Any/Src/sto_pll_speed_pos_fdbk.c ****         pHandle->ReliabilityCounter++;
 533:MCSDK_v6.0.0-Full/MotorControl/MCSDK/MCLib/Any/Src/sto_pll_speed_pos_fdbk.c ****         if (pHandle->ReliabilityCounter >= pHandle->Reliability_hysteresys)
 534:MCSDK_v6.0.0-Full/MotorControl/MCSDK/MCLib/Any/Src/sto_pll_speed_pos_fdbk.c ****         {
 535:MCSDK_v6.0.0-Full/MotorControl/MCSDK/MCLib/Any/Src/sto_pll_speed_pos_fdbk.c ****           pHandle->ReliabilityCounter = 0U;
 536:MCSDK_v6.0.0-Full/MotorControl/MCSDK/MCLib/Any/Src/sto_pll_speed_pos_fdbk.c ****           pHandle->_Super.bSpeedErrorNumber = pHandle->_Super.bMaximumSpeedErrorsNumber;
 537:MCSDK_v6.0.0-Full/MotorControl/MCSDK/MCLib/Any/Src/sto_pll_speed_pos_fdbk.c ****           bAux = false;
 538:MCSDK_v6.0.0-Full/MotorControl/MCSDK/MCLib/Any/Src/sto_pll_speed_pos_fdbk.c ****         }
 539:MCSDK_v6.0.0-Full/MotorControl/MCSDK/MCLib/Any/Src/sto_pll_speed_pos_fdbk.c ****         else
 540:MCSDK_v6.0.0-Full/MotorControl/MCSDK/MCLib/Any/Src/sto_pll_speed_pos_fdbk.c ****         {
 541:MCSDK_v6.0.0-Full/MotorControl/MCSDK/MCLib/Any/Src/sto_pll_speed_pos_fdbk.c ****           bAux = SPD_IsMecSpeedReliable (&pHandle->_Super, pMecSpeedUnit);
 542:MCSDK_v6.0.0-Full/MotorControl/MCSDK/MCLib/Any/Src/sto_pll_speed_pos_fdbk.c ****         }
 543:MCSDK_v6.0.0-Full/MotorControl/MCSDK/MCLib/Any/Src/sto_pll_speed_pos_fdbk.c ****       }
ARM GAS  /tmp/ccl72mIK.s 			page 11


 544:MCSDK_v6.0.0-Full/MotorControl/MCSDK/MCLib/Any/Src/sto_pll_speed_pos_fdbk.c ****       else
 545:MCSDK_v6.0.0-Full/MotorControl/MCSDK/MCLib/Any/Src/sto_pll_speed_pos_fdbk.c ****       {
 546:MCSDK_v6.0.0-Full/MotorControl/MCSDK/MCLib/Any/Src/sto_pll_speed_pos_fdbk.c ****         pHandle->ReliabilityCounter = 0U;
 547:MCSDK_v6.0.0-Full/MotorControl/MCSDK/MCLib/Any/Src/sto_pll_speed_pos_fdbk.c ****         bAux = SPD_IsMecSpeedReliable (&pHandle->_Super, pMecSpeedUnit);
 548:MCSDK_v6.0.0-Full/MotorControl/MCSDK/MCLib/Any/Src/sto_pll_speed_pos_fdbk.c ****       }
 549:MCSDK_v6.0.0-Full/MotorControl/MCSDK/MCLib/Any/Src/sto_pll_speed_pos_fdbk.c ****     }
 550:MCSDK_v6.0.0-Full/MotorControl/MCSDK/MCLib/Any/Src/sto_pll_speed_pos_fdbk.c **** #ifdef NULL_PTR_STO_PLL_SPD_POS_FDB
 551:MCSDK_v6.0.0-Full/MotorControl/MCSDK/MCLib/Any/Src/sto_pll_speed_pos_fdbk.c ****   }
 552:MCSDK_v6.0.0-Full/MotorControl/MCSDK/MCLib/Any/Src/sto_pll_speed_pos_fdbk.c **** #endif
 553:MCSDK_v6.0.0-Full/MotorControl/MCSDK/MCLib/Any/Src/sto_pll_speed_pos_fdbk.c ****   return (bAux);
 554:MCSDK_v6.0.0-Full/MotorControl/MCSDK/MCLib/Any/Src/sto_pll_speed_pos_fdbk.c **** }
 555:MCSDK_v6.0.0-Full/MotorControl/MCSDK/MCLib/Any/Src/sto_pll_speed_pos_fdbk.c **** 
 556:MCSDK_v6.0.0-Full/MotorControl/MCSDK/MCLib/Any/Src/sto_pll_speed_pos_fdbk.c **** #if defined (CCMRAM)
 557:MCSDK_v6.0.0-Full/MotorControl/MCSDK/MCLib/Any/Src/sto_pll_speed_pos_fdbk.c **** #if defined (__ICCARM__)
 558:MCSDK_v6.0.0-Full/MotorControl/MCSDK/MCLib/Any/Src/sto_pll_speed_pos_fdbk.c **** #pragma location = ".ccmram"
 559:MCSDK_v6.0.0-Full/MotorControl/MCSDK/MCLib/Any/Src/sto_pll_speed_pos_fdbk.c **** #elif defined (__CC_ARM) || defined(__GNUC__)
 560:MCSDK_v6.0.0-Full/MotorControl/MCSDK/MCLib/Any/Src/sto_pll_speed_pos_fdbk.c **** __attribute__( ( section ( ".ccmram" ) ) )
 561:MCSDK_v6.0.0-Full/MotorControl/MCSDK/MCLib/Any/Src/sto_pll_speed_pos_fdbk.c **** #endif
 562:MCSDK_v6.0.0-Full/MotorControl/MCSDK/MCLib/Any/Src/sto_pll_speed_pos_fdbk.c **** #endif
 563:MCSDK_v6.0.0-Full/MotorControl/MCSDK/MCLib/Any/Src/sto_pll_speed_pos_fdbk.c **** /**
 564:MCSDK_v6.0.0-Full/MotorControl/MCSDK/MCLib/Any/Src/sto_pll_speed_pos_fdbk.c ****   * @brief  This method must be called - at least - with the same periodicity
 565:MCSDK_v6.0.0-Full/MotorControl/MCSDK/MCLib/Any/Src/sto_pll_speed_pos_fdbk.c ****   *         on which speed control is executed. It computes and update component
 566:MCSDK_v6.0.0-Full/MotorControl/MCSDK/MCLib/Any/Src/sto_pll_speed_pos_fdbk.c ****   *         variable hElSpeedDpp that is estimated average electrical speed
 567:MCSDK_v6.0.0-Full/MotorControl/MCSDK/MCLib/Any/Src/sto_pll_speed_pos_fdbk.c ****   *         expressed in dpp used for instance in observer equations.
 568:MCSDK_v6.0.0-Full/MotorControl/MCSDK/MCLib/Any/Src/sto_pll_speed_pos_fdbk.c ****   *         Average is computed considering a FIFO depth equal to
 569:MCSDK_v6.0.0-Full/MotorControl/MCSDK/MCLib/Any/Src/sto_pll_speed_pos_fdbk.c ****   *         bSpeedBufferSizedpp.
 570:MCSDK_v6.0.0-Full/MotorControl/MCSDK/MCLib/Any/Src/sto_pll_speed_pos_fdbk.c ****   * @param  pHandle: handler of the current instance of the STO component
 571:MCSDK_v6.0.0-Full/MotorControl/MCSDK/MCLib/Any/Src/sto_pll_speed_pos_fdbk.c ****   * @retval none
 572:MCSDK_v6.0.0-Full/MotorControl/MCSDK/MCLib/Any/Src/sto_pll_speed_pos_fdbk.c ****   */
 573:MCSDK_v6.0.0-Full/MotorControl/MCSDK/MCLib/Any/Src/sto_pll_speed_pos_fdbk.c **** __weak void STO_PLL_CalcAvrgElSpeedDpp(STO_PLL_Handle_t *pHandle)
 574:MCSDK_v6.0.0-Full/MotorControl/MCSDK/MCLib/Any/Src/sto_pll_speed_pos_fdbk.c **** {
 575:MCSDK_v6.0.0-Full/MotorControl/MCSDK/MCLib/Any/Src/sto_pll_speed_pos_fdbk.c **** #ifdef NULL_PTR_STO_PLL_SPD_POS_FDB
 576:MCSDK_v6.0.0-Full/MotorControl/MCSDK/MCLib/Any/Src/sto_pll_speed_pos_fdbk.c ****   if (MC_NULL == pHandle)
 577:MCSDK_v6.0.0-Full/MotorControl/MCSDK/MCLib/Any/Src/sto_pll_speed_pos_fdbk.c ****   {
 578:MCSDK_v6.0.0-Full/MotorControl/MCSDK/MCLib/Any/Src/sto_pll_speed_pos_fdbk.c ****     /* Nothing to do */
 579:MCSDK_v6.0.0-Full/MotorControl/MCSDK/MCLib/Any/Src/sto_pll_speed_pos_fdbk.c ****   }
 580:MCSDK_v6.0.0-Full/MotorControl/MCSDK/MCLib/Any/Src/sto_pll_speed_pos_fdbk.c ****   else
 581:MCSDK_v6.0.0-Full/MotorControl/MCSDK/MCLib/Any/Src/sto_pll_speed_pos_fdbk.c ****   {
 582:MCSDK_v6.0.0-Full/MotorControl/MCSDK/MCLib/Any/Src/sto_pll_speed_pos_fdbk.c **** #endif
 583:MCSDK_v6.0.0-Full/MotorControl/MCSDK/MCLib/Any/Src/sto_pll_speed_pos_fdbk.c ****     int16_t hIndexNew = (int16_t)pHandle->Speed_Buffer_Index;
 584:MCSDK_v6.0.0-Full/MotorControl/MCSDK/MCLib/Any/Src/sto_pll_speed_pos_fdbk.c ****     int16_t hIndexOld;
 585:MCSDK_v6.0.0-Full/MotorControl/MCSDK/MCLib/Any/Src/sto_pll_speed_pos_fdbk.c ****     int16_t hIndexOldTemp;
 586:MCSDK_v6.0.0-Full/MotorControl/MCSDK/MCLib/Any/Src/sto_pll_speed_pos_fdbk.c ****     int32_t wSum = pHandle->DppBufferSum;
 587:MCSDK_v6.0.0-Full/MotorControl/MCSDK/MCLib/Any/Src/sto_pll_speed_pos_fdbk.c ****     int32_t wAvrSpeed_dpp;
 588:MCSDK_v6.0.0-Full/MotorControl/MCSDK/MCLib/Any/Src/sto_pll_speed_pos_fdbk.c ****     int16_t hSpeedBufferSizedpp = (int16_t)pHandle->SpeedBufferSizeDpp;
 589:MCSDK_v6.0.0-Full/MotorControl/MCSDK/MCLib/Any/Src/sto_pll_speed_pos_fdbk.c ****     int16_t hSpeedBufferSizeUnit = (int16_t)pHandle->SpeedBufferSizeUnit;
 590:MCSDK_v6.0.0-Full/MotorControl/MCSDK/MCLib/Any/Src/sto_pll_speed_pos_fdbk.c ****     int16_t hBufferSizeDiff;
 591:MCSDK_v6.0.0-Full/MotorControl/MCSDK/MCLib/Any/Src/sto_pll_speed_pos_fdbk.c **** 
 592:MCSDK_v6.0.0-Full/MotorControl/MCSDK/MCLib/Any/Src/sto_pll_speed_pos_fdbk.c ****     hBufferSizeDiff = hSpeedBufferSizeUnit - hSpeedBufferSizedpp;
 593:MCSDK_v6.0.0-Full/MotorControl/MCSDK/MCLib/Any/Src/sto_pll_speed_pos_fdbk.c **** 
 594:MCSDK_v6.0.0-Full/MotorControl/MCSDK/MCLib/Any/Src/sto_pll_speed_pos_fdbk.c ****     if (0 == hBufferSizeDiff)
 595:MCSDK_v6.0.0-Full/MotorControl/MCSDK/MCLib/Any/Src/sto_pll_speed_pos_fdbk.c ****     {
 596:MCSDK_v6.0.0-Full/MotorControl/MCSDK/MCLib/Any/Src/sto_pll_speed_pos_fdbk.c ****       wSum = wSum + pHandle->Speed_Buffer[hIndexNew] - pHandle->SpeedBufferOldestEl;
 597:MCSDK_v6.0.0-Full/MotorControl/MCSDK/MCLib/Any/Src/sto_pll_speed_pos_fdbk.c ****     }
 598:MCSDK_v6.0.0-Full/MotorControl/MCSDK/MCLib/Any/Src/sto_pll_speed_pos_fdbk.c ****     else
 599:MCSDK_v6.0.0-Full/MotorControl/MCSDK/MCLib/Any/Src/sto_pll_speed_pos_fdbk.c ****     {
 600:MCSDK_v6.0.0-Full/MotorControl/MCSDK/MCLib/Any/Src/sto_pll_speed_pos_fdbk.c ****       hIndexOldTemp = hIndexNew + hBufferSizeDiff;
ARM GAS  /tmp/ccl72mIK.s 			page 12


 601:MCSDK_v6.0.0-Full/MotorControl/MCSDK/MCLib/Any/Src/sto_pll_speed_pos_fdbk.c **** 
 602:MCSDK_v6.0.0-Full/MotorControl/MCSDK/MCLib/Any/Src/sto_pll_speed_pos_fdbk.c ****       if (hIndexOldTemp >= hSpeedBufferSizeUnit)
 603:MCSDK_v6.0.0-Full/MotorControl/MCSDK/MCLib/Any/Src/sto_pll_speed_pos_fdbk.c ****       {
 604:MCSDK_v6.0.0-Full/MotorControl/MCSDK/MCLib/Any/Src/sto_pll_speed_pos_fdbk.c ****         hIndexOld = hIndexOldTemp - hSpeedBufferSizeUnit;
 605:MCSDK_v6.0.0-Full/MotorControl/MCSDK/MCLib/Any/Src/sto_pll_speed_pos_fdbk.c ****       }
 606:MCSDK_v6.0.0-Full/MotorControl/MCSDK/MCLib/Any/Src/sto_pll_speed_pos_fdbk.c ****       else
 607:MCSDK_v6.0.0-Full/MotorControl/MCSDK/MCLib/Any/Src/sto_pll_speed_pos_fdbk.c ****       {
 608:MCSDK_v6.0.0-Full/MotorControl/MCSDK/MCLib/Any/Src/sto_pll_speed_pos_fdbk.c ****         hIndexOld = hIndexOldTemp;
 609:MCSDK_v6.0.0-Full/MotorControl/MCSDK/MCLib/Any/Src/sto_pll_speed_pos_fdbk.c ****       }
 610:MCSDK_v6.0.0-Full/MotorControl/MCSDK/MCLib/Any/Src/sto_pll_speed_pos_fdbk.c **** 
 611:MCSDK_v6.0.0-Full/MotorControl/MCSDK/MCLib/Any/Src/sto_pll_speed_pos_fdbk.c ****       wSum = wSum + pHandle->Speed_Buffer[hIndexNew] - pHandle->Speed_Buffer[hIndexOld];
 612:MCSDK_v6.0.0-Full/MotorControl/MCSDK/MCLib/Any/Src/sto_pll_speed_pos_fdbk.c ****     }
 613:MCSDK_v6.0.0-Full/MotorControl/MCSDK/MCLib/Any/Src/sto_pll_speed_pos_fdbk.c **** 
 614:MCSDK_v6.0.0-Full/MotorControl/MCSDK/MCLib/Any/Src/sto_pll_speed_pos_fdbk.c **** #ifndef FULL_MISRA_C_COMPLIANCY_STO_PLL
 615:MCSDK_v6.0.0-Full/MotorControl/MCSDK/MCLib/Any/Src/sto_pll_speed_pos_fdbk.c ****   //cstat !MISRAC2012-Rule-1.3_n !ATH-shift-neg !MISRAC2012-Rule-10.1_R6
 616:MCSDK_v6.0.0-Full/MotorControl/MCSDK/MCLib/Any/Src/sto_pll_speed_pos_fdbk.c ****   wAvrSpeed_dpp = wSum >> pHandle->SpeedBufferSizeDppLOG;
 617:MCSDK_v6.0.0-Full/MotorControl/MCSDK/MCLib/Any/Src/sto_pll_speed_pos_fdbk.c **** #else
 618:MCSDK_v6.0.0-Full/MotorControl/MCSDK/MCLib/Any/Src/sto_pll_speed_pos_fdbk.c ****   if ((int16_t )0 == hSpeedBufferSizedpp)
 619:MCSDK_v6.0.0-Full/MotorControl/MCSDK/MCLib/Any/Src/sto_pll_speed_pos_fdbk.c ****   {
 620:MCSDK_v6.0.0-Full/MotorControl/MCSDK/MCLib/Any/Src/sto_pll_speed_pos_fdbk.c ****     /* Nothing to do */
 621:MCSDK_v6.0.0-Full/MotorControl/MCSDK/MCLib/Any/Src/sto_pll_speed_pos_fdbk.c ****     wAvrSpeed_dpp = wSum;
 622:MCSDK_v6.0.0-Full/MotorControl/MCSDK/MCLib/Any/Src/sto_pll_speed_pos_fdbk.c ****   }
 623:MCSDK_v6.0.0-Full/MotorControl/MCSDK/MCLib/Any/Src/sto_pll_speed_pos_fdbk.c ****   else
 624:MCSDK_v6.0.0-Full/MotorControl/MCSDK/MCLib/Any/Src/sto_pll_speed_pos_fdbk.c ****   {
 625:MCSDK_v6.0.0-Full/MotorControl/MCSDK/MCLib/Any/Src/sto_pll_speed_pos_fdbk.c ****     wAvrSpeed_dpp = wSum / hSpeedBufferSizedpp;
 626:MCSDK_v6.0.0-Full/MotorControl/MCSDK/MCLib/Any/Src/sto_pll_speed_pos_fdbk.c ****   }
 627:MCSDK_v6.0.0-Full/MotorControl/MCSDK/MCLib/Any/Src/sto_pll_speed_pos_fdbk.c **** #endif
 628:MCSDK_v6.0.0-Full/MotorControl/MCSDK/MCLib/Any/Src/sto_pll_speed_pos_fdbk.c ****     pHandle->_Super.hElSpeedDpp = (int16_t)wAvrSpeed_dpp;
 629:MCSDK_v6.0.0-Full/MotorControl/MCSDK/MCLib/Any/Src/sto_pll_speed_pos_fdbk.c ****     pHandle->DppBufferSum = wSum;
 630:MCSDK_v6.0.0-Full/MotorControl/MCSDK/MCLib/Any/Src/sto_pll_speed_pos_fdbk.c **** #ifdef NULL_PTR_STO_PLL_SPD_POS_FDB
 631:MCSDK_v6.0.0-Full/MotorControl/MCSDK/MCLib/Any/Src/sto_pll_speed_pos_fdbk.c ****   }
 632:MCSDK_v6.0.0-Full/MotorControl/MCSDK/MCLib/Any/Src/sto_pll_speed_pos_fdbk.c **** #endif
 633:MCSDK_v6.0.0-Full/MotorControl/MCSDK/MCLib/Any/Src/sto_pll_speed_pos_fdbk.c **** }
 634:MCSDK_v6.0.0-Full/MotorControl/MCSDK/MCLib/Any/Src/sto_pll_speed_pos_fdbk.c **** 
 635:MCSDK_v6.0.0-Full/MotorControl/MCSDK/MCLib/Any/Src/sto_pll_speed_pos_fdbk.c **** /**
 636:MCSDK_v6.0.0-Full/MotorControl/MCSDK/MCLib/Any/Src/sto_pll_speed_pos_fdbk.c ****   * @brief  It clears state observer component by re-initializing private variables
 637:MCSDK_v6.0.0-Full/MotorControl/MCSDK/MCLib/Any/Src/sto_pll_speed_pos_fdbk.c ****   * @param  pHandle related object of class CSTO_SPD
 638:MCSDK_v6.0.0-Full/MotorControl/MCSDK/MCLib/Any/Src/sto_pll_speed_pos_fdbk.c ****   * @retval none
 639:MCSDK_v6.0.0-Full/MotorControl/MCSDK/MCLib/Any/Src/sto_pll_speed_pos_fdbk.c ****   */
 640:MCSDK_v6.0.0-Full/MotorControl/MCSDK/MCLib/Any/Src/sto_pll_speed_pos_fdbk.c **** __weak void STO_PLL_Clear(STO_PLL_Handle_t *pHandle)
 641:MCSDK_v6.0.0-Full/MotorControl/MCSDK/MCLib/Any/Src/sto_pll_speed_pos_fdbk.c **** {
 642:MCSDK_v6.0.0-Full/MotorControl/MCSDK/MCLib/Any/Src/sto_pll_speed_pos_fdbk.c **** #ifdef NULL_PTR_STO_PLL_SPD_POS_FDB
 643:MCSDK_v6.0.0-Full/MotorControl/MCSDK/MCLib/Any/Src/sto_pll_speed_pos_fdbk.c ****   if (MC_NULL == pHandle)
 644:MCSDK_v6.0.0-Full/MotorControl/MCSDK/MCLib/Any/Src/sto_pll_speed_pos_fdbk.c ****   {
 645:MCSDK_v6.0.0-Full/MotorControl/MCSDK/MCLib/Any/Src/sto_pll_speed_pos_fdbk.c ****     /* Nothing to do */
 646:MCSDK_v6.0.0-Full/MotorControl/MCSDK/MCLib/Any/Src/sto_pll_speed_pos_fdbk.c ****   }
 647:MCSDK_v6.0.0-Full/MotorControl/MCSDK/MCLib/Any/Src/sto_pll_speed_pos_fdbk.c ****   else
 648:MCSDK_v6.0.0-Full/MotorControl/MCSDK/MCLib/Any/Src/sto_pll_speed_pos_fdbk.c ****   {
 649:MCSDK_v6.0.0-Full/MotorControl/MCSDK/MCLib/Any/Src/sto_pll_speed_pos_fdbk.c **** #endif
 650:MCSDK_v6.0.0-Full/MotorControl/MCSDK/MCLib/Any/Src/sto_pll_speed_pos_fdbk.c ****     pHandle->Ialfa_est = (int32_t)0;
 651:MCSDK_v6.0.0-Full/MotorControl/MCSDK/MCLib/Any/Src/sto_pll_speed_pos_fdbk.c ****     pHandle->Ibeta_est = (int32_t)0;
 652:MCSDK_v6.0.0-Full/MotorControl/MCSDK/MCLib/Any/Src/sto_pll_speed_pos_fdbk.c ****     pHandle->wBemf_alfa_est = (int32_t)0;
 653:MCSDK_v6.0.0-Full/MotorControl/MCSDK/MCLib/Any/Src/sto_pll_speed_pos_fdbk.c ****     pHandle->wBemf_beta_est = (int32_t)0;
 654:MCSDK_v6.0.0-Full/MotorControl/MCSDK/MCLib/Any/Src/sto_pll_speed_pos_fdbk.c ****     pHandle->_Super.hElAngle = (int16_t)0;
 655:MCSDK_v6.0.0-Full/MotorControl/MCSDK/MCLib/Any/Src/sto_pll_speed_pos_fdbk.c ****     pHandle->_Super.hElSpeedDpp = (int16_t)0;
 656:MCSDK_v6.0.0-Full/MotorControl/MCSDK/MCLib/Any/Src/sto_pll_speed_pos_fdbk.c ****     pHandle->ConsistencyCounter = 0u;
 657:MCSDK_v6.0.0-Full/MotorControl/MCSDK/MCLib/Any/Src/sto_pll_speed_pos_fdbk.c ****     pHandle->ReliabilityCounter = 0u;
ARM GAS  /tmp/ccl72mIK.s 			page 13


 658:MCSDK_v6.0.0-Full/MotorControl/MCSDK/MCLib/Any/Src/sto_pll_speed_pos_fdbk.c ****     pHandle->IsAlgorithmConverged = false;
 659:MCSDK_v6.0.0-Full/MotorControl/MCSDK/MCLib/Any/Src/sto_pll_speed_pos_fdbk.c ****     pHandle->IsBemfConsistent = false;
 660:MCSDK_v6.0.0-Full/MotorControl/MCSDK/MCLib/Any/Src/sto_pll_speed_pos_fdbk.c ****     pHandle->Obs_Bemf_Level = (int32_t)0;
 661:MCSDK_v6.0.0-Full/MotorControl/MCSDK/MCLib/Any/Src/sto_pll_speed_pos_fdbk.c ****     pHandle->Est_Bemf_Level = (int32_t)0;
 662:MCSDK_v6.0.0-Full/MotorControl/MCSDK/MCLib/Any/Src/sto_pll_speed_pos_fdbk.c ****     pHandle->DppBufferSum = (int32_t)0;
 663:MCSDK_v6.0.0-Full/MotorControl/MCSDK/MCLib/Any/Src/sto_pll_speed_pos_fdbk.c ****     pHandle->ForceConvergency = false;
 664:MCSDK_v6.0.0-Full/MotorControl/MCSDK/MCLib/Any/Src/sto_pll_speed_pos_fdbk.c ****     pHandle->ForceConvergency2 = false;
 665:MCSDK_v6.0.0-Full/MotorControl/MCSDK/MCLib/Any/Src/sto_pll_speed_pos_fdbk.c **** 
 666:MCSDK_v6.0.0-Full/MotorControl/MCSDK/MCLib/Any/Src/sto_pll_speed_pos_fdbk.c ****     STO_InitSpeedBuffer(pHandle);
 667:MCSDK_v6.0.0-Full/MotorControl/MCSDK/MCLib/Any/Src/sto_pll_speed_pos_fdbk.c ****     PID_SetIntegralTerm(& pHandle->PIRegulator, (int32_t)0);
 668:MCSDK_v6.0.0-Full/MotorControl/MCSDK/MCLib/Any/Src/sto_pll_speed_pos_fdbk.c **** #ifdef NULL_PTR_STO_PLL_SPD_POS_FDB
 669:MCSDK_v6.0.0-Full/MotorControl/MCSDK/MCLib/Any/Src/sto_pll_speed_pos_fdbk.c ****   }
 670:MCSDK_v6.0.0-Full/MotorControl/MCSDK/MCLib/Any/Src/sto_pll_speed_pos_fdbk.c **** #endif
 671:MCSDK_v6.0.0-Full/MotorControl/MCSDK/MCLib/Any/Src/sto_pll_speed_pos_fdbk.c **** }
 672:MCSDK_v6.0.0-Full/MotorControl/MCSDK/MCLib/Any/Src/sto_pll_speed_pos_fdbk.c **** 
 673:MCSDK_v6.0.0-Full/MotorControl/MCSDK/MCLib/Any/Src/sto_pll_speed_pos_fdbk.c **** /**
 674:MCSDK_v6.0.0-Full/MotorControl/MCSDK/MCLib/Any/Src/sto_pll_speed_pos_fdbk.c ****   * @brief  It stores in estimated speed FIFO latest calculated value of motor
 675:MCSDK_v6.0.0-Full/MotorControl/MCSDK/MCLib/Any/Src/sto_pll_speed_pos_fdbk.c ****   *         speed
 676:MCSDK_v6.0.0-Full/MotorControl/MCSDK/MCLib/Any/Src/sto_pll_speed_pos_fdbk.c ****   * @param  pHandle: handler of the current instance of the STO component
 677:MCSDK_v6.0.0-Full/MotorControl/MCSDK/MCLib/Any/Src/sto_pll_speed_pos_fdbk.c ****   * @retval none
 678:MCSDK_v6.0.0-Full/MotorControl/MCSDK/MCLib/Any/Src/sto_pll_speed_pos_fdbk.c ****   */
 679:MCSDK_v6.0.0-Full/MotorControl/MCSDK/MCLib/Any/Src/sto_pll_speed_pos_fdbk.c **** inline static void STO_Store_Rotor_Speed(STO_PLL_Handle_t *pHandle, int16_t hRotor_Speed)
 680:MCSDK_v6.0.0-Full/MotorControl/MCSDK/MCLib/Any/Src/sto_pll_speed_pos_fdbk.c **** {
 681:MCSDK_v6.0.0-Full/MotorControl/MCSDK/MCLib/Any/Src/sto_pll_speed_pos_fdbk.c ****   uint8_t bBuffer_index = pHandle->Speed_Buffer_Index;
 682:MCSDK_v6.0.0-Full/MotorControl/MCSDK/MCLib/Any/Src/sto_pll_speed_pos_fdbk.c **** 
 683:MCSDK_v6.0.0-Full/MotorControl/MCSDK/MCLib/Any/Src/sto_pll_speed_pos_fdbk.c ****   bBuffer_index++;
 684:MCSDK_v6.0.0-Full/MotorControl/MCSDK/MCLib/Any/Src/sto_pll_speed_pos_fdbk.c ****   if (bBuffer_index == pHandle->SpeedBufferSizeUnit)
 685:MCSDK_v6.0.0-Full/MotorControl/MCSDK/MCLib/Any/Src/sto_pll_speed_pos_fdbk.c ****   {
 686:MCSDK_v6.0.0-Full/MotorControl/MCSDK/MCLib/Any/Src/sto_pll_speed_pos_fdbk.c ****     bBuffer_index = 0U;
 687:MCSDK_v6.0.0-Full/MotorControl/MCSDK/MCLib/Any/Src/sto_pll_speed_pos_fdbk.c ****   }
 688:MCSDK_v6.0.0-Full/MotorControl/MCSDK/MCLib/Any/Src/sto_pll_speed_pos_fdbk.c **** 
 689:MCSDK_v6.0.0-Full/MotorControl/MCSDK/MCLib/Any/Src/sto_pll_speed_pos_fdbk.c ****   pHandle->SpeedBufferOldestEl = pHandle->Speed_Buffer[bBuffer_index];
 690:MCSDK_v6.0.0-Full/MotorControl/MCSDK/MCLib/Any/Src/sto_pll_speed_pos_fdbk.c ****   pHandle->Speed_Buffer[bBuffer_index] = hRotor_Speed;
 691:MCSDK_v6.0.0-Full/MotorControl/MCSDK/MCLib/Any/Src/sto_pll_speed_pos_fdbk.c ****   pHandle->Speed_Buffer_Index = bBuffer_index;
 692:MCSDK_v6.0.0-Full/MotorControl/MCSDK/MCLib/Any/Src/sto_pll_speed_pos_fdbk.c **** }
 693:MCSDK_v6.0.0-Full/MotorControl/MCSDK/MCLib/Any/Src/sto_pll_speed_pos_fdbk.c **** 
 694:MCSDK_v6.0.0-Full/MotorControl/MCSDK/MCLib/Any/Src/sto_pll_speed_pos_fdbk.c **** /**
 695:MCSDK_v6.0.0-Full/MotorControl/MCSDK/MCLib/Any/Src/sto_pll_speed_pos_fdbk.c ****   * @brief  It executes PLL algorithm for rotor position extraction from B-emf
 696:MCSDK_v6.0.0-Full/MotorControl/MCSDK/MCLib/Any/Src/sto_pll_speed_pos_fdbk.c ****   *         alpha and beta
 697:MCSDK_v6.0.0-Full/MotorControl/MCSDK/MCLib/Any/Src/sto_pll_speed_pos_fdbk.c ****   * @param  pHandle: handler of the current instance of the STO component
 698:MCSDK_v6.0.0-Full/MotorControl/MCSDK/MCLib/Any/Src/sto_pll_speed_pos_fdbk.c ****   *         hBemf_alfa_est estimated Bemf alpha on the stator reference frame
 699:MCSDK_v6.0.0-Full/MotorControl/MCSDK/MCLib/Any/Src/sto_pll_speed_pos_fdbk.c ****   *         hBemf_beta_est estimated Bemf beta on the stator reference frame
 700:MCSDK_v6.0.0-Full/MotorControl/MCSDK/MCLib/Any/Src/sto_pll_speed_pos_fdbk.c ****   * @retval none
 701:MCSDK_v6.0.0-Full/MotorControl/MCSDK/MCLib/Any/Src/sto_pll_speed_pos_fdbk.c ****   */
 702:MCSDK_v6.0.0-Full/MotorControl/MCSDK/MCLib/Any/Src/sto_pll_speed_pos_fdbk.c **** inline static int16_t STO_ExecutePLL(STO_PLL_Handle_t *pHandle, int16_t hBemf_alfa_est, int16_t hBe
 703:MCSDK_v6.0.0-Full/MotorControl/MCSDK/MCLib/Any/Src/sto_pll_speed_pos_fdbk.c **** {
 704:MCSDK_v6.0.0-Full/MotorControl/MCSDK/MCLib/Any/Src/sto_pll_speed_pos_fdbk.c ****   int32_t wAlfa_Sin_tmp;
 705:MCSDK_v6.0.0-Full/MotorControl/MCSDK/MCLib/Any/Src/sto_pll_speed_pos_fdbk.c ****   int32_t wBeta_Cos_tmp;
 706:MCSDK_v6.0.0-Full/MotorControl/MCSDK/MCLib/Any/Src/sto_pll_speed_pos_fdbk.c ****   Trig_Components Local_Components;
 707:MCSDK_v6.0.0-Full/MotorControl/MCSDK/MCLib/Any/Src/sto_pll_speed_pos_fdbk.c ****   int16_t hAux1;
 708:MCSDK_v6.0.0-Full/MotorControl/MCSDK/MCLib/Any/Src/sto_pll_speed_pos_fdbk.c ****   int16_t hAux2;
 709:MCSDK_v6.0.0-Full/MotorControl/MCSDK/MCLib/Any/Src/sto_pll_speed_pos_fdbk.c ****   int16_t hOutput;
 710:MCSDK_v6.0.0-Full/MotorControl/MCSDK/MCLib/Any/Src/sto_pll_speed_pos_fdbk.c **** 
 711:MCSDK_v6.0.0-Full/MotorControl/MCSDK/MCLib/Any/Src/sto_pll_speed_pos_fdbk.c ****   Local_Components = MCM_Trig_Functions(pHandle->_Super.hElAngle);
 712:MCSDK_v6.0.0-Full/MotorControl/MCSDK/MCLib/Any/Src/sto_pll_speed_pos_fdbk.c **** 
 713:MCSDK_v6.0.0-Full/MotorControl/MCSDK/MCLib/Any/Src/sto_pll_speed_pos_fdbk.c ****   /* Alfa & Beta BEMF multiplied by Cos & Sin*/
 714:MCSDK_v6.0.0-Full/MotorControl/MCSDK/MCLib/Any/Src/sto_pll_speed_pos_fdbk.c ****   wAlfa_Sin_tmp = ((int32_t )hBemf_alfa_est) * ((int32_t )Local_Components.hSin);
ARM GAS  /tmp/ccl72mIK.s 			page 14


 715:MCSDK_v6.0.0-Full/MotorControl/MCSDK/MCLib/Any/Src/sto_pll_speed_pos_fdbk.c ****   wBeta_Cos_tmp = ((int32_t )hBemf_beta_est) * ((int32_t )Local_Components.hCos);
 716:MCSDK_v6.0.0-Full/MotorControl/MCSDK/MCLib/Any/Src/sto_pll_speed_pos_fdbk.c **** 
 717:MCSDK_v6.0.0-Full/MotorControl/MCSDK/MCLib/Any/Src/sto_pll_speed_pos_fdbk.c **** #ifndef FULL_MISRA_C_COMPLIANCY_STO_PLL
 718:MCSDK_v6.0.0-Full/MotorControl/MCSDK/MCLib/Any/Src/sto_pll_speed_pos_fdbk.c ****   hAux1 = (int16_t)(wBeta_Cos_tmp >> 15); //cstat !MISRAC2012-Rule-1.3_n !ATH-shift-neg !MISRAC2012
 719:MCSDK_v6.0.0-Full/MotorControl/MCSDK/MCLib/Any/Src/sto_pll_speed_pos_fdbk.c **** #else
 720:MCSDK_v6.0.0-Full/MotorControl/MCSDK/MCLib/Any/Src/sto_pll_speed_pos_fdbk.c ****   hAux1 = (int16_t)(wBeta_Cos_tmp / 32768);
 721:MCSDK_v6.0.0-Full/MotorControl/MCSDK/MCLib/Any/Src/sto_pll_speed_pos_fdbk.c **** #endif
 722:MCSDK_v6.0.0-Full/MotorControl/MCSDK/MCLib/Any/Src/sto_pll_speed_pos_fdbk.c **** 
 723:MCSDK_v6.0.0-Full/MotorControl/MCSDK/MCLib/Any/Src/sto_pll_speed_pos_fdbk.c **** #ifndef FULL_MISRA_C_COMPLIANCY_STO_PLL
 724:MCSDK_v6.0.0-Full/MotorControl/MCSDK/MCLib/Any/Src/sto_pll_speed_pos_fdbk.c ****   hAux2 = (int16_t)(wAlfa_Sin_tmp >> 15); //cstat !MISRAC2012-Rule-1.3_n !ATH-shift-neg !MISRAC2012
 725:MCSDK_v6.0.0-Full/MotorControl/MCSDK/MCLib/Any/Src/sto_pll_speed_pos_fdbk.c **** #else
 726:MCSDK_v6.0.0-Full/MotorControl/MCSDK/MCLib/Any/Src/sto_pll_speed_pos_fdbk.c ****   hAux2 = (int16_t)(wAlfa_Sin_tmp / 32768);
 727:MCSDK_v6.0.0-Full/MotorControl/MCSDK/MCLib/Any/Src/sto_pll_speed_pos_fdbk.c **** #endif
 728:MCSDK_v6.0.0-Full/MotorControl/MCSDK/MCLib/Any/Src/sto_pll_speed_pos_fdbk.c **** 
 729:MCSDK_v6.0.0-Full/MotorControl/MCSDK/MCLib/Any/Src/sto_pll_speed_pos_fdbk.c ****   /* Speed PI regulator */
 730:MCSDK_v6.0.0-Full/MotorControl/MCSDK/MCLib/Any/Src/sto_pll_speed_pos_fdbk.c ****   hOutput = PI_Controller(& pHandle->PIRegulator, (int32_t)(hAux1 ) - hAux2);
 731:MCSDK_v6.0.0-Full/MotorControl/MCSDK/MCLib/Any/Src/sto_pll_speed_pos_fdbk.c ****   return (hOutput);
 732:MCSDK_v6.0.0-Full/MotorControl/MCSDK/MCLib/Any/Src/sto_pll_speed_pos_fdbk.c **** }
 733:MCSDK_v6.0.0-Full/MotorControl/MCSDK/MCLib/Any/Src/sto_pll_speed_pos_fdbk.c **** 
 734:MCSDK_v6.0.0-Full/MotorControl/MCSDK/MCLib/Any/Src/sto_pll_speed_pos_fdbk.c **** /**
 735:MCSDK_v6.0.0-Full/MotorControl/MCSDK/MCLib/Any/Src/sto_pll_speed_pos_fdbk.c ****   * @brief  It clears the estimated speed buffer
 736:MCSDK_v6.0.0-Full/MotorControl/MCSDK/MCLib/Any/Src/sto_pll_speed_pos_fdbk.c ****   * @param  pHandle: handler of the current instance of the STO component
 737:MCSDK_v6.0.0-Full/MotorControl/MCSDK/MCLib/Any/Src/sto_pll_speed_pos_fdbk.c ****   * @retval none
 738:MCSDK_v6.0.0-Full/MotorControl/MCSDK/MCLib/Any/Src/sto_pll_speed_pos_fdbk.c ****   */
 739:MCSDK_v6.0.0-Full/MotorControl/MCSDK/MCLib/Any/Src/sto_pll_speed_pos_fdbk.c **** static void STO_InitSpeedBuffer(STO_PLL_Handle_t * pHandle)
 740:MCSDK_v6.0.0-Full/MotorControl/MCSDK/MCLib/Any/Src/sto_pll_speed_pos_fdbk.c **** {
  29              		.loc 1 740 1 view -0
  30              		.cfi_startproc
  31              		@ args = 0, pretend = 0, frame = 0
  32              		@ frame_needed = 0, uses_anonymous_args = 0
  33              		@ link register save eliminated.
  34              		.loc 1 740 1 is_stmt 0 view .LVU1
  35 0000 10B4     		push	{r4}
  36              		.cfi_def_cfa_offset 4
  37              		.cfi_offset 4, -4
 741:MCSDK_v6.0.0-Full/MotorControl/MCSDK/MCLib/Any/Src/sto_pll_speed_pos_fdbk.c ****   uint8_t b_i;
  38              		.loc 1 741 3 is_stmt 1 view .LVU2
 742:MCSDK_v6.0.0-Full/MotorControl/MCSDK/MCLib/Any/Src/sto_pll_speed_pos_fdbk.c ****   uint8_t bSpeedBufferSize = pHandle->SpeedBufferSizeUnit;
  39              		.loc 1 742 3 view .LVU3
  40              		.loc 1 742 11 is_stmt 0 view .LVU4
  41 0002 90F80E41 		ldrb	r4, [r0, #270]	@ zero_extendqisi2
  42              	.LVL1:
 743:MCSDK_v6.0.0-Full/MotorControl/MCSDK/MCLib/Any/Src/sto_pll_speed_pos_fdbk.c **** 
 744:MCSDK_v6.0.0-Full/MotorControl/MCSDK/MCLib/Any/Src/sto_pll_speed_pos_fdbk.c ****   /*init speed buffer*/
 745:MCSDK_v6.0.0-Full/MotorControl/MCSDK/MCLib/Any/Src/sto_pll_speed_pos_fdbk.c ****   for (b_i = 0U; b_i < bSpeedBufferSize; b_i++)
  43              		.loc 1 745 3 is_stmt 1 view .LVU5
  44              		.loc 1 745 12 is_stmt 0 view .LVU6
  45 0006 0023     		movs	r3, #0
  46              	.LVL2:
  47              	.L2:
  48              		.loc 1 745 18 is_stmt 1 discriminator 1 view .LVU7
  49              		.loc 1 745 3 is_stmt 0 discriminator 1 view .LVU8
  50 0008 A342     		cmp	r3, r4
  51 000a 08D2     		bcs	.L5
 746:MCSDK_v6.0.0-Full/MotorControl/MCSDK/MCLib/Any/Src/sto_pll_speed_pos_fdbk.c ****   {
 747:MCSDK_v6.0.0-Full/MotorControl/MCSDK/MCLib/Any/Src/sto_pll_speed_pos_fdbk.c ****     pHandle->Speed_Buffer[b_i] = (int16_t)0;
  52              		.loc 1 747 5 is_stmt 1 discriminator 3 view .LVU9
ARM GAS  /tmp/ccl72mIK.s 			page 15


  53              		.loc 1 747 32 is_stmt 0 discriminator 3 view .LVU10
  54 000c 03F13802 		add	r2, r3, #56
  55 0010 00EB4202 		add	r2, r0, r2, lsl #1
  56 0014 0021     		movs	r1, #0
  57 0016 9180     		strh	r1, [r2, #4]	@ movhi
 745:MCSDK_v6.0.0-Full/MotorControl/MCSDK/MCLib/Any/Src/sto_pll_speed_pos_fdbk.c ****   {
  58              		.loc 1 745 42 is_stmt 1 discriminator 3 view .LVU11
 745:MCSDK_v6.0.0-Full/MotorControl/MCSDK/MCLib/Any/Src/sto_pll_speed_pos_fdbk.c ****   {
  59              		.loc 1 745 45 is_stmt 0 discriminator 3 view .LVU12
  60 0018 0133     		adds	r3, r3, #1
  61              	.LVL3:
 745:MCSDK_v6.0.0-Full/MotorControl/MCSDK/MCLib/Any/Src/sto_pll_speed_pos_fdbk.c ****   {
  62              		.loc 1 745 45 discriminator 3 view .LVU13
  63 001a DBB2     		uxtb	r3, r3
  64              	.LVL4:
 745:MCSDK_v6.0.0-Full/MotorControl/MCSDK/MCLib/Any/Src/sto_pll_speed_pos_fdbk.c ****   {
  65              		.loc 1 745 45 discriminator 3 view .LVU14
  66 001c F4E7     		b	.L2
  67              	.L5:
 748:MCSDK_v6.0.0-Full/MotorControl/MCSDK/MCLib/Any/Src/sto_pll_speed_pos_fdbk.c ****   }
 749:MCSDK_v6.0.0-Full/MotorControl/MCSDK/MCLib/Any/Src/sto_pll_speed_pos_fdbk.c ****   pHandle->Speed_Buffer_Index = 0U;
  68              		.loc 1 749 3 is_stmt 1 view .LVU15
  69              		.loc 1 749 31 is_stmt 0 view .LVU16
  70 001e 0023     		movs	r3, #0
  71              	.LVL5:
  72              		.loc 1 749 31 view .LVU17
  73 0020 80F8F430 		strb	r3, [r0, #244]
 750:MCSDK_v6.0.0-Full/MotorControl/MCSDK/MCLib/Any/Src/sto_pll_speed_pos_fdbk.c ****   pHandle->SpeedBufferOldestEl = (int16_t)0;
  74              		.loc 1 750 3 is_stmt 1 view .LVU18
  75              		.loc 1 750 32 is_stmt 0 view .LVU19
  76 0024 A0F80C31 		strh	r3, [r0, #268]	@ movhi
 751:MCSDK_v6.0.0-Full/MotorControl/MCSDK/MCLib/Any/Src/sto_pll_speed_pos_fdbk.c **** 
 752:MCSDK_v6.0.0-Full/MotorControl/MCSDK/MCLib/Any/Src/sto_pll_speed_pos_fdbk.c ****   return;
  77              		.loc 1 752 3 is_stmt 1 view .LVU20
 753:MCSDK_v6.0.0-Full/MotorControl/MCSDK/MCLib/Any/Src/sto_pll_speed_pos_fdbk.c **** }
  78              		.loc 1 753 1 is_stmt 0 view .LVU21
  79 0028 5DF8044B 		ldr	r4, [sp], #4
  80              		.cfi_restore 4
  81              		.cfi_def_cfa_offset 0
  82              	.LVL6:
  83              		.loc 1 753 1 view .LVU22
  84 002c 7047     		bx	lr
  85              		.cfi_endproc
  86              	.LFE1445:
  88              		.section	.text.STO_PLL_Return,"ax",%progbits
  89              		.align	1
  90              		.weak	STO_PLL_Return
  91              		.syntax unified
  92              		.thumb
  93              		.thumb_func
  94              		.fpu fpv4-sp-d16
  96              	STO_PLL_Return:
  97              	.LVL7:
  98              	.LFB1438:
 140:MCSDK_v6.0.0-Full/MotorControl/MCSDK/MCLib/Any/Src/sto_pll_speed_pos_fdbk.c **** #ifdef NULL_PTR_STO_PLL_SPD_POS_FDB
  99              		.loc 1 140 1 is_stmt 1 view -0
 100              		.cfi_startproc
ARM GAS  /tmp/ccl72mIK.s 			page 16


 101              		@ args = 0, pretend = 0, frame = 0
 102              		@ frame_needed = 0, uses_anonymous_args = 0
 103              		@ link register save eliminated.
 151:MCSDK_v6.0.0-Full/MotorControl/MCSDK/MCLib/Any/Src/sto_pll_speed_pos_fdbk.c **** }
 104              		.loc 1 151 3 view .LVU24
 152:MCSDK_v6.0.0-Full/MotorControl/MCSDK/MCLib/Any/Src/sto_pll_speed_pos_fdbk.c **** 
 105              		.loc 1 152 1 is_stmt 0 view .LVU25
 106 0000 7047     		bx	lr
 107              		.cfi_endproc
 108              	.LFE1438:
 110              		.section	.text.STO_PLL_CalcElAngle,"ax",%progbits
 111              		.align	1
 112              		.weak	STO_PLL_CalcElAngle
 113              		.syntax unified
 114              		.thumb
 115              		.thumb_func
 116              		.fpu fpv4-sp-d16
 118              	STO_PLL_CalcElAngle:
 119              	.LVL8:
 120              	.LFB1439:
 170:MCSDK_v6.0.0-Full/MotorControl/MCSDK/MCLib/Any/Src/sto_pll_speed_pos_fdbk.c ****   int16_t retValue;
 121              		.loc 1 170 1 is_stmt 1 view -0
 122              		.cfi_startproc
 123              		@ args = 0, pretend = 0, frame = 40
 124              		@ frame_needed = 0, uses_anonymous_args = 0
 171:MCSDK_v6.0.0-Full/MotorControl/MCSDK/MCLib/Any/Src/sto_pll_speed_pos_fdbk.c **** 
 125              		.loc 1 171 3 view .LVU27
 173:MCSDK_v6.0.0-Full/MotorControl/MCSDK/MCLib/Any/Src/sto_pll_speed_pos_fdbk.c ****   {
 126              		.loc 1 173 3 view .LVU28
 173:MCSDK_v6.0.0-Full/MotorControl/MCSDK/MCLib/Any/Src/sto_pll_speed_pos_fdbk.c ****   {
 127              		.loc 1 173 6 is_stmt 0 view .LVU29
 128 0000 0028     		cmp	r0, #0
 129 0002 00F0F380 		beq	.L20
 170:MCSDK_v6.0.0-Full/MotorControl/MCSDK/MCLib/Any/Src/sto_pll_speed_pos_fdbk.c ****   int16_t retValue;
 130              		.loc 1 170 1 discriminator 1 view .LVU30
 131 0006 2DE9F04F 		push	{r4, r5, r6, r7, r8, r9, r10, fp, lr}
 132              		.cfi_def_cfa_offset 36
 133              		.cfi_offset 4, -36
 134              		.cfi_offset 5, -32
 135              		.cfi_offset 6, -28
 136              		.cfi_offset 7, -24
 137              		.cfi_offset 8, -20
 138              		.cfi_offset 9, -16
 139              		.cfi_offset 10, -12
 140              		.cfi_offset 11, -8
 141              		.cfi_offset 14, -4
 142 000a 8BB0     		sub	sp, sp, #44
 143              		.cfi_def_cfa_offset 80
 144 000c 0446     		mov	r4, r0
 173:MCSDK_v6.0.0-Full/MotorControl/MCSDK/MCLib/Any/Src/sto_pll_speed_pos_fdbk.c ****   {
 145              		.loc 1 173 28 discriminator 1 view .LVU31
 146 000e 0029     		cmp	r1, #0
 147 0010 00F0EE80 		beq	.L21
 148              	.LBB10:
 179:MCSDK_v6.0.0-Full/MotorControl/MCSDK/MCLib/Any/Src/sto_pll_speed_pos_fdbk.c ****     int32_t wDirection;
 149              		.loc 1 179 5 is_stmt 1 view .LVU32
 180:MCSDK_v6.0.0-Full/MotorControl/MCSDK/MCLib/Any/Src/sto_pll_speed_pos_fdbk.c ****     int32_t wIalfa_est_Next;
ARM GAS  /tmp/ccl72mIK.s 			page 17


 150              		.loc 1 180 5 view .LVU33
 181:MCSDK_v6.0.0-Full/MotorControl/MCSDK/MCLib/Any/Src/sto_pll_speed_pos_fdbk.c ****     int32_t wIbeta_est_Next;
 151              		.loc 1 181 5 view .LVU34
 182:MCSDK_v6.0.0-Full/MotorControl/MCSDK/MCLib/Any/Src/sto_pll_speed_pos_fdbk.c ****     int32_t wBemf_alfa_est_Next;
 152              		.loc 1 182 5 view .LVU35
 183:MCSDK_v6.0.0-Full/MotorControl/MCSDK/MCLib/Any/Src/sto_pll_speed_pos_fdbk.c ****     int32_t wBemf_beta_est_Next;
 153              		.loc 1 183 5 view .LVU36
 184:MCSDK_v6.0.0-Full/MotorControl/MCSDK/MCLib/Any/Src/sto_pll_speed_pos_fdbk.c ****     int16_t hAux;
 154              		.loc 1 184 5 view .LVU37
 185:MCSDK_v6.0.0-Full/MotorControl/MCSDK/MCLib/Any/Src/sto_pll_speed_pos_fdbk.c ****     int16_t hAux_Alfa;
 155              		.loc 1 185 5 view .LVU38
 186:MCSDK_v6.0.0-Full/MotorControl/MCSDK/MCLib/Any/Src/sto_pll_speed_pos_fdbk.c ****     int16_t hAux_Beta;
 156              		.loc 1 186 5 view .LVU39
 187:MCSDK_v6.0.0-Full/MotorControl/MCSDK/MCLib/Any/Src/sto_pll_speed_pos_fdbk.c ****     int16_t hIalfa_err;
 157              		.loc 1 187 5 view .LVU40
 188:MCSDK_v6.0.0-Full/MotorControl/MCSDK/MCLib/Any/Src/sto_pll_speed_pos_fdbk.c ****     int16_t hIbeta_err;
 158              		.loc 1 188 5 view .LVU41
 189:MCSDK_v6.0.0-Full/MotorControl/MCSDK/MCLib/Any/Src/sto_pll_speed_pos_fdbk.c ****     int16_t hRotor_Speed;
 159              		.loc 1 189 5 view .LVU42
 190:MCSDK_v6.0.0-Full/MotorControl/MCSDK/MCLib/Any/Src/sto_pll_speed_pos_fdbk.c ****     int16_t hValfa;
 160              		.loc 1 190 5 view .LVU43
 191:MCSDK_v6.0.0-Full/MotorControl/MCSDK/MCLib/Any/Src/sto_pll_speed_pos_fdbk.c ****     int16_t hVbeta;
 161              		.loc 1 191 5 view .LVU44
 192:MCSDK_v6.0.0-Full/MotorControl/MCSDK/MCLib/Any/Src/sto_pll_speed_pos_fdbk.c **** 
 162              		.loc 1 192 5 view .LVU45
 194:MCSDK_v6.0.0-Full/MotorControl/MCSDK/MCLib/Any/Src/sto_pll_speed_pos_fdbk.c ****     {
 163              		.loc 1 194 5 view .LVU46
 194:MCSDK_v6.0.0-Full/MotorControl/MCSDK/MCLib/Any/Src/sto_pll_speed_pos_fdbk.c ****     {
 164              		.loc 1 194 16 is_stmt 0 view .LVU47
 165 0014 826E     		ldr	r2, [r0, #104]
 194:MCSDK_v6.0.0-Full/MotorControl/MCSDK/MCLib/Any/Src/sto_pll_speed_pos_fdbk.c ****     {
 166              		.loc 1 194 53 view .LVU48
 167 0016 B0F92E30 		ldrsh	r3, [r0, #46]
 194:MCSDK_v6.0.0-Full/MotorControl/MCSDK/MCLib/Any/Src/sto_pll_speed_pos_fdbk.c ****     {
 168              		.loc 1 194 60 view .LVU49
 169 001a C3EBC330 		rsb	r0, r3, r3, lsl #15
 170              	.LVL9:
 194:MCSDK_v6.0.0-Full/MotorControl/MCSDK/MCLib/Any/Src/sto_pll_speed_pos_fdbk.c ****     {
 171              		.loc 1 194 8 view .LVU50
 172 001e 8242     		cmp	r2, r0
 173 0020 40F3C380 		ble	.L9
 196:MCSDK_v6.0.0-Full/MotorControl/MCSDK/MCLib/Any/Src/sto_pll_speed_pos_fdbk.c ****     }
 174              		.loc 1 196 7 is_stmt 1 view .LVU51
 196:MCSDK_v6.0.0-Full/MotorControl/MCSDK/MCLib/Any/Src/sto_pll_speed_pos_fdbk.c ****     }
 175              		.loc 1 196 31 is_stmt 0 view .LVU52
 176 0024 A066     		str	r0, [r4, #104]
 177              	.L10:
 205:MCSDK_v6.0.0-Full/MotorControl/MCSDK/MCLib/Any/Src/sto_pll_speed_pos_fdbk.c **** #ifndef FULL_MISRA_C_COMPLIANCY_STO_PLL
 178              		.loc 1 205 5 is_stmt 1 view .LVU53
 208:MCSDK_v6.0.0-Full/MotorControl/MCSDK/MCLib/Any/Src/sto_pll_speed_pos_fdbk.c **** #else
 179              		.loc 1 208 7 view .LVU54
 208:MCSDK_v6.0.0-Full/MotorControl/MCSDK/MCLib/Any/Src/sto_pll_speed_pos_fdbk.c **** #else
 180              		.loc 1 208 36 is_stmt 0 view .LVU55
 181 0026 A26E     		ldr	r2, [r4, #104]
 208:MCSDK_v6.0.0-Full/MotorControl/MCSDK/MCLib/Any/Src/sto_pll_speed_pos_fdbk.c **** #else
 182              		.loc 1 208 63 view .LVU56
 183 0028 B4F81E51 		ldrh	r5, [r4, #286]
ARM GAS  /tmp/ccl72mIK.s 			page 18


 208:MCSDK_v6.0.0-Full/MotorControl/MCSDK/MCLib/Any/Src/sto_pll_speed_pos_fdbk.c **** #else
 184              		.loc 1 208 53 view .LVU57
 185 002c 42FA05F6 		asr	r6, r2, r5
 186 0030 0196     		str	r6, [sp, #4]
 208:MCSDK_v6.0.0-Full/MotorControl/MCSDK/MCLib/Any/Src/sto_pll_speed_pos_fdbk.c **** #else
 187              		.loc 1 208 17 view .LVU58
 188 0032 0FFA86F9 		sxth	r9, r6
 189              	.LVL10:
 213:MCSDK_v6.0.0-Full/MotorControl/MCSDK/MCLib/Any/Src/sto_pll_speed_pos_fdbk.c ****     {
 190              		.loc 1 213 5 is_stmt 1 view .LVU59
 213:MCSDK_v6.0.0-Full/MotorControl/MCSDK/MCLib/Any/Src/sto_pll_speed_pos_fdbk.c ****     {
 191              		.loc 1 213 16 is_stmt 0 view .LVU60
 192 0036 E66E     		ldr	r6, [r4, #108]
 213:MCSDK_v6.0.0-Full/MotorControl/MCSDK/MCLib/Any/Src/sto_pll_speed_pos_fdbk.c ****     {
 193              		.loc 1 213 8 view .LVU61
 194 0038 B042     		cmp	r0, r6
 195 003a 80F2BD80 		bge	.L11
 215:MCSDK_v6.0.0-Full/MotorControl/MCSDK/MCLib/Any/Src/sto_pll_speed_pos_fdbk.c ****     }
 196              		.loc 1 215 7 is_stmt 1 view .LVU62
 215:MCSDK_v6.0.0-Full/MotorControl/MCSDK/MCLib/Any/Src/sto_pll_speed_pos_fdbk.c ****     }
 197              		.loc 1 215 31 is_stmt 0 view .LVU63
 198 003e E066     		str	r0, [r4, #108]
 199              	.L12:
 224:MCSDK_v6.0.0-Full/MotorControl/MCSDK/MCLib/Any/Src/sto_pll_speed_pos_fdbk.c **** #ifndef FULL_MISRA_C_COMPLIANCY_STO_PLL
 200              		.loc 1 224 5 is_stmt 1 view .LVU64
 227:MCSDK_v6.0.0-Full/MotorControl/MCSDK/MCLib/Any/Src/sto_pll_speed_pos_fdbk.c **** #else
 201              		.loc 1 227 5 view .LVU65
 227:MCSDK_v6.0.0-Full/MotorControl/MCSDK/MCLib/Any/Src/sto_pll_speed_pos_fdbk.c **** #else
 202              		.loc 1 227 34 is_stmt 0 view .LVU66
 203 0040 E36E     		ldr	r3, [r4, #108]
 204 0042 0293     		str	r3, [sp, #8]
 227:MCSDK_v6.0.0-Full/MotorControl/MCSDK/MCLib/Any/Src/sto_pll_speed_pos_fdbk.c **** #else
 205              		.loc 1 227 51 view .LVU67
 206 0044 2B41     		asrs	r3, r3, r5
 207 0046 0393     		str	r3, [sp, #12]
 227:MCSDK_v6.0.0-Full/MotorControl/MCSDK/MCLib/Any/Src/sto_pll_speed_pos_fdbk.c **** #else
 208              		.loc 1 227 15 view .LVU68
 209 0048 0FFA83F8 		sxth	r8, r3
 210              	.LVL11:
 232:MCSDK_v6.0.0-Full/MotorControl/MCSDK/MCLib/Any/Src/sto_pll_speed_pos_fdbk.c ****     {
 211              		.loc 1 232 5 is_stmt 1 view .LVU69
 232:MCSDK_v6.0.0-Full/MotorControl/MCSDK/MCLib/Any/Src/sto_pll_speed_pos_fdbk.c ****     {
 212              		.loc 1 232 16 is_stmt 0 view .LVU70
 213 004c 256E     		ldr	r5, [r4, #96]
 232:MCSDK_v6.0.0-Full/MotorControl/MCSDK/MCLib/Any/Src/sto_pll_speed_pos_fdbk.c ****     {
 214              		.loc 1 232 60 view .LVU71
 215 004e B4F92C30 		ldrsh	r3, [r4, #44]
 232:MCSDK_v6.0.0-Full/MotorControl/MCSDK/MCLib/Any/Src/sto_pll_speed_pos_fdbk.c ****     {
 216              		.loc 1 232 41 view .LVU72
 217 0052 C3EBC330 		rsb	r0, r3, r3, lsl #15
 232:MCSDK_v6.0.0-Full/MotorControl/MCSDK/MCLib/Any/Src/sto_pll_speed_pos_fdbk.c ****     {
 218              		.loc 1 232 8 view .LVU73
 219 0056 8542     		cmp	r5, r0
 220 0058 40F3B580 		ble	.L13
 234:MCSDK_v6.0.0-Full/MotorControl/MCSDK/MCLib/Any/Src/sto_pll_speed_pos_fdbk.c ****     }
 221              		.loc 1 234 7 is_stmt 1 view .LVU74
 234:MCSDK_v6.0.0-Full/MotorControl/MCSDK/MCLib/Any/Src/sto_pll_speed_pos_fdbk.c ****     }
ARM GAS  /tmp/ccl72mIK.s 			page 19


 222              		.loc 1 234 26 is_stmt 0 view .LVU75
 223 005c 2066     		str	r0, [r4, #96]
 224              	.L14:
 243:MCSDK_v6.0.0-Full/MotorControl/MCSDK/MCLib/Any/Src/sto_pll_speed_pos_fdbk.c **** 
 225              		.loc 1 243 5 is_stmt 1 view .LVU76
 245:MCSDK_v6.0.0-Full/MotorControl/MCSDK/MCLib/Any/Src/sto_pll_speed_pos_fdbk.c ****     {
 226              		.loc 1 245 5 view .LVU77
 245:MCSDK_v6.0.0-Full/MotorControl/MCSDK/MCLib/Any/Src/sto_pll_speed_pos_fdbk.c ****     {
 227              		.loc 1 245 16 is_stmt 0 view .LVU78
 228 005e 656E     		ldr	r5, [r4, #100]
 245:MCSDK_v6.0.0-Full/MotorControl/MCSDK/MCLib/Any/Src/sto_pll_speed_pos_fdbk.c ****     {
 229              		.loc 1 245 8 view .LVU79
 230 0060 A842     		cmp	r0, r5
 231 0062 80F2B780 		bge	.L15
 247:MCSDK_v6.0.0-Full/MotorControl/MCSDK/MCLib/Any/Src/sto_pll_speed_pos_fdbk.c ****     }
 232              		.loc 1 247 7 is_stmt 1 view .LVU80
 247:MCSDK_v6.0.0-Full/MotorControl/MCSDK/MCLib/Any/Src/sto_pll_speed_pos_fdbk.c ****     }
 233              		.loc 1 247 26 is_stmt 0 view .LVU81
 234 0066 6066     		str	r0, [r4, #100]
 235              	.L16:
 256:MCSDK_v6.0.0-Full/MotorControl/MCSDK/MCLib/Any/Src/sto_pll_speed_pos_fdbk.c **** 
 236              		.loc 1 256 5 is_stmt 1 view .LVU82
 260:MCSDK_v6.0.0-Full/MotorControl/MCSDK/MCLib/Any/Src/sto_pll_speed_pos_fdbk.c **** #else
 237              		.loc 1 260 5 view .LVU83
 260:MCSDK_v6.0.0-Full/MotorControl/MCSDK/MCLib/Any/Src/sto_pll_speed_pos_fdbk.c **** #else
 238              		.loc 1 260 35 is_stmt 0 view .LVU84
 239 0068 206E     		ldr	r0, [r4, #96]
 260:MCSDK_v6.0.0-Full/MotorControl/MCSDK/MCLib/Any/Src/sto_pll_speed_pos_fdbk.c **** #else
 240              		.loc 1 260 57 view .LVU85
 241 006a B4F81C51 		ldrh	r5, [r4, #284]
 260:MCSDK_v6.0.0-Full/MotorControl/MCSDK/MCLib/Any/Src/sto_pll_speed_pos_fdbk.c **** #else
 242              		.loc 1 260 47 view .LVU86
 243 006e 40FA05F3 		asr	r3, r0, r5
 260:MCSDK_v6.0.0-Full/MotorControl/MCSDK/MCLib/Any/Src/sto_pll_speed_pos_fdbk.c **** #else
 244              		.loc 1 260 16 view .LVU87
 245 0072 0FFA83FA 		sxth	r10, r3
 246              	.LVL12:
 265:MCSDK_v6.0.0-Full/MotorControl/MCSDK/MCLib/Any/Src/sto_pll_speed_pos_fdbk.c **** 
 247              		.loc 1 265 5 is_stmt 1 view .LVU88
 265:MCSDK_v6.0.0-Full/MotorControl/MCSDK/MCLib/Any/Src/sto_pll_speed_pos_fdbk.c **** 
 248              		.loc 1 265 50 is_stmt 0 view .LVU89
 249 0076 8E88     		ldrh	r6, [r1, #4]
 265:MCSDK_v6.0.0-Full/MotorControl/MCSDK/MCLib/Any/Src/sto_pll_speed_pos_fdbk.c **** 
 250              		.loc 1 265 29 view .LVU90
 251 0078 9B1B     		subs	r3, r3, r6
 265:MCSDK_v6.0.0-Full/MotorControl/MCSDK/MCLib/Any/Src/sto_pll_speed_pos_fdbk.c **** 
 252              		.loc 1 265 16 view .LVU91
 253 007a 1BB2     		sxth	r3, r3
 254              	.LVL13:
 269:MCSDK_v6.0.0-Full/MotorControl/MCSDK/MCLib/Any/Src/sto_pll_speed_pos_fdbk.c **** #else
 255              		.loc 1 269 5 is_stmt 1 view .LVU92
 269:MCSDK_v6.0.0-Full/MotorControl/MCSDK/MCLib/Any/Src/sto_pll_speed_pos_fdbk.c **** #else
 256              		.loc 1 269 47 is_stmt 0 view .LVU93
 257 007c 666E     		ldr	r6, [r4, #100]
 258 007e 46FA05F5 		asr	r5, r6, r5
 269:MCSDK_v6.0.0-Full/MotorControl/MCSDK/MCLib/Any/Src/sto_pll_speed_pos_fdbk.c **** #else
 259              		.loc 1 269 16 view .LVU94
ARM GAS  /tmp/ccl72mIK.s 			page 20


 260 0082 2EB2     		sxth	r6, r5
 261 0084 0496     		str	r6, [sp, #16]
 262              	.LVL14:
 274:MCSDK_v6.0.0-Full/MotorControl/MCSDK/MCLib/Any/Src/sto_pll_speed_pos_fdbk.c **** 
 263              		.loc 1 274 5 is_stmt 1 view .LVU95
 274:MCSDK_v6.0.0-Full/MotorControl/MCSDK/MCLib/Any/Src/sto_pll_speed_pos_fdbk.c **** 
 264              		.loc 1 274 50 is_stmt 0 view .LVU96
 265 0086 CE88     		ldrh	r6, [r1, #6]
 274:MCSDK_v6.0.0-Full/MotorControl/MCSDK/MCLib/Any/Src/sto_pll_speed_pos_fdbk.c **** 
 266              		.loc 1 274 29 view .LVU97
 267 0088 AD1B     		subs	r5, r5, r6
 274:MCSDK_v6.0.0-Full/MotorControl/MCSDK/MCLib/Any/Src/sto_pll_speed_pos_fdbk.c **** 
 268              		.loc 1 274 16 view .LVU98
 269 008a 2DB2     		sxth	r5, r5
 270 008c 0595     		str	r5, [sp, #20]
 271              	.LVL15:
 276:MCSDK_v6.0.0-Full/MotorControl/MCSDK/MCLib/Any/Src/sto_pll_speed_pos_fdbk.c **** #ifndef FULL_MISRA_C_COMPLIANCY_STO_PLL
 272              		.loc 1 276 5 is_stmt 1 view .LVU99
 276:MCSDK_v6.0.0-Full/MotorControl/MCSDK/MCLib/Any/Src/sto_pll_speed_pos_fdbk.c **** #ifndef FULL_MISRA_C_COMPLIANCY_STO_PLL
 273              		.loc 1 276 29 is_stmt 0 view .LVU100
 274 008e 0F89     		ldrh	r7, [r1, #8]
 276:MCSDK_v6.0.0-Full/MotorControl/MCSDK/MCLib/Any/Src/sto_pll_speed_pos_fdbk.c **** #ifndef FULL_MISRA_C_COMPLIANCY_STO_PLL
 275              		.loc 1 276 58 view .LVU101
 276 0090 B1F90050 		ldrsh	r5, [r1]
 276:MCSDK_v6.0.0-Full/MotorControl/MCSDK/MCLib/Any/Src/sto_pll_speed_pos_fdbk.c **** #ifndef FULL_MISRA_C_COMPLIANCY_STO_PLL
 277              		.loc 1 276 10 view .LVU102
 278 0094 05FB07F5 		mul	r5, r5, r7
 279              	.LVL16:
 278:MCSDK_v6.0.0-Full/MotorControl/MCSDK/MCLib/Any/Src/sto_pll_speed_pos_fdbk.c **** #else
 280              		.loc 1 278 5 is_stmt 1 view .LVU103
 278:MCSDK_v6.0.0-Full/MotorControl/MCSDK/MCLib/Any/Src/sto_pll_speed_pos_fdbk.c **** #else
 281              		.loc 1 278 12 is_stmt 0 view .LVU104
 282 0098 2E14     		asrs	r6, r5, #16
 283              	.LVL17:
 283:MCSDK_v6.0.0-Full/MotorControl/MCSDK/MCLib/Any/Src/sto_pll_speed_pos_fdbk.c **** 
 284              		.loc 1 283 5 is_stmt 1 view .LVU105
 283:MCSDK_v6.0.0-Full/MotorControl/MCSDK/MCLib/Any/Src/sto_pll_speed_pos_fdbk.c **** 
 285              		.loc 1 283 58 is_stmt 0 view .LVU106
 286 009a B1F902E0 		ldrsh	lr, [r1, #2]
 283:MCSDK_v6.0.0-Full/MotorControl/MCSDK/MCLib/Any/Src/sto_pll_speed_pos_fdbk.c **** 
 287              		.loc 1 283 10 view .LVU107
 288 009e 0EFB07F7 		mul	r7, lr, r7
 289              	.LVL18:
 286:MCSDK_v6.0.0-Full/MotorControl/MCSDK/MCLib/Any/Src/sto_pll_speed_pos_fdbk.c **** #else
 290              		.loc 1 286 5 is_stmt 1 view .LVU108
 286:MCSDK_v6.0.0-Full/MotorControl/MCSDK/MCLib/Any/Src/sto_pll_speed_pos_fdbk.c **** #else
 291              		.loc 1 286 12 is_stmt 0 view .LVU109
 292 00a2 3914     		asrs	r1, r7, #16
 293              	.LVL19:
 286:MCSDK_v6.0.0-Full/MotorControl/MCSDK/MCLib/Any/Src/sto_pll_speed_pos_fdbk.c **** #else
 294              		.loc 1 286 12 view .LVU110
 295 00a4 0691     		str	r1, [sp, #24]
 296              	.LVL20:
 294:MCSDK_v6.0.0-Full/MotorControl/MCSDK/MCLib/Any/Src/sto_pll_speed_pos_fdbk.c **** #else
 297              		.loc 1 294 5 is_stmt 1 view .LVU111
 299:MCSDK_v6.0.0-Full/MotorControl/MCSDK/MCLib/Any/Src/sto_pll_speed_pos_fdbk.c ****     wIalfa_est_Next = pHandle->Ialfa_est - wAux;
 298              		.loc 1 299 5 view .LVU112
ARM GAS  /tmp/ccl72mIK.s 			page 21


 299:MCSDK_v6.0.0-Full/MotorControl/MCSDK/MCLib/Any/Src/sto_pll_speed_pos_fdbk.c ****     wIalfa_est_Next = pHandle->Ialfa_est - wAux;
 299              		.loc 1 299 29 is_stmt 0 view .LVU113
 300 00a6 B4F920E0 		ldrsh	lr, [r4, #32]
 301              	.LVL21:
 300:MCSDK_v6.0.0-Full/MotorControl/MCSDK/MCLib/Any/Src/sto_pll_speed_pos_fdbk.c **** 
 302              		.loc 1 300 5 is_stmt 1 view .LVU114
 300:MCSDK_v6.0.0-Full/MotorControl/MCSDK/MCLib/Any/Src/sto_pll_speed_pos_fdbk.c **** 
 303              		.loc 1 300 21 is_stmt 0 view .LVU115
 304 00aa 0AFB1E05 		mls	r5, r10, lr, r0
 305              	.LVL22:
 302:MCSDK_v6.0.0-Full/MotorControl/MCSDK/MCLib/Any/Src/sto_pll_speed_pos_fdbk.c ****     wIalfa_est_Next += wAux;
 306              		.loc 1 302 5 is_stmt 1 view .LVU116
 302:MCSDK_v6.0.0-Full/MotorControl/MCSDK/MCLib/Any/Src/sto_pll_speed_pos_fdbk.c ****     wIalfa_est_Next += wAux;
 307              		.loc 1 302 29 is_stmt 0 view .LVU117
 308 00ae B4F922C0 		ldrsh	ip, [r4, #34]
 309              	.LVL23:
 303:MCSDK_v6.0.0-Full/MotorControl/MCSDK/MCLib/Any/Src/sto_pll_speed_pos_fdbk.c **** 
 310              		.loc 1 303 5 is_stmt 1 view .LVU118
 303:MCSDK_v6.0.0-Full/MotorControl/MCSDK/MCLib/Any/Src/sto_pll_speed_pos_fdbk.c **** 
 311              		.loc 1 303 21 is_stmt 0 view .LVU119
 312 00b2 03FB0C55 		mla	r5, r3, ip, r5
 313              	.LVL24:
 305:MCSDK_v6.0.0-Full/MotorControl/MCSDK/MCLib/Any/Src/sto_pll_speed_pos_fdbk.c ****     wIalfa_est_Next += wAux;
 314              		.loc 1 305 5 is_stmt 1 view .LVU120
 305:MCSDK_v6.0.0-Full/MotorControl/MCSDK/MCLib/Any/Src/sto_pll_speed_pos_fdbk.c ****     wIalfa_est_Next += wAux;
 315              		.loc 1 305 29 is_stmt 0 view .LVU121
 316 00b6 B4F92800 		ldrsh	r0, [r4, #40]
 317              	.LVL25:
 306:MCSDK_v6.0.0-Full/MotorControl/MCSDK/MCLib/Any/Src/sto_pll_speed_pos_fdbk.c **** 
 318              		.loc 1 306 5 is_stmt 1 view .LVU122
 306:MCSDK_v6.0.0-Full/MotorControl/MCSDK/MCLib/Any/Src/sto_pll_speed_pos_fdbk.c **** 
 319              		.loc 1 306 21 is_stmt 0 view .LVU123
 320 00ba 06FB0055 		mla	r5, r6, r0, r5
 321              	.LVL26:
 308:MCSDK_v6.0.0-Full/MotorControl/MCSDK/MCLib/Any/Src/sto_pll_speed_pos_fdbk.c ****     wIalfa_est_Next -= wAux;
 322              		.loc 1 308 5 is_stmt 1 view .LVU124
 308:MCSDK_v6.0.0-Full/MotorControl/MCSDK/MCLib/Any/Src/sto_pll_speed_pos_fdbk.c ****     wIalfa_est_Next -= wAux;
 323              		.loc 1 308 29 is_stmt 0 view .LVU125
 324 00be B4F92470 		ldrsh	r7, [r4, #36]
 325              	.LVL27:
 309:MCSDK_v6.0.0-Full/MotorControl/MCSDK/MCLib/Any/Src/sto_pll_speed_pos_fdbk.c **** 
 326              		.loc 1 309 5 is_stmt 1 view .LVU126
 309:MCSDK_v6.0.0-Full/MotorControl/MCSDK/MCLib/Any/Src/sto_pll_speed_pos_fdbk.c **** 
 327              		.loc 1 309 21 is_stmt 0 view .LVU127
 328 00c2 09FB1751 		mls	r1, r9, r7, r5
 329 00c6 0791     		str	r1, [sp, #28]
 330              	.LVL28:
 311:MCSDK_v6.0.0-Full/MotorControl/MCSDK/MCLib/Any/Src/sto_pll_speed_pos_fdbk.c ****     wBemf_alfa_est_Next = pHandle->wBemf_alfa_est + wAux;
 331              		.loc 1 311 5 is_stmt 1 view .LVU128
 311:MCSDK_v6.0.0-Full/MotorControl/MCSDK/MCLib/Any/Src/sto_pll_speed_pos_fdbk.c ****     wBemf_alfa_est_Next = pHandle->wBemf_alfa_est + wAux;
 332              		.loc 1 311 29 is_stmt 0 view .LVU129
 333 00c8 B4F92610 		ldrsh	r1, [r4, #38]
 334              	.LVL29:
 312:MCSDK_v6.0.0-Full/MotorControl/MCSDK/MCLib/Any/Src/sto_pll_speed_pos_fdbk.c **** 
 335              		.loc 1 312 5 is_stmt 1 view .LVU130
 312:MCSDK_v6.0.0-Full/MotorControl/MCSDK/MCLib/Any/Src/sto_pll_speed_pos_fdbk.c **** 
 336              		.loc 1 312 25 is_stmt 0 view .LVU131
ARM GAS  /tmp/ccl72mIK.s 			page 22


 337 00cc 01FB0323 		mla	r3, r1, r3, r2
 338              	.LVL30:
 315:MCSDK_v6.0.0-Full/MotorControl/MCSDK/MCLib/Any/Src/sto_pll_speed_pos_fdbk.c **** #else
 339              		.loc 1 315 5 is_stmt 1 view .LVU132
 315:MCSDK_v6.0.0-Full/MotorControl/MCSDK/MCLib/Any/Src/sto_pll_speed_pos_fdbk.c **** #else
 340              		.loc 1 315 41 is_stmt 0 view .LVU133
 341 00d0 628E     		ldrh	r2, [r4, #50]
 315:MCSDK_v6.0.0-Full/MotorControl/MCSDK/MCLib/Any/Src/sto_pll_speed_pos_fdbk.c **** #else
 342              		.loc 1 315 10 view .LVU134
 343 00d2 48FA02F6 		asr	r6, r8, r2
 344              	.LVL31:
 320:MCSDK_v6.0.0-Full/MotorControl/MCSDK/MCLib/Any/Src/sto_pll_speed_pos_fdbk.c ****     wAux = pHandle->_Super.hElSpeedDpp * wAux;
 345              		.loc 1 320 5 is_stmt 1 view .LVU135
 320:MCSDK_v6.0.0-Full/MotorControl/MCSDK/MCLib/Any/Src/sto_pll_speed_pos_fdbk.c ****     wAux = pHandle->_Super.hElSpeedDpp * wAux;
 346              		.loc 1 320 26 is_stmt 0 view .LVU136
 347 00d6 B4F92AB0 		ldrsh	fp, [r4, #42]
 320:MCSDK_v6.0.0-Full/MotorControl/MCSDK/MCLib/Any/Src/sto_pll_speed_pos_fdbk.c ****     wAux = pHandle->_Super.hElSpeedDpp * wAux;
 348              		.loc 1 320 10 view .LVU137
 349 00da 06FB0BF6 		mul	r6, r6, fp
 350              	.LVL32:
 321:MCSDK_v6.0.0-Full/MotorControl/MCSDK/MCLib/Any/Src/sto_pll_speed_pos_fdbk.c ****     wBemf_alfa_est_Next += wAux;
 351              		.loc 1 321 5 is_stmt 1 view .LVU138
 321:MCSDK_v6.0.0-Full/MotorControl/MCSDK/MCLib/Any/Src/sto_pll_speed_pos_fdbk.c ****     wBemf_alfa_est_Next += wAux;
 352              		.loc 1 321 27 is_stmt 0 view .LVU139
 353 00de B4F90EA0 		ldrsh	r10, [r4, #14]
 354              	.LVL33:
 322:MCSDK_v6.0.0-Full/MotorControl/MCSDK/MCLib/Any/Src/sto_pll_speed_pos_fdbk.c **** 
 355              		.loc 1 322 5 is_stmt 1 view .LVU140
 322:MCSDK_v6.0.0-Full/MotorControl/MCSDK/MCLib/Any/Src/sto_pll_speed_pos_fdbk.c **** 
 356              		.loc 1 322 25 is_stmt 0 view .LVU141
 357 00e2 06FB0A36 		mla	r6, r6, r10, r3
 358              	.LVL34:
 327:MCSDK_v6.0.0-Full/MotorControl/MCSDK/MCLib/Any/Src/sto_pll_speed_pos_fdbk.c **** #else
 359              		.loc 1 327 5 is_stmt 1 view .LVU142
 332:MCSDK_v6.0.0-Full/MotorControl/MCSDK/MCLib/Any/Src/sto_pll_speed_pos_fdbk.c ****     wIbeta_est_Next = pHandle->Ibeta_est - wAux;
 360              		.loc 1 332 5 view .LVU143
 333:MCSDK_v6.0.0-Full/MotorControl/MCSDK/MCLib/Any/Src/sto_pll_speed_pos_fdbk.c **** 
 361              		.loc 1 333 5 view .LVU144
 333:MCSDK_v6.0.0-Full/MotorControl/MCSDK/MCLib/Any/Src/sto_pll_speed_pos_fdbk.c **** 
 362              		.loc 1 333 21 is_stmt 0 view .LVU145
 363 00e6 049B     		ldr	r3, [sp, #16]
 364 00e8 1D46     		mov	r5, r3
 365 00ea 636E     		ldr	r3, [r4, #100]
 366 00ec 05FB1E3E 		mls	lr, r5, lr, r3
 367              	.LVL35:
 335:MCSDK_v6.0.0-Full/MotorControl/MCSDK/MCLib/Any/Src/sto_pll_speed_pos_fdbk.c ****     wIbeta_est_Next += wAux;
 368              		.loc 1 335 5 is_stmt 1 view .LVU146
 336:MCSDK_v6.0.0-Full/MotorControl/MCSDK/MCLib/Any/Src/sto_pll_speed_pos_fdbk.c **** 
 369              		.loc 1 336 5 view .LVU147
 336:MCSDK_v6.0.0-Full/MotorControl/MCSDK/MCLib/Any/Src/sto_pll_speed_pos_fdbk.c **** 
 370              		.loc 1 336 21 is_stmt 0 view .LVU148
 371 00f0 059B     		ldr	r3, [sp, #20]
 372 00f2 03FB0CEE 		mla	lr, r3, ip, lr
 373              	.LVL36:
 338:MCSDK_v6.0.0-Full/MotorControl/MCSDK/MCLib/Any/Src/sto_pll_speed_pos_fdbk.c ****     wIbeta_est_Next += wAux;
 374              		.loc 1 338 5 is_stmt 1 view .LVU149
 339:MCSDK_v6.0.0-Full/MotorControl/MCSDK/MCLib/Any/Src/sto_pll_speed_pos_fdbk.c **** 
ARM GAS  /tmp/ccl72mIK.s 			page 23


 375              		.loc 1 339 5 view .LVU150
 339:MCSDK_v6.0.0-Full/MotorControl/MCSDK/MCLib/Any/Src/sto_pll_speed_pos_fdbk.c **** 
 376              		.loc 1 339 21 is_stmt 0 view .LVU151
 377 00f6 069D     		ldr	r5, [sp, #24]
 378 00f8 05FB00EE 		mla	lr, r5, r0, lr
 379              	.LVL37:
 341:MCSDK_v6.0.0-Full/MotorControl/MCSDK/MCLib/Any/Src/sto_pll_speed_pos_fdbk.c ****     wIbeta_est_Next -= wAux;
 380              		.loc 1 341 5 is_stmt 1 view .LVU152
 342:MCSDK_v6.0.0-Full/MotorControl/MCSDK/MCLib/Any/Src/sto_pll_speed_pos_fdbk.c **** 
 381              		.loc 1 342 5 view .LVU153
 342:MCSDK_v6.0.0-Full/MotorControl/MCSDK/MCLib/Any/Src/sto_pll_speed_pos_fdbk.c **** 
 382              		.loc 1 342 21 is_stmt 0 view .LVU154
 383 00fc 08FB17E7 		mls	r7, r8, r7, lr
 384              	.LVL38:
 344:MCSDK_v6.0.0-Full/MotorControl/MCSDK/MCLib/Any/Src/sto_pll_speed_pos_fdbk.c ****     wBemf_beta_est_Next = pHandle->wBemf_beta_est + wAux;
 385              		.loc 1 344 5 is_stmt 1 view .LVU155
 345:MCSDK_v6.0.0-Full/MotorControl/MCSDK/MCLib/Any/Src/sto_pll_speed_pos_fdbk.c **** 
 386              		.loc 1 345 5 view .LVU156
 345:MCSDK_v6.0.0-Full/MotorControl/MCSDK/MCLib/Any/Src/sto_pll_speed_pos_fdbk.c **** 
 387              		.loc 1 345 25 is_stmt 0 view .LVU157
 388 0100 0298     		ldr	r0, [sp, #8]
 389 0102 03FB0101 		mla	r1, r3, r1, r0
 390              	.LVL39:
 348:MCSDK_v6.0.0-Full/MotorControl/MCSDK/MCLib/Any/Src/sto_pll_speed_pos_fdbk.c **** #else
 391              		.loc 1 348 5 is_stmt 1 view .LVU158
 348:MCSDK_v6.0.0-Full/MotorControl/MCSDK/MCLib/Any/Src/sto_pll_speed_pos_fdbk.c **** #else
 392              		.loc 1 348 10 is_stmt 0 view .LVU159
 393 0106 49FA02F2 		asr	r2, r9, r2
 394              	.LVL40:
 353:MCSDK_v6.0.0-Full/MotorControl/MCSDK/MCLib/Any/Src/sto_pll_speed_pos_fdbk.c ****     wAux = pHandle->_Super.hElSpeedDpp * wAux;
 395              		.loc 1 353 5 is_stmt 1 view .LVU160
 353:MCSDK_v6.0.0-Full/MotorControl/MCSDK/MCLib/Any/Src/sto_pll_speed_pos_fdbk.c ****     wAux = pHandle->_Super.hElSpeedDpp * wAux;
 396              		.loc 1 353 10 is_stmt 0 view .LVU161
 397 010a 02FB0BFB 		mul	fp, r2, fp
 398              	.LVL41:
 354:MCSDK_v6.0.0-Full/MotorControl/MCSDK/MCLib/Any/Src/sto_pll_speed_pos_fdbk.c ****     wBemf_beta_est_Next -= wAux;
 399              		.loc 1 354 5 is_stmt 1 view .LVU162
 355:MCSDK_v6.0.0-Full/MotorControl/MCSDK/MCLib/Any/Src/sto_pll_speed_pos_fdbk.c **** 
 400              		.loc 1 355 5 view .LVU163
 355:MCSDK_v6.0.0-Full/MotorControl/MCSDK/MCLib/Any/Src/sto_pll_speed_pos_fdbk.c **** 
 401              		.loc 1 355 25 is_stmt 0 view .LVU164
 402 010e 0BFB1A1B 		mls	fp, fp, r10, r1
 403              	.LVL42:
 358:MCSDK_v6.0.0-Full/MotorControl/MCSDK/MCLib/Any/Src/sto_pll_speed_pos_fdbk.c ****     pHandle->hBemf_beta_est = hAux_Beta;
 404              		.loc 1 358 5 is_stmt 1 view .LVU165
 358:MCSDK_v6.0.0-Full/MotorControl/MCSDK/MCLib/Any/Src/sto_pll_speed_pos_fdbk.c ****     pHandle->hBemf_beta_est = hAux_Beta;
 405              		.loc 1 358 29 is_stmt 0 view .LVU166
 406 0112 A4F87090 		strh	r9, [r4, #112]	@ movhi
 407              	.LVL43:
 359:MCSDK_v6.0.0-Full/MotorControl/MCSDK/MCLib/Any/Src/sto_pll_speed_pos_fdbk.c **** 
 408              		.loc 1 359 5 is_stmt 1 view .LVU167
 359:MCSDK_v6.0.0-Full/MotorControl/MCSDK/MCLib/Any/Src/sto_pll_speed_pos_fdbk.c **** 
 409              		.loc 1 359 29 is_stmt 0 view .LVU168
 410 0116 A4F87280 		strh	r8, [r4, #114]	@ movhi
 361:MCSDK_v6.0.0-Full/MotorControl/MCSDK/MCLib/Any/Src/sto_pll_speed_pos_fdbk.c ****     {
 411              		.loc 1 361 5 is_stmt 1 view .LVU169
 361:MCSDK_v6.0.0-Full/MotorControl/MCSDK/MCLib/Any/Src/sto_pll_speed_pos_fdbk.c ****     {
ARM GAS  /tmp/ccl72mIK.s 			page 24


 412              		.loc 1 361 21 is_stmt 0 view .LVU170
 413 011a 94F92401 		ldrsb	r0, [r4, #292]
 361:MCSDK_v6.0.0-Full/MotorControl/MCSDK/MCLib/Any/Src/sto_pll_speed_pos_fdbk.c ****     {
 414              		.loc 1 361 8 view .LVU171
 415 011e 18B9     		cbnz	r0, .L18
 364:MCSDK_v6.0.0-Full/MotorControl/MCSDK/MCLib/Any/Src/sto_pll_speed_pos_fdbk.c ****       {
 416              		.loc 1 364 7 is_stmt 1 view .LVU172
 364:MCSDK_v6.0.0-Full/MotorControl/MCSDK/MCLib/Any/Src/sto_pll_speed_pos_fdbk.c ****       {
 417              		.loc 1 364 9 is_stmt 0 view .LVU173
 418 0120 BAF1000F 		cmp	r10, #0
 419 0124 5DDB     		blt	.L22
 366:MCSDK_v6.0.0-Full/MotorControl/MCSDK/MCLib/Any/Src/sto_pll_speed_pos_fdbk.c ****       }
 420              		.loc 1 366 20 view .LVU174
 421 0126 0120     		movs	r0, #1
 422              	.L18:
 423              	.LVL44:
 379:MCSDK_v6.0.0-Full/MotorControl/MCSDK/MCLib/Any/Src/sto_pll_speed_pos_fdbk.c ****     hAux_Beta = (int16_t)(hAux_Beta * wDirection);
 424              		.loc 1 379 5 is_stmt 1 view .LVU175
 379:MCSDK_v6.0.0-Full/MotorControl/MCSDK/MCLib/Any/Src/sto_pll_speed_pos_fdbk.c ****     hAux_Beta = (int16_t)(hAux_Beta * wDirection);
 425              		.loc 1 379 17 is_stmt 0 view .LVU176
 426 0128 80B2     		uxth	r0, r0
 427              	.LVL45:
 379:MCSDK_v6.0.0-Full/MotorControl/MCSDK/MCLib/Any/Src/sto_pll_speed_pos_fdbk.c ****     hAux_Beta = (int16_t)(hAux_Beta * wDirection);
 428              		.loc 1 379 17 view .LVU177
 429 012a 019B     		ldr	r3, [sp, #4]
 430 012c 13FB00F8 		smulbb	r8, r3, r0
 431              	.LVL46:
 379:MCSDK_v6.0.0-Full/MotorControl/MCSDK/MCLib/Any/Src/sto_pll_speed_pos_fdbk.c ****     hAux_Beta = (int16_t)(hAux_Beta * wDirection);
 432              		.loc 1 379 15 view .LVU178
 433 0130 0FFA88F8 		sxth	r8, r8
 434              	.LVL47:
 380:MCSDK_v6.0.0-Full/MotorControl/MCSDK/MCLib/Any/Src/sto_pll_speed_pos_fdbk.c **** 
 435              		.loc 1 380 5 is_stmt 1 view .LVU179
 380:MCSDK_v6.0.0-Full/MotorControl/MCSDK/MCLib/Any/Src/sto_pll_speed_pos_fdbk.c **** 
 436              		.loc 1 380 17 is_stmt 0 view .LVU180
 437 0134 039B     		ldr	r3, [sp, #12]
 438 0136 13FB00F0 		smulbb	r0, r3, r0
 439 013a 80B2     		uxth	r0, r0
 440              	.LVL48:
 382:MCSDK_v6.0.0-Full/MotorControl/MCSDK/MCLib/Any/Src/sto_pll_speed_pos_fdbk.c ****     pHandle->_Super.InstantaneousElSpeedDpp = hRotor_Speed;
 441              		.loc 1 382 5 is_stmt 1 view .LVU181
 382:MCSDK_v6.0.0-Full/MotorControl/MCSDK/MCLib/Any/Src/sto_pll_speed_pos_fdbk.c ****     pHandle->_Super.InstantaneousElSpeedDpp = hRotor_Speed;
 442              		.loc 1 382 20 is_stmt 0 view .LVU182
 443 013c 4042     		rsbs	r0, r0, #0
 444              	.LVL49:
 382:MCSDK_v6.0.0-Full/MotorControl/MCSDK/MCLib/Any/Src/sto_pll_speed_pos_fdbk.c ****     pHandle->_Super.InstantaneousElSpeedDpp = hRotor_Speed;
 445              		.loc 1 382 20 view .LVU183
 446 013e 0FFA80F9 		sxth	r9, r0
 447              	.LVL50:
 448              	.LBB11:
 449              	.LBI11:
 702:MCSDK_v6.0.0-Full/MotorControl/MCSDK/MCLib/Any/Src/sto_pll_speed_pos_fdbk.c **** {
 450              		.loc 1 702 23 is_stmt 1 view .LVU184
 451              	.LBB12:
 704:MCSDK_v6.0.0-Full/MotorControl/MCSDK/MCLib/Any/Src/sto_pll_speed_pos_fdbk.c ****   int32_t wBeta_Cos_tmp;
 452              		.loc 1 704 3 view .LVU185
 705:MCSDK_v6.0.0-Full/MotorControl/MCSDK/MCLib/Any/Src/sto_pll_speed_pos_fdbk.c ****   Trig_Components Local_Components;
ARM GAS  /tmp/ccl72mIK.s 			page 25


 453              		.loc 1 705 3 view .LVU186
 706:MCSDK_v6.0.0-Full/MotorControl/MCSDK/MCLib/Any/Src/sto_pll_speed_pos_fdbk.c ****   int16_t hAux1;
 454              		.loc 1 706 3 view .LVU187
 707:MCSDK_v6.0.0-Full/MotorControl/MCSDK/MCLib/Any/Src/sto_pll_speed_pos_fdbk.c ****   int16_t hAux2;
 455              		.loc 1 707 3 view .LVU188
 708:MCSDK_v6.0.0-Full/MotorControl/MCSDK/MCLib/Any/Src/sto_pll_speed_pos_fdbk.c ****   int16_t hOutput;
 456              		.loc 1 708 3 view .LVU189
 709:MCSDK_v6.0.0-Full/MotorControl/MCSDK/MCLib/Any/Src/sto_pll_speed_pos_fdbk.c **** 
 457              		.loc 1 709 3 view .LVU190
 711:MCSDK_v6.0.0-Full/MotorControl/MCSDK/MCLib/Any/Src/sto_pll_speed_pos_fdbk.c **** 
 458              		.loc 1 711 3 view .LVU191
 711:MCSDK_v6.0.0-Full/MotorControl/MCSDK/MCLib/Any/Src/sto_pll_speed_pos_fdbk.c **** 
 459              		.loc 1 711 22 is_stmt 0 view .LVU192
 460 0142 B4F90400 		ldrsh	r0, [r4, #4]
 461              	.LVL51:
 711:MCSDK_v6.0.0-Full/MotorControl/MCSDK/MCLib/Any/Src/sto_pll_speed_pos_fdbk.c **** 
 462              		.loc 1 711 22 view .LVU193
 463 0146 FFF7FEFF 		bl	MCM_Trig_Functions
 464              	.LVL52:
 714:MCSDK_v6.0.0-Full/MotorControl/MCSDK/MCLib/Any/Src/sto_pll_speed_pos_fdbk.c ****   wBeta_Cos_tmp = ((int32_t )hBemf_beta_est) * ((int32_t )Local_Components.hCos);
 465              		.loc 1 714 3 is_stmt 1 view .LVU194
 714:MCSDK_v6.0.0-Full/MotorControl/MCSDK/MCLib/Any/Src/sto_pll_speed_pos_fdbk.c ****   wBeta_Cos_tmp = ((int32_t )hBemf_beta_est) * ((int32_t )Local_Components.hCos);
 466              		.loc 1 714 75 is_stmt 0 view .LVU195
 467 014a 0114     		asrs	r1, r0, #16
 714:MCSDK_v6.0.0-Full/MotorControl/MCSDK/MCLib/Any/Src/sto_pll_speed_pos_fdbk.c ****   wBeta_Cos_tmp = ((int32_t )hBemf_beta_est) * ((int32_t )Local_Components.hCos);
 468              		.loc 1 714 17 view .LVU196
 469 014c 01FB08F1 		mul	r1, r1, r8
 470              	.LVL53:
 715:MCSDK_v6.0.0-Full/MotorControl/MCSDK/MCLib/Any/Src/sto_pll_speed_pos_fdbk.c **** 
 471              		.loc 1 715 3 is_stmt 1 view .LVU197
 715:MCSDK_v6.0.0-Full/MotorControl/MCSDK/MCLib/Any/Src/sto_pll_speed_pos_fdbk.c **** 
 472              		.loc 1 715 75 is_stmt 0 view .LVU198
 473 0150 00B2     		sxth	r0, r0
 715:MCSDK_v6.0.0-Full/MotorControl/MCSDK/MCLib/Any/Src/sto_pll_speed_pos_fdbk.c **** 
 474              		.loc 1 715 17 view .LVU199
 475 0152 00FB09F0 		mul	r0, r0, r9
 476              	.LVL54:
 718:MCSDK_v6.0.0-Full/MotorControl/MCSDK/MCLib/Any/Src/sto_pll_speed_pos_fdbk.c **** #else
 477              		.loc 1 718 3 is_stmt 1 view .LVU200
 718:MCSDK_v6.0.0-Full/MotorControl/MCSDK/MCLib/Any/Src/sto_pll_speed_pos_fdbk.c **** #else
 478              		.loc 1 718 9 is_stmt 0 view .LVU201
 479 0156 40F3CF30 		sbfx	r0, r0, #15, #16
 480              	.LVL55:
 724:MCSDK_v6.0.0-Full/MotorControl/MCSDK/MCLib/Any/Src/sto_pll_speed_pos_fdbk.c **** #else
 481              		.loc 1 724 3 is_stmt 1 view .LVU202
 724:MCSDK_v6.0.0-Full/MotorControl/MCSDK/MCLib/Any/Src/sto_pll_speed_pos_fdbk.c **** #else
 482              		.loc 1 724 9 is_stmt 0 view .LVU203
 483 015a 41F3CF31 		sbfx	r1, r1, #15, #16
 484              	.LVL56:
 730:MCSDK_v6.0.0-Full/MotorControl/MCSDK/MCLib/Any/Src/sto_pll_speed_pos_fdbk.c ****   return (hOutput);
 485              		.loc 1 730 3 is_stmt 1 view .LVU204
 730:MCSDK_v6.0.0-Full/MotorControl/MCSDK/MCLib/Any/Src/sto_pll_speed_pos_fdbk.c ****   return (hOutput);
 486              		.loc 1 730 13 is_stmt 0 view .LVU205
 487 015e 411A     		subs	r1, r0, r1
 488              	.LVL57:
 730:MCSDK_v6.0.0-Full/MotorControl/MCSDK/MCLib/Any/Src/sto_pll_speed_pos_fdbk.c ****   return (hOutput);
 489              		.loc 1 730 13 view .LVU206
ARM GAS  /tmp/ccl72mIK.s 			page 26


 490 0160 04F13400 		add	r0, r4, #52
 491              	.LVL58:
 730:MCSDK_v6.0.0-Full/MotorControl/MCSDK/MCLib/Any/Src/sto_pll_speed_pos_fdbk.c ****   return (hOutput);
 492              		.loc 1 730 13 view .LVU207
 493 0164 FFF7FEFF 		bl	PI_Controller
 494              	.LVL59:
 731:MCSDK_v6.0.0-Full/MotorControl/MCSDK/MCLib/Any/Src/sto_pll_speed_pos_fdbk.c **** }
 495              		.loc 1 731 3 is_stmt 1 view .LVU208
 731:MCSDK_v6.0.0-Full/MotorControl/MCSDK/MCLib/Any/Src/sto_pll_speed_pos_fdbk.c **** }
 496              		.loc 1 731 3 is_stmt 0 view .LVU209
 497              	.LBE12:
 498              	.LBE11:
 383:MCSDK_v6.0.0-Full/MotorControl/MCSDK/MCLib/Any/Src/sto_pll_speed_pos_fdbk.c **** 
 499              		.loc 1 383 5 is_stmt 1 view .LVU210
 383:MCSDK_v6.0.0-Full/MotorControl/MCSDK/MCLib/Any/Src/sto_pll_speed_pos_fdbk.c **** 
 500              		.loc 1 383 45 is_stmt 0 view .LVU211
 501 0168 2082     		strh	r0, [r4, #16]	@ movhi
 385:MCSDK_v6.0.0-Full/MotorControl/MCSDK/MCLib/Any/Src/sto_pll_speed_pos_fdbk.c **** 
 502              		.loc 1 385 5 is_stmt 1 view .LVU212
 503              	.LVL60:
 504              	.LBB13:
 505              	.LBI13:
 679:MCSDK_v6.0.0-Full/MotorControl/MCSDK/MCLib/Any/Src/sto_pll_speed_pos_fdbk.c **** {
 506              		.loc 1 679 20 view .LVU213
 507              	.LBB14:
 681:MCSDK_v6.0.0-Full/MotorControl/MCSDK/MCLib/Any/Src/sto_pll_speed_pos_fdbk.c **** 
 508              		.loc 1 681 3 view .LVU214
 681:MCSDK_v6.0.0-Full/MotorControl/MCSDK/MCLib/Any/Src/sto_pll_speed_pos_fdbk.c **** 
 509              		.loc 1 681 11 is_stmt 0 view .LVU215
 510 016a 94F8F430 		ldrb	r3, [r4, #244]	@ zero_extendqisi2
 511              	.LVL61:
 683:MCSDK_v6.0.0-Full/MotorControl/MCSDK/MCLib/Any/Src/sto_pll_speed_pos_fdbk.c ****   if (bBuffer_index == pHandle->SpeedBufferSizeUnit)
 512              		.loc 1 683 3 is_stmt 1 view .LVU216
 683:MCSDK_v6.0.0-Full/MotorControl/MCSDK/MCLib/Any/Src/sto_pll_speed_pos_fdbk.c ****   if (bBuffer_index == pHandle->SpeedBufferSizeUnit)
 513              		.loc 1 683 16 is_stmt 0 view .LVU217
 514 016e 0133     		adds	r3, r3, #1
 515              	.LVL62:
 683:MCSDK_v6.0.0-Full/MotorControl/MCSDK/MCLib/Any/Src/sto_pll_speed_pos_fdbk.c ****   if (bBuffer_index == pHandle->SpeedBufferSizeUnit)
 516              		.loc 1 683 16 view .LVU218
 517 0170 DBB2     		uxtb	r3, r3
 518              	.LVL63:
 684:MCSDK_v6.0.0-Full/MotorControl/MCSDK/MCLib/Any/Src/sto_pll_speed_pos_fdbk.c ****   {
 519              		.loc 1 684 3 is_stmt 1 view .LVU219
 684:MCSDK_v6.0.0-Full/MotorControl/MCSDK/MCLib/Any/Src/sto_pll_speed_pos_fdbk.c ****   {
 520              		.loc 1 684 31 is_stmt 0 view .LVU220
 521 0172 94F80E21 		ldrb	r2, [r4, #270]	@ zero_extendqisi2
 684:MCSDK_v6.0.0-Full/MotorControl/MCSDK/MCLib/Any/Src/sto_pll_speed_pos_fdbk.c ****   {
 522              		.loc 1 684 6 view .LVU221
 523 0176 9342     		cmp	r3, r2
 524 0178 36D0     		beq	.L28
 525              	.LVL64:
 526              	.L19:
 689:MCSDK_v6.0.0-Full/MotorControl/MCSDK/MCLib/Any/Src/sto_pll_speed_pos_fdbk.c ****   pHandle->Speed_Buffer[bBuffer_index] = hRotor_Speed;
 527              		.loc 1 689 3 is_stmt 1 view .LVU222
 689:MCSDK_v6.0.0-Full/MotorControl/MCSDK/MCLib/Any/Src/sto_pll_speed_pos_fdbk.c ****   pHandle->Speed_Buffer[bBuffer_index] = hRotor_Speed;
 528              		.loc 1 689 55 is_stmt 0 view .LVU223
 529 017a 03F13802 		add	r2, r3, #56
ARM GAS  /tmp/ccl72mIK.s 			page 27


 530 017e 04EB4202 		add	r2, r4, r2, lsl #1
 531 0182 B2F90410 		ldrsh	r1, [r2, #4]
 689:MCSDK_v6.0.0-Full/MotorControl/MCSDK/MCLib/Any/Src/sto_pll_speed_pos_fdbk.c ****   pHandle->Speed_Buffer[bBuffer_index] = hRotor_Speed;
 532              		.loc 1 689 32 view .LVU224
 533 0186 A4F80C11 		strh	r1, [r4, #268]	@ movhi
 690:MCSDK_v6.0.0-Full/MotorControl/MCSDK/MCLib/Any/Src/sto_pll_speed_pos_fdbk.c ****   pHandle->Speed_Buffer_Index = bBuffer_index;
 534              		.loc 1 690 3 is_stmt 1 view .LVU225
 690:MCSDK_v6.0.0-Full/MotorControl/MCSDK/MCLib/Any/Src/sto_pll_speed_pos_fdbk.c ****   pHandle->Speed_Buffer_Index = bBuffer_index;
 535              		.loc 1 690 40 is_stmt 0 view .LVU226
 536 018a 9080     		strh	r0, [r2, #4]	@ movhi
 691:MCSDK_v6.0.0-Full/MotorControl/MCSDK/MCLib/Any/Src/sto_pll_speed_pos_fdbk.c **** }
 537              		.loc 1 691 3 is_stmt 1 view .LVU227
 691:MCSDK_v6.0.0-Full/MotorControl/MCSDK/MCLib/Any/Src/sto_pll_speed_pos_fdbk.c **** }
 538              		.loc 1 691 31 is_stmt 0 view .LVU228
 539 018c 84F8F430 		strb	r3, [r4, #244]
 540              	.LVL65:
 691:MCSDK_v6.0.0-Full/MotorControl/MCSDK/MCLib/Any/Src/sto_pll_speed_pos_fdbk.c **** }
 541              		.loc 1 691 31 view .LVU229
 542              	.LBE14:
 543              	.LBE13:
 387:MCSDK_v6.0.0-Full/MotorControl/MCSDK/MCLib/Any/Src/sto_pll_speed_pos_fdbk.c **** 
 544              		.loc 1 387 5 is_stmt 1 view .LVU230
 387:MCSDK_v6.0.0-Full/MotorControl/MCSDK/MCLib/Any/Src/sto_pll_speed_pos_fdbk.c **** 
 545              		.loc 1 387 30 is_stmt 0 view .LVU231
 546 0190 A388     		ldrh	r3, [r4, #4]
 547 0192 1844     		add	r0, r0, r3
 548              	.LVL66:
 387:MCSDK_v6.0.0-Full/MotorControl/MCSDK/MCLib/Any/Src/sto_pll_speed_pos_fdbk.c **** 
 549              		.loc 1 387 30 view .LVU232
 550 0194 00B2     		sxth	r0, r0
 551 0196 A080     		strh	r0, [r4, #4]	@ movhi
 390:MCSDK_v6.0.0-Full/MotorControl/MCSDK/MCLib/Any/Src/sto_pll_speed_pos_fdbk.c ****     pHandle->wBemf_alfa_est = wBemf_alfa_est_Next;
 552              		.loc 1 390 5 is_stmt 1 view .LVU233
 390:MCSDK_v6.0.0-Full/MotorControl/MCSDK/MCLib/Any/Src/sto_pll_speed_pos_fdbk.c ****     pHandle->wBemf_alfa_est = wBemf_alfa_est_Next;
 553              		.loc 1 390 24 is_stmt 0 view .LVU234
 554 0198 079B     		ldr	r3, [sp, #28]
 555 019a 2366     		str	r3, [r4, #96]
 391:MCSDK_v6.0.0-Full/MotorControl/MCSDK/MCLib/Any/Src/sto_pll_speed_pos_fdbk.c **** 
 556              		.loc 1 391 5 is_stmt 1 view .LVU235
 391:MCSDK_v6.0.0-Full/MotorControl/MCSDK/MCLib/Any/Src/sto_pll_speed_pos_fdbk.c **** 
 557              		.loc 1 391 29 is_stmt 0 view .LVU236
 558 019c A666     		str	r6, [r4, #104]
 393:MCSDK_v6.0.0-Full/MotorControl/MCSDK/MCLib/Any/Src/sto_pll_speed_pos_fdbk.c ****     pHandle->wBemf_beta_est = wBemf_beta_est_Next;
 559              		.loc 1 393 5 is_stmt 1 view .LVU237
 393:MCSDK_v6.0.0-Full/MotorControl/MCSDK/MCLib/Any/Src/sto_pll_speed_pos_fdbk.c ****     pHandle->wBemf_beta_est = wBemf_beta_est_Next;
 560              		.loc 1 393 24 is_stmt 0 view .LVU238
 561 019e 6766     		str	r7, [r4, #100]
 394:MCSDK_v6.0.0-Full/MotorControl/MCSDK/MCLib/Any/Src/sto_pll_speed_pos_fdbk.c ****     retValue = pHandle->_Super.hElAngle;
 562              		.loc 1 394 5 is_stmt 1 view .LVU239
 394:MCSDK_v6.0.0-Full/MotorControl/MCSDK/MCLib/Any/Src/sto_pll_speed_pos_fdbk.c ****     retValue = pHandle->_Super.hElAngle;
 563              		.loc 1 394 29 is_stmt 0 view .LVU240
 564 01a0 C4F86CB0 		str	fp, [r4, #108]
 395:MCSDK_v6.0.0-Full/MotorControl/MCSDK/MCLib/Any/Src/sto_pll_speed_pos_fdbk.c ****   }
 565              		.loc 1 395 5 is_stmt 1 view .LVU241
 566              	.LVL67:
 567              	.L8:
 395:MCSDK_v6.0.0-Full/MotorControl/MCSDK/MCLib/Any/Src/sto_pll_speed_pos_fdbk.c ****   }
ARM GAS  /tmp/ccl72mIK.s 			page 28


 568              		.loc 1 395 5 is_stmt 0 view .LVU242
 569              	.LBE10:
 397:MCSDK_v6.0.0-Full/MotorControl/MCSDK/MCLib/Any/Src/sto_pll_speed_pos_fdbk.c **** }
 570              		.loc 1 397 3 is_stmt 1 view .LVU243
 398:MCSDK_v6.0.0-Full/MotorControl/MCSDK/MCLib/Any/Src/sto_pll_speed_pos_fdbk.c **** 
 571              		.loc 1 398 1 is_stmt 0 view .LVU244
 572 01a4 0BB0     		add	sp, sp, #44
 573              		.cfi_remember_state
 574              		.cfi_def_cfa_offset 36
 575              		@ sp needed
 576 01a6 BDE8F08F 		pop	{r4, r5, r6, r7, r8, r9, r10, fp, pc}
 577              	.LVL68:
 578              	.L9:
 579              		.cfi_restore_state
 580              	.LBB17:
 198:MCSDK_v6.0.0-Full/MotorControl/MCSDK/MCLib/Any/Src/sto_pll_speed_pos_fdbk.c ****     {
 581              		.loc 1 198 10 is_stmt 1 view .LVU245
 198:MCSDK_v6.0.0-Full/MotorControl/MCSDK/MCLib/Any/Src/sto_pll_speed_pos_fdbk.c ****     {
 582              		.loc 1 198 53 is_stmt 0 view .LVU246
 583 01aa A3EBC335 		sub	r5, r3, r3, lsl #15
 198:MCSDK_v6.0.0-Full/MotorControl/MCSDK/MCLib/Any/Src/sto_pll_speed_pos_fdbk.c ****     {
 584              		.loc 1 198 13 view .LVU247
 585 01ae AA42     		cmp	r2, r5
 586 01b0 3FF739AF 		bgt	.L10
 200:MCSDK_v6.0.0-Full/MotorControl/MCSDK/MCLib/Any/Src/sto_pll_speed_pos_fdbk.c ****     }
 587              		.loc 1 200 7 is_stmt 1 view .LVU248
 200:MCSDK_v6.0.0-Full/MotorControl/MCSDK/MCLib/Any/Src/sto_pll_speed_pos_fdbk.c ****     }
 588              		.loc 1 200 31 is_stmt 0 view .LVU249
 589 01b4 A566     		str	r5, [r4, #104]
 590 01b6 36E7     		b	.L10
 591              	.LVL69:
 592              	.L11:
 217:MCSDK_v6.0.0-Full/MotorControl/MCSDK/MCLib/Any/Src/sto_pll_speed_pos_fdbk.c ****     {
 593              		.loc 1 217 10 is_stmt 1 view .LVU250
 217:MCSDK_v6.0.0-Full/MotorControl/MCSDK/MCLib/Any/Src/sto_pll_speed_pos_fdbk.c ****     {
 594              		.loc 1 217 53 is_stmt 0 view .LVU251
 595 01b8 A3EBC333 		sub	r3, r3, r3, lsl #15
 217:MCSDK_v6.0.0-Full/MotorControl/MCSDK/MCLib/Any/Src/sto_pll_speed_pos_fdbk.c ****     {
 596              		.loc 1 217 13 view .LVU252
 597 01bc 9E42     		cmp	r6, r3
 598 01be 3FF73FAF 		bgt	.L12
 219:MCSDK_v6.0.0-Full/MotorControl/MCSDK/MCLib/Any/Src/sto_pll_speed_pos_fdbk.c ****     }
 599              		.loc 1 219 7 is_stmt 1 view .LVU253
 219:MCSDK_v6.0.0-Full/MotorControl/MCSDK/MCLib/Any/Src/sto_pll_speed_pos_fdbk.c ****     }
 600              		.loc 1 219 31 is_stmt 0 view .LVU254
 601 01c2 E366     		str	r3, [r4, #108]
 602 01c4 3CE7     		b	.L12
 603              	.LVL70:
 604              	.L13:
 236:MCSDK_v6.0.0-Full/MotorControl/MCSDK/MCLib/Any/Src/sto_pll_speed_pos_fdbk.c ****     {
 605              		.loc 1 236 10 is_stmt 1 view .LVU255
 236:MCSDK_v6.0.0-Full/MotorControl/MCSDK/MCLib/Any/Src/sto_pll_speed_pos_fdbk.c ****     {
 606              		.loc 1 236 48 is_stmt 0 view .LVU256
 607 01c6 A3EBC336 		sub	r6, r3, r3, lsl #15
 236:MCSDK_v6.0.0-Full/MotorControl/MCSDK/MCLib/Any/Src/sto_pll_speed_pos_fdbk.c ****     {
 608              		.loc 1 236 13 view .LVU257
 609 01ca B542     		cmp	r5, r6
ARM GAS  /tmp/ccl72mIK.s 			page 29


 610 01cc 3FF747AF 		bgt	.L14
 238:MCSDK_v6.0.0-Full/MotorControl/MCSDK/MCLib/Any/Src/sto_pll_speed_pos_fdbk.c ****     }
 611              		.loc 1 238 7 is_stmt 1 view .LVU258
 238:MCSDK_v6.0.0-Full/MotorControl/MCSDK/MCLib/Any/Src/sto_pll_speed_pos_fdbk.c ****     }
 612              		.loc 1 238 26 is_stmt 0 view .LVU259
 613 01d0 2666     		str	r6, [r4, #96]
 614 01d2 44E7     		b	.L14
 615              	.L15:
 249:MCSDK_v6.0.0-Full/MotorControl/MCSDK/MCLib/Any/Src/sto_pll_speed_pos_fdbk.c ****     {
 616              		.loc 1 249 10 is_stmt 1 view .LVU260
 249:MCSDK_v6.0.0-Full/MotorControl/MCSDK/MCLib/Any/Src/sto_pll_speed_pos_fdbk.c ****     {
 617              		.loc 1 249 48 is_stmt 0 view .LVU261
 618 01d4 A3EBC333 		sub	r3, r3, r3, lsl #15
 249:MCSDK_v6.0.0-Full/MotorControl/MCSDK/MCLib/Any/Src/sto_pll_speed_pos_fdbk.c ****     {
 619              		.loc 1 249 13 view .LVU262
 620 01d8 9D42     		cmp	r5, r3
 621 01da 3FF745AF 		bgt	.L16
 251:MCSDK_v6.0.0-Full/MotorControl/MCSDK/MCLib/Any/Src/sto_pll_speed_pos_fdbk.c ****     }
 622              		.loc 1 251 7 is_stmt 1 view .LVU263
 251:MCSDK_v6.0.0-Full/MotorControl/MCSDK/MCLib/Any/Src/sto_pll_speed_pos_fdbk.c ****     }
 623              		.loc 1 251 26 is_stmt 0 view .LVU264
 624 01de 6366     		str	r3, [r4, #100]
 625 01e0 42E7     		b	.L16
 626              	.LVL71:
 627              	.L22:
 370:MCSDK_v6.0.0-Full/MotorControl/MCSDK/MCLib/Any/Src/sto_pll_speed_pos_fdbk.c ****       }
 628              		.loc 1 370 20 view .LVU265
 629 01e2 4FF0FF30 		mov	r0, #-1
 630 01e6 9FE7     		b	.L18
 631              	.LVL72:
 632              	.L28:
 633              	.LBB16:
 634              	.LBB15:
 686:MCSDK_v6.0.0-Full/MotorControl/MCSDK/MCLib/Any/Src/sto_pll_speed_pos_fdbk.c ****   }
 635              		.loc 1 686 19 view .LVU266
 636 01e8 0023     		movs	r3, #0
 637              	.LVL73:
 686:MCSDK_v6.0.0-Full/MotorControl/MCSDK/MCLib/Any/Src/sto_pll_speed_pos_fdbk.c ****   }
 638              		.loc 1 686 19 view .LVU267
 639 01ea C6E7     		b	.L19
 640              	.LVL74:
 641              	.L20:
 642              		.cfi_def_cfa_offset 0
 643              		.cfi_restore 4
 644              		.cfi_restore 5
 645              		.cfi_restore 6
 646              		.cfi_restore 7
 647              		.cfi_restore 8
 648              		.cfi_restore 9
 649              		.cfi_restore 10
 650              		.cfi_restore 11
 651              		.cfi_restore 14
 686:MCSDK_v6.0.0-Full/MotorControl/MCSDK/MCLib/Any/Src/sto_pll_speed_pos_fdbk.c ****   }
 652              		.loc 1 686 19 view .LVU268
 653              	.LBE15:
 654              	.LBE16:
 655              	.LBE17:
ARM GAS  /tmp/ccl72mIK.s 			page 30


 175:MCSDK_v6.0.0-Full/MotorControl/MCSDK/MCLib/Any/Src/sto_pll_speed_pos_fdbk.c ****   }
 656              		.loc 1 175 14 view .LVU269
 657 01ec 0020     		movs	r0, #0
 658              	.LVL75:
 397:MCSDK_v6.0.0-Full/MotorControl/MCSDK/MCLib/Any/Src/sto_pll_speed_pos_fdbk.c **** }
 659              		.loc 1 397 3 is_stmt 1 view .LVU270
 398:MCSDK_v6.0.0-Full/MotorControl/MCSDK/MCLib/Any/Src/sto_pll_speed_pos_fdbk.c **** 
 660              		.loc 1 398 1 is_stmt 0 view .LVU271
 661 01ee 7047     		bx	lr
 662              	.LVL76:
 663              	.L21:
 664              		.cfi_def_cfa_offset 80
 665              		.cfi_offset 4, -36
 666              		.cfi_offset 5, -32
 667              		.cfi_offset 6, -28
 668              		.cfi_offset 7, -24
 669              		.cfi_offset 8, -20
 670              		.cfi_offset 9, -16
 671              		.cfi_offset 10, -12
 672              		.cfi_offset 11, -8
 673              		.cfi_offset 14, -4
 175:MCSDK_v6.0.0-Full/MotorControl/MCSDK/MCLib/Any/Src/sto_pll_speed_pos_fdbk.c ****   }
 674              		.loc 1 175 14 view .LVU272
 675 01f0 0020     		movs	r0, #0
 676              	.LVL77:
 175:MCSDK_v6.0.0-Full/MotorControl/MCSDK/MCLib/Any/Src/sto_pll_speed_pos_fdbk.c ****   }
 677              		.loc 1 175 14 view .LVU273
 678 01f2 D7E7     		b	.L8
 679              		.cfi_endproc
 680              	.LFE1439:
 682              		.section	.text.STO_PLL_CalcAvrgMecSpeedUnit,"ax",%progbits
 683              		.align	1
 684              		.weak	STO_PLL_CalcAvrgMecSpeedUnit
 685              		.syntax unified
 686              		.thumb
 687              		.thumb_func
 688              		.fpu fpv4-sp-d16
 690              	STO_PLL_CalcAvrgMecSpeedUnit:
 691              	.LVL78:
 692              	.LFB1440:
 417:MCSDK_v6.0.0-Full/MotorControl/MCSDK/MCLib/Any/Src/sto_pll_speed_pos_fdbk.c ****   bool bAux;
 693              		.loc 1 417 1 is_stmt 1 view -0
 694              		.cfi_startproc
 695              		@ args = 0, pretend = 0, frame = 0
 696              		@ frame_needed = 0, uses_anonymous_args = 0
 417:MCSDK_v6.0.0-Full/MotorControl/MCSDK/MCLib/Any/Src/sto_pll_speed_pos_fdbk.c ****   bool bAux;
 697              		.loc 1 417 1 is_stmt 0 view .LVU275
 698 0000 2DE9F84F 		push	{r3, r4, r5, r6, r7, r8, r9, r10, fp, lr}
 699              		.cfi_def_cfa_offset 40
 700              		.cfi_offset 3, -40
 701              		.cfi_offset 4, -36
 702              		.cfi_offset 5, -32
 703              		.cfi_offset 6, -28
 704              		.cfi_offset 7, -24
 705              		.cfi_offset 8, -20
 706              		.cfi_offset 9, -16
 707              		.cfi_offset 10, -12
ARM GAS  /tmp/ccl72mIK.s 			page 31


 708              		.cfi_offset 11, -8
 709              		.cfi_offset 14, -4
 418:MCSDK_v6.0.0-Full/MotorControl/MCSDK/MCLib/Any/Src/sto_pll_speed_pos_fdbk.c **** #ifdef NULL_PTR_STO_PLL_SPD_POS_FDB
 710              		.loc 1 418 3 is_stmt 1 view .LVU276
 427:MCSDK_v6.0.0-Full/MotorControl/MCSDK/MCLib/Any/Src/sto_pll_speed_pos_fdbk.c ****     int32_t wError;
 711              		.loc 1 427 5 view .LVU277
 712              	.LVL79:
 428:MCSDK_v6.0.0-Full/MotorControl/MCSDK/MCLib/Any/Src/sto_pll_speed_pos_fdbk.c ****     int32_t wAux;
 713              		.loc 1 428 5 view .LVU278
 429:MCSDK_v6.0.0-Full/MotorControl/MCSDK/MCLib/Any/Src/sto_pll_speed_pos_fdbk.c ****     int32_t wAvrSquareSpeed;
 714              		.loc 1 429 5 view .LVU279
 430:MCSDK_v6.0.0-Full/MotorControl/MCSDK/MCLib/Any/Src/sto_pll_speed_pos_fdbk.c ****     int32_t wAvrQuadraticError = 0;
 715              		.loc 1 430 5 view .LVU280
 431:MCSDK_v6.0.0-Full/MotorControl/MCSDK/MCLib/Any/Src/sto_pll_speed_pos_fdbk.c ****     int32_t wObsBemf, wEstBemf;
 716              		.loc 1 431 5 view .LVU281
 432:MCSDK_v6.0.0-Full/MotorControl/MCSDK/MCLib/Any/Src/sto_pll_speed_pos_fdbk.c ****     int32_t wObsBemfSq = 0;
 717              		.loc 1 432 5 view .LVU282
 433:MCSDK_v6.0.0-Full/MotorControl/MCSDK/MCLib/Any/Src/sto_pll_speed_pos_fdbk.c ****     int32_t wEstBemfSq = 0;
 718              		.loc 1 433 5 view .LVU283
 434:MCSDK_v6.0.0-Full/MotorControl/MCSDK/MCLib/Any/Src/sto_pll_speed_pos_fdbk.c ****     int32_t wEstBemfSqLo;
 719              		.loc 1 434 5 view .LVU284
 435:MCSDK_v6.0.0-Full/MotorControl/MCSDK/MCLib/Any/Src/sto_pll_speed_pos_fdbk.c ****     bool bIs_Speed_Reliable = false;
 720              		.loc 1 435 5 view .LVU285
 436:MCSDK_v6.0.0-Full/MotorControl/MCSDK/MCLib/Any/Src/sto_pll_speed_pos_fdbk.c ****     bool bIs_Bemf_Consistent = false;
 721              		.loc 1 436 5 view .LVU286
 437:MCSDK_v6.0.0-Full/MotorControl/MCSDK/MCLib/Any/Src/sto_pll_speed_pos_fdbk.c ****     uint8_t i, bSpeedBufferSizeUnit = pHandle->SpeedBufferSizeUnit;
 722              		.loc 1 437 5 view .LVU287
 438:MCSDK_v6.0.0-Full/MotorControl/MCSDK/MCLib/Any/Src/sto_pll_speed_pos_fdbk.c **** 
 723              		.loc 1 438 5 view .LVU288
 438:MCSDK_v6.0.0-Full/MotorControl/MCSDK/MCLib/Any/Src/sto_pll_speed_pos_fdbk.c **** 
 724              		.loc 1 438 16 is_stmt 0 view .LVU289
 725 0004 90F80E51 		ldrb	r5, [r0, #270]	@ zero_extendqisi2
 726              	.LVL80:
 440:MCSDK_v6.0.0-Full/MotorControl/MCSDK/MCLib/Any/Src/sto_pll_speed_pos_fdbk.c ****     {
 727              		.loc 1 440 5 is_stmt 1 view .LVU290
 440:MCSDK_v6.0.0-Full/MotorControl/MCSDK/MCLib/Any/Src/sto_pll_speed_pos_fdbk.c ****     {
 728              		.loc 1 440 12 is_stmt 0 view .LVU291
 729 0008 0023     		movs	r3, #0
 427:MCSDK_v6.0.0-Full/MotorControl/MCSDK/MCLib/Any/Src/sto_pll_speed_pos_fdbk.c ****     int32_t wError;
 730              		.loc 1 427 13 view .LVU292
 731 000a 1A46     		mov	r2, r3
 732              	.LVL81:
 733              	.L30:
 440:MCSDK_v6.0.0-Full/MotorControl/MCSDK/MCLib/Any/Src/sto_pll_speed_pos_fdbk.c ****     {
 734              		.loc 1 440 18 is_stmt 1 discriminator 1 view .LVU293
 440:MCSDK_v6.0.0-Full/MotorControl/MCSDK/MCLib/Any/Src/sto_pll_speed_pos_fdbk.c ****     {
 735              		.loc 1 440 5 is_stmt 0 discriminator 1 view .LVU294
 736 000c AB42     		cmp	r3, r5
 737 000e 09D2     		bcs	.L50
 442:MCSDK_v6.0.0-Full/MotorControl/MCSDK/MCLib/Any/Src/sto_pll_speed_pos_fdbk.c ****     }
 738              		.loc 1 442 7 is_stmt 1 discriminator 3 view .LVU295
 442:MCSDK_v6.0.0-Full/MotorControl/MCSDK/MCLib/Any/Src/sto_pll_speed_pos_fdbk.c ****     }
 739              		.loc 1 442 55 is_stmt 0 discriminator 3 view .LVU296
 740 0010 03F13804 		add	r4, r3, #56
 741 0014 00EB4404 		add	r4, r0, r4, lsl #1
 742 0018 B4F90440 		ldrsh	r4, [r4, #4]
 442:MCSDK_v6.0.0-Full/MotorControl/MCSDK/MCLib/Any/Src/sto_pll_speed_pos_fdbk.c ****     }
ARM GAS  /tmp/ccl72mIK.s 			page 32


 743              		.loc 1 442 21 discriminator 3 view .LVU297
 744 001c 2244     		add	r2, r2, r4
 745              	.LVL82:
 440:MCSDK_v6.0.0-Full/MotorControl/MCSDK/MCLib/Any/Src/sto_pll_speed_pos_fdbk.c ****     {
 746              		.loc 1 440 44 is_stmt 1 discriminator 3 view .LVU298
 440:MCSDK_v6.0.0-Full/MotorControl/MCSDK/MCLib/Any/Src/sto_pll_speed_pos_fdbk.c ****     {
 747              		.loc 1 440 45 is_stmt 0 discriminator 3 view .LVU299
 748 001e 0133     		adds	r3, r3, #1
 749              	.LVL83:
 440:MCSDK_v6.0.0-Full/MotorControl/MCSDK/MCLib/Any/Src/sto_pll_speed_pos_fdbk.c ****     {
 750              		.loc 1 440 45 discriminator 3 view .LVU300
 751 0020 DBB2     		uxtb	r3, r3
 752              	.LVL84:
 440:MCSDK_v6.0.0-Full/MotorControl/MCSDK/MCLib/Any/Src/sto_pll_speed_pos_fdbk.c ****     {
 753              		.loc 1 440 45 discriminator 3 view .LVU301
 754 0022 F3E7     		b	.L30
 755              	.L50:
 445:MCSDK_v6.0.0-Full/MotorControl/MCSDK/MCLib/Any/Src/sto_pll_speed_pos_fdbk.c ****     {
 756              		.loc 1 445 5 is_stmt 1 view .LVU302
 445:MCSDK_v6.0.0-Full/MotorControl/MCSDK/MCLib/Any/Src/sto_pll_speed_pos_fdbk.c ****     {
 757              		.loc 1 445 8 is_stmt 0 view .LVU303
 758 0024 0DB1     		cbz	r5, .L32
 451:MCSDK_v6.0.0-Full/MotorControl/MCSDK/MCLib/Any/Src/sto_pll_speed_pos_fdbk.c ****     }
 759              		.loc 1 451 7 is_stmt 1 view .LVU304
 451:MCSDK_v6.0.0-Full/MotorControl/MCSDK/MCLib/Any/Src/sto_pll_speed_pos_fdbk.c ****     }
 760              		.loc 1 451 21 is_stmt 0 view .LVU305
 761 0026 92FBF5F2 		sdiv	r2, r2, r5
 762              	.LVL85:
 763              	.L32:
 454:MCSDK_v6.0.0-Full/MotorControl/MCSDK/MCLib/Any/Src/sto_pll_speed_pos_fdbk.c ****     {
 764              		.loc 1 454 5 is_stmt 1 view .LVU306
 454:MCSDK_v6.0.0-Full/MotorControl/MCSDK/MCLib/Any/Src/sto_pll_speed_pos_fdbk.c ****     {
 765              		.loc 1 454 12 is_stmt 0 view .LVU307
 766 002a 0023     		movs	r3, #0
 431:MCSDK_v6.0.0-Full/MotorControl/MCSDK/MCLib/Any/Src/sto_pll_speed_pos_fdbk.c ****     int32_t wObsBemf, wEstBemf;
 767              		.loc 1 431 13 view .LVU308
 768 002c 1E46     		mov	r6, r3
 454:MCSDK_v6.0.0-Full/MotorControl/MCSDK/MCLib/Any/Src/sto_pll_speed_pos_fdbk.c ****     {
 769              		.loc 1 454 5 view .LVU309
 770 002e 0AE0     		b	.L33
 771              	.LVL86:
 772              	.L34:
 456:MCSDK_v6.0.0-Full/MotorControl/MCSDK/MCLib/Any/Src/sto_pll_speed_pos_fdbk.c ****       wError = (wError * wError);
 773              		.loc 1 456 7 is_stmt 1 discriminator 3 view .LVU310
 456:MCSDK_v6.0.0-Full/MotorControl/MCSDK/MCLib/Any/Src/sto_pll_speed_pos_fdbk.c ****       wError = (wError * wError);
 774              		.loc 1 456 47 is_stmt 0 discriminator 3 view .LVU311
 775 0030 03F13804 		add	r4, r3, #56
 776 0034 00EB4404 		add	r4, r0, r4, lsl #1
 777 0038 B4F90440 		ldrsh	r4, [r4, #4]
 456:MCSDK_v6.0.0-Full/MotorControl/MCSDK/MCLib/Any/Src/sto_pll_speed_pos_fdbk.c ****       wError = (wError * wError);
 778              		.loc 1 456 14 discriminator 3 view .LVU312
 779 003c A41A     		subs	r4, r4, r2
 780              	.LVL87:
 457:MCSDK_v6.0.0-Full/MotorControl/MCSDK/MCLib/Any/Src/sto_pll_speed_pos_fdbk.c ****       wAvrQuadraticError += wError;
 781              		.loc 1 457 7 is_stmt 1 discriminator 3 view .LVU313
 458:MCSDK_v6.0.0-Full/MotorControl/MCSDK/MCLib/Any/Src/sto_pll_speed_pos_fdbk.c ****     }
 782              		.loc 1 458 7 discriminator 3 view .LVU314
ARM GAS  /tmp/ccl72mIK.s 			page 33


 458:MCSDK_v6.0.0-Full/MotorControl/MCSDK/MCLib/Any/Src/sto_pll_speed_pos_fdbk.c ****     }
 783              		.loc 1 458 26 is_stmt 0 discriminator 3 view .LVU315
 784 003e 04FB0466 		mla	r6, r4, r4, r6
 785              	.LVL88:
 454:MCSDK_v6.0.0-Full/MotorControl/MCSDK/MCLib/Any/Src/sto_pll_speed_pos_fdbk.c ****     {
 786              		.loc 1 454 44 is_stmt 1 discriminator 3 view .LVU316
 454:MCSDK_v6.0.0-Full/MotorControl/MCSDK/MCLib/Any/Src/sto_pll_speed_pos_fdbk.c ****     {
 787              		.loc 1 454 45 is_stmt 0 discriminator 3 view .LVU317
 788 0042 0133     		adds	r3, r3, #1
 789              	.LVL89:
 454:MCSDK_v6.0.0-Full/MotorControl/MCSDK/MCLib/Any/Src/sto_pll_speed_pos_fdbk.c ****     {
 790              		.loc 1 454 45 discriminator 3 view .LVU318
 791 0044 DBB2     		uxtb	r3, r3
 792              	.LVL90:
 793              	.L33:
 454:MCSDK_v6.0.0-Full/MotorControl/MCSDK/MCLib/Any/Src/sto_pll_speed_pos_fdbk.c ****     {
 794              		.loc 1 454 18 is_stmt 1 discriminator 1 view .LVU319
 454:MCSDK_v6.0.0-Full/MotorControl/MCSDK/MCLib/Any/Src/sto_pll_speed_pos_fdbk.c ****     {
 795              		.loc 1 454 5 is_stmt 0 discriminator 1 view .LVU320
 796 0046 AB42     		cmp	r3, r5
 797 0048 F2D3     		bcc	.L34
 462:MCSDK_v6.0.0-Full/MotorControl/MCSDK/MCLib/Any/Src/sto_pll_speed_pos_fdbk.c **** 
 798              		.loc 1 462 5 is_stmt 1 view .LVU321
 462:MCSDK_v6.0.0-Full/MotorControl/MCSDK/MCLib/Any/Src/sto_pll_speed_pos_fdbk.c **** 
 799              		.loc 1 462 24 is_stmt 0 view .LVU322
 800 004a 96FBF5F6 		sdiv	r6, r6, r5
 801              	.LVL91:
 465:MCSDK_v6.0.0-Full/MotorControl/MCSDK/MCLib/Any/Src/sto_pll_speed_pos_fdbk.c ****     int64_t lAvrSquareSpeed = (int64_t)(wAvrSquareSpeed) * pHandle->VariancePercentage;      
 802              		.loc 1 465 5 is_stmt 1 view .LVU323
 465:MCSDK_v6.0.0-Full/MotorControl/MCSDK/MCLib/Any/Src/sto_pll_speed_pos_fdbk.c ****     int64_t lAvrSquareSpeed = (int64_t)(wAvrSquareSpeed) * pHandle->VariancePercentage;      
 803              		.loc 1 465 21 is_stmt 0 view .LVU324
 804 004e 02FB02F4 		mul	r4, r2, r2
 805              	.LVL92:
 466:MCSDK_v6.0.0-Full/MotorControl/MCSDK/MCLib/Any/Src/sto_pll_speed_pos_fdbk.c ****     wAvrSquareSpeed = lAvrSquareSpeed / (int16_t)128;
 806              		.loc 1 466 5 is_stmt 1 view .LVU325
 466:MCSDK_v6.0.0-Full/MotorControl/MCSDK/MCLib/Any/Src/sto_pll_speed_pos_fdbk.c ****     wAvrSquareSpeed = lAvrSquareSpeed / (int16_t)128;
 807              		.loc 1 466 31 is_stmt 0 view .LVU326
 808 0052 4FEAE47B 		asr	fp, r4, #31
 466:MCSDK_v6.0.0-Full/MotorControl/MCSDK/MCLib/Any/Src/sto_pll_speed_pos_fdbk.c ****     wAvrSquareSpeed = lAvrSquareSpeed / (int16_t)128;
 809              		.loc 1 466 67 view .LVU327
 810 0056 B0F81081 		ldrh	r8, [r0, #272]
 466:MCSDK_v6.0.0-Full/MotorControl/MCSDK/MCLib/Any/Src/sto_pll_speed_pos_fdbk.c ****     wAvrSquareSpeed = lAvrSquareSpeed / (int16_t)128;
 811              		.loc 1 466 13 view .LVU328
 812 005a A4FB0845 		umull	r4, r5, r4, r8
 813              	.LVL93:
 466:MCSDK_v6.0.0-Full/MotorControl/MCSDK/MCLib/Any/Src/sto_pll_speed_pos_fdbk.c ****     wAvrSquareSpeed = lAvrSquareSpeed / (int16_t)128;
 814              		.loc 1 466 13 view .LVU329
 815 005e 08FB0B55 		mla	r5, r8, fp, r5
 816              	.LVL94:
 467:MCSDK_v6.0.0-Full/MotorControl/MCSDK/MCLib/Any/Src/sto_pll_speed_pos_fdbk.c ****     
 817              		.loc 1 467 5 is_stmt 1 view .LVU330
 467:MCSDK_v6.0.0-Full/MotorControl/MCSDK/MCLib/Any/Src/sto_pll_speed_pos_fdbk.c ****     
 818              		.loc 1 467 39 is_stmt 0 view .LVU331
 819 0062 2346     		mov	r3, r4
 820              	.LVL95:
 467:MCSDK_v6.0.0-Full/MotorControl/MCSDK/MCLib/Any/Src/sto_pll_speed_pos_fdbk.c ****     
 821              		.loc 1 467 39 view .LVU332
ARM GAS  /tmp/ccl72mIK.s 			page 34


 822 0064 2F46     		mov	r7, r5
 823 0066 002C     		cmp	r4, #0
 824 0068 75F1000C 		sbcs	ip, r5, #0
 825 006c 44DB     		blt	.L51
 826              	.L35:
 467:MCSDK_v6.0.0-Full/MotorControl/MCSDK/MCLib/Any/Src/sto_pll_speed_pos_fdbk.c ****     
 827              		.loc 1 467 39 view .LVU333
 828 006e DB09     		lsrs	r3, r3, #7
 829 0070 43EA4763 		orr	r3, r3, r7, lsl #25
 830              	.LVL96:
 469:MCSDK_v6.0.0-Full/MotorControl/MCSDK/MCLib/Any/Src/sto_pll_speed_pos_fdbk.c ****     {
 831              		.loc 1 469 5 is_stmt 1 view .LVU334
 469:MCSDK_v6.0.0-Full/MotorControl/MCSDK/MCLib/Any/Src/sto_pll_speed_pos_fdbk.c ****     {
 832              		.loc 1 469 8 is_stmt 0 view .LVU335
 833 0074 9E42     		cmp	r6, r3
 834 0076 44DB     		blt	.L46
 436:MCSDK_v6.0.0-Full/MotorControl/MCSDK/MCLib/Any/Src/sto_pll_speed_pos_fdbk.c ****     bool bIs_Bemf_Consistent = false;
 835              		.loc 1 436 10 view .LVU336
 836 0078 0025     		movs	r5, #0
 837              	.L36:
 838              	.LVL97:
 475:MCSDK_v6.0.0-Full/MotorControl/MCSDK/MCLib/Any/Src/sto_pll_speed_pos_fdbk.c ****     wAux = wAux * ((int32_t)pHandle->_Super.SpeedUnit);
 839              		.loc 1 475 5 is_stmt 1 view .LVU337
 475:MCSDK_v6.0.0-Full/MotorControl/MCSDK/MCLib/Any/Src/sto_pll_speed_pos_fdbk.c ****     wAux = wAux * ((int32_t)pHandle->_Super.SpeedUnit);
 840              		.loc 1 475 53 is_stmt 0 view .LVU338
 841 007a 438B     		ldrh	r3, [r0, #26]
 842              	.LVL98:
 475:MCSDK_v6.0.0-Full/MotorControl/MCSDK/MCLib/Any/Src/sto_pll_speed_pos_fdbk.c ****     wAux = wAux * ((int32_t)pHandle->_Super.SpeedUnit);
 843              		.loc 1 475 10 view .LVU339
 844 007c 02FB03F3 		mul	r3, r2, r3
 845              	.LVL99:
 476:MCSDK_v6.0.0-Full/MotorControl/MCSDK/MCLib/Any/Src/sto_pll_speed_pos_fdbk.c ****     wAux = wAux / ((int32_t)pHandle->_Super.DPPConvFactor);
 846              		.loc 1 476 5 is_stmt 1 view .LVU340
 476:MCSDK_v6.0.0-Full/MotorControl/MCSDK/MCLib/Any/Src/sto_pll_speed_pos_fdbk.c ****     wAux = wAux / ((int32_t)pHandle->_Super.DPPConvFactor);
 847              		.loc 1 476 44 is_stmt 0 view .LVU341
 848 0080 8278     		ldrb	r2, [r0, #2]	@ zero_extendqisi2
 849              	.LVL100:
 476:MCSDK_v6.0.0-Full/MotorControl/MCSDK/MCLib/Any/Src/sto_pll_speed_pos_fdbk.c ****     wAux = wAux / ((int32_t)pHandle->_Super.DPPConvFactor);
 850              		.loc 1 476 10 view .LVU342
 851 0082 03FB02F3 		mul	r3, r3, r2
 852              	.LVL101:
 477:MCSDK_v6.0.0-Full/MotorControl/MCSDK/MCLib/Any/Src/sto_pll_speed_pos_fdbk.c ****     wAux = wAux / ((int16_t)pHandle->_Super.bElToMecRatio);
 853              		.loc 1 477 5 is_stmt 1 view .LVU343
 477:MCSDK_v6.0.0-Full/MotorControl/MCSDK/MCLib/Any/Src/sto_pll_speed_pos_fdbk.c ****     wAux = wAux / ((int16_t)pHandle->_Super.bElToMecRatio);
 854              		.loc 1 477 44 is_stmt 0 view .LVU344
 855 0086 C269     		ldr	r2, [r0, #28]
 477:MCSDK_v6.0.0-Full/MotorControl/MCSDK/MCLib/Any/Src/sto_pll_speed_pos_fdbk.c ****     wAux = wAux / ((int16_t)pHandle->_Super.bElToMecRatio);
 856              		.loc 1 477 10 view .LVU345
 857 0088 93FBF2F3 		sdiv	r3, r3, r2
 858              	.LVL102:
 478:MCSDK_v6.0.0-Full/MotorControl/MCSDK/MCLib/Any/Src/sto_pll_speed_pos_fdbk.c **** 
 859              		.loc 1 478 5 is_stmt 1 view .LVU346
 478:MCSDK_v6.0.0-Full/MotorControl/MCSDK/MCLib/Any/Src/sto_pll_speed_pos_fdbk.c **** 
 860              		.loc 1 478 44 is_stmt 0 view .LVU347
 861 008c 4278     		ldrb	r2, [r0, #1]	@ zero_extendqisi2
 478:MCSDK_v6.0.0-Full/MotorControl/MCSDK/MCLib/Any/Src/sto_pll_speed_pos_fdbk.c **** 
 862              		.loc 1 478 10 view .LVU348
ARM GAS  /tmp/ccl72mIK.s 			page 35


 863 008e 93FBF2F3 		sdiv	r3, r3, r2
 864              	.LVL103:
 480:MCSDK_v6.0.0-Full/MotorControl/MCSDK/MCLib/Any/Src/sto_pll_speed_pos_fdbk.c ****     pHandle->_Super.hAvrMecSpeedUnit = (int16_t)wAux;
 865              		.loc 1 480 5 is_stmt 1 view .LVU349
 480:MCSDK_v6.0.0-Full/MotorControl/MCSDK/MCLib/Any/Src/sto_pll_speed_pos_fdbk.c ****     pHandle->_Super.hAvrMecSpeedUnit = (int16_t)wAux;
 866              		.loc 1 480 22 is_stmt 0 view .LVU350
 867 0092 1AB2     		sxth	r2, r3
 480:MCSDK_v6.0.0-Full/MotorControl/MCSDK/MCLib/Any/Src/sto_pll_speed_pos_fdbk.c ****     pHandle->_Super.hAvrMecSpeedUnit = (int16_t)wAux;
 868              		.loc 1 480 20 view .LVU351
 869 0094 0A80     		strh	r2, [r1]	@ movhi
 870              	.LVL104:
 481:MCSDK_v6.0.0-Full/MotorControl/MCSDK/MCLib/Any/Src/sto_pll_speed_pos_fdbk.c **** 
 871              		.loc 1 481 5 is_stmt 1 view .LVU352
 481:MCSDK_v6.0.0-Full/MotorControl/MCSDK/MCLib/Any/Src/sto_pll_speed_pos_fdbk.c **** 
 872              		.loc 1 481 38 is_stmt 0 view .LVU353
 873 0096 8281     		strh	r2, [r0, #12]	@ movhi
 483:MCSDK_v6.0.0-Full/MotorControl/MCSDK/MCLib/Any/Src/sto_pll_speed_pos_fdbk.c **** 
 874              		.loc 1 483 5 is_stmt 1 view .LVU354
 483:MCSDK_v6.0.0-Full/MotorControl/MCSDK/MCLib/Any/Src/sto_pll_speed_pos_fdbk.c **** 
 875              		.loc 1 483 30 is_stmt 0 view .LVU355
 876 0098 80F8F550 		strb	r5, [r0, #245]
 486:MCSDK_v6.0.0-Full/MotorControl/MCSDK/MCLib/Any/Src/sto_pll_speed_pos_fdbk.c ****     {
 877              		.loc 1 486 5 is_stmt 1 view .LVU356
 486:MCSDK_v6.0.0-Full/MotorControl/MCSDK/MCLib/Any/Src/sto_pll_speed_pos_fdbk.c ****     {
 878              		.loc 1 486 24 is_stmt 0 view .LVU357
 879 009c 90F80421 		ldrb	r2, [r0, #260]	@ zero_extendqisi2
 486:MCSDK_v6.0.0-Full/MotorControl/MCSDK/MCLib/Any/Src/sto_pll_speed_pos_fdbk.c ****     {
 880              		.loc 1 486 8 view .LVU358
 881 00a0 002A     		cmp	r2, #0
 882 00a2 55D0     		beq	.L47
 490:MCSDK_v6.0.0-Full/MotorControl/MCSDK/MCLib/Any/Src/sto_pll_speed_pos_fdbk.c ****       if (wAux < (int32_t)(pHandle->MaxAppPositiveMecSpeedUnit))
 883              		.loc 1 490 7 is_stmt 1 view .LVU359
 490:MCSDK_v6.0.0-Full/MotorControl/MCSDK/MCLib/Any/Src/sto_pll_speed_pos_fdbk.c ****       if (wAux < (int32_t)(pHandle->MaxAppPositiveMecSpeedUnit))
 884              		.loc 1 490 12 is_stmt 0 view .LVU360
 885 00a4 002B     		cmp	r3, #0
 886 00a6 B8BF     		it	lt
 887 00a8 5B42     		rsblt	r3, r3, #0
 888              	.LVL105:
 491:MCSDK_v6.0.0-Full/MotorControl/MCSDK/MCLib/Any/Src/sto_pll_speed_pos_fdbk.c ****       {
 889              		.loc 1 491 7 is_stmt 1 view .LVU361
 491:MCSDK_v6.0.0-Full/MotorControl/MCSDK/MCLib/Any/Src/sto_pll_speed_pos_fdbk.c ****       {
 890              		.loc 1 491 35 is_stmt 0 view .LVU362
 891 00aa B0F81A41 		ldrh	r4, [r0, #282]
 892              	.LVL106:
 491:MCSDK_v6.0.0-Full/MotorControl/MCSDK/MCLib/Any/Src/sto_pll_speed_pos_fdbk.c ****       {
 893              		.loc 1 491 10 view .LVU363
 894 00ae 9C42     		cmp	r4, r3
 895 00b0 2EDD     		ble	.L48
 494:MCSDK_v6.0.0-Full/MotorControl/MCSDK/MCLib/Any/Src/sto_pll_speed_pos_fdbk.c ****         wObsBemfSq = wObsBemf * wObsBemf;
 896              		.loc 1 494 9 is_stmt 1 view .LVU364
 494:MCSDK_v6.0.0-Full/MotorControl/MCSDK/MCLib/Any/Src/sto_pll_speed_pos_fdbk.c ****         wObsBemfSq = wObsBemf * wObsBemf;
 897              		.loc 1 494 36 is_stmt 0 view .LVU365
 898 00b2 B0F97060 		ldrsh	r6, [r0, #112]
 899              	.LVL107:
 495:MCSDK_v6.0.0-Full/MotorControl/MCSDK/MCLib/Any/Src/sto_pll_speed_pos_fdbk.c ****         wObsBemf = (int32_t)pHandle->hBemf_beta_est;
 900              		.loc 1 495 9 is_stmt 1 view .LVU366
 496:MCSDK_v6.0.0-Full/MotorControl/MCSDK/MCLib/Any/Src/sto_pll_speed_pos_fdbk.c ****         wObsBemfSq += wObsBemf * wObsBemf;
ARM GAS  /tmp/ccl72mIK.s 			page 36


 901              		.loc 1 496 9 view .LVU367
 496:MCSDK_v6.0.0-Full/MotorControl/MCSDK/MCLib/Any/Src/sto_pll_speed_pos_fdbk.c ****         wObsBemfSq += wObsBemf * wObsBemf;
 902              		.loc 1 496 36 is_stmt 0 view .LVU368
 903 00b6 B0F97240 		ldrsh	r4, [r0, #114]
 904              	.LVL108:
 497:MCSDK_v6.0.0-Full/MotorControl/MCSDK/MCLib/Any/Src/sto_pll_speed_pos_fdbk.c **** 
 905              		.loc 1 497 9 is_stmt 1 view .LVU369
 497:MCSDK_v6.0.0-Full/MotorControl/MCSDK/MCLib/Any/Src/sto_pll_speed_pos_fdbk.c **** 
 906              		.loc 1 497 32 is_stmt 0 view .LVU370
 907 00ba 04FB04F4 		mul	r4, r4, r4
 908              	.LVL109:
 497:MCSDK_v6.0.0-Full/MotorControl/MCSDK/MCLib/Any/Src/sto_pll_speed_pos_fdbk.c **** 
 909              		.loc 1 497 20 view .LVU371
 910 00be 06FB0646 		mla	r6, r6, r6, r4
 911              	.LVL110:
 500:MCSDK_v6.0.0-Full/MotorControl/MCSDK/MCLib/Any/Src/sto_pll_speed_pos_fdbk.c ****         wEstBemfSq = (wEstBemf * ((int32_t)pHandle->BemfConsistencyGain)) / 64;
 912              		.loc 1 500 9 is_stmt 1 view .LVU372
 500:MCSDK_v6.0.0-Full/MotorControl/MCSDK/MCLib/Any/Src/sto_pll_speed_pos_fdbk.c ****         wEstBemfSq = (wEstBemf * ((int32_t)pHandle->BemfConsistencyGain)) / 64;
 913              		.loc 1 500 26 is_stmt 0 view .LVU373
 914 00c2 C3EBC333 		rsb	r3, r3, r3, lsl #15
 915              	.LVL111:
 500:MCSDK_v6.0.0-Full/MotorControl/MCSDK/MCLib/Any/Src/sto_pll_speed_pos_fdbk.c ****         wEstBemfSq = (wEstBemf * ((int32_t)pHandle->BemfConsistencyGain)) / 64;
 916              		.loc 1 500 38 view .LVU374
 917 00c6 B0F91440 		ldrsh	r4, [r0, #20]
 500:MCSDK_v6.0.0-Full/MotorControl/MCSDK/MCLib/Any/Src/sto_pll_speed_pos_fdbk.c ****         wEstBemfSq = (wEstBemf * ((int32_t)pHandle->BemfConsistencyGain)) / 64;
 918              		.loc 1 500 18 view .LVU375
 919 00ca 93FBF4F3 		sdiv	r3, r3, r4
 920              	.LVL112:
 501:MCSDK_v6.0.0-Full/MotorControl/MCSDK/MCLib/Any/Src/sto_pll_speed_pos_fdbk.c ****         wEstBemfSq *= wEstBemf;
 921              		.loc 1 501 9 is_stmt 1 view .LVU376
 501:MCSDK_v6.0.0-Full/MotorControl/MCSDK/MCLib/Any/Src/sto_pll_speed_pos_fdbk.c ****         wEstBemfSq *= wEstBemf;
 922              		.loc 1 501 51 is_stmt 0 view .LVU377
 923 00ce 90F81941 		ldrb	r4, [r0, #281]	@ zero_extendqisi2
 501:MCSDK_v6.0.0-Full/MotorControl/MCSDK/MCLib/Any/Src/sto_pll_speed_pos_fdbk.c ****         wEstBemfSq *= wEstBemf;
 924              		.loc 1 501 32 view .LVU378
 925 00d2 03FB04F4 		mul	r4, r3, r4
 501:MCSDK_v6.0.0-Full/MotorControl/MCSDK/MCLib/Any/Src/sto_pll_speed_pos_fdbk.c ****         wEstBemfSq *= wEstBemf;
 926              		.loc 1 501 20 view .LVU379
 927 00d6 002C     		cmp	r4, #0
 928 00d8 15DB     		blt	.L52
 929              	.L39:
 930 00da A411     		asrs	r4, r4, #6
 931              	.LVL113:
 502:MCSDK_v6.0.0-Full/MotorControl/MCSDK/MCLib/Any/Src/sto_pll_speed_pos_fdbk.c **** 
 932              		.loc 1 502 9 is_stmt 1 view .LVU380
 502:MCSDK_v6.0.0-Full/MotorControl/MCSDK/MCLib/Any/Src/sto_pll_speed_pos_fdbk.c **** 
 933              		.loc 1 502 20 is_stmt 0 view .LVU381
 934 00dc 04FB03F3 		mul	r3, r4, r3
 935              	.LVL114:
 505:MCSDK_v6.0.0-Full/MotorControl/MCSDK/MCLib/Any/Src/sto_pll_speed_pos_fdbk.c **** 
 936              		.loc 1 505 9 is_stmt 1 view .LVU382
 505:MCSDK_v6.0.0-Full/MotorControl/MCSDK/MCLib/Any/Src/sto_pll_speed_pos_fdbk.c **** 
 937              		.loc 1 505 50 is_stmt 0 view .LVU383
 938 00e0 1C46     		mov	r4, r3
 939 00e2 002B     		cmp	r3, #0
 940 00e4 11DB     		blt	.L53
 941              	.L40:
ARM GAS  /tmp/ccl72mIK.s 			page 37


 505:MCSDK_v6.0.0-Full/MotorControl/MCSDK/MCLib/Any/Src/sto_pll_speed_pos_fdbk.c **** 
 942              		.loc 1 505 50 view .LVU384
 943 00e6 A411     		asrs	r4, r4, #6
 505:MCSDK_v6.0.0-Full/MotorControl/MCSDK/MCLib/Any/Src/sto_pll_speed_pos_fdbk.c **** 
 944              		.loc 1 505 75 view .LVU385
 945 00e8 90F81871 		ldrb	r7, [r0, #280]	@ zero_extendqisi2
 505:MCSDK_v6.0.0-Full/MotorControl/MCSDK/MCLib/Any/Src/sto_pll_speed_pos_fdbk.c **** 
 946              		.loc 1 505 22 view .LVU386
 947 00ec 07FB1434 		mls	r4, r7, r4, r3
 948              	.LVL115:
 508:MCSDK_v6.0.0-Full/MotorControl/MCSDK/MCLib/Any/Src/sto_pll_speed_pos_fdbk.c ****         {
 949              		.loc 1 508 9 is_stmt 1 view .LVU387
 508:MCSDK_v6.0.0-Full/MotorControl/MCSDK/MCLib/Any/Src/sto_pll_speed_pos_fdbk.c ****         {
 950              		.loc 1 508 12 is_stmt 0 view .LVU388
 951 00f0 A642     		cmp	r6, r4
 952 00f2 10DC     		bgt	.L38
 437:MCSDK_v6.0.0-Full/MotorControl/MCSDK/MCLib/Any/Src/sto_pll_speed_pos_fdbk.c ****     uint8_t i, bSpeedBufferSizeUnit = pHandle->SpeedBufferSizeUnit;
 953              		.loc 1 437 10 view .LVU389
 954 00f4 0022     		movs	r2, #0
 955 00f6 0EE0     		b	.L38
 956              	.LVL116:
 957              	.L51:
 467:MCSDK_v6.0.0-Full/MotorControl/MCSDK/MCLib/Any/Src/sto_pll_speed_pos_fdbk.c ****     
 958              		.loc 1 467 39 view .LVU390
 959 00f8 14F17F03 		adds	r3, r4, #127
 960 00fc 45F10007 		adc	r7, r5, #0
 961 0100 B5E7     		b	.L35
 962              	.LVL117:
 963              	.L46:
 471:MCSDK_v6.0.0-Full/MotorControl/MCSDK/MCLib/Any/Src/sto_pll_speed_pos_fdbk.c ****     }
 964              		.loc 1 471 26 view .LVU391
 965 0102 0125     		movs	r5, #1
 966 0104 B9E7     		b	.L36
 967              	.LVL118:
 968              	.L52:
 501:MCSDK_v6.0.0-Full/MotorControl/MCSDK/MCLib/Any/Src/sto_pll_speed_pos_fdbk.c ****         wEstBemfSq *= wEstBemf;
 969              		.loc 1 501 20 view .LVU392
 970 0106 3F34     		adds	r4, r4, #63
 971 0108 E7E7     		b	.L39
 972              	.LVL119:
 973              	.L53:
 505:MCSDK_v6.0.0-Full/MotorControl/MCSDK/MCLib/Any/Src/sto_pll_speed_pos_fdbk.c **** 
 974              		.loc 1 505 50 view .LVU393
 975 010a 03F13F04 		add	r4, r3, #63
 976 010e EAE7     		b	.L40
 977              	.LVL120:
 978              	.L48:
 437:MCSDK_v6.0.0-Full/MotorControl/MCSDK/MCLib/Any/Src/sto_pll_speed_pos_fdbk.c ****     uint8_t i, bSpeedBufferSizeUnit = pHandle->SpeedBufferSizeUnit;
 979              		.loc 1 437 10 view .LVU394
 980 0110 0022     		movs	r2, #0
 434:MCSDK_v6.0.0-Full/MotorControl/MCSDK/MCLib/Any/Src/sto_pll_speed_pos_fdbk.c ****     int32_t wEstBemfSqLo;
 981              		.loc 1 434 13 view .LVU395
 982 0112 1346     		mov	r3, r2
 983              	.LVL121:
 433:MCSDK_v6.0.0-Full/MotorControl/MCSDK/MCLib/Any/Src/sto_pll_speed_pos_fdbk.c ****     int32_t wEstBemfSq = 0;
 984              		.loc 1 433 13 view .LVU396
 985 0114 1646     		mov	r6, r2
ARM GAS  /tmp/ccl72mIK.s 			page 38


 986              	.LVL122:
 987              	.L38:
 514:MCSDK_v6.0.0-Full/MotorControl/MCSDK/MCLib/Any/Src/sto_pll_speed_pos_fdbk.c ****       pHandle->Obs_Bemf_Level = wObsBemfSq;
 988              		.loc 1 514 7 is_stmt 1 view .LVU397
 514:MCSDK_v6.0.0-Full/MotorControl/MCSDK/MCLib/Any/Src/sto_pll_speed_pos_fdbk.c ****       pHandle->Obs_Bemf_Level = wObsBemfSq;
 989              		.loc 1 514 33 is_stmt 0 view .LVU398
 990 0116 80F8F920 		strb	r2, [r0, #249]
 515:MCSDK_v6.0.0-Full/MotorControl/MCSDK/MCLib/Any/Src/sto_pll_speed_pos_fdbk.c ****       pHandle->Est_Bemf_Level = wEstBemfSq;
 991              		.loc 1 515 7 is_stmt 1 view .LVU399
 515:MCSDK_v6.0.0-Full/MotorControl/MCSDK/MCLib/Any/Src/sto_pll_speed_pos_fdbk.c ****       pHandle->Est_Bemf_Level = wEstBemfSq;
 992              		.loc 1 515 31 is_stmt 0 view .LVU400
 993 011a C0F8FC60 		str	r6, [r0, #252]
 516:MCSDK_v6.0.0-Full/MotorControl/MCSDK/MCLib/Any/Src/sto_pll_speed_pos_fdbk.c ****     }
 994              		.loc 1 516 7 is_stmt 1 view .LVU401
 516:MCSDK_v6.0.0-Full/MotorControl/MCSDK/MCLib/Any/Src/sto_pll_speed_pos_fdbk.c ****     }
 995              		.loc 1 516 31 is_stmt 0 view .LVU402
 996 011e C0F80031 		str	r3, [r0, #256]
 997              	.LVL123:
 998              	.L37:
 524:MCSDK_v6.0.0-Full/MotorControl/MCSDK/MCLib/Any/Src/sto_pll_speed_pos_fdbk.c ****     {
 999              		.loc 1 524 5 is_stmt 1 view .LVU403
 524:MCSDK_v6.0.0-Full/MotorControl/MCSDK/MCLib/Any/Src/sto_pll_speed_pos_fdbk.c ****     {
 1000              		.loc 1 524 25 is_stmt 0 view .LVU404
 1001 0122 90F8F830 		ldrb	r3, [r0, #248]	@ zero_extendqisi2
 524:MCSDK_v6.0.0-Full/MotorControl/MCSDK/MCLib/Any/Src/sto_pll_speed_pos_fdbk.c ****     {
 1002              		.loc 1 524 8 view .LVU405
 1003 0126 ABB1     		cbz	r3, .L54
 530:MCSDK_v6.0.0-Full/MotorControl/MCSDK/MCLib/Any/Src/sto_pll_speed_pos_fdbk.c ****       {
 1004              		.loc 1 530 7 is_stmt 1 view .LVU406
 530:MCSDK_v6.0.0-Full/MotorControl/MCSDK/MCLib/Any/Src/sto_pll_speed_pos_fdbk.c ****       {
 1005              		.loc 1 530 10 is_stmt 0 view .LVU407
 1006 0128 05B1     		cbz	r5, .L43
 530:MCSDK_v6.0.0-Full/MotorControl/MCSDK/MCLib/Any/Src/sto_pll_speed_pos_fdbk.c ****       {
 1007              		.loc 1 530 47 discriminator 1 view .LVU408
 1008 012a CAB9     		cbnz	r2, .L44
 1009              	.L43:
 532:MCSDK_v6.0.0-Full/MotorControl/MCSDK/MCLib/Any/Src/sto_pll_speed_pos_fdbk.c ****         if (pHandle->ReliabilityCounter >= pHandle->Reliability_hysteresys)
 1010              		.loc 1 532 9 is_stmt 1 view .LVU409
 532:MCSDK_v6.0.0-Full/MotorControl/MCSDK/MCLib/Any/Src/sto_pll_speed_pos_fdbk.c ****         if (pHandle->ReliabilityCounter >= pHandle->Reliability_hysteresys)
 1011              		.loc 1 532 16 is_stmt 0 view .LVU410
 1012 012c 90F8F730 		ldrb	r3, [r0, #247]	@ zero_extendqisi2
 532:MCSDK_v6.0.0-Full/MotorControl/MCSDK/MCLib/Any/Src/sto_pll_speed_pos_fdbk.c ****         if (pHandle->ReliabilityCounter >= pHandle->Reliability_hysteresys)
 1013              		.loc 1 532 36 view .LVU411
 1014 0130 0133     		adds	r3, r3, #1
 1015 0132 DBB2     		uxtb	r3, r3
 1016 0134 80F8F730 		strb	r3, [r0, #247]
 533:MCSDK_v6.0.0-Full/MotorControl/MCSDK/MCLib/Any/Src/sto_pll_speed_pos_fdbk.c ****         {
 1017              		.loc 1 533 9 is_stmt 1 view .LVU412
 533:MCSDK_v6.0.0-Full/MotorControl/MCSDK/MCLib/Any/Src/sto_pll_speed_pos_fdbk.c ****         {
 1018              		.loc 1 533 51 is_stmt 0 view .LVU413
 1019 0138 90F81721 		ldrb	r2, [r0, #279]	@ zero_extendqisi2
 1020              	.LVL124:
 533:MCSDK_v6.0.0-Full/MotorControl/MCSDK/MCLib/Any/Src/sto_pll_speed_pos_fdbk.c ****         {
 1021              		.loc 1 533 12 view .LVU414
 1022 013c 9342     		cmp	r3, r2
 1023 013e 0CD3     		bcc	.L45
 535:MCSDK_v6.0.0-Full/MotorControl/MCSDK/MCLib/Any/Src/sto_pll_speed_pos_fdbk.c ****           pHandle->_Super.bSpeedErrorNumber = pHandle->_Super.bMaximumSpeedErrorsNumber;
ARM GAS  /tmp/ccl72mIK.s 			page 39


 1024              		.loc 1 535 11 is_stmt 1 view .LVU415
 535:MCSDK_v6.0.0-Full/MotorControl/MCSDK/MCLib/Any/Src/sto_pll_speed_pos_fdbk.c ****           pHandle->_Super.bSpeedErrorNumber = pHandle->_Super.bMaximumSpeedErrorsNumber;
 1025              		.loc 1 535 39 is_stmt 0 view .LVU416
 1026 0140 0023     		movs	r3, #0
 1027 0142 80F8F730 		strb	r3, [r0, #247]
 536:MCSDK_v6.0.0-Full/MotorControl/MCSDK/MCLib/Any/Src/sto_pll_speed_pos_fdbk.c ****           bAux = false;
 1028              		.loc 1 536 11 is_stmt 1 view .LVU417
 536:MCSDK_v6.0.0-Full/MotorControl/MCSDK/MCLib/Any/Src/sto_pll_speed_pos_fdbk.c ****           bAux = false;
 1029              		.loc 1 536 62 is_stmt 0 view .LVU418
 1030 0146 C278     		ldrb	r2, [r0, #3]	@ zero_extendqisi2
 536:MCSDK_v6.0.0-Full/MotorControl/MCSDK/MCLib/Any/Src/sto_pll_speed_pos_fdbk.c ****           bAux = false;
 1031              		.loc 1 536 45 view .LVU419
 1032 0148 0270     		strb	r2, [r0]
 537:MCSDK_v6.0.0-Full/MotorControl/MCSDK/MCLib/Any/Src/sto_pll_speed_pos_fdbk.c ****         }
 1033              		.loc 1 537 11 is_stmt 1 view .LVU420
 1034              	.LVL125:
 537:MCSDK_v6.0.0-Full/MotorControl/MCSDK/MCLib/Any/Src/sto_pll_speed_pos_fdbk.c ****         }
 1035              		.loc 1 537 16 is_stmt 0 view .LVU421
 1036 014a 1846     		mov	r0, r3
 1037              	.LVL126:
 1038              	.L42:
 553:MCSDK_v6.0.0-Full/MotorControl/MCSDK/MCLib/Any/Src/sto_pll_speed_pos_fdbk.c **** }
 1039              		.loc 1 553 3 is_stmt 1 view .LVU422
 554:MCSDK_v6.0.0-Full/MotorControl/MCSDK/MCLib/Any/Src/sto_pll_speed_pos_fdbk.c **** 
 1040              		.loc 1 554 1 is_stmt 0 view .LVU423
 1041 014c BDE8F88F 		pop	{r3, r4, r5, r6, r7, r8, r9, r10, fp, pc}
 1042              	.LVL127:
 1043              	.L47:
 520:MCSDK_v6.0.0-Full/MotorControl/MCSDK/MCLib/Any/Src/sto_pll_speed_pos_fdbk.c ****     }
 1044              		.loc 1 520 27 view .LVU424
 1045 0150 0122     		movs	r2, #1
 1046 0152 E6E7     		b	.L37
 1047              	.LVL128:
 1048              	.L54:
 526:MCSDK_v6.0.0-Full/MotorControl/MCSDK/MCLib/Any/Src/sto_pll_speed_pos_fdbk.c ****     }
 1049              		.loc 1 526 7 is_stmt 1 view .LVU425
 526:MCSDK_v6.0.0-Full/MotorControl/MCSDK/MCLib/Any/Src/sto_pll_speed_pos_fdbk.c ****     }
 1050              		.loc 1 526 14 is_stmt 0 view .LVU426
 1051 0154 FFF7FEFF 		bl	SPD_IsMecSpeedReliable
 1052              	.LVL129:
 526:MCSDK_v6.0.0-Full/MotorControl/MCSDK/MCLib/Any/Src/sto_pll_speed_pos_fdbk.c ****     }
 1053              		.loc 1 526 14 view .LVU427
 1054 0158 F8E7     		b	.L42
 1055              	.LVL130:
 1056              	.L45:
 541:MCSDK_v6.0.0-Full/MotorControl/MCSDK/MCLib/Any/Src/sto_pll_speed_pos_fdbk.c ****         }
 1057              		.loc 1 541 11 is_stmt 1 view .LVU428
 541:MCSDK_v6.0.0-Full/MotorControl/MCSDK/MCLib/Any/Src/sto_pll_speed_pos_fdbk.c ****         }
 1058              		.loc 1 541 18 is_stmt 0 view .LVU429
 1059 015a FFF7FEFF 		bl	SPD_IsMecSpeedReliable
 1060              	.LVL131:
 541:MCSDK_v6.0.0-Full/MotorControl/MCSDK/MCLib/Any/Src/sto_pll_speed_pos_fdbk.c ****         }
 1061              		.loc 1 541 18 view .LVU430
 1062 015e F5E7     		b	.L42
 1063              	.LVL132:
 1064              	.L44:
 546:MCSDK_v6.0.0-Full/MotorControl/MCSDK/MCLib/Any/Src/sto_pll_speed_pos_fdbk.c ****         bAux = SPD_IsMecSpeedReliable (&pHandle->_Super, pMecSpeedUnit);
ARM GAS  /tmp/ccl72mIK.s 			page 40


 1065              		.loc 1 546 9 is_stmt 1 view .LVU431
 546:MCSDK_v6.0.0-Full/MotorControl/MCSDK/MCLib/Any/Src/sto_pll_speed_pos_fdbk.c ****         bAux = SPD_IsMecSpeedReliable (&pHandle->_Super, pMecSpeedUnit);
 1066              		.loc 1 546 37 is_stmt 0 view .LVU432
 1067 0160 0023     		movs	r3, #0
 1068 0162 80F8F730 		strb	r3, [r0, #247]
 547:MCSDK_v6.0.0-Full/MotorControl/MCSDK/MCLib/Any/Src/sto_pll_speed_pos_fdbk.c ****       }
 1069              		.loc 1 547 9 is_stmt 1 view .LVU433
 547:MCSDK_v6.0.0-Full/MotorControl/MCSDK/MCLib/Any/Src/sto_pll_speed_pos_fdbk.c ****       }
 1070              		.loc 1 547 16 is_stmt 0 view .LVU434
 1071 0166 FFF7FEFF 		bl	SPD_IsMecSpeedReliable
 1072              	.LVL133:
 547:MCSDK_v6.0.0-Full/MotorControl/MCSDK/MCLib/Any/Src/sto_pll_speed_pos_fdbk.c ****       }
 1073              		.loc 1 547 16 view .LVU435
 1074 016a EFE7     		b	.L42
 1075              		.cfi_endproc
 1076              	.LFE1440:
 1078              		.section	.text.STO_PLL_CalcAvrgElSpeedDpp,"ax",%progbits
 1079              		.align	1
 1080              		.weak	STO_PLL_CalcAvrgElSpeedDpp
 1081              		.syntax unified
 1082              		.thumb
 1083              		.thumb_func
 1084              		.fpu fpv4-sp-d16
 1086              	STO_PLL_CalcAvrgElSpeedDpp:
 1087              	.LVL134:
 1088              	.LFB1441:
 574:MCSDK_v6.0.0-Full/MotorControl/MCSDK/MCLib/Any/Src/sto_pll_speed_pos_fdbk.c **** #ifdef NULL_PTR_STO_PLL_SPD_POS_FDB
 1089              		.loc 1 574 1 is_stmt 1 view -0
 1090              		.cfi_startproc
 1091              		@ args = 0, pretend = 0, frame = 0
 1092              		@ frame_needed = 0, uses_anonymous_args = 0
 1093              		@ link register save eliminated.
 574:MCSDK_v6.0.0-Full/MotorControl/MCSDK/MCLib/Any/Src/sto_pll_speed_pos_fdbk.c **** #ifdef NULL_PTR_STO_PLL_SPD_POS_FDB
 1094              		.loc 1 574 1 is_stmt 0 view .LVU437
 1095 0000 70B4     		push	{r4, r5, r6}
 1096              		.cfi_def_cfa_offset 12
 1097              		.cfi_offset 4, -12
 1098              		.cfi_offset 5, -8
 1099              		.cfi_offset 6, -4
 583:MCSDK_v6.0.0-Full/MotorControl/MCSDK/MCLib/Any/Src/sto_pll_speed_pos_fdbk.c ****     int16_t hIndexOld;
 1100              		.loc 1 583 5 is_stmt 1 view .LVU438
 583:MCSDK_v6.0.0-Full/MotorControl/MCSDK/MCLib/Any/Src/sto_pll_speed_pos_fdbk.c ****     int16_t hIndexOld;
 1101              		.loc 1 583 41 is_stmt 0 view .LVU439
 1102 0002 90F8F410 		ldrb	r1, [r0, #244]	@ zero_extendqisi2
 1103              	.LVL135:
 584:MCSDK_v6.0.0-Full/MotorControl/MCSDK/MCLib/Any/Src/sto_pll_speed_pos_fdbk.c ****     int16_t hIndexOldTemp;
 1104              		.loc 1 584 5 is_stmt 1 view .LVU440
 585:MCSDK_v6.0.0-Full/MotorControl/MCSDK/MCLib/Any/Src/sto_pll_speed_pos_fdbk.c ****     int32_t wSum = pHandle->DppBufferSum;
 1105              		.loc 1 585 5 view .LVU441
 586:MCSDK_v6.0.0-Full/MotorControl/MCSDK/MCLib/Any/Src/sto_pll_speed_pos_fdbk.c ****     int32_t wAvrSpeed_dpp;
 1106              		.loc 1 586 5 view .LVU442
 586:MCSDK_v6.0.0-Full/MotorControl/MCSDK/MCLib/Any/Src/sto_pll_speed_pos_fdbk.c ****     int32_t wAvrSpeed_dpp;
 1107              		.loc 1 586 13 is_stmt 0 view .LVU443
 1108 0006 D0F80841 		ldr	r4, [r0, #264]
 1109              	.LVL136:
 587:MCSDK_v6.0.0-Full/MotorControl/MCSDK/MCLib/Any/Src/sto_pll_speed_pos_fdbk.c ****     int16_t hSpeedBufferSizedpp = (int16_t)pHandle->SpeedBufferSizeDpp;
 1110              		.loc 1 587 5 is_stmt 1 view .LVU444
ARM GAS  /tmp/ccl72mIK.s 			page 41


 588:MCSDK_v6.0.0-Full/MotorControl/MCSDK/MCLib/Any/Src/sto_pll_speed_pos_fdbk.c ****     int16_t hSpeedBufferSizeUnit = (int16_t)pHandle->SpeedBufferSizeUnit;
 1111              		.loc 1 588 5 view .LVU445
 588:MCSDK_v6.0.0-Full/MotorControl/MCSDK/MCLib/Any/Src/sto_pll_speed_pos_fdbk.c ****     int16_t hSpeedBufferSizeUnit = (int16_t)pHandle->SpeedBufferSizeUnit;
 1112              		.loc 1 588 51 is_stmt 0 view .LVU446
 1113 000a 90F80F21 		ldrb	r2, [r0, #271]	@ zero_extendqisi2
 1114              	.LVL137:
 589:MCSDK_v6.0.0-Full/MotorControl/MCSDK/MCLib/Any/Src/sto_pll_speed_pos_fdbk.c ****     int16_t hBufferSizeDiff;
 1115              		.loc 1 589 5 is_stmt 1 view .LVU447
 589:MCSDK_v6.0.0-Full/MotorControl/MCSDK/MCLib/Any/Src/sto_pll_speed_pos_fdbk.c ****     int16_t hBufferSizeDiff;
 1116              		.loc 1 589 52 is_stmt 0 view .LVU448
 1117 000e 90F80E31 		ldrb	r3, [r0, #270]	@ zero_extendqisi2
 589:MCSDK_v6.0.0-Full/MotorControl/MCSDK/MCLib/Any/Src/sto_pll_speed_pos_fdbk.c ****     int16_t hBufferSizeDiff;
 1118              		.loc 1 589 13 view .LVU449
 1119 0012 1DB2     		sxth	r5, r3
 1120              	.LVL138:
 590:MCSDK_v6.0.0-Full/MotorControl/MCSDK/MCLib/Any/Src/sto_pll_speed_pos_fdbk.c **** 
 1121              		.loc 1 590 5 is_stmt 1 view .LVU450
 592:MCSDK_v6.0.0-Full/MotorControl/MCSDK/MCLib/Any/Src/sto_pll_speed_pos_fdbk.c **** 
 1122              		.loc 1 592 5 view .LVU451
 592:MCSDK_v6.0.0-Full/MotorControl/MCSDK/MCLib/Any/Src/sto_pll_speed_pos_fdbk.c **** 
 1123              		.loc 1 592 44 is_stmt 0 view .LVU452
 1124 0014 9EB2     		uxth	r6, r3
 1125 0016 9B1A     		subs	r3, r3, r2
 1126 0018 9BB2     		uxth	r3, r3
 1127              	.LVL139:
 594:MCSDK_v6.0.0-Full/MotorControl/MCSDK/MCLib/Any/Src/sto_pll_speed_pos_fdbk.c ****     {
 1128              		.loc 1 594 5 is_stmt 1 view .LVU453
 594:MCSDK_v6.0.0-Full/MotorControl/MCSDK/MCLib/Any/Src/sto_pll_speed_pos_fdbk.c ****     {
 1129              		.loc 1 594 8 is_stmt 0 view .LVU454
 1130 001a 8BB9     		cbnz	r3, .L56
 596:MCSDK_v6.0.0-Full/MotorControl/MCSDK/MCLib/Any/Src/sto_pll_speed_pos_fdbk.c ****     }
 1131              		.loc 1 596 7 is_stmt 1 view .LVU455
 596:MCSDK_v6.0.0-Full/MotorControl/MCSDK/MCLib/Any/Src/sto_pll_speed_pos_fdbk.c ****     }
 1132              		.loc 1 596 42 is_stmt 0 view .LVU456
 1133 001c 3831     		adds	r1, r1, #56
 1134              	.LVL140:
 596:MCSDK_v6.0.0-Full/MotorControl/MCSDK/MCLib/Any/Src/sto_pll_speed_pos_fdbk.c ****     }
 1135              		.loc 1 596 42 view .LVU457
 1136 001e 00EB4101 		add	r1, r0, r1, lsl #1
 1137              	.LVL141:
 596:MCSDK_v6.0.0-Full/MotorControl/MCSDK/MCLib/Any/Src/sto_pll_speed_pos_fdbk.c ****     }
 1138              		.loc 1 596 42 view .LVU458
 1139 0022 B1F90430 		ldrsh	r3, [r1, #4]
 1140              	.LVL142:
 596:MCSDK_v6.0.0-Full/MotorControl/MCSDK/MCLib/Any/Src/sto_pll_speed_pos_fdbk.c ****     }
 1141              		.loc 1 596 19 view .LVU459
 1142 0026 2344     		add	r3, r3, r4
 596:MCSDK_v6.0.0-Full/MotorControl/MCSDK/MCLib/Any/Src/sto_pll_speed_pos_fdbk.c ****     }
 1143              		.loc 1 596 63 view .LVU460
 1144 0028 B0F90C21 		ldrsh	r2, [r0, #268]
 1145              	.LVL143:
 596:MCSDK_v6.0.0-Full/MotorControl/MCSDK/MCLib/Any/Src/sto_pll_speed_pos_fdbk.c ****     }
 1146              		.loc 1 596 12 view .LVU461
 1147 002c 9B1A     		subs	r3, r3, r2
 1148              	.LVL144:
 1149              	.L57:
 616:MCSDK_v6.0.0-Full/MotorControl/MCSDK/MCLib/Any/Src/sto_pll_speed_pos_fdbk.c **** #else
ARM GAS  /tmp/ccl72mIK.s 			page 42


 1150              		.loc 1 616 3 is_stmt 1 view .LVU462
 616:MCSDK_v6.0.0-Full/MotorControl/MCSDK/MCLib/Any/Src/sto_pll_speed_pos_fdbk.c **** #else
 1151              		.loc 1 616 34 is_stmt 0 view .LVU463
 1152 002e B0F82021 		ldrh	r2, [r0, #288]
 616:MCSDK_v6.0.0-Full/MotorControl/MCSDK/MCLib/Any/Src/sto_pll_speed_pos_fdbk.c **** #else
 1153              		.loc 1 616 17 view .LVU464
 1154 0032 43FA02F2 		asr	r2, r3, r2
 1155              	.LVL145:
 628:MCSDK_v6.0.0-Full/MotorControl/MCSDK/MCLib/Any/Src/sto_pll_speed_pos_fdbk.c ****     pHandle->DppBufferSum = wSum;
 1156              		.loc 1 628 5 is_stmt 1 view .LVU465
 628:MCSDK_v6.0.0-Full/MotorControl/MCSDK/MCLib/Any/Src/sto_pll_speed_pos_fdbk.c ****     pHandle->DppBufferSum = wSum;
 1157              		.loc 1 628 33 is_stmt 0 view .LVU466
 1158 0036 C281     		strh	r2, [r0, #14]	@ movhi
 629:MCSDK_v6.0.0-Full/MotorControl/MCSDK/MCLib/Any/Src/sto_pll_speed_pos_fdbk.c **** #ifdef NULL_PTR_STO_PLL_SPD_POS_FDB
 1159              		.loc 1 629 5 is_stmt 1 view .LVU467
 629:MCSDK_v6.0.0-Full/MotorControl/MCSDK/MCLib/Any/Src/sto_pll_speed_pos_fdbk.c **** #ifdef NULL_PTR_STO_PLL_SPD_POS_FDB
 1160              		.loc 1 629 27 is_stmt 0 view .LVU468
 1161 0038 C0F80831 		str	r3, [r0, #264]
 633:MCSDK_v6.0.0-Full/MotorControl/MCSDK/MCLib/Any/Src/sto_pll_speed_pos_fdbk.c **** 
 1162              		.loc 1 633 1 view .LVU469
 1163 003c 70BC     		pop	{r4, r5, r6}
 1164              		.cfi_remember_state
 1165              		.cfi_restore 6
 1166              		.cfi_restore 5
 1167              		.cfi_restore 4
 1168              		.cfi_def_cfa_offset 0
 1169              	.LVL146:
 633:MCSDK_v6.0.0-Full/MotorControl/MCSDK/MCLib/Any/Src/sto_pll_speed_pos_fdbk.c **** 
 1170              		.loc 1 633 1 view .LVU470
 1171 003e 7047     		bx	lr
 1172              	.LVL147:
 1173              	.L56:
 1174              		.cfi_restore_state
 600:MCSDK_v6.0.0-Full/MotorControl/MCSDK/MCLib/Any/Src/sto_pll_speed_pos_fdbk.c **** 
 1175              		.loc 1 600 7 is_stmt 1 view .LVU471
 600:MCSDK_v6.0.0-Full/MotorControl/MCSDK/MCLib/Any/Src/sto_pll_speed_pos_fdbk.c **** 
 1176              		.loc 1 600 33 is_stmt 0 view .LVU472
 1177 0040 0B44     		add	r3, r3, r1
 1178              	.LVL148:
 600:MCSDK_v6.0.0-Full/MotorControl/MCSDK/MCLib/Any/Src/sto_pll_speed_pos_fdbk.c **** 
 1179              		.loc 1 600 33 view .LVU473
 1180 0042 9AB2     		uxth	r2, r3
 1181              	.LVL149:
 600:MCSDK_v6.0.0-Full/MotorControl/MCSDK/MCLib/Any/Src/sto_pll_speed_pos_fdbk.c **** 
 1182              		.loc 1 600 21 view .LVU474
 1183 0044 1BB2     		sxth	r3, r3
 1184              	.LVL150:
 602:MCSDK_v6.0.0-Full/MotorControl/MCSDK/MCLib/Any/Src/sto_pll_speed_pos_fdbk.c ****       {
 1185              		.loc 1 602 7 is_stmt 1 view .LVU475
 602:MCSDK_v6.0.0-Full/MotorControl/MCSDK/MCLib/Any/Src/sto_pll_speed_pos_fdbk.c ****       {
 1186              		.loc 1 602 10 is_stmt 0 view .LVU476
 1187 0046 9D42     		cmp	r5, r3
 1188 0048 01DC     		bgt	.L58
 604:MCSDK_v6.0.0-Full/MotorControl/MCSDK/MCLib/Any/Src/sto_pll_speed_pos_fdbk.c ****       }
 1189              		.loc 1 604 9 is_stmt 1 view .LVU477
 604:MCSDK_v6.0.0-Full/MotorControl/MCSDK/MCLib/Any/Src/sto_pll_speed_pos_fdbk.c ****       }
 1190              		.loc 1 604 35 is_stmt 0 view .LVU478
ARM GAS  /tmp/ccl72mIK.s 			page 43


 1191 004a 931B     		subs	r3, r2, r6
 1192              	.LVL151:
 604:MCSDK_v6.0.0-Full/MotorControl/MCSDK/MCLib/Any/Src/sto_pll_speed_pos_fdbk.c ****       }
 1193              		.loc 1 604 19 view .LVU479
 1194 004c 1BB2     		sxth	r3, r3
 1195              	.LVL152:
 1196              	.L58:
 611:MCSDK_v6.0.0-Full/MotorControl/MCSDK/MCLib/Any/Src/sto_pll_speed_pos_fdbk.c ****     }
 1197              		.loc 1 611 7 is_stmt 1 view .LVU480
 611:MCSDK_v6.0.0-Full/MotorControl/MCSDK/MCLib/Any/Src/sto_pll_speed_pos_fdbk.c ****     }
 1198              		.loc 1 611 42 is_stmt 0 view .LVU481
 1199 004e 3831     		adds	r1, r1, #56
 1200              	.LVL153:
 611:MCSDK_v6.0.0-Full/MotorControl/MCSDK/MCLib/Any/Src/sto_pll_speed_pos_fdbk.c ****     }
 1201              		.loc 1 611 42 view .LVU482
 1202 0050 00EB4101 		add	r1, r0, r1, lsl #1
 1203              	.LVL154:
 611:MCSDK_v6.0.0-Full/MotorControl/MCSDK/MCLib/Any/Src/sto_pll_speed_pos_fdbk.c ****     }
 1204              		.loc 1 611 42 view .LVU483
 1205 0054 B1F90420 		ldrsh	r2, [r1, #4]
 1206              	.LVL155:
 611:MCSDK_v6.0.0-Full/MotorControl/MCSDK/MCLib/Any/Src/sto_pll_speed_pos_fdbk.c ****     }
 1207              		.loc 1 611 19 view .LVU484
 1208 0058 2244     		add	r2, r2, r4
 611:MCSDK_v6.0.0-Full/MotorControl/MCSDK/MCLib/Any/Src/sto_pll_speed_pos_fdbk.c ****     }
 1209              		.loc 1 611 77 view .LVU485
 1210 005a 3833     		adds	r3, r3, #56
 1211              	.LVL156:
 611:MCSDK_v6.0.0-Full/MotorControl/MCSDK/MCLib/Any/Src/sto_pll_speed_pos_fdbk.c ****     }
 1212              		.loc 1 611 77 view .LVU486
 1213 005c 00EB4303 		add	r3, r0, r3, lsl #1
 1214 0060 B3F90430 		ldrsh	r3, [r3, #4]
 611:MCSDK_v6.0.0-Full/MotorControl/MCSDK/MCLib/Any/Src/sto_pll_speed_pos_fdbk.c ****     }
 1215              		.loc 1 611 12 view .LVU487
 1216 0064 D31A     		subs	r3, r2, r3
 1217              	.LVL157:
 611:MCSDK_v6.0.0-Full/MotorControl/MCSDK/MCLib/Any/Src/sto_pll_speed_pos_fdbk.c ****     }
 1218              		.loc 1 611 12 view .LVU488
 1219 0066 E2E7     		b	.L57
 1220              		.cfi_endproc
 1221              	.LFE1441:
 1223              		.section	.text.STO_PLL_Clear,"ax",%progbits
 1224              		.align	1
 1225              		.weak	STO_PLL_Clear
 1226              		.syntax unified
 1227              		.thumb
 1228              		.thumb_func
 1229              		.fpu fpv4-sp-d16
 1231              	STO_PLL_Clear:
 1232              	.LVL158:
 1233              	.LFB1442:
 641:MCSDK_v6.0.0-Full/MotorControl/MCSDK/MCLib/Any/Src/sto_pll_speed_pos_fdbk.c **** #ifdef NULL_PTR_STO_PLL_SPD_POS_FDB
 1234              		.loc 1 641 1 is_stmt 1 view -0
 1235              		.cfi_startproc
 1236              		@ args = 0, pretend = 0, frame = 0
 1237              		@ frame_needed = 0, uses_anonymous_args = 0
 641:MCSDK_v6.0.0-Full/MotorControl/MCSDK/MCLib/Any/Src/sto_pll_speed_pos_fdbk.c **** #ifdef NULL_PTR_STO_PLL_SPD_POS_FDB
ARM GAS  /tmp/ccl72mIK.s 			page 44


 1238              		.loc 1 641 1 is_stmt 0 view .LVU490
 1239 0000 38B5     		push	{r3, r4, r5, lr}
 1240              		.cfi_def_cfa_offset 16
 1241              		.cfi_offset 3, -16
 1242              		.cfi_offset 4, -12
 1243              		.cfi_offset 5, -8
 1244              		.cfi_offset 14, -4
 1245 0002 0446     		mov	r4, r0
 650:MCSDK_v6.0.0-Full/MotorControl/MCSDK/MCLib/Any/Src/sto_pll_speed_pos_fdbk.c ****     pHandle->Ibeta_est = (int32_t)0;
 1246              		.loc 1 650 5 is_stmt 1 view .LVU491
 650:MCSDK_v6.0.0-Full/MotorControl/MCSDK/MCLib/Any/Src/sto_pll_speed_pos_fdbk.c ****     pHandle->Ibeta_est = (int32_t)0;
 1247              		.loc 1 650 24 is_stmt 0 view .LVU492
 1248 0004 0025     		movs	r5, #0
 1249 0006 0566     		str	r5, [r0, #96]
 651:MCSDK_v6.0.0-Full/MotorControl/MCSDK/MCLib/Any/Src/sto_pll_speed_pos_fdbk.c ****     pHandle->wBemf_alfa_est = (int32_t)0;
 1250              		.loc 1 651 5 is_stmt 1 view .LVU493
 651:MCSDK_v6.0.0-Full/MotorControl/MCSDK/MCLib/Any/Src/sto_pll_speed_pos_fdbk.c ****     pHandle->wBemf_alfa_est = (int32_t)0;
 1251              		.loc 1 651 24 is_stmt 0 view .LVU494
 1252 0008 4566     		str	r5, [r0, #100]
 652:MCSDK_v6.0.0-Full/MotorControl/MCSDK/MCLib/Any/Src/sto_pll_speed_pos_fdbk.c ****     pHandle->wBemf_beta_est = (int32_t)0;
 1253              		.loc 1 652 5 is_stmt 1 view .LVU495
 652:MCSDK_v6.0.0-Full/MotorControl/MCSDK/MCLib/Any/Src/sto_pll_speed_pos_fdbk.c ****     pHandle->wBemf_beta_est = (int32_t)0;
 1254              		.loc 1 652 29 is_stmt 0 view .LVU496
 1255 000a 8566     		str	r5, [r0, #104]
 653:MCSDK_v6.0.0-Full/MotorControl/MCSDK/MCLib/Any/Src/sto_pll_speed_pos_fdbk.c ****     pHandle->_Super.hElAngle = (int16_t)0;
 1256              		.loc 1 653 5 is_stmt 1 view .LVU497
 653:MCSDK_v6.0.0-Full/MotorControl/MCSDK/MCLib/Any/Src/sto_pll_speed_pos_fdbk.c ****     pHandle->_Super.hElAngle = (int16_t)0;
 1257              		.loc 1 653 29 is_stmt 0 view .LVU498
 1258 000c C566     		str	r5, [r0, #108]
 654:MCSDK_v6.0.0-Full/MotorControl/MCSDK/MCLib/Any/Src/sto_pll_speed_pos_fdbk.c ****     pHandle->_Super.hElSpeedDpp = (int16_t)0;
 1259              		.loc 1 654 5 is_stmt 1 view .LVU499
 654:MCSDK_v6.0.0-Full/MotorControl/MCSDK/MCLib/Any/Src/sto_pll_speed_pos_fdbk.c ****     pHandle->_Super.hElSpeedDpp = (int16_t)0;
 1260              		.loc 1 654 30 is_stmt 0 view .LVU500
 1261 000e 8580     		strh	r5, [r0, #4]	@ movhi
 655:MCSDK_v6.0.0-Full/MotorControl/MCSDK/MCLib/Any/Src/sto_pll_speed_pos_fdbk.c ****     pHandle->ConsistencyCounter = 0u;
 1262              		.loc 1 655 5 is_stmt 1 view .LVU501
 655:MCSDK_v6.0.0-Full/MotorControl/MCSDK/MCLib/Any/Src/sto_pll_speed_pos_fdbk.c ****     pHandle->ConsistencyCounter = 0u;
 1263              		.loc 1 655 33 is_stmt 0 view .LVU502
 1264 0010 C581     		strh	r5, [r0, #14]	@ movhi
 656:MCSDK_v6.0.0-Full/MotorControl/MCSDK/MCLib/Any/Src/sto_pll_speed_pos_fdbk.c ****     pHandle->ReliabilityCounter = 0u;
 1265              		.loc 1 656 5 is_stmt 1 view .LVU503
 656:MCSDK_v6.0.0-Full/MotorControl/MCSDK/MCLib/Any/Src/sto_pll_speed_pos_fdbk.c ****     pHandle->ReliabilityCounter = 0u;
 1266              		.loc 1 656 33 is_stmt 0 view .LVU504
 1267 0012 80F8F650 		strb	r5, [r0, #246]
 657:MCSDK_v6.0.0-Full/MotorControl/MCSDK/MCLib/Any/Src/sto_pll_speed_pos_fdbk.c ****     pHandle->IsAlgorithmConverged = false;
 1268              		.loc 1 657 5 is_stmt 1 view .LVU505
 657:MCSDK_v6.0.0-Full/MotorControl/MCSDK/MCLib/Any/Src/sto_pll_speed_pos_fdbk.c ****     pHandle->IsAlgorithmConverged = false;
 1269              		.loc 1 657 33 is_stmt 0 view .LVU506
 1270 0016 80F8F750 		strb	r5, [r0, #247]
 658:MCSDK_v6.0.0-Full/MotorControl/MCSDK/MCLib/Any/Src/sto_pll_speed_pos_fdbk.c ****     pHandle->IsBemfConsistent = false;
 1271              		.loc 1 658 5 is_stmt 1 view .LVU507
 658:MCSDK_v6.0.0-Full/MotorControl/MCSDK/MCLib/Any/Src/sto_pll_speed_pos_fdbk.c ****     pHandle->IsBemfConsistent = false;
 1272              		.loc 1 658 35 is_stmt 0 view .LVU508
 1273 001a 80F8F850 		strb	r5, [r0, #248]
 659:MCSDK_v6.0.0-Full/MotorControl/MCSDK/MCLib/Any/Src/sto_pll_speed_pos_fdbk.c ****     pHandle->Obs_Bemf_Level = (int32_t)0;
 1274              		.loc 1 659 5 is_stmt 1 view .LVU509
 659:MCSDK_v6.0.0-Full/MotorControl/MCSDK/MCLib/Any/Src/sto_pll_speed_pos_fdbk.c ****     pHandle->Obs_Bemf_Level = (int32_t)0;
ARM GAS  /tmp/ccl72mIK.s 			page 45


 1275              		.loc 1 659 31 is_stmt 0 view .LVU510
 1276 001e 80F8F950 		strb	r5, [r0, #249]
 660:MCSDK_v6.0.0-Full/MotorControl/MCSDK/MCLib/Any/Src/sto_pll_speed_pos_fdbk.c ****     pHandle->Est_Bemf_Level = (int32_t)0;
 1277              		.loc 1 660 5 is_stmt 1 view .LVU511
 660:MCSDK_v6.0.0-Full/MotorControl/MCSDK/MCLib/Any/Src/sto_pll_speed_pos_fdbk.c ****     pHandle->Est_Bemf_Level = (int32_t)0;
 1278              		.loc 1 660 29 is_stmt 0 view .LVU512
 1279 0022 C0F8FC50 		str	r5, [r0, #252]
 661:MCSDK_v6.0.0-Full/MotorControl/MCSDK/MCLib/Any/Src/sto_pll_speed_pos_fdbk.c ****     pHandle->DppBufferSum = (int32_t)0;
 1280              		.loc 1 661 5 is_stmt 1 view .LVU513
 661:MCSDK_v6.0.0-Full/MotorControl/MCSDK/MCLib/Any/Src/sto_pll_speed_pos_fdbk.c ****     pHandle->DppBufferSum = (int32_t)0;
 1281              		.loc 1 661 29 is_stmt 0 view .LVU514
 1282 0026 C0F80051 		str	r5, [r0, #256]
 662:MCSDK_v6.0.0-Full/MotorControl/MCSDK/MCLib/Any/Src/sto_pll_speed_pos_fdbk.c ****     pHandle->ForceConvergency = false;
 1283              		.loc 1 662 5 is_stmt 1 view .LVU515
 662:MCSDK_v6.0.0-Full/MotorControl/MCSDK/MCLib/Any/Src/sto_pll_speed_pos_fdbk.c ****     pHandle->ForceConvergency = false;
 1284              		.loc 1 662 27 is_stmt 0 view .LVU516
 1285 002a C0F80851 		str	r5, [r0, #264]
 663:MCSDK_v6.0.0-Full/MotorControl/MCSDK/MCLib/Any/Src/sto_pll_speed_pos_fdbk.c ****     pHandle->ForceConvergency2 = false;
 1286              		.loc 1 663 5 is_stmt 1 view .LVU517
 663:MCSDK_v6.0.0-Full/MotorControl/MCSDK/MCLib/Any/Src/sto_pll_speed_pos_fdbk.c ****     pHandle->ForceConvergency2 = false;
 1287              		.loc 1 663 31 is_stmt 0 view .LVU518
 1288 002e 80F82251 		strb	r5, [r0, #290]
 664:MCSDK_v6.0.0-Full/MotorControl/MCSDK/MCLib/Any/Src/sto_pll_speed_pos_fdbk.c **** 
 1289              		.loc 1 664 5 is_stmt 1 view .LVU519
 664:MCSDK_v6.0.0-Full/MotorControl/MCSDK/MCLib/Any/Src/sto_pll_speed_pos_fdbk.c **** 
 1290              		.loc 1 664 32 is_stmt 0 view .LVU520
 1291 0032 80F82351 		strb	r5, [r0, #291]
 666:MCSDK_v6.0.0-Full/MotorControl/MCSDK/MCLib/Any/Src/sto_pll_speed_pos_fdbk.c ****     PID_SetIntegralTerm(& pHandle->PIRegulator, (int32_t)0);
 1292              		.loc 1 666 5 is_stmt 1 view .LVU521
 1293 0036 FFF7FEFF 		bl	STO_InitSpeedBuffer
 1294              	.LVL159:
 667:MCSDK_v6.0.0-Full/MotorControl/MCSDK/MCLib/Any/Src/sto_pll_speed_pos_fdbk.c **** #ifdef NULL_PTR_STO_PLL_SPD_POS_FDB
 1295              		.loc 1 667 5 view .LVU522
 1296 003a 2946     		mov	r1, r5
 1297 003c 04F13400 		add	r0, r4, #52
 1298 0040 FFF7FEFF 		bl	PID_SetIntegralTerm
 1299              	.LVL160:
 671:MCSDK_v6.0.0-Full/MotorControl/MCSDK/MCLib/Any/Src/sto_pll_speed_pos_fdbk.c **** 
 1300              		.loc 1 671 1 is_stmt 0 view .LVU523
 1301 0044 38BD     		pop	{r3, r4, r5, pc}
 671:MCSDK_v6.0.0-Full/MotorControl/MCSDK/MCLib/Any/Src/sto_pll_speed_pos_fdbk.c **** 
 1302              		.loc 1 671 1 view .LVU524
 1303              		.cfi_endproc
 1304              	.LFE1442:
 1306              		.section	.text.STO_PLL_Init,"ax",%progbits
 1307              		.align	1
 1308              		.weak	STO_PLL_Init
 1309              		.syntax unified
 1310              		.thumb
 1311              		.thumb_func
 1312              		.fpu fpv4-sp-d16
 1314              	STO_PLL_Init:
 1315              	.LVL161:
 1316              	.LFB1437:
  89:MCSDK_v6.0.0-Full/MotorControl/MCSDK/MCLib/Any/Src/sto_pll_speed_pos_fdbk.c **** #ifdef NULL_PTR_STO_PLL_SPD_POS_FDB
 1317              		.loc 1 89 1 is_stmt 1 view -0
 1318              		.cfi_startproc
ARM GAS  /tmp/ccl72mIK.s 			page 46


 1319              		@ args = 0, pretend = 0, frame = 0
 1320              		@ frame_needed = 0, uses_anonymous_args = 0
  89:MCSDK_v6.0.0-Full/MotorControl/MCSDK/MCLib/Any/Src/sto_pll_speed_pos_fdbk.c **** #ifdef NULL_PTR_STO_PLL_SPD_POS_FDB
 1321              		.loc 1 89 1 is_stmt 0 view .LVU526
 1322 0000 10B5     		push	{r4, lr}
 1323              		.cfi_def_cfa_offset 8
 1324              		.cfi_offset 4, -8
 1325              		.cfi_offset 14, -4
 1326 0002 0446     		mov	r4, r0
  98:MCSDK_v6.0.0-Full/MotorControl/MCSDK/MCLib/Any/Src/sto_pll_speed_pos_fdbk.c ****     int32_t wAux;
 1327              		.loc 1 98 5 is_stmt 1 view .LVU527
  99:MCSDK_v6.0.0-Full/MotorControl/MCSDK/MCLib/Any/Src/sto_pll_speed_pos_fdbk.c **** 
 1328              		.loc 1 99 5 view .LVU528
 101:MCSDK_v6.0.0-Full/MotorControl/MCSDK/MCLib/Any/Src/sto_pll_speed_pos_fdbk.c ****     pHandle->EnableDualCheck = true;
 1329              		.loc 1 101 5 view .LVU529
 101:MCSDK_v6.0.0-Full/MotorControl/MCSDK/MCLib/Any/Src/sto_pll_speed_pos_fdbk.c ****     pHandle->EnableDualCheck = true;
 1330              		.loc 1 101 42 is_stmt 0 view .LVU530
 1331 0004 90F81631 		ldrb	r3, [r0, #278]	@ zero_extendqisi2
 101:MCSDK_v6.0.0-Full/MotorControl/MCSDK/MCLib/Any/Src/sto_pll_speed_pos_fdbk.c ****     pHandle->EnableDualCheck = true;
 1332              		.loc 1 101 33 view .LVU531
 1333 0008 80F8F630 		strb	r3, [r0, #246]
 102:MCSDK_v6.0.0-Full/MotorControl/MCSDK/MCLib/Any/Src/sto_pll_speed_pos_fdbk.c **** 
 1334              		.loc 1 102 5 is_stmt 1 view .LVU532
 102:MCSDK_v6.0.0-Full/MotorControl/MCSDK/MCLib/Any/Src/sto_pll_speed_pos_fdbk.c **** 
 1335              		.loc 1 102 30 is_stmt 0 view .LVU533
 1336 000c 0121     		movs	r1, #1
 1337 000e 80F80411 		strb	r1, [r0, #260]
 104:MCSDK_v6.0.0-Full/MotorControl/MCSDK/MCLib/Any/Src/sto_pll_speed_pos_fdbk.c ****     pHandle->F3POW2 = 0U;
 1338              		.loc 1 104 5 is_stmt 1 view .LVU534
 1339              	.LVL162:
 105:MCSDK_v6.0.0-Full/MotorControl/MCSDK/MCLib/Any/Src/sto_pll_speed_pos_fdbk.c **** 
 1340              		.loc 1 105 5 view .LVU535
 105:MCSDK_v6.0.0-Full/MotorControl/MCSDK/MCLib/Any/Src/sto_pll_speed_pos_fdbk.c **** 
 1341              		.loc 1 105 21 is_stmt 0 view .LVU536
 1342 0012 0023     		movs	r3, #0
 1343 0014 4386     		strh	r3, [r0, #50]	@ movhi
 107:MCSDK_v6.0.0-Full/MotorControl/MCSDK/MCLib/Any/Src/sto_pll_speed_pos_fdbk.c **** 
 1344              		.loc 1 107 5 is_stmt 1 view .LVU537
 107:MCSDK_v6.0.0-Full/MotorControl/MCSDK/MCLib/Any/Src/sto_pll_speed_pos_fdbk.c **** 
 1345              		.loc 1 107 48 is_stmt 0 view .LVU538
 1346 0016 B0F92E00 		ldrsh	r0, [r0, #46]
 1347              	.LVL163:
 107:MCSDK_v6.0.0-Full/MotorControl/MCSDK/MCLib/Any/Src/sto_pll_speed_pos_fdbk.c **** 
 1348              		.loc 1 107 39 view .LVU539
 1349 001a 114B     		ldr	r3, .L67
 1350 001c 93FBF0F3 		sdiv	r3, r3, r0
 107:MCSDK_v6.0.0-Full/MotorControl/MCSDK/MCLib/Any/Src/sto_pll_speed_pos_fdbk.c **** 
 1351              		.loc 1 107 12 view .LVU540
 1352 0020 1BB2     		sxth	r3, r3
 1353              	.LVL164:
 109:MCSDK_v6.0.0-Full/MotorControl/MCSDK/MCLib/Any/Src/sto_pll_speed_pos_fdbk.c ****     {
 1354              		.loc 1 109 5 is_stmt 1 view .LVU541
 1355              	.L63:
 109:MCSDK_v6.0.0-Full/MotorControl/MCSDK/MCLib/Any/Src/sto_pll_speed_pos_fdbk.c ****     {
 1356              		.loc 1 109 11 view .LVU542
 1357 0022 3BB1     		cbz	r3, .L66
 111:MCSDK_v6.0.0-Full/MotorControl/MCSDK/MCLib/Any/Src/sto_pll_speed_pos_fdbk.c ****       wAux *= ((int32_t)2);
ARM GAS  /tmp/ccl72mIK.s 			page 47


 1358              		.loc 1 111 7 view .LVU543
 111:MCSDK_v6.0.0-Full/MotorControl/MCSDK/MCLib/Any/Src/sto_pll_speed_pos_fdbk.c ****       wAux *= ((int32_t)2);
 1359              		.loc 1 111 14 is_stmt 0 view .LVU544
 1360 0024 03EBD373 		add	r3, r3, r3, lsr #31
 1361              	.LVL165:
 111:MCSDK_v6.0.0-Full/MotorControl/MCSDK/MCLib/Any/Src/sto_pll_speed_pos_fdbk.c ****       wAux *= ((int32_t)2);
 1362              		.loc 1 111 14 view .LVU545
 1363 0028 5B10     		asrs	r3, r3, #1
 1364              	.LVL166:
 112:MCSDK_v6.0.0-Full/MotorControl/MCSDK/MCLib/Any/Src/sto_pll_speed_pos_fdbk.c ****       pHandle->F3POW2++;
 1365              		.loc 1 112 7 is_stmt 1 view .LVU546
 112:MCSDK_v6.0.0-Full/MotorControl/MCSDK/MCLib/Any/Src/sto_pll_speed_pos_fdbk.c ****       pHandle->F3POW2++;
 1366              		.loc 1 112 12 is_stmt 0 view .LVU547
 1367 002a 4900     		lsls	r1, r1, #1
 1368              	.LVL167:
 113:MCSDK_v6.0.0-Full/MotorControl/MCSDK/MCLib/Any/Src/sto_pll_speed_pos_fdbk.c ****     }
 1369              		.loc 1 113 7 is_stmt 1 view .LVU548
 113:MCSDK_v6.0.0-Full/MotorControl/MCSDK/MCLib/Any/Src/sto_pll_speed_pos_fdbk.c ****     }
 1370              		.loc 1 113 14 is_stmt 0 view .LVU549
 1371 002c 628E     		ldrh	r2, [r4, #50]
 113:MCSDK_v6.0.0-Full/MotorControl/MCSDK/MCLib/Any/Src/sto_pll_speed_pos_fdbk.c ****     }
 1372              		.loc 1 113 22 view .LVU550
 1373 002e 0132     		adds	r2, r2, #1
 1374 0030 6286     		strh	r2, [r4, #50]	@ movhi
 1375 0032 F6E7     		b	.L63
 1376              	.L66:
 116:MCSDK_v6.0.0-Full/MotorControl/MCSDK/MCLib/Any/Src/sto_pll_speed_pos_fdbk.c ****     wAux = ((int32_t)(pHandle->hF2)) * pHandle->hF3;
 1377              		.loc 1 116 5 is_stmt 1 view .LVU551
 116:MCSDK_v6.0.0-Full/MotorControl/MCSDK/MCLib/Any/Src/sto_pll_speed_pos_fdbk.c ****     wAux = ((int32_t)(pHandle->hF2)) * pHandle->hF3;
 1378              		.loc 1 116 20 is_stmt 0 view .LVU552
 1379 0034 09B2     		sxth	r1, r1
 1380              	.LVL168:
 116:MCSDK_v6.0.0-Full/MotorControl/MCSDK/MCLib/Any/Src/sto_pll_speed_pos_fdbk.c ****     wAux = ((int32_t)(pHandle->hF2)) * pHandle->hF3;
 1381              		.loc 1 116 18 view .LVU553
 1382 0036 2186     		strh	r1, [r4, #48]	@ movhi
 117:MCSDK_v6.0.0-Full/MotorControl/MCSDK/MCLib/Any/Src/sto_pll_speed_pos_fdbk.c ****     pHandle->hC6 = (int16_t)(wAux / C6_COMP_CONST2);
 1383              		.loc 1 117 5 is_stmt 1 view .LVU554
 117:MCSDK_v6.0.0-Full/MotorControl/MCSDK/MCLib/Any/Src/sto_pll_speed_pos_fdbk.c ****     pHandle->hC6 = (int16_t)(wAux / C6_COMP_CONST2);
 1384              		.loc 1 117 10 is_stmt 0 view .LVU555
 1385 0038 01FB00F1 		mul	r1, r1, r0
 1386              	.LVL169:
 118:MCSDK_v6.0.0-Full/MotorControl/MCSDK/MCLib/Any/Src/sto_pll_speed_pos_fdbk.c **** 
 1387              		.loc 1 118 5 is_stmt 1 view .LVU556
 118:MCSDK_v6.0.0-Full/MotorControl/MCSDK/MCLib/Any/Src/sto_pll_speed_pos_fdbk.c **** 
 1388              		.loc 1 118 35 is_stmt 0 view .LVU557
 1389 003c 094B     		ldr	r3, .L67+4
 1390              	.LVL170:
 118:MCSDK_v6.0.0-Full/MotorControl/MCSDK/MCLib/Any/Src/sto_pll_speed_pos_fdbk.c **** 
 1391              		.loc 1 118 35 view .LVU558
 1392 003e 83FB0123 		smull	r2, r3, r3, r1
 1393 0042 C917     		asrs	r1, r1, #31
 1394              	.LVL171:
 118:MCSDK_v6.0.0-Full/MotorControl/MCSDK/MCLib/Any/Src/sto_pll_speed_pos_fdbk.c **** 
 1395              		.loc 1 118 35 view .LVU559
 1396 0044 C1EB2321 		rsb	r1, r1, r3, asr #8
 118:MCSDK_v6.0.0-Full/MotorControl/MCSDK/MCLib/Any/Src/sto_pll_speed_pos_fdbk.c **** 
 1397              		.loc 1 118 18 view .LVU560
ARM GAS  /tmp/ccl72mIK.s 			page 48


 1398 0048 6185     		strh	r1, [r4, #42]	@ movhi
 120:MCSDK_v6.0.0-Full/MotorControl/MCSDK/MCLib/Any/Src/sto_pll_speed_pos_fdbk.c **** 
 1399              		.loc 1 120 5 is_stmt 1 view .LVU561
 1400 004a 2046     		mov	r0, r4
 1401 004c FFF7FEFF 		bl	STO_PLL_Clear
 1402              	.LVL172:
 122:MCSDK_v6.0.0-Full/MotorControl/MCSDK/MCLib/Any/Src/sto_pll_speed_pos_fdbk.c **** 
 1403              		.loc 1 122 5 view .LVU562
 1404 0050 04F13400 		add	r0, r4, #52
 1405 0054 FFF7FEFF 		bl	PID_HandleInit
 1406              	.LVL173:
 125:MCSDK_v6.0.0-Full/MotorControl/MCSDK/MCLib/Any/Src/sto_pll_speed_pos_fdbk.c **** #ifdef NULL_PTR_STO_PLL_SPD_POS_FDB
 1407              		.loc 1 125 5 view .LVU563
 125:MCSDK_v6.0.0-Full/MotorControl/MCSDK/MCLib/Any/Src/sto_pll_speed_pos_fdbk.c **** #ifdef NULL_PTR_STO_PLL_SPD_POS_FDB
 1408              		.loc 1 125 36 is_stmt 0 view .LVU564
 1409 0058 0023     		movs	r3, #0
 1410 005a 6382     		strh	r3, [r4, #18]	@ movhi
 129:MCSDK_v6.0.0-Full/MotorControl/MCSDK/MCLib/Any/Src/sto_pll_speed_pos_fdbk.c **** }
 1411              		.loc 1 129 3 is_stmt 1 view .LVU565
 130:MCSDK_v6.0.0-Full/MotorControl/MCSDK/MCLib/Any/Src/sto_pll_speed_pos_fdbk.c **** 
 1412              		.loc 1 130 1 is_stmt 0 view .LVU566
 1413 005c 10BD     		pop	{r4, pc}
 1414              	.LVL174:
 1415              	.L68:
 130:MCSDK_v6.0.0-Full/MotorControl/MCSDK/MCLib/Any/Src/sto_pll_speed_pos_fdbk.c **** 
 1416              		.loc 1 130 1 view .LVU567
 1417 005e 00BF     		.align	2
 1418              	.L67:
 1419 0060 5EEA0F00 		.word	1043038
 1420 0064 C58D4806 		.word	105418181
 1421              		.cfi_endproc
 1422              	.LFE1437:
 1424              		.section	.text.STO_PLL_IsObserverConverged,"ax",%progbits
 1425              		.align	1
 1426              		.weak	STO_PLL_IsObserverConverged
 1427              		.syntax unified
 1428              		.thumb
 1429              		.thumb_func
 1430              		.fpu fpv4-sp-d16
 1432              	STO_PLL_IsObserverConverged:
 1433              	.LVL175:
 1434              	.LFB1446:
 754:MCSDK_v6.0.0-Full/MotorControl/MCSDK/MCLib/Any/Src/sto_pll_speed_pos_fdbk.c **** 
 755:MCSDK_v6.0.0-Full/MotorControl/MCSDK/MCLib/Any/Src/sto_pll_speed_pos_fdbk.c **** /**
 756:MCSDK_v6.0.0-Full/MotorControl/MCSDK/MCLib/Any/Src/sto_pll_speed_pos_fdbk.c ****   * @brief  It internally performs a set of checks necessary to state whether
 757:MCSDK_v6.0.0-Full/MotorControl/MCSDK/MCLib/Any/Src/sto_pll_speed_pos_fdbk.c ****   *         the state observer algorithm converged. To be periodically called
 758:MCSDK_v6.0.0-Full/MotorControl/MCSDK/MCLib/Any/Src/sto_pll_speed_pos_fdbk.c ****   *         during motor open-loop ramp-up (e.g. at the same frequency of
 759:MCSDK_v6.0.0-Full/MotorControl/MCSDK/MCLib/Any/Src/sto_pll_speed_pos_fdbk.c ****   *         SPD_CalcElAngle), it returns true if the estimated angle and speed
 760:MCSDK_v6.0.0-Full/MotorControl/MCSDK/MCLib/Any/Src/sto_pll_speed_pos_fdbk.c ****   *         can be considered reliable, false otherwise
 761:MCSDK_v6.0.0-Full/MotorControl/MCSDK/MCLib/Any/Src/sto_pll_speed_pos_fdbk.c ****   * @param  pHandle: handler of the current instance of the STO component
 762:MCSDK_v6.0.0-Full/MotorControl/MCSDK/MCLib/Any/Src/sto_pll_speed_pos_fdbk.c ****   * @param  hForcedMecSpeedUnit Mechanical speed in 0.1Hz unit as forced by VSS
 763:MCSDK_v6.0.0-Full/MotorControl/MCSDK/MCLib/Any/Src/sto_pll_speed_pos_fdbk.c ****   * @retval bool sensor reliability state
 764:MCSDK_v6.0.0-Full/MotorControl/MCSDK/MCLib/Any/Src/sto_pll_speed_pos_fdbk.c ****   */
 765:MCSDK_v6.0.0-Full/MotorControl/MCSDK/MCLib/Any/Src/sto_pll_speed_pos_fdbk.c **** __weak bool STO_PLL_IsObserverConverged(STO_PLL_Handle_t *pHandle, int16_t *phForcedMecSpeedUnit)
 766:MCSDK_v6.0.0-Full/MotorControl/MCSDK/MCLib/Any/Src/sto_pll_speed_pos_fdbk.c **** {
 1435              		.loc 1 766 1 is_stmt 1 view -0
 1436              		.cfi_startproc
ARM GAS  /tmp/ccl72mIK.s 			page 49


 1437              		@ args = 0, pretend = 0, frame = 0
 1438              		@ frame_needed = 0, uses_anonymous_args = 0
 1439              		@ link register save eliminated.
 1440              		.loc 1 766 1 is_stmt 0 view .LVU569
 1441 0000 0346     		mov	r3, r0
 767:MCSDK_v6.0.0-Full/MotorControl/MCSDK/MCLib/Any/Src/sto_pll_speed_pos_fdbk.c ****   bool bAux = false;
 1442              		.loc 1 767 3 is_stmt 1 view .LVU570
 1443              	.LVL176:
 768:MCSDK_v6.0.0-Full/MotorControl/MCSDK/MCLib/Any/Src/sto_pll_speed_pos_fdbk.c **** #ifdef NULL_PTR_STO_PLL_SPD_POS_FDB
 769:MCSDK_v6.0.0-Full/MotorControl/MCSDK/MCLib/Any/Src/sto_pll_speed_pos_fdbk.c ****   if ((MC_NULL == pHandle) || (MC_NULL == phForcedMecSpeedUnit))
 770:MCSDK_v6.0.0-Full/MotorControl/MCSDK/MCLib/Any/Src/sto_pll_speed_pos_fdbk.c ****   {
 771:MCSDK_v6.0.0-Full/MotorControl/MCSDK/MCLib/Any/Src/sto_pll_speed_pos_fdbk.c ****     /* Nothing to do */
 772:MCSDK_v6.0.0-Full/MotorControl/MCSDK/MCLib/Any/Src/sto_pll_speed_pos_fdbk.c ****   }
 773:MCSDK_v6.0.0-Full/MotorControl/MCSDK/MCLib/Any/Src/sto_pll_speed_pos_fdbk.c ****   else
 774:MCSDK_v6.0.0-Full/MotorControl/MCSDK/MCLib/Any/Src/sto_pll_speed_pos_fdbk.c ****   {
 775:MCSDK_v6.0.0-Full/MotorControl/MCSDK/MCLib/Any/Src/sto_pll_speed_pos_fdbk.c **** #endif
 776:MCSDK_v6.0.0-Full/MotorControl/MCSDK/MCLib/Any/Src/sto_pll_speed_pos_fdbk.c ****     int16_t hEstimatedSpeedUnit;
 1444              		.loc 1 776 5 view .LVU571
 777:MCSDK_v6.0.0-Full/MotorControl/MCSDK/MCLib/Any/Src/sto_pll_speed_pos_fdbk.c ****     int16_t hUpperThreshold;
 1445              		.loc 1 777 5 view .LVU572
 778:MCSDK_v6.0.0-Full/MotorControl/MCSDK/MCLib/Any/Src/sto_pll_speed_pos_fdbk.c ****     int16_t hLowerThreshold;
 1446              		.loc 1 778 5 view .LVU573
 779:MCSDK_v6.0.0-Full/MotorControl/MCSDK/MCLib/Any/Src/sto_pll_speed_pos_fdbk.c ****     int32_t wAux;
 1447              		.loc 1 779 5 view .LVU574
 780:MCSDK_v6.0.0-Full/MotorControl/MCSDK/MCLib/Any/Src/sto_pll_speed_pos_fdbk.c ****     int32_t wtemp;
 1448              		.loc 1 780 5 view .LVU575
 781:MCSDK_v6.0.0-Full/MotorControl/MCSDK/MCLib/Any/Src/sto_pll_speed_pos_fdbk.c **** 
 782:MCSDK_v6.0.0-Full/MotorControl/MCSDK/MCLib/Any/Src/sto_pll_speed_pos_fdbk.c ****     if (true == pHandle->ForceConvergency2)
 1449              		.loc 1 782 5 view .LVU576
 1450              		.loc 1 782 24 is_stmt 0 view .LVU577
 1451 0002 90F82321 		ldrb	r2, [r0, #291]	@ zero_extendqisi2
 1452              		.loc 1 782 8 view .LVU578
 1453 0006 12B1     		cbz	r2, .L70
 783:MCSDK_v6.0.0-Full/MotorControl/MCSDK/MCLib/Any/Src/sto_pll_speed_pos_fdbk.c ****     {
 784:MCSDK_v6.0.0-Full/MotorControl/MCSDK/MCLib/Any/Src/sto_pll_speed_pos_fdbk.c ****       *phForcedMecSpeedUnit = pHandle->_Super.hAvrMecSpeedUnit;
 1454              		.loc 1 784 7 is_stmt 1 view .LVU579
 1455              		.loc 1 784 46 is_stmt 0 view .LVU580
 1456 0008 B0F90C20 		ldrsh	r2, [r0, #12]
 1457              		.loc 1 784 29 view .LVU581
 1458 000c 0A80     		strh	r2, [r1]	@ movhi
 1459              	.L70:
 785:MCSDK_v6.0.0-Full/MotorControl/MCSDK/MCLib/Any/Src/sto_pll_speed_pos_fdbk.c ****     }
 786:MCSDK_v6.0.0-Full/MotorControl/MCSDK/MCLib/Any/Src/sto_pll_speed_pos_fdbk.c **** 
 787:MCSDK_v6.0.0-Full/MotorControl/MCSDK/MCLib/Any/Src/sto_pll_speed_pos_fdbk.c ****     if (true == pHandle->ForceConvergency)
 1460              		.loc 1 787 5 is_stmt 1 view .LVU582
 1461              		.loc 1 787 24 is_stmt 0 view .LVU583
 1462 000e 93F82201 		ldrb	r0, [r3, #290]	@ zero_extendqisi2
 1463              	.LVL177:
 1464              		.loc 1 787 8 view .LVU584
 1465 0012 28B1     		cbz	r0, .L71
 788:MCSDK_v6.0.0-Full/MotorControl/MCSDK/MCLib/Any/Src/sto_pll_speed_pos_fdbk.c ****     {
 789:MCSDK_v6.0.0-Full/MotorControl/MCSDK/MCLib/Any/Src/sto_pll_speed_pos_fdbk.c ****       bAux = true;
 1466              		.loc 1 789 7 is_stmt 1 view .LVU585
 1467              	.LVL178:
 790:MCSDK_v6.0.0-Full/MotorControl/MCSDK/MCLib/Any/Src/sto_pll_speed_pos_fdbk.c ****       pHandle->IsAlgorithmConverged = true;
 1468              		.loc 1 790 7 view .LVU586
 1469              		.loc 1 790 37 is_stmt 0 view .LVU587
ARM GAS  /tmp/ccl72mIK.s 			page 50


 1470 0014 0122     		movs	r2, #1
 1471 0016 83F8F820 		strb	r2, [r3, #248]
 791:MCSDK_v6.0.0-Full/MotorControl/MCSDK/MCLib/Any/Src/sto_pll_speed_pos_fdbk.c ****       pHandle->_Super.bSpeedErrorNumber = 0U;
 1472              		.loc 1 791 7 is_stmt 1 view .LVU588
 1473              		.loc 1 791 41 is_stmt 0 view .LVU589
 1474 001a 0022     		movs	r2, #0
 1475 001c 1A70     		strb	r2, [r3]
 1476              	.LVL179:
 792:MCSDK_v6.0.0-Full/MotorControl/MCSDK/MCLib/Any/Src/sto_pll_speed_pos_fdbk.c ****     }
 793:MCSDK_v6.0.0-Full/MotorControl/MCSDK/MCLib/Any/Src/sto_pll_speed_pos_fdbk.c ****     else
 794:MCSDK_v6.0.0-Full/MotorControl/MCSDK/MCLib/Any/Src/sto_pll_speed_pos_fdbk.c ****     {
 795:MCSDK_v6.0.0-Full/MotorControl/MCSDK/MCLib/Any/Src/sto_pll_speed_pos_fdbk.c ****       hEstimatedSpeedUnit = pHandle->_Super.hAvrMecSpeedUnit;
 796:MCSDK_v6.0.0-Full/MotorControl/MCSDK/MCLib/Any/Src/sto_pll_speed_pos_fdbk.c **** 
 797:MCSDK_v6.0.0-Full/MotorControl/MCSDK/MCLib/Any/Src/sto_pll_speed_pos_fdbk.c ****       wtemp = ((int32_t)hEstimatedSpeedUnit) * ((int32_t)*phForcedMecSpeedUnit);
 798:MCSDK_v6.0.0-Full/MotorControl/MCSDK/MCLib/Any/Src/sto_pll_speed_pos_fdbk.c **** 
 799:MCSDK_v6.0.0-Full/MotorControl/MCSDK/MCLib/Any/Src/sto_pll_speed_pos_fdbk.c ****       if (wtemp > 0)
 800:MCSDK_v6.0.0-Full/MotorControl/MCSDK/MCLib/Any/Src/sto_pll_speed_pos_fdbk.c ****       {
 801:MCSDK_v6.0.0-Full/MotorControl/MCSDK/MCLib/Any/Src/sto_pll_speed_pos_fdbk.c ****         if (hEstimatedSpeedUnit < 0)
 802:MCSDK_v6.0.0-Full/MotorControl/MCSDK/MCLib/Any/Src/sto_pll_speed_pos_fdbk.c ****         {
 803:MCSDK_v6.0.0-Full/MotorControl/MCSDK/MCLib/Any/Src/sto_pll_speed_pos_fdbk.c ****           hEstimatedSpeedUnit = -hEstimatedSpeedUnit;
 804:MCSDK_v6.0.0-Full/MotorControl/MCSDK/MCLib/Any/Src/sto_pll_speed_pos_fdbk.c ****         }
 805:MCSDK_v6.0.0-Full/MotorControl/MCSDK/MCLib/Any/Src/sto_pll_speed_pos_fdbk.c **** 
 806:MCSDK_v6.0.0-Full/MotorControl/MCSDK/MCLib/Any/Src/sto_pll_speed_pos_fdbk.c ****         if (*phForcedMecSpeedUnit < 0)
 807:MCSDK_v6.0.0-Full/MotorControl/MCSDK/MCLib/Any/Src/sto_pll_speed_pos_fdbk.c ****         {
 808:MCSDK_v6.0.0-Full/MotorControl/MCSDK/MCLib/Any/Src/sto_pll_speed_pos_fdbk.c ****           *phForcedMecSpeedUnit = -*phForcedMecSpeedUnit;
 809:MCSDK_v6.0.0-Full/MotorControl/MCSDK/MCLib/Any/Src/sto_pll_speed_pos_fdbk.c ****         }
 810:MCSDK_v6.0.0-Full/MotorControl/MCSDK/MCLib/Any/Src/sto_pll_speed_pos_fdbk.c ****         wAux = ((int32_t)*phForcedMecSpeedUnit) * ((int16_t)pHandle->SpeedValidationBand_H);
 811:MCSDK_v6.0.0-Full/MotorControl/MCSDK/MCLib/Any/Src/sto_pll_speed_pos_fdbk.c ****         hUpperThreshold = (int16_t)(wAux / ((int32_t)16));
 812:MCSDK_v6.0.0-Full/MotorControl/MCSDK/MCLib/Any/Src/sto_pll_speed_pos_fdbk.c **** 
 813:MCSDK_v6.0.0-Full/MotorControl/MCSDK/MCLib/Any/Src/sto_pll_speed_pos_fdbk.c ****         wAux = ((int32_t)*phForcedMecSpeedUnit) * ((int16_t)pHandle->SpeedValidationBand_L);
 814:MCSDK_v6.0.0-Full/MotorControl/MCSDK/MCLib/Any/Src/sto_pll_speed_pos_fdbk.c ****         hLowerThreshold = (int16_t)(wAux / ((int32_t)16));
 815:MCSDK_v6.0.0-Full/MotorControl/MCSDK/MCLib/Any/Src/sto_pll_speed_pos_fdbk.c **** 
 816:MCSDK_v6.0.0-Full/MotorControl/MCSDK/MCLib/Any/Src/sto_pll_speed_pos_fdbk.c ****         /* If the variance of the estimated speed is low enough...*/
 817:MCSDK_v6.0.0-Full/MotorControl/MCSDK/MCLib/Any/Src/sto_pll_speed_pos_fdbk.c ****         if (true == pHandle->IsSpeedReliable)
 818:MCSDK_v6.0.0-Full/MotorControl/MCSDK/MCLib/Any/Src/sto_pll_speed_pos_fdbk.c ****         {
 819:MCSDK_v6.0.0-Full/MotorControl/MCSDK/MCLib/Any/Src/sto_pll_speed_pos_fdbk.c ****           if ((uint16_t)hEstimatedSpeedUnit > pHandle->MinStartUpValidSpeed)
 820:MCSDK_v6.0.0-Full/MotorControl/MCSDK/MCLib/Any/Src/sto_pll_speed_pos_fdbk.c ****           {
 821:MCSDK_v6.0.0-Full/MotorControl/MCSDK/MCLib/Any/Src/sto_pll_speed_pos_fdbk.c ****             /*...and the estimated value is quite close to the expected value... */
 822:MCSDK_v6.0.0-Full/MotorControl/MCSDK/MCLib/Any/Src/sto_pll_speed_pos_fdbk.c ****             if (hEstimatedSpeedUnit >= hLowerThreshold)
 823:MCSDK_v6.0.0-Full/MotorControl/MCSDK/MCLib/Any/Src/sto_pll_speed_pos_fdbk.c ****             {
 824:MCSDK_v6.0.0-Full/MotorControl/MCSDK/MCLib/Any/Src/sto_pll_speed_pos_fdbk.c ****               if (hEstimatedSpeedUnit <= hUpperThreshold)
 825:MCSDK_v6.0.0-Full/MotorControl/MCSDK/MCLib/Any/Src/sto_pll_speed_pos_fdbk.c ****               {
 826:MCSDK_v6.0.0-Full/MotorControl/MCSDK/MCLib/Any/Src/sto_pll_speed_pos_fdbk.c ****                 pHandle->ConsistencyCounter++;
 827:MCSDK_v6.0.0-Full/MotorControl/MCSDK/MCLib/Any/Src/sto_pll_speed_pos_fdbk.c **** 
 828:MCSDK_v6.0.0-Full/MotorControl/MCSDK/MCLib/Any/Src/sto_pll_speed_pos_fdbk.c ****                 /*... for hConsistencyThreshold consecutive times... */
 829:MCSDK_v6.0.0-Full/MotorControl/MCSDK/MCLib/Any/Src/sto_pll_speed_pos_fdbk.c ****                 if (pHandle->ConsistencyCounter >= pHandle->StartUpConsistThreshold)
 830:MCSDK_v6.0.0-Full/MotorControl/MCSDK/MCLib/Any/Src/sto_pll_speed_pos_fdbk.c ****                 {
 831:MCSDK_v6.0.0-Full/MotorControl/MCSDK/MCLib/Any/Src/sto_pll_speed_pos_fdbk.c **** 
 832:MCSDK_v6.0.0-Full/MotorControl/MCSDK/MCLib/Any/Src/sto_pll_speed_pos_fdbk.c ****                   /* the algorithm converged.*/
 833:MCSDK_v6.0.0-Full/MotorControl/MCSDK/MCLib/Any/Src/sto_pll_speed_pos_fdbk.c ****                   bAux = true;
 834:MCSDK_v6.0.0-Full/MotorControl/MCSDK/MCLib/Any/Src/sto_pll_speed_pos_fdbk.c ****                   pHandle->IsAlgorithmConverged = true;
 835:MCSDK_v6.0.0-Full/MotorControl/MCSDK/MCLib/Any/Src/sto_pll_speed_pos_fdbk.c ****                   pHandle->_Super.bSpeedErrorNumber = 0U;
 836:MCSDK_v6.0.0-Full/MotorControl/MCSDK/MCLib/Any/Src/sto_pll_speed_pos_fdbk.c ****                 }
 837:MCSDK_v6.0.0-Full/MotorControl/MCSDK/MCLib/Any/Src/sto_pll_speed_pos_fdbk.c ****               }
 838:MCSDK_v6.0.0-Full/MotorControl/MCSDK/MCLib/Any/Src/sto_pll_speed_pos_fdbk.c ****               else
 839:MCSDK_v6.0.0-Full/MotorControl/MCSDK/MCLib/Any/Src/sto_pll_speed_pos_fdbk.c ****               {
 840:MCSDK_v6.0.0-Full/MotorControl/MCSDK/MCLib/Any/Src/sto_pll_speed_pos_fdbk.c ****                 pHandle->ConsistencyCounter = 0U;
ARM GAS  /tmp/ccl72mIK.s 			page 51


 841:MCSDK_v6.0.0-Full/MotorControl/MCSDK/MCLib/Any/Src/sto_pll_speed_pos_fdbk.c ****               }
 842:MCSDK_v6.0.0-Full/MotorControl/MCSDK/MCLib/Any/Src/sto_pll_speed_pos_fdbk.c ****             }
 843:MCSDK_v6.0.0-Full/MotorControl/MCSDK/MCLib/Any/Src/sto_pll_speed_pos_fdbk.c ****             else
 844:MCSDK_v6.0.0-Full/MotorControl/MCSDK/MCLib/Any/Src/sto_pll_speed_pos_fdbk.c ****             {
 845:MCSDK_v6.0.0-Full/MotorControl/MCSDK/MCLib/Any/Src/sto_pll_speed_pos_fdbk.c ****               pHandle->ConsistencyCounter = 0U;
 846:MCSDK_v6.0.0-Full/MotorControl/MCSDK/MCLib/Any/Src/sto_pll_speed_pos_fdbk.c ****             }
 847:MCSDK_v6.0.0-Full/MotorControl/MCSDK/MCLib/Any/Src/sto_pll_speed_pos_fdbk.c ****           }
 848:MCSDK_v6.0.0-Full/MotorControl/MCSDK/MCLib/Any/Src/sto_pll_speed_pos_fdbk.c ****           else
 849:MCSDK_v6.0.0-Full/MotorControl/MCSDK/MCLib/Any/Src/sto_pll_speed_pos_fdbk.c ****           {
 850:MCSDK_v6.0.0-Full/MotorControl/MCSDK/MCLib/Any/Src/sto_pll_speed_pos_fdbk.c ****             pHandle->ConsistencyCounter = 0U;
 851:MCSDK_v6.0.0-Full/MotorControl/MCSDK/MCLib/Any/Src/sto_pll_speed_pos_fdbk.c ****           }
 852:MCSDK_v6.0.0-Full/MotorControl/MCSDK/MCLib/Any/Src/sto_pll_speed_pos_fdbk.c ****         }
 853:MCSDK_v6.0.0-Full/MotorControl/MCSDK/MCLib/Any/Src/sto_pll_speed_pos_fdbk.c ****         else
 854:MCSDK_v6.0.0-Full/MotorControl/MCSDK/MCLib/Any/Src/sto_pll_speed_pos_fdbk.c ****         {
 855:MCSDK_v6.0.0-Full/MotorControl/MCSDK/MCLib/Any/Src/sto_pll_speed_pos_fdbk.c ****           pHandle->ConsistencyCounter = 0U;
 856:MCSDK_v6.0.0-Full/MotorControl/MCSDK/MCLib/Any/Src/sto_pll_speed_pos_fdbk.c ****         }
 857:MCSDK_v6.0.0-Full/MotorControl/MCSDK/MCLib/Any/Src/sto_pll_speed_pos_fdbk.c ****       }
 858:MCSDK_v6.0.0-Full/MotorControl/MCSDK/MCLib/Any/Src/sto_pll_speed_pos_fdbk.c ****     }
 859:MCSDK_v6.0.0-Full/MotorControl/MCSDK/MCLib/Any/Src/sto_pll_speed_pos_fdbk.c **** #ifdef NULL_PTR_STO_PLL_SPD_POS_FDB
 860:MCSDK_v6.0.0-Full/MotorControl/MCSDK/MCLib/Any/Src/sto_pll_speed_pos_fdbk.c ****   }
 861:MCSDK_v6.0.0-Full/MotorControl/MCSDK/MCLib/Any/Src/sto_pll_speed_pos_fdbk.c **** #endif
 862:MCSDK_v6.0.0-Full/MotorControl/MCSDK/MCLib/Any/Src/sto_pll_speed_pos_fdbk.c ****   return (bAux);
 1477              		.loc 1 862 3 is_stmt 1 view .LVU590
 863:MCSDK_v6.0.0-Full/MotorControl/MCSDK/MCLib/Any/Src/sto_pll_speed_pos_fdbk.c **** }
 1478              		.loc 1 863 1 is_stmt 0 view .LVU591
 1479 001e 7047     		bx	lr
 1480              	.LVL180:
 1481              	.L71:
 766:MCSDK_v6.0.0-Full/MotorControl/MCSDK/MCLib/Any/Src/sto_pll_speed_pos_fdbk.c ****   bool bAux = false;
 1482              		.loc 1 766 1 view .LVU592
 1483 0020 F0B4     		push	{r4, r5, r6, r7}
 1484              		.cfi_def_cfa_offset 16
 1485              		.cfi_offset 4, -16
 1486              		.cfi_offset 5, -12
 1487              		.cfi_offset 6, -8
 1488              		.cfi_offset 7, -4
 795:MCSDK_v6.0.0-Full/MotorControl/MCSDK/MCLib/Any/Src/sto_pll_speed_pos_fdbk.c **** 
 1489              		.loc 1 795 7 is_stmt 1 view .LVU593
 795:MCSDK_v6.0.0-Full/MotorControl/MCSDK/MCLib/Any/Src/sto_pll_speed_pos_fdbk.c **** 
 1490              		.loc 1 795 27 is_stmt 0 view .LVU594
 1491 0022 B3F90C40 		ldrsh	r4, [r3, #12]
 1492              	.LVL181:
 797:MCSDK_v6.0.0-Full/MotorControl/MCSDK/MCLib/Any/Src/sto_pll_speed_pos_fdbk.c **** 
 1493              		.loc 1 797 7 is_stmt 1 view .LVU595
 797:MCSDK_v6.0.0-Full/MotorControl/MCSDK/MCLib/Any/Src/sto_pll_speed_pos_fdbk.c **** 
 1494              		.loc 1 797 58 is_stmt 0 view .LVU596
 1495 0026 B1F90020 		ldrsh	r2, [r1]
 797:MCSDK_v6.0.0-Full/MotorControl/MCSDK/MCLib/Any/Src/sto_pll_speed_pos_fdbk.c **** 
 1496              		.loc 1 797 13 view .LVU597
 1497 002a 02FB04F5 		mul	r5, r2, r4
 1498              	.LVL182:
 799:MCSDK_v6.0.0-Full/MotorControl/MCSDK/MCLib/Any/Src/sto_pll_speed_pos_fdbk.c ****       {
 1499              		.loc 1 799 7 is_stmt 1 view .LVU598
 799:MCSDK_v6.0.0-Full/MotorControl/MCSDK/MCLib/Any/Src/sto_pll_speed_pos_fdbk.c ****       {
 1500              		.loc 1 799 10 is_stmt 0 view .LVU599
 1501 002e 002D     		cmp	r5, #0
 1502 0030 4DDD     		ble	.L72
ARM GAS  /tmp/ccl72mIK.s 			page 52


 801:MCSDK_v6.0.0-Full/MotorControl/MCSDK/MCLib/Any/Src/sto_pll_speed_pos_fdbk.c ****         {
 1503              		.loc 1 801 9 is_stmt 1 view .LVU600
 801:MCSDK_v6.0.0-Full/MotorControl/MCSDK/MCLib/Any/Src/sto_pll_speed_pos_fdbk.c ****         {
 1504              		.loc 1 801 12 is_stmt 0 view .LVU601
 1505 0032 002C     		cmp	r4, #0
 1506 0034 30DB     		blt	.L84
 1507              	.L73:
 806:MCSDK_v6.0.0-Full/MotorControl/MCSDK/MCLib/Any/Src/sto_pll_speed_pos_fdbk.c ****         {
 1508              		.loc 1 806 9 is_stmt 1 view .LVU602
 806:MCSDK_v6.0.0-Full/MotorControl/MCSDK/MCLib/Any/Src/sto_pll_speed_pos_fdbk.c ****         {
 1509              		.loc 1 806 12 is_stmt 0 view .LVU603
 1510 0036 002A     		cmp	r2, #0
 1511 0038 31DB     		blt	.L85
 1512              	.L74:
 810:MCSDK_v6.0.0-Full/MotorControl/MCSDK/MCLib/Any/Src/sto_pll_speed_pos_fdbk.c ****         hUpperThreshold = (int16_t)(wAux / ((int32_t)16));
 1513              		.loc 1 810 9 is_stmt 1 view .LVU604
 810:MCSDK_v6.0.0-Full/MotorControl/MCSDK/MCLib/Any/Src/sto_pll_speed_pos_fdbk.c ****         hUpperThreshold = (int16_t)(wAux / ((int32_t)16));
 1514              		.loc 1 810 26 is_stmt 0 view .LVU605
 1515 003a B1F90050 		ldrsh	r5, [r1]
 1516              	.LVL183:
 810:MCSDK_v6.0.0-Full/MotorControl/MCSDK/MCLib/Any/Src/sto_pll_speed_pos_fdbk.c ****         hUpperThreshold = (int16_t)(wAux / ((int32_t)16));
 1517              		.loc 1 810 68 view .LVU606
 1518 003e 93F81211 		ldrb	r1, [r3, #274]	@ zero_extendqisi2
 1519              	.LVL184:
 810:MCSDK_v6.0.0-Full/MotorControl/MCSDK/MCLib/Any/Src/sto_pll_speed_pos_fdbk.c ****         hUpperThreshold = (int16_t)(wAux / ((int32_t)16));
 1520              		.loc 1 810 14 view .LVU607
 1521 0042 01FB05F1 		mul	r1, r1, r5
 811:MCSDK_v6.0.0-Full/MotorControl/MCSDK/MCLib/Any/Src/sto_pll_speed_pos_fdbk.c **** 
 1522              		.loc 1 811 9 is_stmt 1 view .LVU608
 811:MCSDK_v6.0.0-Full/MotorControl/MCSDK/MCLib/Any/Src/sto_pll_speed_pos_fdbk.c **** 
 1523              		.loc 1 811 42 is_stmt 0 view .LVU609
 1524 0046 0029     		cmp	r1, #0
 1525 0048 2DDB     		blt	.L86
 1526              	.L75:
 811:MCSDK_v6.0.0-Full/MotorControl/MCSDK/MCLib/Any/Src/sto_pll_speed_pos_fdbk.c **** 
 1527              		.loc 1 811 25 view .LVU610
 1528 004a 41F30F11 		sbfx	r1, r1, #4, #16
 1529              	.LVL185:
 813:MCSDK_v6.0.0-Full/MotorControl/MCSDK/MCLib/Any/Src/sto_pll_speed_pos_fdbk.c ****         hLowerThreshold = (int16_t)(wAux / ((int32_t)16));
 1530              		.loc 1 813 9 is_stmt 1 view .LVU611
 813:MCSDK_v6.0.0-Full/MotorControl/MCSDK/MCLib/Any/Src/sto_pll_speed_pos_fdbk.c ****         hLowerThreshold = (int16_t)(wAux / ((int32_t)16));
 1531              		.loc 1 813 68 is_stmt 0 view .LVU612
 1532 004e 93F81321 		ldrb	r2, [r3, #275]	@ zero_extendqisi2
 813:MCSDK_v6.0.0-Full/MotorControl/MCSDK/MCLib/Any/Src/sto_pll_speed_pos_fdbk.c ****         hLowerThreshold = (int16_t)(wAux / ((int32_t)16));
 1533              		.loc 1 813 14 view .LVU613
 1534 0052 02FB05F2 		mul	r2, r2, r5
 814:MCSDK_v6.0.0-Full/MotorControl/MCSDK/MCLib/Any/Src/sto_pll_speed_pos_fdbk.c **** 
 1535              		.loc 1 814 9 is_stmt 1 view .LVU614
 814:MCSDK_v6.0.0-Full/MotorControl/MCSDK/MCLib/Any/Src/sto_pll_speed_pos_fdbk.c **** 
 1536              		.loc 1 814 42 is_stmt 0 view .LVU615
 1537 0056 002A     		cmp	r2, #0
 1538 0058 27DB     		blt	.L87
 1539              	.L76:
 814:MCSDK_v6.0.0-Full/MotorControl/MCSDK/MCLib/Any/Src/sto_pll_speed_pos_fdbk.c **** 
 1540              		.loc 1 814 25 view .LVU616
 1541 005a 42F30F12 		sbfx	r2, r2, #4, #16
 1542              	.LVL186:
ARM GAS  /tmp/ccl72mIK.s 			page 53


 817:MCSDK_v6.0.0-Full/MotorControl/MCSDK/MCLib/Any/Src/sto_pll_speed_pos_fdbk.c ****         {
 1543              		.loc 1 817 9 is_stmt 1 view .LVU617
 817:MCSDK_v6.0.0-Full/MotorControl/MCSDK/MCLib/Any/Src/sto_pll_speed_pos_fdbk.c ****         {
 1544              		.loc 1 817 28 is_stmt 0 view .LVU618
 1545 005e 93F8F550 		ldrb	r5, [r3, #245]	@ zero_extendqisi2
 817:MCSDK_v6.0.0-Full/MotorControl/MCSDK/MCLib/Any/Src/sto_pll_speed_pos_fdbk.c ****         {
 1546              		.loc 1 817 12 view .LVU619
 1547 0062 85B3     		cbz	r5, .L77
 819:MCSDK_v6.0.0-Full/MotorControl/MCSDK/MCLib/Any/Src/sto_pll_speed_pos_fdbk.c ****           {
 1548              		.loc 1 819 11 is_stmt 1 view .LVU620
 819:MCSDK_v6.0.0-Full/MotorControl/MCSDK/MCLib/Any/Src/sto_pll_speed_pos_fdbk.c ****           {
 1549              		.loc 1 819 54 is_stmt 0 view .LVU621
 1550 0064 B3F81471 		ldrh	r7, [r3, #276]
 819:MCSDK_v6.0.0-Full/MotorControl/MCSDK/MCLib/Any/Src/sto_pll_speed_pos_fdbk.c ****           {
 1551              		.loc 1 819 45 view .LVU622
 1552 0068 A6B2     		uxth	r6, r4
 819:MCSDK_v6.0.0-Full/MotorControl/MCSDK/MCLib/Any/Src/sto_pll_speed_pos_fdbk.c ****           {
 1553              		.loc 1 819 14 view .LVU623
 1554 006a B742     		cmp	r7, r6
 1555 006c 27D2     		bcs	.L78
 822:MCSDK_v6.0.0-Full/MotorControl/MCSDK/MCLib/Any/Src/sto_pll_speed_pos_fdbk.c ****             {
 1556              		.loc 1 822 13 is_stmt 1 view .LVU624
 822:MCSDK_v6.0.0-Full/MotorControl/MCSDK/MCLib/Any/Src/sto_pll_speed_pos_fdbk.c ****             {
 1557              		.loc 1 822 16 is_stmt 0 view .LVU625
 1558 006e 9442     		cmp	r4, r2
 1559 0070 21DB     		blt	.L79
 824:MCSDK_v6.0.0-Full/MotorControl/MCSDK/MCLib/Any/Src/sto_pll_speed_pos_fdbk.c ****               {
 1560              		.loc 1 824 15 is_stmt 1 view .LVU626
 824:MCSDK_v6.0.0-Full/MotorControl/MCSDK/MCLib/Any/Src/sto_pll_speed_pos_fdbk.c ****               {
 1561              		.loc 1 824 18 is_stmt 0 view .LVU627
 1562 0072 8C42     		cmp	r4, r1
 1563 0074 1BDC     		bgt	.L80
 826:MCSDK_v6.0.0-Full/MotorControl/MCSDK/MCLib/Any/Src/sto_pll_speed_pos_fdbk.c **** 
 1564              		.loc 1 826 17 is_stmt 1 view .LVU628
 826:MCSDK_v6.0.0-Full/MotorControl/MCSDK/MCLib/Any/Src/sto_pll_speed_pos_fdbk.c **** 
 1565              		.loc 1 826 24 is_stmt 0 view .LVU629
 1566 0076 93F8F620 		ldrb	r2, [r3, #246]	@ zero_extendqisi2
 1567              	.LVL187:
 826:MCSDK_v6.0.0-Full/MotorControl/MCSDK/MCLib/Any/Src/sto_pll_speed_pos_fdbk.c **** 
 1568              		.loc 1 826 44 view .LVU630
 1569 007a 0132     		adds	r2, r2, #1
 1570 007c D2B2     		uxtb	r2, r2
 1571 007e 83F8F620 		strb	r2, [r3, #246]
 829:MCSDK_v6.0.0-Full/MotorControl/MCSDK/MCLib/Any/Src/sto_pll_speed_pos_fdbk.c ****                 {
 1572              		.loc 1 829 17 is_stmt 1 view .LVU631
 829:MCSDK_v6.0.0-Full/MotorControl/MCSDK/MCLib/Any/Src/sto_pll_speed_pos_fdbk.c ****                 {
 1573              		.loc 1 829 59 is_stmt 0 view .LVU632
 1574 0082 93F81611 		ldrb	r1, [r3, #278]	@ zero_extendqisi2
 1575              	.LVL188:
 829:MCSDK_v6.0.0-Full/MotorControl/MCSDK/MCLib/Any/Src/sto_pll_speed_pos_fdbk.c ****                 {
 1576              		.loc 1 829 20 view .LVU633
 1577 0086 8A42     		cmp	r2, r1
 1578 0088 21D3     		bcc	.L72
 833:MCSDK_v6.0.0-Full/MotorControl/MCSDK/MCLib/Any/Src/sto_pll_speed_pos_fdbk.c ****                   pHandle->IsAlgorithmConverged = true;
 1579              		.loc 1 833 19 is_stmt 1 view .LVU634
 1580              	.LVL189:
 834:MCSDK_v6.0.0-Full/MotorControl/MCSDK/MCLib/Any/Src/sto_pll_speed_pos_fdbk.c ****                   pHandle->_Super.bSpeedErrorNumber = 0U;
ARM GAS  /tmp/ccl72mIK.s 			page 54


 1581              		.loc 1 834 19 view .LVU635
 834:MCSDK_v6.0.0-Full/MotorControl/MCSDK/MCLib/Any/Src/sto_pll_speed_pos_fdbk.c ****                   pHandle->_Super.bSpeedErrorNumber = 0U;
 1582              		.loc 1 834 49 is_stmt 0 view .LVU636
 1583 008a 0122     		movs	r2, #1
 1584 008c 83F8F820 		strb	r2, [r3, #248]
 835:MCSDK_v6.0.0-Full/MotorControl/MCSDK/MCLib/Any/Src/sto_pll_speed_pos_fdbk.c ****                 }
 1585              		.loc 1 835 19 is_stmt 1 view .LVU637
 835:MCSDK_v6.0.0-Full/MotorControl/MCSDK/MCLib/Any/Src/sto_pll_speed_pos_fdbk.c ****                 }
 1586              		.loc 1 835 53 is_stmt 0 view .LVU638
 1587 0090 0022     		movs	r2, #0
 1588 0092 1A70     		strb	r2, [r3]
 833:MCSDK_v6.0.0-Full/MotorControl/MCSDK/MCLib/Any/Src/sto_pll_speed_pos_fdbk.c ****                   pHandle->IsAlgorithmConverged = true;
 1589              		.loc 1 833 24 view .LVU639
 1590 0094 2846     		mov	r0, r5
 1591 0096 1AE0     		b	.L72
 1592              	.LVL190:
 1593              	.L84:
 803:MCSDK_v6.0.0-Full/MotorControl/MCSDK/MCLib/Any/Src/sto_pll_speed_pos_fdbk.c ****         }
 1594              		.loc 1 803 11 is_stmt 1 view .LVU640
 803:MCSDK_v6.0.0-Full/MotorControl/MCSDK/MCLib/Any/Src/sto_pll_speed_pos_fdbk.c ****         }
 1595              		.loc 1 803 31 is_stmt 0 view .LVU641
 1596 0098 6442     		rsbs	r4, r4, #0
 1597              	.LVL191:
 803:MCSDK_v6.0.0-Full/MotorControl/MCSDK/MCLib/Any/Src/sto_pll_speed_pos_fdbk.c ****         }
 1598              		.loc 1 803 31 view .LVU642
 1599 009a 24B2     		sxth	r4, r4
 1600              	.LVL192:
 803:MCSDK_v6.0.0-Full/MotorControl/MCSDK/MCLib/Any/Src/sto_pll_speed_pos_fdbk.c ****         }
 1601              		.loc 1 803 31 view .LVU643
 1602 009c CBE7     		b	.L73
 1603              	.L85:
 808:MCSDK_v6.0.0-Full/MotorControl/MCSDK/MCLib/Any/Src/sto_pll_speed_pos_fdbk.c ****         }
 1604              		.loc 1 808 11 is_stmt 1 view .LVU644
 808:MCSDK_v6.0.0-Full/MotorControl/MCSDK/MCLib/Any/Src/sto_pll_speed_pos_fdbk.c ****         }
 1605              		.loc 1 808 36 is_stmt 0 view .LVU645
 1606 009e 92B2     		uxth	r2, r2
 808:MCSDK_v6.0.0-Full/MotorControl/MCSDK/MCLib/Any/Src/sto_pll_speed_pos_fdbk.c ****         }
 1607              		.loc 1 808 33 view .LVU646
 1608 00a0 5242     		rsbs	r2, r2, #0
 1609 00a2 0A80     		strh	r2, [r1]	@ movhi
 1610 00a4 C9E7     		b	.L74
 1611              	.LVL193:
 1612              	.L86:
 811:MCSDK_v6.0.0-Full/MotorControl/MCSDK/MCLib/Any/Src/sto_pll_speed_pos_fdbk.c **** 
 1613              		.loc 1 811 42 view .LVU647
 1614 00a6 0F31     		adds	r1, r1, #15
 1615 00a8 CFE7     		b	.L75
 1616              	.LVL194:
 1617              	.L87:
 814:MCSDK_v6.0.0-Full/MotorControl/MCSDK/MCLib/Any/Src/sto_pll_speed_pos_fdbk.c **** 
 1618              		.loc 1 814 42 view .LVU648
 1619 00aa 0F32     		adds	r2, r2, #15
 1620 00ac D5E7     		b	.L76
 1621              	.LVL195:
 1622              	.L80:
 840:MCSDK_v6.0.0-Full/MotorControl/MCSDK/MCLib/Any/Src/sto_pll_speed_pos_fdbk.c ****               }
 1623              		.loc 1 840 17 is_stmt 1 view .LVU649
ARM GAS  /tmp/ccl72mIK.s 			page 55


 840:MCSDK_v6.0.0-Full/MotorControl/MCSDK/MCLib/Any/Src/sto_pll_speed_pos_fdbk.c ****               }
 1624              		.loc 1 840 45 is_stmt 0 view .LVU650
 1625 00ae 0022     		movs	r2, #0
 1626              	.LVL196:
 840:MCSDK_v6.0.0-Full/MotorControl/MCSDK/MCLib/Any/Src/sto_pll_speed_pos_fdbk.c ****               }
 1627              		.loc 1 840 45 view .LVU651
 1628 00b0 83F8F620 		strb	r2, [r3, #246]
 1629 00b4 0BE0     		b	.L72
 1630              	.LVL197:
 1631              	.L79:
 845:MCSDK_v6.0.0-Full/MotorControl/MCSDK/MCLib/Any/Src/sto_pll_speed_pos_fdbk.c ****             }
 1632              		.loc 1 845 15 is_stmt 1 view .LVU652
 845:MCSDK_v6.0.0-Full/MotorControl/MCSDK/MCLib/Any/Src/sto_pll_speed_pos_fdbk.c ****             }
 1633              		.loc 1 845 43 is_stmt 0 view .LVU653
 1634 00b6 0022     		movs	r2, #0
 1635              	.LVL198:
 845:MCSDK_v6.0.0-Full/MotorControl/MCSDK/MCLib/Any/Src/sto_pll_speed_pos_fdbk.c ****             }
 1636              		.loc 1 845 43 view .LVU654
 1637 00b8 83F8F620 		strb	r2, [r3, #246]
 1638 00bc 07E0     		b	.L72
 1639              	.LVL199:
 1640              	.L78:
 850:MCSDK_v6.0.0-Full/MotorControl/MCSDK/MCLib/Any/Src/sto_pll_speed_pos_fdbk.c ****           }
 1641              		.loc 1 850 13 is_stmt 1 view .LVU655
 850:MCSDK_v6.0.0-Full/MotorControl/MCSDK/MCLib/Any/Src/sto_pll_speed_pos_fdbk.c ****           }
 1642              		.loc 1 850 41 is_stmt 0 view .LVU656
 1643 00be 0022     		movs	r2, #0
 1644              	.LVL200:
 850:MCSDK_v6.0.0-Full/MotorControl/MCSDK/MCLib/Any/Src/sto_pll_speed_pos_fdbk.c ****           }
 1645              		.loc 1 850 41 view .LVU657
 1646 00c0 83F8F620 		strb	r2, [r3, #246]
 1647 00c4 03E0     		b	.L72
 1648              	.LVL201:
 1649              	.L77:
 855:MCSDK_v6.0.0-Full/MotorControl/MCSDK/MCLib/Any/Src/sto_pll_speed_pos_fdbk.c ****         }
 1650              		.loc 1 855 11 is_stmt 1 view .LVU658
 855:MCSDK_v6.0.0-Full/MotorControl/MCSDK/MCLib/Any/Src/sto_pll_speed_pos_fdbk.c ****         }
 1651              		.loc 1 855 39 is_stmt 0 view .LVU659
 1652 00c6 0022     		movs	r2, #0
 1653              	.LVL202:
 855:MCSDK_v6.0.0-Full/MotorControl/MCSDK/MCLib/Any/Src/sto_pll_speed_pos_fdbk.c ****         }
 1654              		.loc 1 855 39 view .LVU660
 1655 00c8 83F8F620 		strb	r2, [r3, #246]
 767:MCSDK_v6.0.0-Full/MotorControl/MCSDK/MCLib/Any/Src/sto_pll_speed_pos_fdbk.c **** #ifdef NULL_PTR_STO_PLL_SPD_POS_FDB
 1656              		.loc 1 767 8 view .LVU661
 1657 00cc 2846     		mov	r0, r5
 1658              	.LVL203:
 1659              	.L72:
 862:MCSDK_v6.0.0-Full/MotorControl/MCSDK/MCLib/Any/Src/sto_pll_speed_pos_fdbk.c **** }
 1660              		.loc 1 862 3 is_stmt 1 view .LVU662
 1661              		.loc 1 863 1 is_stmt 0 view .LVU663
 1662 00ce F0BC     		pop	{r4, r5, r6, r7}
 1663              		.cfi_restore 7
 1664              		.cfi_restore 6
 1665              		.cfi_restore 5
 1666              		.cfi_restore 4
 1667              		.cfi_def_cfa_offset 0
ARM GAS  /tmp/ccl72mIK.s 			page 56


 1668              	.LVL204:
 1669              		.loc 1 863 1 view .LVU664
 1670 00d0 7047     		bx	lr
 1671              		.cfi_endproc
 1672              	.LFE1446:
 1674              		.section	.text.STO_PLL_GetEstimatedBemf,"ax",%progbits
 1675              		.align	1
 1676              		.weak	STO_PLL_GetEstimatedBemf
 1677              		.syntax unified
 1678              		.thumb
 1679              		.thumb_func
 1680              		.fpu fpv4-sp-d16
 1682              	STO_PLL_GetEstimatedBemf:
 1683              	.LVL205:
 1684              	.LFB1447:
 864:MCSDK_v6.0.0-Full/MotorControl/MCSDK/MCLib/Any/Src/sto_pll_speed_pos_fdbk.c **** 
 865:MCSDK_v6.0.0-Full/MotorControl/MCSDK/MCLib/Any/Src/sto_pll_speed_pos_fdbk.c **** /**
 866:MCSDK_v6.0.0-Full/MotorControl/MCSDK/MCLib/Any/Src/sto_pll_speed_pos_fdbk.c ****   * @brief  It exports estimated Bemf alpha-beta in alphabeta_t format
 867:MCSDK_v6.0.0-Full/MotorControl/MCSDK/MCLib/Any/Src/sto_pll_speed_pos_fdbk.c ****   * @param  pHandle: handler of the current instance of the STO component
 868:MCSDK_v6.0.0-Full/MotorControl/MCSDK/MCLib/Any/Src/sto_pll_speed_pos_fdbk.c ****   * @retval alphabeta_t Bemf alpha-beta
 869:MCSDK_v6.0.0-Full/MotorControl/MCSDK/MCLib/Any/Src/sto_pll_speed_pos_fdbk.c ****   */
 870:MCSDK_v6.0.0-Full/MotorControl/MCSDK/MCLib/Any/Src/sto_pll_speed_pos_fdbk.c **** __weak alphabeta_t STO_PLL_GetEstimatedBemf(STO_PLL_Handle_t *pHandle)
 871:MCSDK_v6.0.0-Full/MotorControl/MCSDK/MCLib/Any/Src/sto_pll_speed_pos_fdbk.c **** {
 1685              		.loc 1 871 1 is_stmt 1 view -0
 1686              		.cfi_startproc
 1687              		@ args = 0, pretend = 0, frame = 8
 1688              		@ frame_needed = 0, uses_anonymous_args = 0
 1689              		@ link register save eliminated.
 1690              		.loc 1 871 1 is_stmt 0 view .LVU666
 1691 0000 82B0     		sub	sp, sp, #8
 1692              		.cfi_def_cfa_offset 8
 872:MCSDK_v6.0.0-Full/MotorControl/MCSDK/MCLib/Any/Src/sto_pll_speed_pos_fdbk.c ****   alphabeta_t vaux;
 1693              		.loc 1 872 3 is_stmt 1 view .LVU667
 873:MCSDK_v6.0.0-Full/MotorControl/MCSDK/MCLib/Any/Src/sto_pll_speed_pos_fdbk.c **** #ifdef NULL_PTR_STO_PLL_SPD_POS_FDB
 874:MCSDK_v6.0.0-Full/MotorControl/MCSDK/MCLib/Any/Src/sto_pll_speed_pos_fdbk.c ****   if (MC_NULL == pHandle)
 875:MCSDK_v6.0.0-Full/MotorControl/MCSDK/MCLib/Any/Src/sto_pll_speed_pos_fdbk.c ****   {
 876:MCSDK_v6.0.0-Full/MotorControl/MCSDK/MCLib/Any/Src/sto_pll_speed_pos_fdbk.c ****     vaux.alpha = 0;
 877:MCSDK_v6.0.0-Full/MotorControl/MCSDK/MCLib/Any/Src/sto_pll_speed_pos_fdbk.c ****     vaux.beta = 0;
 878:MCSDK_v6.0.0-Full/MotorControl/MCSDK/MCLib/Any/Src/sto_pll_speed_pos_fdbk.c ****   }
 879:MCSDK_v6.0.0-Full/MotorControl/MCSDK/MCLib/Any/Src/sto_pll_speed_pos_fdbk.c ****   else
 880:MCSDK_v6.0.0-Full/MotorControl/MCSDK/MCLib/Any/Src/sto_pll_speed_pos_fdbk.c ****   {
 881:MCSDK_v6.0.0-Full/MotorControl/MCSDK/MCLib/Any/Src/sto_pll_speed_pos_fdbk.c **** #endif
 882:MCSDK_v6.0.0-Full/MotorControl/MCSDK/MCLib/Any/Src/sto_pll_speed_pos_fdbk.c ****     vaux.alpha = pHandle->hBemf_alfa_est;
 1694              		.loc 1 882 5 view .LVU668
 1695              		.loc 1 882 25 is_stmt 0 view .LVU669
 1696 0002 B0F97030 		ldrsh	r3, [r0, #112]
 1697              		.loc 1 882 16 view .LVU670
 1698 0006 ADF80030 		strh	r3, [sp]	@ movhi
 883:MCSDK_v6.0.0-Full/MotorControl/MCSDK/MCLib/Any/Src/sto_pll_speed_pos_fdbk.c ****     vaux.beta = pHandle->hBemf_beta_est;
 1699              		.loc 1 883 5 is_stmt 1 view .LVU671
 1700              		.loc 1 883 24 is_stmt 0 view .LVU672
 1701 000a B0F97230 		ldrsh	r3, [r0, #114]
 1702              		.loc 1 883 15 view .LVU673
 1703 000e ADF80230 		strh	r3, [sp, #2]	@ movhi
 884:MCSDK_v6.0.0-Full/MotorControl/MCSDK/MCLib/Any/Src/sto_pll_speed_pos_fdbk.c **** #ifdef NULL_PTR_STO_PLL_SPD_POS_FDB
 885:MCSDK_v6.0.0-Full/MotorControl/MCSDK/MCLib/Any/Src/sto_pll_speed_pos_fdbk.c ****   }
 886:MCSDK_v6.0.0-Full/MotorControl/MCSDK/MCLib/Any/Src/sto_pll_speed_pos_fdbk.c **** #endif
ARM GAS  /tmp/ccl72mIK.s 			page 57


 887:MCSDK_v6.0.0-Full/MotorControl/MCSDK/MCLib/Any/Src/sto_pll_speed_pos_fdbk.c ****   return (vaux);
 1704              		.loc 1 887 3 is_stmt 1 view .LVU674
 1705              		.loc 1 887 10 is_stmt 0 view .LVU675
 1706 0012 009B     		ldr	r3, [sp]
 1707 0014 0020     		movs	r0, #0
 1708              	.LVL206:
 1709              		.loc 1 887 10 view .LVU676
 1710 0016 9AB2     		uxth	r2, r3
 1711 0018 62F30F00 		bfi	r0, r2, #0, #16
 1712 001c 1B0C     		lsrs	r3, r3, #16
 1713 001e 63F31F40 		bfi	r0, r3, #16, #16
 888:MCSDK_v6.0.0-Full/MotorControl/MCSDK/MCLib/Any/Src/sto_pll_speed_pos_fdbk.c **** }
 1714              		.loc 1 888 1 view .LVU677
 1715 0022 02B0     		add	sp, sp, #8
 1716              		.cfi_def_cfa_offset 0
 1717              		@ sp needed
 1718 0024 7047     		bx	lr
 1719              		.cfi_endproc
 1720              	.LFE1447:
 1722              		.section	.text.STO_PLL_GetEstimatedCurrent,"ax",%progbits
 1723              		.align	1
 1724              		.weak	STO_PLL_GetEstimatedCurrent
 1725              		.syntax unified
 1726              		.thumb
 1727              		.thumb_func
 1728              		.fpu fpv4-sp-d16
 1730              	STO_PLL_GetEstimatedCurrent:
 1731              	.LVL207:
 1732              	.LFB1448:
 889:MCSDK_v6.0.0-Full/MotorControl/MCSDK/MCLib/Any/Src/sto_pll_speed_pos_fdbk.c **** 
 890:MCSDK_v6.0.0-Full/MotorControl/MCSDK/MCLib/Any/Src/sto_pll_speed_pos_fdbk.c **** 
 891:MCSDK_v6.0.0-Full/MotorControl/MCSDK/MCLib/Any/Src/sto_pll_speed_pos_fdbk.c **** /**
 892:MCSDK_v6.0.0-Full/MotorControl/MCSDK/MCLib/Any/Src/sto_pll_speed_pos_fdbk.c ****   * @brief  It exports the stator current alpha-beta as estimated by state
 893:MCSDK_v6.0.0-Full/MotorControl/MCSDK/MCLib/Any/Src/sto_pll_speed_pos_fdbk.c ****   *         observer
 894:MCSDK_v6.0.0-Full/MotorControl/MCSDK/MCLib/Any/Src/sto_pll_speed_pos_fdbk.c ****   * @param  pHandle: handler of the current instance of the STO component
 895:MCSDK_v6.0.0-Full/MotorControl/MCSDK/MCLib/Any/Src/sto_pll_speed_pos_fdbk.c ****   * @retval alphabeta_t State observer estimated stator current Ialpha-beta
 896:MCSDK_v6.0.0-Full/MotorControl/MCSDK/MCLib/Any/Src/sto_pll_speed_pos_fdbk.c ****   */
 897:MCSDK_v6.0.0-Full/MotorControl/MCSDK/MCLib/Any/Src/sto_pll_speed_pos_fdbk.c **** __weak alphabeta_t STO_PLL_GetEstimatedCurrent(STO_PLL_Handle_t *pHandle)
 898:MCSDK_v6.0.0-Full/MotorControl/MCSDK/MCLib/Any/Src/sto_pll_speed_pos_fdbk.c **** {
 1733              		.loc 1 898 1 is_stmt 1 view -0
 1734              		.cfi_startproc
 1735              		@ args = 0, pretend = 0, frame = 8
 1736              		@ frame_needed = 0, uses_anonymous_args = 0
 1737              		@ link register save eliminated.
 1738              		.loc 1 898 1 is_stmt 0 view .LVU679
 1739 0000 82B0     		sub	sp, sp, #8
 1740              		.cfi_def_cfa_offset 8
 899:MCSDK_v6.0.0-Full/MotorControl/MCSDK/MCLib/Any/Src/sto_pll_speed_pos_fdbk.c ****   alphabeta_t iaux;
 1741              		.loc 1 899 3 is_stmt 1 view .LVU680
 900:MCSDK_v6.0.0-Full/MotorControl/MCSDK/MCLib/Any/Src/sto_pll_speed_pos_fdbk.c **** #ifdef NULL_PTR_STO_PLL_SPD_POS_FDB
 901:MCSDK_v6.0.0-Full/MotorControl/MCSDK/MCLib/Any/Src/sto_pll_speed_pos_fdbk.c ****   if (MC_NULL == pHandle)
 902:MCSDK_v6.0.0-Full/MotorControl/MCSDK/MCLib/Any/Src/sto_pll_speed_pos_fdbk.c ****   {
 903:MCSDK_v6.0.0-Full/MotorControl/MCSDK/MCLib/Any/Src/sto_pll_speed_pos_fdbk.c ****     iaux.alpha = 0;
 904:MCSDK_v6.0.0-Full/MotorControl/MCSDK/MCLib/Any/Src/sto_pll_speed_pos_fdbk.c ****     iaux.beta = 0;
 905:MCSDK_v6.0.0-Full/MotorControl/MCSDK/MCLib/Any/Src/sto_pll_speed_pos_fdbk.c ****   }
 906:MCSDK_v6.0.0-Full/MotorControl/MCSDK/MCLib/Any/Src/sto_pll_speed_pos_fdbk.c ****   else
 907:MCSDK_v6.0.0-Full/MotorControl/MCSDK/MCLib/Any/Src/sto_pll_speed_pos_fdbk.c ****   {
ARM GAS  /tmp/ccl72mIK.s 			page 58


 908:MCSDK_v6.0.0-Full/MotorControl/MCSDK/MCLib/Any/Src/sto_pll_speed_pos_fdbk.c **** #endif
 909:MCSDK_v6.0.0-Full/MotorControl/MCSDK/MCLib/Any/Src/sto_pll_speed_pos_fdbk.c **** #ifndef FULL_MISRA_C_COMPLIANCY_STO_PLL
 910:MCSDK_v6.0.0-Full/MotorControl/MCSDK/MCLib/Any/Src/sto_pll_speed_pos_fdbk.c ****   //cstat !MISRAC2012-Rule-1.3_n !ATH-shift-neg !MISRAC2012-Rule-10.1_R6
 911:MCSDK_v6.0.0-Full/MotorControl/MCSDK/MCLib/Any/Src/sto_pll_speed_pos_fdbk.c ****   iaux.alpha = (int16_t)(pHandle->Ialfa_est >> pHandle->F1LOG);
 1742              		.loc 1 911 3 view .LVU681
 1743              		.loc 1 911 33 is_stmt 0 view .LVU682
 1744 0002 026E     		ldr	r2, [r0, #96]
 1745              		.loc 1 911 55 view .LVU683
 1746 0004 B0F81C11 		ldrh	r1, [r0, #284]
 1747              		.loc 1 911 45 view .LVU684
 1748 0008 0A41     		asrs	r2, r2, r1
 1749              		.loc 1 911 14 view .LVU685
 1750 000a ADF80020 		strh	r2, [sp]	@ movhi
 912:MCSDK_v6.0.0-Full/MotorControl/MCSDK/MCLib/Any/Src/sto_pll_speed_pos_fdbk.c **** #else
 913:MCSDK_v6.0.0-Full/MotorControl/MCSDK/MCLib/Any/Src/sto_pll_speed_pos_fdbk.c ****   iaux.alpha = (int16_t)(pHandle->Ialfa_est / pHandle->hF1);
 914:MCSDK_v6.0.0-Full/MotorControl/MCSDK/MCLib/Any/Src/sto_pll_speed_pos_fdbk.c **** #endif
 915:MCSDK_v6.0.0-Full/MotorControl/MCSDK/MCLib/Any/Src/sto_pll_speed_pos_fdbk.c **** 
 916:MCSDK_v6.0.0-Full/MotorControl/MCSDK/MCLib/Any/Src/sto_pll_speed_pos_fdbk.c **** #ifndef FULL_MISRA_C_COMPLIANCY_STO_PLL
 917:MCSDK_v6.0.0-Full/MotorControl/MCSDK/MCLib/Any/Src/sto_pll_speed_pos_fdbk.c ****   //cstat !MISRAC2012-Rule-1.3_n !ATH-shift-neg !MISRAC2012-Rule-10.1_R6
 918:MCSDK_v6.0.0-Full/MotorControl/MCSDK/MCLib/Any/Src/sto_pll_speed_pos_fdbk.c ****   iaux.beta = (int16_t)(pHandle->Ibeta_est >> pHandle->F1LOG);
 1751              		.loc 1 918 3 is_stmt 1 view .LVU686
 1752              		.loc 1 918 32 is_stmt 0 view .LVU687
 1753 000e 436E     		ldr	r3, [r0, #100]
